(dp1
S'kilometre'
p2
(lp3
S'1376'
p4
aS'n'
asS'key'
p5
(lp6
S'7679'
p7
aS'a'
a(lp8
S'6922'
p9
aS'n'
aasS'knot'
p10
(lp11
S'1235'
p12
aS'n'
asS'known'
p13
(lp14
S'2744'
p15
aS'a'
asS'kill'
p16
(lp17
S'15620'
p18
aS'v'
asS'keyboard'
p19
(lp20
S'1145'
p21
aS'n'
asS'kidney'
p22
(lp23
S'819'
p24
aS'n'
asS'kite'
p25
(lp26
S'889'
p27
aS'n'
asS'knowledge'
p28
(lp29
S'14609'
p30
aS'n'
asS'kettle'
p31
(lp32
S'922'
p33
aS'n'
asS'kid'
p34
(lp35
S'5860'
p36
aS'n'
asS'kick'
p37
(lp38
S'1657'
p39
aS'n'
a(lp40
S'3539'
p41
aS'v'
aasS'knife'
p42
(lp43
S'3350'
p44
aS'n'
asS'kingdom'
p45
(lp46
S'3781'
p47
aS'n'
asS'knitting'
p48
(lp49
S'1003'
p50
aS'n'
asS'knock'
p51
(lp52
S'834'
p53
aS'n'
a(lp54
S'4481'
p55
aS'v'
aasS'killer'
p56
(lp57
S'1754'
p58
aS'n'
asS'killing'
p59
(lp60
S'1441'
p61
aS'n'
asS'know'
p62
(lp63
S'185534'
p64
aS'v'
asS'kiss'
p65
(lp66
S'1861'
p67
aS'n'
a(lp68
S'3633'
p69
aS'v'
aasS'keeper'
p70
(lp71
S'1558'
p72
aS'n'
asS'knee'
p73
(lp74
S'4621'
p75
aS'n'
asS'kit'
p76
(lp77
S'1829'
p78
aS'n'
asS'knit'
p79
(lp80
S'2226'
p81
aS'v'
asS'kitchen'
p82
(lp83
S'8866'
p84
aS'n'
asS'king'
p85
(lp86
S'11045'
p87
aS'n'
asS'kind'
p88
(lp89
S'1152'
p90
aS'a'
a(lp91
S'27485'
p92
aS'n'
aasS'kindly'
p93
(lp94
S'920'
p95
aS'adv'
p96
asS'knight'
p97
(lp98
S'1295'
p99
aS'n'
asS'keep'
p100
(lp101
S'50092'
p102
aS'v'
asS'keen'
p103
(lp104
S'3920'
p105
aS'a'
asS'kneel'
p106
(lp107
S'1007'
p108
aS'v'
as.