(dp1
S'Kena'
p2
(lp3
S'0.002'
p4
asS'Kayleigh'
p5
(lp6
S'0.002'
p7
asS'Kris'
p8
(lp9
S'0.011'
p10
asS'Kenyetta'
p11
(lp12
S'0.002'
p13
asS'Karla'
p14
(lp15
S'0.044'
p16
asS'Kathaleen'
p17
(lp18
S'0.002'
p19
asS'Krysten'
p20
(lp21
S'0.001'
p22
asS'Karly'
p23
(lp24
S'0.001'
p25
asS'Kanisha'
p26
(lp27
S'0.001'
p28
asS'Krystyna'
p29
(lp30
S'0.003'
p31
asS'Kacey'
p32
(lp33
S'0.003'
p34
asS'Kiyoko'
p35
(lp36
S'0.001'
p37
asS'Kendal'
p38
(lp39
S'0.001'
p40
asS'Kathy'
p41
(lp42
S'0.272'
p43
asS'Kerrie'
p44
(lp45
S'0.006'
p46
asS'Keshia'
p47
(lp48
S'0.005'
p49
asS'Kandi'
p50
(lp51
S'0.003'
p52
asS'Kizzy'
p53
(lp54
S'0.003'
p55
asS'Kami'
p56
(lp57
S'0.004'
p58
asS'Kelsey'
p59
(lp60
S'0.024'
p61
asS'Kathi'
p62
(lp63
S'0.008'
p64
asS'Kimi'
p65
(lp66
S'0.001'
p67
asS'Kenyatta'
p68
(lp69
S'0.003'
p70
asS'Kandy'
p71
(lp72
S'0.003'
p73
asS'Kathrine'
p74
(lp75
S'0.011'
p76
asS'Kandice'
p77
(lp78
S'0.003'
p79
asS'Kamala'
p80
(lp81
S'0.001'
p82
asS'Karon'
p83
(lp84
S'0.005'
p85
asS'Krishna'
p86
(lp87
S'0.001'
p88
asS'Karol'
p89
(lp90
S'0.005'
p91
asS'Keith'
p92
(lp93
S'0.001'
p94
asS'Kaleigh'
p95
(lp96
S'0.001'
p97
asS'Katy'
p98
(lp99
S'0.012'
p100
asS'Kaitlyn'
p101
(lp102
S'0.008'
p103
asS'Kyla'
p104
(lp105
S'0.005'
p106
asS'Kyle'
p107
(lp108
S'0.004'
p109
asS'Kattie'
p110
(lp111
S'0.002'
p112
asS'Kaitlin'
p113
(lp114
S'0.009'
p115
asS'Karine'
p116
(lp117
S'0.002'
p118
asS'Keena'
p119
(lp120
S'0.002'
p121
asS'Kia'
p122
(lp123
S'0.005'
p124
asS'Karina'
p125
(lp126
S'0.013'
p127
asS'Kristeen'
p128
(lp129
S'0.001'
p130
asS'Kala'
p131
(lp132
S'0.004'
p133
asS'Kathern'
p134
(lp135
S'0.002'
p136
asS'Kenneth'
p137
(lp138
S'0.002'
p139
asS'Kym'
p140
(lp141
S'0.002'
p142
asS'Kali'
p143
(lp144
S'0.002'
p145
asS'Karissa'
p146
(lp147
S'0.004'
p148
asS'Kylie'
p149
(lp150
S'0.006'
p151
asS'Kathryn'
p152
(lp153
S'0.234'
p154
asS'Kati'
p155
(lp156
S'0.002'
p157
asS'Katrina'
p158
(lp159
S'0.061'
p160
asS'Keesha'
p161
(lp162
S'0.002'
p163
asS'Kenya'
p164
(lp165
S'0.011'
p166
asS'Kenna'
p167
(lp168
S'0.003'
p169
asS'Kate'
p170
(lp171
S'0.029'
p172
asS'Kevin'
p173
(lp174
S'0.002'
p175
asS'Keturah'
p176
(lp177
S'0.001'
p178
asS'Kindra'
p179
(lp180
S'0.002'
p181
asS'Karisa'
p182
(lp183
S'0.001'
p184
asS'Karlyn'
p185
(lp186
S'0.001'
p187
asS'Kathlyn'
p188
(lp189
S'0.003'
p190
asS'Kathey'
p191
(lp192
S'0.002'
p193
asS'Kristian'
p194
(lp195
S'0.003'
p196
asS'Kaylene'
p197
(lp198
S'0.002'
p199
asS'Kelle'
p200
(lp201
S'0.002'
p202
asS'Krystina'
p203
(lp204
S'0.001'
p205
asS'Krysta'
p206
(lp207
S'0.002'
p208
asS'Kasie'
p209
(lp210
S'0.002'
p211
asS'Krystle'
p212
(lp213
S'0.007'
p214
asS'Keiko'
p215
(lp216
S'0.003'
p217
asS'Kristal'
p218
(lp219
S'0.006'
p220
asS'Kristan'
p221
(lp222
S'0.003'
p223
asS'Kayla'
p224
(lp225
S'0.051'
p226
asS'Kimbery'
p227
(lp228
S'0.002'
p229
asS'Kristin'
p230
(lp231
S'0.099'
p232
asS'Kellye'
p233
(lp234
S'0.002'
p235
asS'Kimberely'
p236
(lp237
S'0.003'
p238
asS'Kimberlie'
p239
(lp240
S'0.002'
p241
asS'Kristie'
p242
(lp243
S'0.027'
p244
asS'Keely'
p245
(lp246
S'0.004'
p247
asS'Katrice'
p248
(lp249
S'0.002'
p250
asS'Kirsten'
p251
(lp252
S'0.018'
p253
asS'Kathyrn'
p254
(lp255
S'0.003'
p256
asS'Katerine'
p257
(lp258
S'0.001'
p259
asS'Karri'
p260
(lp261
S'0.003'
p262
asS'Karena'
p263
(lp264
S'0.001'
p265
asS'Kristyn'
p266
(lp267
S'0.003'
p268
asS'Kellie'
p269
(lp270
S'0.029'
p271
asS'Kerstin'
p272
(lp273
S'0.001'
p274
asS'Kina'
p275
(lp276
S'0.001'
p277
asS'Keva'
p278
(lp279
S'0.001'
p280
asS'Kandra'
p281
(lp282
S'0.001'
p283
asS'Karry'
p284
(lp285
S'0.001'
p286
asS'Krissy'
p287
(lp288
S'0.001'
p289
asS'Karma'
p290
(lp291
S'0.002'
p292
asS'Kalyn'
p293
(lp294
S'0.001'
p295
asS'Kendall'
p296
(lp297
S'0.004'
p298
asS'Kanesha'
p299
(lp300
S'0.001'
p301
asS'Kenda'
p302
(lp303
S'0.001'
p304
asS'Karey'
p305
(lp306
S'0.002'
p307
asS'Kassandra'
p308
(lp309
S'0.004'
p310
asS'Keila'
p311
(lp312
S'0.001'
p313
asS'Kirby'
p314
(lp315
S'0.002'
p316
asS'Karen'
p317
(lp318
S'0.667'
p319
asS'Kyong'
p320
(lp321
S'0.004'
p322
asS'Kemberly'
p323
(lp324
S'0.001'
p325
asS'Kayleen'
p326
(lp327
S'0.002'
p328
asS'Kaycee'
p329
(lp330
S'0.001'
p331
asS'Katia'
p332
(lp333
S'0.002'
p334
asS'Katie'
p335
(lp336
S'0.113'
p337
asS'Kiana'
p338
(lp339
S'0.002'
p340
asS'Klara'
p341
(lp342
S'0.001'
p343
asS'Kristy'
p344
(lp345
S'0.048'
p346
asS'Kaye'
p347
(lp348
S'0.011'
p349
asS'Kiley'
p350
(lp351
S'0.002'
p352
asS'Keitha'
p353
(lp354
S'0.001'
p355
asS'Karlene'
p356
(lp357
S'0.003'
p358
asS'Krista'
p359
(lp360
S'0.04'
p361
asS'Keisha'
p362
(lp363
S'0.019'
p364
asS'Karmen'
p365
(lp366
S'0.002'
p367
asS'Kelsi'
p368
(lp369
S'0.001'
p370
asS'Karima'
p371
(lp372
S'0.001'
p373
asS'Kristi'
p374
(lp375
S'0.055'
p376
asS'Krystal'
p377
(lp378
S'0.037'
p379
asS'Kira'
p380
(lp381
S'0.006'
p382
asS'Katelin'
p383
(lp384
S'0.001'
p385
asS'Kaley'
p386
(lp387
S'0.002'
p388
asS'Kacie'
p389
(lp390
S'0.003'
p391
asS'Katherina'
p392
(lp393
S'0.001'
p394
asS'Kittie'
p395
(lp396
S'0.001'
p397
asS'Karoline'
p398
(lp399
S'0.001'
p400
asS'Kerry'
p401
(lp402
S'0.031'
p403
asS'Kori'
p404
(lp405
S'0.004'
p406
asS'Kiera'
p407
(lp408
S'0.002'
p409
asS'Kitty'
p410
(lp411
S'0.008'
p412
asS'Katelyn'
p413
(lp414
S'0.01'
p415
asS'Kristel'
p416
(lp417
S'0.002'
p418
asS'Kyoko'
p419
(lp420
S'0.001'
p421
asS'Kecia'
p422
(lp423
S'0.003'
p424
asS'Keira'
p425
(lp426
S'0.001'
p427
asS'Katherine'
p428
(lp429
S'0.313'
p430
asS'Keren'
p431
(lp432
S'0.001'
p433
asS'Kasha'
p434
(lp435
S'0.001'
p436
asS'Katharine'
p437
(lp438
S'0.017'
p439
asS'Kerri'
p440
(lp441
S'0.024'
p442
asS'Kera'
p443
(lp444
S'0.001'
p445
asS'Katharina'
p446
(lp447
S'0.002'
p448
asS'Karleen'
p449
(lp450
S'0.002'
p451
asS'Kimber'
p452
(lp453
S'0.002'
p454
asS'Kazuko'
p455
(lp456
S'0.002'
p457
asS'Kathryne'
p458
(lp459
S'0.003'
p460
asS'Kiesha'
p461
(lp462
S'0.002'
p463
asS'Kourtney'
p464
(lp465
S'0.002'
p466
asS'Kelsie'
p467
(lp468
S'0.003'
p469
asS'Kamilah'
p470
(lp471
S'0.001'
p472
asS'Kandis'
p473
(lp474
S'0.001'
p475
asS'Kisha'
p476
(lp477
S'0.006'
p478
asS'Kathline'
p479
(lp480
S'0.001'
p481
asS'Katharyn'
p482
(lp483
S'0.001'
p484
asS'Khalilah'
p485
(lp486
S'0.001'
p487
asS'Kassie'
p488
(lp489
S'0.002'
p490
asS'Kathe'
p491
(lp492
S'0.002'
p493
asS'Kum'
p494
(lp495
S'0.003'
p496
asS'Kenisha'
p497
(lp498
S'0.002'
p499
asS'Kristine'
p500
(lp501
S'0.051'
p502
asS'Kimiko'
p503
(lp504
S'0.002'
p505
asS'Katina'
p506
(lp507
S'0.009'
p508
asS'Kristina'
p509
(lp510
S'0.065'
p511
asS'Kymberly'
p512
(lp513
S'0.002'
p514
asS'Kayce'
p515
(lp516
S'0.001'
p517
asS'Kylee'
p518
(lp519
S'0.003'
p520
asS'Kristle'
p521
(lp522
S'0.001'
p523
asS'Kortney'
p524
(lp525
S'0.001'
p526
asS'Kathrin'
p527
(lp528
S'0.001'
p529
asS'Kimberli'
p530
(lp531
S'0.002'
p532
asS'Kandace'
p533
(lp534
S'0.003'
p535
asS'Kathleen'
p536
(lp537
S'0.424'
p538
asS'Kenia'
p539
(lp540
S'0.001'
p541
asS'Kyra'
p542
(lp543
S'0.004'
p544
asS'Keli'
p545
(lp546
S'0.003'
p547
asS'Kimberly'
p548
(lp549
S'0.504'
p550
asS'Kizzie'
p551
(lp552
S'0.001'
p553
asS'Katelynn'
p554
(lp555
S'0.001'
p556
asS'Kasandra'
p557
(lp558
S'0.003'
p559
asS'Kesha'
p560
(lp561
S'0.005'
p562
asS'Ka'
p563
(lp564
S'0.001'
p565
asS'Keeley'
p566
(lp567
S'0.001'
p568
asS'Kaila'
p569
(lp570
S'0.001'
p571
asS'Kimberlee'
p572
(lp573
S'0.008'
p574
asS'Khadijah'
p575
(lp576
S'0.001'
p577
asS'Kimbra'
p578
(lp579
S'0.001'
p580
asS'Kareen'
p581
(lp582
S'0.001'
p583
asS'Kai'
p584
(lp585
S'0.001'
p586
asS'Karolyn'
p587
(lp588
S'0.004'
p589
asS'Kam'
p590
(lp591
S'0.002'
p592
asS'Kit'
p593
(lp594
S'0.001'
p595
asS'Katheryn'
p596
(lp597
S'0.009'
p598
asS'Kasey'
p599
(lp600
S'0.011'
p601
asS'Karren'
p602
(lp603
S'0.002'
p604
asS'Kasi'
p605
(lp606
S'0.001'
p607
asS'Kim'
p608
(lp609
S'0.178'
p610
asS'Kay'
p611
(lp612
S'0.071'
p613
asS'Kendra'
p614
(lp615
S'0.038'
p616
asS'Kathie'
p617
(lp618
S'0.011'
p619
asS'Kimberley'
p620
(lp621
S'0.021'
p622
asS'Katherin'
p623
(lp624
S'0.002'
p625
asS'Kaylee'
p626
(lp627
S'0.003'
p628
asS'Kaci'
p629
(lp630
S'0.003'
p631
asS'Karole'
p632
(lp633
S'0.001'
p634
asS'Kelli'
p635
(lp636
S'0.046'
p637
asS'Kiersten'
p638
(lp639
S'0.001'
p640
asS'Karan'
p641
(lp642
S'0.003'
p643
asS'Kirstie'
p644
(lp645
S'0.001'
p646
asS'Katlyn'
p647
(lp648
S'0.002'
p649
asS'Kacy'
p650
(lp651
S'0.002'
p652
asS'Karin'
p653
(lp654
S'0.024'
p655
asS'Keri'
p656
(lp657
S'0.018'
p658
asS'Kelly'
p659
(lp660
S'0.283'
p661
asS'Kirstin'
p662
(lp663
S'0.003'
p664
asS'Karie'
p665
(lp666
S'0.003'
p667
asS'Kristen'
p668
(lp669
S'0.111'
p670
asS'Kellee'
p671
(lp672
S'0.002'
p673
asS'Kallie'
p674
(lp675
S'0.001'
p676
asS'Krystin'
p677
(lp678
S'0.001'
p679
asS'Karyl'
p680
(lp681
S'0.002'
p682
asS'Karyn'
p683
(lp684
S'0.009'
p685
asS'Kary'
p686
(lp687
S'0.001'
p688
asS'Karrie'
p689
(lp690
S'0.007'
p691
asS'Kiara'
p692
(lp693
S'0.003'
p694
asS'Katheleen'
p695
(lp696
S'0.001'
p697
asS'Kara'
p698
(lp699
S'0.041'
p700
asS'Karl'
p701
(lp702
S'0.002'
p703
asS'Kyung'
p704
(lp705
S'0.004'
p706
asS'Kari'
p707
(lp708
S'0.036'
p709
asS'Kelley'
p710
(lp711
S'0.031'
p712
asS'Kathlene'
p713
(lp714
S'0.003'
p715
as.