(dp1
S'Nakesha'
p2
(lp3
S'0.001'
p4
asS'Nicky'
p5
(lp6
S'0.002'
p7
asS'Natosha'
p8
(lp9
S'0.002'
p10
asS'Nana'
p11
(lp12
S'0.002'
p13
asS'Nikki'
p14
(lp15
S'0.024'
p16
asS'Nita'
p17
(lp18
S'0.012'
p19
asS'Nicki'
p20
(lp21
S'0.005'
p22
asS'Noemi'
p23
(lp24
S'0.012'
p25
asS'Nadia'
p26
(lp27
S'0.011'
p28
asS'Nga'
p29
(lp30
S'0.002'
p31
asS'Nida'
p32
(lp33
S'0.001'
p34
asS'Nichole'
p35
(lp36
S'0.038'
p37
asS'Nena'
p38
(lp39
S'0.004'
p40
asS'Norah'
p41
(lp42
S'0.002'
p43
asS'Natasha'
p44
(lp45
S'0.057'
p46
asS'Nakia'
p47
(lp48
S'0.005'
p49
asS'Nila'
p50
(lp51
S'0.004'
p52
asS'Noriko'
p53
(lp54
S'0.001'
p55
asS'Neoma'
p56
(lp57
S'0.002'
p58
asS'Nancie'
p59
(lp60
S'0.002'
p61
asS'Norene'
p62
(lp63
S'0.003'
p64
asS'Nikita'
p65
(lp66
S'0.005'
p67
asS'Neomi'
p68
(lp69
S'0.001'
p70
asS'Neta'
p71
(lp72
S'0.002'
p73
asS'Nilsa'
p74
(lp75
S'0.003'
p76
asS'Nickole'
p77
(lp78
S'0.002'
p79
asS'Ngoc'
p80
(lp81
S'0.002'
p82
asS'Noma'
p83
(lp84
S'0.002'
p85
asS'Nikia'
p86
(lp87
S'0.002'
p88
asS'Necole'
p89
(lp90
S'0.001'
p91
asS'Nova'
p92
(lp93
S'0.004'
p94
asS'Nellie'
p95
(lp96
S'0.089'
p97
asS'Nidia'
p98
(lp99
S'0.003'
p100
asS'Noel'
p101
(lp102
S'0.006'
p103
asS'Natisha'
p104
(lp105
S'0.001'
p106
asS'Nicol'
p107
(lp108
S'0.002'
p109
asS'Nydia'
p110
(lp111
S'0.004'
p112
asS'Nettie'
p113
(lp114
S'0.027'
p115
asS'Neely'
p116
(lp117
S'0.001'
p118
asS'Nella'
p119
(lp120
S'0.003'
p121
asS'Nguyet'
p122
(lp123
S'0.001'
p124
asS'Nelle'
p125
(lp126
S'0.003'
p127
asS'Nelly'
p128
(lp129
S'0.008'
p130
asS'Nisha'
p131
(lp132
S'0.001'
p133
asS'Noelia'
p134
(lp135
S'0.003'
p136
asS'Nicolasa'
p137
(lp138
S'0.003'
p139
asS'Nona'
p140
(lp141
S'0.011'
p142
asS'Nina'
p143
(lp144
S'0.072'
p145
asS'Noreen'
p146
(lp147
S'0.013'
p148
asS'Nichelle'
p149
(lp150
S'0.003'
p151
asS'Nerissa'
p152
(lp153
S'0.002'
p154
asS'Nelda'
p155
(lp156
S'0.014'
p157
asS'Naoma'
p158
(lp159
S'0.002'
p160
asS'Nanette'
p161
(lp162
S'0.011'
p163
asS'Neva'
p164
(lp165
S'0.013'
p166
asS'Naomi'
p167
(lp168
S'0.071'
p169
asS'Nannette'
p170
(lp171
S'0.004'
p172
asS'Nancy'
p173
(lp174
S'0.669'
p175
asS'Nikole'
p176
(lp177
S'0.002'
p178
asS'Na'
p179
(lp180
S'0.001'
p181
asS'Niki'
p182
(lp183
S'0.005'
p184
asS'Nicolette'
p185
(lp186
S'0.003'
p187
asS'Nelia'
p188
(lp189
S'0.002'
p190
asS'Natacha'
p191
(lp192
S'0.001'
p193
asS'Nu'
p194
(lp195
S'0.001'
p196
asS'Norman'
p197
(lp198
S'0.002'
p199
asS'Neida'
p200
(lp201
S'0.001'
p202
asS'Norma'
p203
(lp204
S'0.218'
p205
asS'Nichol'
p206
(lp207
S'0.003'
p208
asS'Nadine'
p209
(lp210
S'0.036'
p211
asS'Niesha'
p212
(lp213
S'0.001'
p214
asS'Nola'
p215
(lp216
S'0.014'
p217
asS'Nancee'
p218
(lp219
S'0.001'
p220
asS'Nancey'
p221
(lp222
S'0.001'
p223
asS'Nadene'
p224
(lp225
S'0.001'
p226
asS'Nakita'
p227
(lp228
S'0.002'
p229
asS'Nakisha'
p230
(lp231
S'0.003'
p232
asS'Nenita'
p233
(lp234
S'0.001'
p235
asS'Novella'
p236
(lp237
S'0.004'
p238
asS'Ninfa'
p239
(lp240
S'0.003'
p241
asS'Nobuko'
p242
(lp243
S'0.001'
p244
asS'Nedra'
p245
(lp246
S'0.005'
p247
asS'Numbers'
p248
(lp249
S'0.003'
p250
asS'Nohemi'
p251
(lp252
S'0.001'
p253
asS'Nicola'
p254
(lp255
S'0.004'
p256
asS'Nevada'
p257
(lp258
S'0.001'
p259
asS'Nicole'
p260
(lp261
S'0.281'
p262
asS'Nannie'
p263
(lp264
S'0.013'
p265
asS'Nan'
p266
(lp267
S'0.008'
p268
asS'Nam'
p269
(lp270
S'0.001'
p271
asS'Naida'
p272
(lp273
S'0.001'
p274
asS'Nora'
p275
(lp276
S'0.073'
p277
asS'Nubia'
p278
(lp279
S'0.001'
p280
asS'Natashia'
p281
(lp282
S'0.001'
p283
asS'Nyla'
p284
(lp285
S'0.002'
p286
asS'Natividad'
p287
(lp288
S'0.004'
p289
asS'Nickie'
p290
(lp291
S'0.002'
p292
asS'Nicolle'
p293
(lp294
S'0.002'
p295
asS'Nelida'
p296
(lp297
S'0.003'
p298
asS'Nada'
p299
(lp300
S'0.003'
p301
asS'Nell'
p302
(lp303
S'0.021'
p304
asS'Nieves'
p305
(lp306
S'0.002'
p307
asS'Nia'
p308
(lp309
S'0.003'
p310
asS'Narcisa'
p311
(lp312
S'0.002'
p313
asS'Natalya'
p314
(lp315
S'0.001'
p316
asS'Neda'
p317
(lp318
S'0.001'
p319
asS'Natalie'
p320
(lp321
S'0.098'
p322
asS'Nilda'
p323
(lp324
S'0.007'
p325
asS'Nanci'
p326
(lp327
S'0.004'
p328
asS'Natalia'
p329
(lp330
S'0.01'
p331
asS'Nereida'
p332
(lp333
S'0.005'
p334
asS'Nathalie'
p335
(lp336
S'0.005'
p337
asS'Nery'
p338
(lp339
S'0.001'
p340
asS'Noella'
p341
(lp342
S'0.002'
p343
asS'Noelle'
p344
(lp345
S'0.008'
p346
asS'Ngan'
p347
(lp348
S'0.001'
p349
asS'Nicholle'
p350
(lp351
S'0.001'
p352
asS'Norine'
p353
(lp354
S'0.003'
p355
as.