(dp1
S'Zona'
p2
(lp3
S'0.003'
p4
asS'Zoe'
p5
(lp6
S'0.006'
p7
asS'Zola'
p8
(lp9
S'0.004'
p10
asS'Zana'
p11
(lp12
S'0.001'
p13
asS'Zoraida'
p14
(lp15
S'0.004'
p16
asS'Zofia'
p17
(lp18
S'0.002'
p19
asS'Zandra'
p20
(lp21
S'0.003'
p22
asS'Zada'
p23
(lp24
S'0.001'
p25
asS'Zita'
p26
(lp27
S'0.002'
p28
asS'Zoila'
p29
(lp30
S'0.006'
p31
asS'Zula'
p32
(lp33
S'0.003'
p34
asS'Zaida'
p35
(lp36
S'0.003'
p37
asS'Zenia'
p38
(lp39
S'0.001'
p40
asS'Zenobia'
p41
(lp42
S'0.003'
p43
asS'Zulma'
p44
(lp45
S'0.003'
p46
asS'Zonia'
p47
(lp48
S'0.001'
p49
asS'Zelda'
p50
(lp51
S'0.008'
p52
asS'Zulema'
p53
(lp54
S'0.002'
p55
asS'Zelma'
p56
(lp57
S'0.013'
p58
asS'Zenaida'
p59
(lp60
S'0.006'
p61
asS'Zella'
p62
(lp63
S'0.006'
p64
asS'Zetta'
p65
(lp66
S'0.001'
p67
asS'Zena'
p68
(lp69
S'0.003'
p70
asS'Zina'
p71
(lp72
S'0.003'
p73
asS'Zora'
p74
(lp75
S'0.003'
p76
as.