(dp1
S'Cecile'
p2
(lp3
S'0.019'
p4
asS'Cecila'
p5
(lp6
S'0.002'
p7
asS'Cecily'
p8
(lp9
S'0.003'
p10
asS'Collette'
p11
(lp12
S'0.005'
p13
asS'Charis'
p14
(lp15
S'0.001'
p16
asS'Christiana'
p17
(lp18
S'0.003'
p19
asS'Casey'
p20
(lp21
S'0.029'
p22
asS'Crysta'
p23
(lp24
S'0.001'
p25
asS'Candida'
p26
(lp27
S'0.006'
p28
asS'Clemmie'
p29
(lp30
S'0.002'
p31
asS'Carmon'
p32
(lp33
S'0.002'
p34
asS'Candy'
p35
(lp36
S'0.022'
p37
asS'Candi'
p38
(lp39
S'0.005'
p40
asS'Charlotte'
p41
(lp42
S'0.169'
p43
asS'Carly'
p44
(lp45
S'0.01'
p46
asS'Coletta'
p47
(lp48
S'0.002'
p49
asS'Colette'
p50
(lp51
S'0.011'
p52
asS'Carla'
p53
(lp54
S'0.107'
p55
asS'Catarina'
p56
(lp57
S'0.002'
p58
asS'Carli'
p59
(lp60
S'0.001'
p61
asS'Christin'
p62
(lp63
S'0.007'
p64
asS'Claude'
p65
(lp66
S'0.001'
p67
asS'Christia'
p68
(lp69
S'0.001'
p70
asS'Christie'
p71
(lp72
S'0.034'
p73
asS'Consuela'
p74
(lp75
S'0.002'
p76
asS'Candra'
p77
(lp78
S'0.001'
p79
asS'Consuelo'
p80
(lp81
S'0.022'
p82
asS'Cruz'
p83
(lp84
S'0.006'
p85
asS'Catina'
p86
(lp87
S'0.004'
p88
asS'Carmella'
p89
(lp90
S'0.012'
p91
asS'Charlie'
p92
(lp93
S'0.006'
p94
asS'Cleopatra'
p95
(lp96
S'0.002'
p97
asS'Carolin'
p98
(lp99
S'0.001'
p100
asS'Carline'
p101
(lp102
S'0.002'
p103
asS'Cristie'
p104
(lp105
S'0.002'
p106
asS'Clare'
p107
(lp108
S'0.012'
p109
asS'Cynthia'
p110
(lp111
S'0.469'
p112
asS'Clara'
p113
(lp114
S'0.153'
p115
asS'Carmelita'
p116
(lp117
S'0.006'
p118
asS'Christiane'
p119
(lp120
S'0.003'
p121
asS'Ciera'
p122
(lp123
S'0.002'
p124
asS'Ciara'
p125
(lp126
S'0.003'
p127
asS'Colleen'
p128
(lp129
S'0.092'
p130
asS'Clorinda'
p131
(lp132
S'0.001'
p133
asS'Cherrie'
p134
(lp135
S'0.003'
p136
asS'Cassey'
p137
(lp138
S'0.001'
p139
asS'Chrystal'
p140
(lp141
S'0.011'
p142
asS'Cira'
p143
(lp144
S'0.001'
p145
asS'Casimira'
p146
(lp147
S'0.001'
p148
asS'Clotilde'
p149
(lp150
S'0.002'
p151
asS'Caitlyn'
p152
(lp153
S'0.004'
p154
asS'Cora'
p155
(lp156
S'0.058'
p157
asS'Charita'
p158
(lp159
S'0.001'
p160
asS'Cori'
p161
(lp162
S'0.006'
p163
asS'Conchita'
p164
(lp165
S'0.002'
p166
asS'Casie'
p167
(lp168
S'0.002'
p169
asS'Chasity'
p170
(lp171
S'0.01'
p172
asS'Cory'
p173
(lp174
S'0.004'
p175
asS'Charity'
p176
(lp177
S'0.018'
p178
asS'Christina'
p179
(lp180
S'0.275'
p181
asS'Carlena'
p182
(lp183
S'0.001'
p184
asS'Christine'
p185
(lp186
S'0.382'
p187
asS'Carlene'
p188
(lp189
S'0.012'
p190
asS'Celena'
p191
(lp192
S'0.002'
p193
asS'Claire'
p194
(lp195
S'0.061'
p196
asS'Cathryn'
p197
(lp198
S'0.009'
p199
asS'Charmain'
p200
(lp201
S'0.001'
p202
asS'Coleen'
p203
(lp204
S'0.009'
p205
asS'Cecille'
p206
(lp207
S'0.001'
p208
asS'Clair'
p209
(lp210
S'0.003'
p211
asS'Celsa'
p212
(lp213
S'0.001'
p214
asS'Carina'
p215
(lp216
S'0.004'
p217
asS'Cicely'
p218
(lp219
S'0.002'
p220
asS'Cleotilde'
p221
(lp222
S'0.001'
p223
asS'Cheree'
p224
(lp225
S'0.001'
p226
asS'Carmelia'
p227
(lp228
S'0.001'
p229
asS'Carmelina'
p230
(lp231
S'0.002'
p232
asS'Chanell'
p233
(lp234
S'0.001'
p235
asS'Candyce'
p236
(lp237
S'0.002'
p238
asS'Carolee'
p239
(lp240
S'0.004'
p241
asS'Chanel'
p242
(lp243
S'0.005'
p244
asS'Concha'
p245
(lp246
S'0.001'
p247
asS'Clarisa'
p248
(lp249
S'0.001'
p250
asS'Cherish'
p251
(lp252
S'0.002'
p253
asS'Cherise'
p254
(lp255
S'0.003'
p256
asS'Cinthia'
p257
(lp258
S'0.004'
p259
asS'Carlos'
p260
(lp261
S'0.001'
p262
asS'Clemencia'
p263
(lp264
S'0.001'
p265
asS'Clarita'
p266
(lp267
S'0.002'
p268
asS'Carrol'
p269
(lp270
S'0.005'
p271
asS'Candice'
p272
(lp273
S'0.046'
p274
asS'Cathey'
p275
(lp276
S'0.002'
p277
asS'Charleen'
p278
(lp279
S'0.005'
p280
asS'Chi'
p281
(lp282
S'0.002'
p283
asS'Cecelia'
p284
(lp285
S'0.032'
p286
asS'Chu'
p287
(lp288
S'0.001'
p289
asS'Carie'
p290
(lp291
S'0.002'
p292
asS'Cecilia'
p293
(lp294
S'0.055'
p295
asS'Corrinne'
p296
(lp297
S'0.001'
p298
asS'Chong'
p299
(lp300
S'0.007'
p301
asS'Carma'
p302
(lp303
S'0.003'
p304
asS'Cristi'
p305
(lp306
S'0.003'
p307
asS'Caron'
p308
(lp309
S'0.003'
p310
asS'Cathrine'
p311
(lp312
S'0.006'
p313
asS'Chung'
p314
(lp315
S'0.002'
p316
asS'Charlette'
p317
(lp318
S'0.003'
p319
asS'Carita'
p320
(lp321
S'0.001'
p322
asS'Carlita'
p323
(lp324
S'0.001'
p325
asS'Clarine'
p326
(lp327
S'0.002'
p328
asS'Caroline'
p329
(lp330
S'0.085'
p331
asS'Christal'
p332
(lp333
S'0.006'
p334
asS'Carolina'
p335
(lp336
S'0.021'
p337
asS'Carisa'
p338
(lp339
S'0.002'
p340
asS'Chrissy'
p341
(lp342
S'0.004'
p343
asS'Coralie'
p344
(lp345
S'0.001'
p346
asS'Ching'
p347
(lp348
S'0.001'
p349
asS'China'
p350
(lp351
S'0.001'
p352
asS'Coreen'
p353
(lp354
S'0.002'
p355
asS'Carolann'
p356
(lp357
S'0.003'
p358
asS'Caprice'
p359
(lp360
S'0.002'
p361
asS'Corinne'
p362
(lp363
S'0.024'
p364
asS'Corinna'
p365
(lp366
S'0.004'
p367
asS'Cheryle'
p368
(lp369
S'0.004'
p370
asS'Chang'
p371
(lp372
S'0.001'
p373
asS'Cristin'
p374
(lp375
S'0.003'
p376
asS'Chana'
p377
(lp378
S'0.003'
p379
asS'Carlee'
p380
(lp381
S'0.001'
p382
asS'Cheryll'
p383
(lp384
S'0.002'
p385
asS'Christinia'
p386
(lp387
S'0.001'
p388
asS'Chae'
p389
(lp390
S'0.001'
p391
asS'Carri'
p392
(lp393
S'0.003'
p394
asS'Chan'
p395
(lp396
S'0.001'
p397
asS'Claretta'
p398
(lp399
S'0.001'
p400
asS'Cherilyn'
p401
(lp402
S'0.001'
p403
asS'Chau'
p404
(lp405
S'0.002'
p406
asS'Carry'
p407
(lp408
S'0.001'
p409
asS'Carylon'
p410
(lp411
S'0.001'
p412
asS'Chante'
p413
(lp414
S'0.002'
p415
asS'Cammy'
p416
(lp417
S'0.001'
p418
asS'Carin'
p419
(lp420
S'0.003'
p421
asS'Criselda'
p422
(lp423
S'0.002'
p424
asS'Calista'
p425
(lp426
S'0.001'
p427
asS'Clementina'
p428
(lp429
S'0.002'
p430
asS'Chantel'
p431
(lp432
S'0.007'
p433
asS'Chantell'
p434
(lp435
S'0.002'
p436
asS'Catrina'
p437
(lp438
S'0.007'
p439
asS'Carmel'
p440
(lp441
S'0.006'
p442
asS'Crystle'
p443
(lp444
S'0.001'
p445
asS'Carolynn'
p446
(lp447
S'0.003'
p448
asS'Carolyne'
p449
(lp450
S'0.002'
p451
asS'Charline'
p452
(lp453
S'0.005'
p454
asS'Corrin'
p455
(lp456
S'0.001'
p457
asS'Corrie'
p458
(lp459
S'0.005'
p460
asS'Catalina'
p461
(lp462
S'0.014'
p463
asS'Carlyn'
p464
(lp465
S'0.003'
p466
asS'Chloe'
p467
(lp468
S'0.007'
p469
asS'Carroll'
p470
(lp471
S'0.006'
p472
asS'Codi'
p473
(lp474
S'0.001'
p475
asS'Cecil'
p476
(lp477
S'0.005'
p478
asS'Cody'
p479
(lp480
S'0.002'
p481
asS'Cherry'
p482
(lp483
S'0.009'
p484
asS'Cherri'
p485
(lp486
S'0.003'
p487
asS'Cheryl'
p488
(lp489
S'0.315'
p490
asS'Ceola'
p491
(lp492
S'0.001'
p493
asS'Christian'
p494
(lp495
S'0.01'
p496
asS'Caterina'
p497
(lp498
S'0.002'
p499
asS'Coralee'
p500
(lp501
S'0.001'
p502
asS'Chere'
p503
(lp504
S'0.001'
p505
asS'Cheri'
p506
(lp507
S'0.025'
p508
asS'Chantelle'
p509
(lp510
S'0.003'
p511
asS'Christene'
p512
(lp513
S'0.003'
p514
asS'Christena'
p515
(lp516
S'0.002'
p517
asS'Cristen'
p518
(lp519
S'0.002'
p520
asS'Catheryn'
p521
(lp522
S'0.001'
p523
asS'Chery'
p524
(lp525
S'0.001'
p526
asS'Cher'
p527
(lp528
S'0.001'
p529
asS'Charise'
p530
(lp531
S'0.002'
p532
asS'Celeste'
p533
(lp534
S'0.025'
p535
asS'Charlsie'
p536
(lp537
S'0.001'
p538
asS'Celesta'
p539
(lp540
S'0.001'
p541
asS'Carletta'
p542
(lp543
S'0.002'
p544
asS'Cornelia'
p545
(lp546
S'0.015'
p547
asS'Claretha'
p548
(lp549
S'0.001'
p550
asS'Cherlyn'
p551
(lp552
S'0.001'
p553
asS'Cassandra'
p554
(lp555
S'0.072'
p556
asS'Cherryl'
p557
(lp558
S'0.002'
p559
asS'Cythia'
p560
(lp561
S'0.003'
p562
asS'Carey'
p563
(lp564
S'0.009'
p565
asS'Charlyn'
p566
(lp567
S'0.001'
p568
asS'Claribel'
p569
(lp570
S'0.003'
p571
asS'Caren'
p572
(lp573
S'0.007'
p574
asS'Carmina'
p575
(lp576
S'0.001'
p577
asS'Carleen'
p578
(lp579
S'0.004'
p580
asS'Cherelle'
p581
(lp582
S'0.001'
p583
asS'Chantal'
p584
(lp585
S'0.005'
p586
asS'Cortney'
p587
(lp588
S'0.008'
p589
asS'Corliss'
p590
(lp591
S'0.002'
p592
asS'Chelsea'
p593
(lp594
S'0.038'
p595
asS'Chantay'
p596
(lp597
S'0.001'
p598
asS'Caryn'
p599
(lp600
S'0.008'
p601
asS'Collen'
p602
(lp603
S'0.002'
p604
asS'Crystal'
p605
(lp606
S'0.207'
p607
asS'Clarissa'
p608
(lp609
S'0.014'
p610
asS'Christen'
p611
(lp612
S'0.007'
p613
asS'Carley'
p614
(lp615
S'0.002'
p616
asS'Crista'
p617
(lp618
S'0.002'
p619
asS'Cristy'
p620
(lp621
S'0.006'
p622
asS'Chelsie'
p623
(lp624
S'0.004'
p625
asS'Cathern'
p626
(lp627
S'0.001'
p628
asS'Cheyenne'
p629
(lp630
S'0.003'
p631
asS'Claris'
p632
(lp633
S'0.001'
p634
asS'Cathie'
p635
(lp636
S'0.004'
p637
asS'Cristal'
p638
(lp639
S'0.005'
p640
asS'Callie'
p641
(lp642
S'0.016'
p643
asS'Clora'
p644
(lp645
S'0.001'
p646
asS'Carman'
p647
(lp648
S'0.004'
p649
asS'Conception'
p650
(lp651
S'0.001'
p652
asS'Camelia'
p653
(lp654
S'0.002'
p655
asS'Corrine'
p656
(lp657
S'0.014'
p658
asS'Constance'
p659
(lp660
S'0.091'
p661
asS'Corrina'
p662
(lp663
S'0.003'
p664
asS'Camie'
p665
(lp666
S'0.001'
p667
asS'Carolyn'
p668
(lp669
S'0.385'
p670
asS'Cyndy'
p671
(lp672
S'0.001'
p673
asS'Chin'
p674
(lp675
S'0.002'
p676
asS'Cyndi'
p677
(lp678
S'0.003'
p679
asS'Chia'
p680
(lp681
S'0.001'
p682
asS'Cassie'
p683
(lp684
S'0.023'
p685
asS'Cleora'
p686
(lp687
S'0.002'
p688
asS'Cassondra'
p689
(lp690
S'0.001'
p691
asS'Clyde'
p692
(lp693
S'0.003'
p694
asS'Cary'
p695
(lp696
S'0.004'
p697
asS'Clarence'
p698
(lp699
S'0.001'
p700
asS'Caitlin'
p701
(lp702
S'0.023'
p703
asS'Cari'
p704
(lp705
S'0.007'
p706
asS'Carl'
p707
(lp708
S'0.002'
p709
asS'Crissy'
p710
(lp711
S'0.002'
p712
asS'Cara'
p713
(lp714
S'0.025'
p715
asS'Casandra'
p716
(lp717
S'0.009'
p718
asS'Chandra'
p719
(lp720
S'0.014'
p721
asS'Claudine'
p722
(lp723
S'0.011'
p724
asS'Classie'
p725
(lp726
S'0.001'
p727
asS'Chasidy'
p728
(lp729
S'0.001'
p730
asS'Charla'
p731
(lp732
S'0.006'
p733
asS'Catrice'
p734
(lp735
S'0.001'
p736
asS'Corazon'
p737
(lp738
S'0.003'
p739
asS'Celestine'
p740
(lp741
S'0.007'
p742
asS'Celestina'
p743
(lp744
S'0.002'
p745
asS'Courtney'
p746
(lp747
S'0.086'
p748
asS'Candis'
p749
(lp750
S'0.003'
p751
asS'Christi'
p752
(lp753
S'0.017'
p754
asS'Christa'
p755
(lp756
S'0.023'
p757
asS'Catharine'
p758
(lp759
S'0.006'
p760
asS'Candie'
p761
(lp762
S'0.002'
p763
asS'Christy'
p764
(lp765
S'0.077'
p766
asS'Chara'
p767
(lp768
S'0.001'
p769
asS'Carol'
p770
(lp771
S'0.565'
p772
asS'Coral'
p773
(lp774
S'0.004'
p775
asS'Carlotta'
p776
(lp777
S'0.004'
p778
asS'Colene'
p779
(lp780
S'0.001'
p781
asS'Carmen'
p782
(lp783
S'0.195'
p784
asS'Clementine'
p785
(lp786
S'0.005'
p787
asS'Caroyln'
p788
(lp789
S'0.001'
p790
asS'Clarice'
p791
(lp792
S'0.018'
p793
asS'Colby'
p794
(lp795
S'0.001'
p796
asS'Clelia'
p797
(lp798
S'0.001'
p799
asS'Cherly'
p800
(lp801
S'0.004'
p802
asS'Clarinda'
p803
(lp804
S'0.001'
p805
asS'Christel'
p806
(lp807
S'0.003'
p808
asS'Camila'
p809
(lp810
S'0.001'
p811
asS'Christopher'
p812
(lp813
S'0.003'
p814
asS'Carissa'
p815
(lp816
S'0.009'
p817
asS'Charlesetta'
p818
(lp819
S'0.001'
p820
asS'Cathleen'
p821
(lp822
S'0.017'
p823
asS'Cami'
p824
(lp825
S'0.003'
p826
asS'Cassaundra'
p827
(lp828
S'0.001'
p829
asS'Carrie'
p830
(lp831
S'0.171'
p832
asS'Cleta'
p833
(lp834
S'0.003'
p835
asS'Claudia'
p836
(lp837
S'0.09'
p838
asS'Claudie'
p839
(lp840
S'0.001'
p841
asS'Chieko'
p842
(lp843
S'0.001'
p844
asS'Cayla'
p845
(lp846
S'0.001'
p847
asS'Cindie'
p848
(lp849
S'0.001'
p850
asS'Cyrstal'
p851
(lp852
S'0.001'
p853
asS'Candace'
p854
(lp855
S'0.051'
p856
asS'Collene'
p857
(lp858
S'0.001'
p859
asS'Charlena'
p860
(lp861
S'0.001'
p862
asS'Charlene'
p863
(lp864
S'0.097'
p865
asS'Cris'
p866
(lp867
S'0.001'
p868
asS'Chiquita'
p869
(lp870
S'0.005'
p871
asS'Chastity'
p872
(lp873
S'0.005'
p874
asS'Caroll'
p875
(lp876
S'0.001'
p877
asS'Concepcion'
p878
(lp879
S'0.014'
p880
asS'Carola'
p881
(lp882
S'0.001'
p883
asS'Carole'
p884
(lp885
S'0.071'
p886
asS'Charisse'
p887
(lp888
S'0.004'
p889
asS'Connie'
p890
(lp891
S'0.2'
p892
asS'Chris'
p893
(lp894
S'0.024'
p895
asS'Caridad'
p896
(lp897
S'0.006'
p898
asS'Coretta'
p899
(lp900
S'0.002'
p901
asS'Corey'
p902
(lp903
S'0.005'
p904
asS'Charmaine'
p905
(lp906
S'0.011'
p907
asS'Corina'
p908
(lp909
S'0.01'
p910
asS'Chaya'
p911
(lp912
S'0.002'
p913
asS'Corine'
p914
(lp915
S'0.011'
p916
asS'Chanelle'
p917
(lp918
S'0.001'
p919
asS'Corene'
p920
(lp921
S'0.003'
p922
asS'Catherina'
p923
(lp924
S'0.001'
p925
asS'Catherine'
p926
(lp927
S'0.373'
p928
asS'Celina'
p929
(lp930
S'0.008'
p931
asS'Celine'
p932
(lp933
S'0.002'
p934
asS'Cameron'
p935
(lp936
S'0.003'
p937
asS'Charolette'
p938
(lp939
S'0.003'
p940
asS'Christeen'
p941
(lp942
S'0.002'
p943
asS'Camellia'
p944
(lp945
S'0.001'
p946
asS'Chassidy'
p947
(lp948
S'0.001'
p949
asS'Cuc'
p950
(lp951
S'0.001'
p952
asS'Celia'
p953
(lp954
S'0.044'
p955
asS'Creola'
p956
(lp957
S'0.001'
p958
asS'Claudette'
p959
(lp960
S'0.017'
p961
asS'Cordia'
p962
(lp963
S'0.001'
p964
asS'Cordie'
p965
(lp966
S'0.002'
p967
asS'Contessa'
p968
(lp969
S'0.001'
p970
asS'Chelsey'
p971
(lp972
S'0.008'
p973
asS'Cordelia'
p974
(lp975
S'0.005'
p976
asS'Cassidy'
p977
(lp978
S'0.003'
p979
asS'Caryl'
p980
(lp981
S'0.004'
p982
asS'Carlie'
p983
(lp984
S'0.002'
p985
asS'Charlott'
p986
(lp987
S'0.001'
p988
asS'Candelaria'
p989
(lp990
S'0.004'
p991
asS'Cammie'
p992
(lp993
S'0.002'
p994
asS'Catherin'
p995
(lp996
S'0.001'
p997
asS'Cassy'
p998
(lp999
S'0.001'
p1000
asS'Cinderella'
p1001
(lp1002
S'0.001'
p1003
asS'Camille'
p1004
(lp1005
S'0.028'
p1006
asS'Camilla'
p1007
(lp1008
S'0.008'
p1009
asS'Cassi'
p1010
(lp1011
S'0.001'
p1012
asS'Curtis'
p1013
(lp1014
S'0.001'
p1015
asS'Chun'
p1016
(lp1017
S'0.003'
p1018
asS'Calandra'
p1019
(lp1020
S'0.001'
p1021
asS'Candance'
p1022
(lp1023
S'0.003'
p1024
asS'Cindi'
p1025
(lp1026
S'0.007'
p1027
asS'Cathi'
p1028
(lp1029
S'0.003'
p1030
asS'Carlota'
p1031
(lp1032
S'0.003'
p1033
asS'Charissa'
p1034
(lp1035
S'0.003'
p1036
asS'Cinda'
p1037
(lp1038
S'0.003'
p1039
asS'Concetta'
p1040
(lp1041
S'0.009'
p1042
asS'Cindy'
p1043
(lp1044
S'0.192'
p1045
asS'Cathy'
p1046
(lp1047
S'0.137'
p1048
asS'Corie'
p1049
(lp1050
S'0.002'
p1051
asS'Cierra'
p1052
(lp1053
S'0.003'
p1054
asS'Charles'
p1055
(lp1056
S'0.006'
p1057
asS'Carmela'
p1058
(lp1059
S'0.018'
p1060
asS'Chanda'
p1061
(lp1062
S'0.004'
p1063
asS'Cleo'
p1064
(lp1065
S'0.021'
p1066
asS'Cherie'
p1067
(lp1068
S'0.022'
p1069
asS'Cristine'
p1070
(lp1071
S'0.004'
p1072
asS'Cristina'
p1073
(lp1074
S'0.033'
p1075
asS'Celinda'
p1076
(lp1077
S'0.001'
p1078
as.