(dp1
S'23424757'
p2
(lp3
S'Europe'
p4
asS'23424756'
p5
(lp6
S'North America'
p7
asS'23424755'
p8
(lp9
S'Africa'
p10
asS'23424754'
p11
(lp12
S'North America'
p13
asS'23424753'
p14
(lp15
S'Asia'
p16
asS'23424947'
p17
(lp18
S'Europe'
p19
asS'23424751'
p20
(lp21
S'North America'
p22
asS'23424750'
p23
(lp24
S'Europe'
p25
asS'23424860'
p26
(lp27
S'Asia'
p28
asS'23424863'
p29
(lp30
S'Africa'
p31
asS'23424949'
p32
(lp33
S'Africa'
p34
asS'23424865'
p35
(lp36
S'Asia'
p37
aS'Asia'
p38
aS'Asia'
p39
asS'23424864'
p40
(lp41
S'Asia'
p42
asS'23424759'
p43
(lp44
S'Asia'
p45
asS'23424758'
p46
(lp47
S'North America'
p48
asS'23424941'
p49
(lp50
S'Africa'
p51
asS'23424946'
p52
(lp53
S'Africa'
p54
asS'23424944'
p55
(lp56
S'North America'
p57
aS'North America'
p58
asS'23424945'
p59
(lp60
S'Europe'
p61
asS'23424948'
p62
(lp63
S'Asia'
p64
asS'23424955'
p65
(lp66
S'South America'
p67
asS'23424954'
p68
(lp69
S'Europe'
p70
asS'23424957'
p71
(lp72
S'Europe'
p73
asS'23424956'
p74
(lp75
S'Asia'
p76
aS'Asia'
p77
asS'23424951'
p78
(lp79
S'North America'
p80
asS'23424950'
p81
(lp82
S'Europe'
p83
asS'23424952'
p84
(lp85
S'Africa'
p86
asS'23424814'
p87
(lp88
S'South America'
p89
aS'South America'
p90
aS'South America'
p91
asS'23424815'
p92
(lp93
S'Oceania'
p94
aS'Oceania'
p95
aS'Oceania'
p96
asS'23424816'
p97
(lp98
S'Europe'
p99
asS'23424817'
p100
(lp101
S'Oceania'
p102
asS'23424810'
p103
(lp104
S'Europe'
p105
asS'23424811'
p106
(lp107
S'South America'
p108
asS'23424812'
p109
(lp110
S'Europe'
p111
asS'23424813'
p112
(lp113
S'Oceania'
p114
asS'23424867'
p115
(lp116
S'Oceania'
p117
asS'23424894'
p118
(lp119
S'Africa'
p120
asS'23424896'
p121
(lp122
S'Africa'
p123
asS'23424897'
p124
(lp125
S'Europe'
p126
asS'23424890'
p127
(lp128
S'Europe'
p129
aS'Europe'
p130
aS'Europe'
p131
asS'23424891'
p132
(lp133
S'Africa'
p134
asS'23424892'
p135
(lp136
S'Europe'
p137
asS'23424893'
p138
(lp139
S'Africa'
p140
asS'23424898'
p141
(lp142
S'Asia'
p143
asS'23424899'
p144
(lp145
S'Asia'
p146
asS'23424808'
p147
(lp148
S'Africa'
p149
asS'23424807'
p150
(lp151
S'North America'
p152
aS'North America'
p153
asS'23424806'
p154
(lp155
S'Africa'
p156
asS'23424805'
p157
(lp158
S'Europe'
p159
asS'23424804'
p160
(lp161
S'Africa'
p162
asS'23424803'
p163
(lp164
S'Europe'
p165
asS'23424802'
p166
(lp167
S'Africa'
p168
asS'23424801'
p169
(lp170
S'South America'
p171
asS'23424800'
p172
(lp173
S'North America'
p174
asS'23424922'
p175
(lp176
S'Asia'
p177
asS'23424923'
p178
(lp179
S'Europe'
p180
asS'23424924'
p181
(lp182
S'North America'
p183
asS'23424925'
p184
(lp185
S'Europe'
p186
asS'23424926'
p187
(lp188
S'Oceania'
p189
asS'20069817'
p190
(lp191
S'Europe'
p192
asS'20069818'
p193
(lp194
S'Europe'
p195
asS'23424929'
p196
(lp197
S'Africa'
p198
asS'23424887'
p199
(lp200
S'Asia'
p201
asS'23424886'
p202
(lp203
S'Africa'
p204
asS'23424885'
p205
(lp206
S'Europe'
p207
aS'Europe'
p208
aS'Europe'
p209
aS'Europe'
p210
asS'23424884'
p211
(lp212
S'North America'
p213
asS'23424883'
p214
(lp215
S'Africa'
p216
asS'23424882'
p217
(lp218
S'Africa'
p219
aS'Africa'
p220
asS'23424881'
p221
(lp222
S'Europe'
p223
asS'23424880'
p224
(lp225
S'Africa'
p226
asS'26812346'
p227
(lp228
S'Europe'
p229
asS'23424978'
p230
(lp231
S'Africa'
p232
asS'23424889'
p233
(lp234
S'Africa'
p235
asS'23424888'
p236
(lp237
S'North America'
p238
asS'23424965'
p239
(lp240
S'Africa'
p241
asS'23424768'
p242
(lp243
S'South America'
p244
asS'23424762'
p245
(lp246
S'South America'
p247
aS'South America'
p248
aS'South America'
p249
asS'23424763'
p250
(lp251
S'Asia'
p252
aS'Asia'
p253
asS'23424760'
p254
(lp255
S'North America'
p256
asS'23424761'
p257
(lp258
S'Europe'
p259
asS'23424766'
p260
(lp261
S'Oceania'
p262
asS'23424764'
p263
(lp264
S'Africa'
p265
asS'23424765'
p266
(lp267
S'Europe'
p268
asS'23424832'
p269
(lp270
S'Oceania'
p271
asS'23424833'
p272
(lp273
S'Europe'
p274
asS'23424831'
p275
(lp276
S'North America'
p277
asS'23424836'
p278
(lp279
S'South America'
p280
asS'23424834'
p281
(lp282
S'North America'
p283
asS'23424835'
p284
(lp285
S'Africa'
p286
asS'23424942'
p287
(lp288
S'Africa'
p289
asS'23424973'
p290
(lp291
S'Africa'
p292
aS'Africa'
p293
aS'Africa'
p294
asS'23424839'
p295
(lp296
S'North America'
p297
asS'23424964'
p298
(lp299
S'Oceania'
p300
asS'23424933'
p301
(lp302
S'Europe'
p303
asS'23424932'
p304
(lp305
S'Oceania'
p306
asS'23424931'
p307
(lp308
S'Africa'
p309
aS'Africa'
p310
asS'23424930'
p311
(lp312
S'Asia'
p313
asS'23424937'
p314
(lp315
S'Africa'
p316
asS'23424936'
p317
(lp318
S'Europe'
p319
aS'Europe'
p320
asS'23424935'
p321
(lp322
S'North America'
p323
asS'23424934'
p324
(lp325
S'Asia'
p326
asS'23424938'
p327
(lp328
S'Asia'
p329
asS'23424943'
p330
(lp331
S'Africa'
p332
asS'23425004'
p333
(lp334
S'Africa'
p335
asS'23425002'
p336
(lp337
S'Asia'
p338
asS'23425003'
p339
(lp340
S'Africa'
p341
asS'23424779'
p342
(lp343
S'Africa'
p344
asS'23424778'
p345
(lp346
S'Asia'
p347
asS'23424970'
p348
(lp349
S'Oceania'
p350
asS'23424775'
p351
(lp352
S'North America'
p353
asS'23424774'
p354
(lp355
S'Africa'
p356
asS'23424777'
p357
(lp358
S'Africa'
p359
asS'23424776'
p360
(lp361
S'Asia'
p362
asS'23424771'
p363
(lp364
S'Europe'
p365
asS'23424770'
p366
(lp367
S'Asia'
p368
asS'23424773'
p369
(lp370
S'Asia'
p371
aS'Asia'
p372
asS'23424825'
p373
(lp374
S'Europe'
p375
asS'23424824'
p376
(lp377
S'Africa'
p378
asS'23424940'
p379
(lp380
S'North America'
p381
asS'23424826'
p382
(lp383
S'North America'
p384
asS'23424821'
p385
(lp386
S'Africa'
p387
asS'23424823'
p388
(lp389
S'Asia'
p390
asS'23424822'
p391
(lp392
S'Africa'
p393
asS'23424829'
p394
(lp395
S'Europe'
p396
aS'Europe'
p397
asS'23424828'
p398
(lp399
S'North America'
p400
asS'28289413'
p401
(lp402
S'Europe'
p403
asS'23424906'
p404
(lp405
S'Africa'
p406
asS'23424907'
p407
(lp408
S'Oceania'
p409
asS'23424904'
p410
(lp411
S'Oceania'
p412
asS'23424905'
p413
(lp414
S'Oceania'
p415
asS'23424902'
p416
(lp417
S'Africa'
p418
asS'23424903'
p419
(lp420
S'Oceania'
p421
asS'23424900'
p422
(lp423
S'North America'
p424
asS'23424901'
p425
(lp426
S'Asia'
p427
asS'23424908'
p428
(lp429
S'Africa'
p430
asS'23424909'
p431
(lp432
S'Europe'
p433
asS'23424986'
p434
(lp435
S'Europe'
p436
aS'Europe'
p437
aS'Europe'
p438
aS'Europe'
p439
aS'Europe'
p440
asS'23424987'
p441
(lp442
S'Africa'
p443
asS'23424984'
p444
(lp445
S'Asia'
p446
aS'Asia'
p447
asS'23424985'
p448
(lp449
S'North America'
p450
aS'North America'
p451
aS'North America'
p452
aS'North America'
p453
aS'North America'
p454
asS'23424982'
p455
(lp456
S'South America'
p457
aS'South America'
p458
aS'South America'
p459
asS'23424983'
p460
(lp461
S'North America'
p462
aS'North America'
p463
asS'23424980'
p464
(lp465
S'Asia'
p466
asS'23424981'
p467
(lp468
S'North America'
p469
asS'23424780'
p470
(lp471
S'Africa'
p472
aS'Africa'
p473
asS'23424781'
p474
(lp475
S'Asia'
p476
asS'23424782'
p477
(lp478
S'South America'
p479
asS'23424783'
p480
(lp481
S'North America'
p482
asS'23424784'
p483
(lp484
S'Asia'
p485
aS'Asia'
p486
aS'Asia'
p487
asS'23424785'
p488
(lp489
S'Africa'
p490
asS'23424786'
p491
(lp492
S'Africa'
p493
asS'23424787'
p494
(lp495
S'South America'
p496
asS'23424919'
p497
(lp498
S'South America'
p499
asS'23424918'
p500
(lp501
S'Oceania'
p502
asS'23424967'
p503
(lp504
S'Africa'
p505
asS'23424869'
p506
(lp507
S'Asia'
p508
asS'28289408'
p509
(lp510
S'Asia'
p511
aS'Asia'
p512
aS'Asia'
p513
asS'23424911'
p514
(lp515
S'Asia'
p516
asS'23424910'
p517
(lp518
S'Europe'
p519
asS'23424913'
p520
(lp521
S'South America'
p522
asS'23424915'
p523
(lp524
S'North America'
p525
asS'23424914'
p526
(lp527
S'North America'
p528
asS'23424917'
p529
(lp530
S'South America'
p531
asS'23424916'
p532
(lp533
S'Oceania'
p534
asS'23424851'
p535
(lp536
S'Asia'
p537
aS'Asia'
p538
aS'Asia'
p539
asS'23424852'
p540
(lp541
S'Asia'
p542
asS'23424853'
p543
(lp544
S'Europe'
p545
asS'23424854'
p546
(lp547
S'Africa'
p548
aS'Africa'
p549
asS'23424855'
p550
(lp551
S'Asia'
p552
asS'23424856'
p553
(lp554
S'Asia'
p555
asS'23424858'
p556
(lp557
S'North America'
p558
asS'23424990'
p559
(lp560
S'Africa'
p561
asS'23424993'
p562
(lp563
S'Africa'
p564
asS'23424992'
p565
(lp566
S'Oceania'
p567
asS'23424868'
p568
(lp569
S'Asia'
p570
aS'Asia'
p571
aS'Asia'
p572
asS'23424793'
p573
(lp574
S'North America'
p575
asS'23424792'
p576
(lp577
S'Africa'
p578
asS'23424791'
p579
(lp580
S'North America'
p581
asS'23424797'
p582
(lp583
S'Africa'
p584
asS'23424796'
p585
(lp586
S'Europe'
p587
asS'23424795'
p588
(lp589
S'Oceania'
p590
asS'23424794'
p591
(lp592
S'Africa'
p593
asS'23424798'
p594
(lp595
S'North America'
p596
asS'23424968'
p597
(lp598
S'Asia'
p599
asS'23424969'
p600
(lp601
S'Asia'
p602
asS'23424737'
p603
(lp604
S'North America'
p605
asS'23424736'
p606
(lp607
S'North America'
p608
asS'23424739'
p609
(lp610
S'Asia'
p611
asS'23424738'
p612
(lp613
S'Asia'
p614
asS'23424966'
p615
(lp616
S'Africa'
p617
aS'Africa'
p618
asS'23424927'
p619
(lp620
S'Oceania'
p621
asS'23424960'
p622
(lp623
S'Asia'
p624
asS'23424961'
p625
(lp626
S'Asia'
p627
asS'23424962'
p628
(lp629
S'North America'
p630
asS'23424843'
p631
(lp632
S'Europe'
p633
asS'20070017'
p634
(lp635
S'Asia'
p636
asS'23424841'
p637
(lp638
S'North America'
p639
asS'23424846'
p640
(lp641
S'Asia'
p642
asS'23424845'
p643
(lp644
S'Europe'
p645
asS'23424844'
p646
(lp647
S'Europe'
p648
asS'56042304'
p649
(lp650
S'Oceania'
p651
aS'Oceania'
p652
asS'23424848'
p653
(lp654
S'Asia'
p655
asS'23424819'
p656
(lp657
S'Europe'
p658
asS'24865698'
p659
(lp660
S'Asia'
p661
asS'23424744'
p662
(lp663
S'Europe'
p664
asS'23424745'
p665
(lp666
S'Africa'
p667
asS'23424746'
p668
(lp669
S'Oceania'
p670
asS'23424747'
p671
(lp672
S'South America'
p673
asS'23424740'
p674
(lp675
S'Africa'
p676
asS'23424741'
p677
(lp678
S'Asia'
p679
asS'23424742'
p680
(lp681
S'Europe'
p682
asS'23424743'
p683
(lp684
S'Asia'
p685
asS'23424977'
p686
(lp687
S'North America'
p688
aS'North America'
p689
aS'North America'
p690
asS'23424976'
p691
(lp692
S'Europe'
p693
asS'23424975'
p694
(lp695
S'Europe'
p696
aS'Europe'
p697
asS'23424974'
p698
(lp699
S'Africa'
p700
asS'23424748'
p701
(lp702
S'Oceania'
p703
asS'23424972'
p704
(lp705
S'Asia'
p706
asS'23424971'
p707
(lp708
S'Asia'
p709
aS'Asia'
p710
asS'23424958'
p711
(lp712
S'North America'
p713
asS'23424876'
p714
(lp715
S'Africa'
p716
asS'23424877'
p717
(lp718
S'Europe'
p719
aS'Europe'
p720
asS'23424874'
p721
(lp722
S'Europe'
p723
asS'23424875'
p724
(lp725
S'Europe'
p726
asS'23424872'
p727
(lp728
S'Asia'
p729
asS'23424873'
p730
(lp731
S'Asia'
p732
asS'23424870'
p733
(lp734
S'Asia'
p735
asS'23424871'
p736
(lp737
S'Asia'
p738
asS'23424879'
p739
(lp740
S'Europe'
p741
asS'23424979'
p742
(lp743
S'South America'
p744
as.