(dp1
S'Portland Community College'
p2
(lp3
S'Portland Community College'
p4
asS'Perugia University'
p5
(lp6
S'Perugia University'
p7
asS'Phoenix College'
p8
(lp9
S'Phoenix College'
p10
asS'Purdue University'
p11
(lp12
S'Purdue University'
p13
asS'Park College'
p14
(lp15
S'Park College'
p16
asS'Pierce College'
p17
(lp18
S'Pierce College'
p19
asS'Purchase College, State University Of New York'
p20
(lp21
S'Purchase College, State University Of New York'
p22
asS'Pondicherry Engineering College'
p23
(lp24
S'Pondicherry Engineering College'
p25
asS'Pusan University Of Foreign Studies'
p26
(lp27
S'Pusan University Of Foreign Studies'
p28
asS'Palacky University'
p29
(lp30
S'Palacky University'
p31
asS'Peace College'
p32
(lp33
S'Peace College'
p34
asS'Pima Community College'
p35
(lp36
S'Pima Community College'
p37
asS'Pohang University Of Science And Technology'
p38
(lp39
S'Pohang University Of Science And Technology'
p40
asS'Paradise Valley Community College'
p41
(lp42
S'Paradise Valley Community College'
p43
asS'Pennsylvania College Of Technology'
p44
(lp45
S'Pennsylvania College Of Technology'
p46
asS'Presbyterian School Of Christian Education'
p47
(lp48
S'Presbyterian School Of Christian Education'
p49
asS'Presbyterian College'
p50
(lp51
S'Presbyterian College'
p52
asS'Parkland College'
p53
(lp54
S'Parkland College'
p55
asS'Portland State University'
p56
(lp57
S'Portland State University'
p58
asS"Paul Smith's College"
p59
(lp60
S"Paul Smith's College"
p61
asS'Purdue University North Central'
p62
(lp63
S'Purdue University North Central'
p64
asS'Pontificia Universidad Cat\xc3\xb3lica De Chile'
p65
(lp66
S'Pontificia Universidad Cat\xc3\xb3lica De Chile'
p67
asS'Pramongkutklao College Of Medicine'
p68
(lp69
S'Pramongkutklao College Of Medicine'
p70
asS'Pace University'
p71
(lp72
S'Pace University'
p73
asS'Piedmont Virginia Community College'
p74
(lp75
S'Piedmont Virginia Community College'
p76
asS'Pratt School Of Art & Design'
p77
(lp78
S'Pratt School Of Art & Design'
p79
asS'Pontif\xc3\xad&cia Universidade Cat\xc3\xb3lica Do Paran\xc3\xa1'
p80
(lp81
S'Pontif\xc3\xad&cia Universidade Cat\xc3\xb3lica Do Paran\xc3\xa1'
p82
asS'Pontif\xc3\xadcia Universidade Cat\xc3\xb3lica De Campinas'
p83
(lp84
S'Pontif\xc3\xadcia Universidade Cat\xc3\xb3lica De Campinas'
p85
asS'Phillips University'
p86
(lp87
S'Phillips University'
p88
asS'Presidency College'
p89
(lp90
S'Presidency College'
p91
asS'Polytechnic University Of Puerto Rico'
p92
(lp93
S'Polytechnic University Of Puerto Rico'
p94
asS'Pine Manor College'
p95
(lp96
S'Pine Manor College'
p97
asS'Pontif\xc3\xadcia Universidade Cat\xc3\xb3lica De S\xc4\xa3o Paulo'
p98
(lp99
S'Pontif\xc3\xadcia Universidade Cat\xc3\xb3lica De S\xc4\xa3o Paulo'
p100
asS'Pusan National University Of Technology'
p101
(lp102
S'Pusan National University Of Technology'
p103
asS'Pomona College'
p104
(lp105
S'Pomona College'
p106
asS'Pontifica Universidad Javeriana'
p107
(lp108
S'Pontifica Universidad Javeriana'
p109
asS'Plymouth State College'
p110
(lp111
S'Plymouth State College'
p112
asS'Potchefstroom University For Christian Higher Education'
p113
(lp114
S'Potchefstroom University For Christian Higher Education'
p115
asS'Providence College'
p116
(lp117
S'Providence College'
p118
asS'Pennsylvania State System Of Higher Education'
p119
(lp120
S'Pennsylvania State System Of Higher Education'
p121
asS'Puc-rio'
p122
(lp123
S'Puc-rio'
p124
asS'Pitzer College'
p125
(lp126
S'Pitzer College'
p127
asS"Pusan Women's University"
p128
(lp129
S"Pusan Women's University"
p130
asS'Politechnika Szczeci\xc3\xb1ska'
p131
(lp132
S'Politechnika Szczeci\xc3\xb1ska'
p133
asS'Pueblo Community College'
p134
(lp135
S'Pueblo Community College'
p136
asS'Piedmont Technical College'
p137
(lp138
S'Piedmont Technical College'
p139
asS'Pedagogical University Of Krakow'
p140
(lp141
S'Pedagogical University Of Krakow'
p142
asS'Prague Institute Of Chemical Technology'
p143
(lp144
S'Prague Institute Of Chemical Technology'
p145
asS'Politecnico Di Torino'
p146
(lp147
S'Politecnico Di Torino'
p148
asS'Prince Of Songkla University'
p149
(lp150
S'Prince Of Songkla University'
p151
asS'Point Loma Nazarene College'
p152
(lp153
S'Point Loma Nazarene College'
p154
asS'Pontificia Universidad Cat\xc3\xb3lica Del Per\xc3\xba'
p155
(lp156
S'Pontificia Universidad Cat\xc3\xb3lica Del Per\xc3\xba'
p157
asS'Politecnico Di Milano'
p158
(lp159
S'Politecnico Di Milano'
p160
asS'Pennsylvania State University'
p161
(lp162
S'Pennsylvania State University'
p163
asS'Pittsburg State University'
p164
(lp165
S'Pittsburg State University'
p166
asS'Princeton University'
p167
(lp168
S'Princeton University'
p169
asS'Pontificia Universidade Catolica Do Rio Grande Do Sul'
p170
(lp171
S'Pontificia Universidade Catolica Do Rio Grande Do Sul'
p172
asS'Palm Beach Community College'
p173
(lp174
S'Palm Beach Community College'
p175
asS'Pensacola Junior College'
p176
(lp177
S'Pensacola Junior College'
p178
asS'Politecnico Di Bari'
p179
(lp180
S'Politecnico Di Bari'
p181
asS'Palomar College'
p182
(lp183
S'Palomar College'
p184
asS'Point Park College'
p185
(lp186
S'Point Park College'
p187
asS'Polytechnic University Of New York'
p188
(lp189
S'Polytechnic University Of New York'
p190
asS'Penza State Technical University'
p191
(lp192
S'Penza State Technical University'
p193
asS'Pepperdine University'
p194
(lp195
S'Pepperdine University'
p196
asS'Punjab Engineering College'
p197
(lp198
S'Punjab Engineering College'
p199
asS'Purdue University Calumet'
p200
(lp201
S'Purdue University Calumet'
p202
asS'Palacky University Medical School'
p203
(lp204
S'Palacky University Medical School'
p205
asS'Palm Beach Atlantic College'
p206
(lp207
S'Palm Beach Atlantic College'
p208
asS'Pacific Lutheran University'
p209
(lp210
S'Pacific Lutheran University'
p211
asS'Pacific University'
p212
(lp213
S'Pacific University'
p214
asS'Pusan National University'
p215
(lp216
S'Pusan National University'
p217
asS'Politechnika Poznanska'
p218
(lp219
S'Politechnika Poznanska'
p220
asS'Pontificia Universidad Cat\xc3\xb3lica Del Ecuador'
p221
(lp222
S'Pontificia Universidad Cat\xc3\xb3lica Del Ecuador'
p223
asS'Polytechnical University Of Bucharest'
p224
(lp225
S'Polytechnical University Of Bucharest'
p226
asS'Peking University'
p227
(lp228
S'Peking University'
p229
asS'Peabody Conservatory Of Music'
p230
(lp231
S'Peabody Conservatory Of Music'
p232
asS'Politehnica University Of Bucharest'
p233
(lp234
S'Politehnica University Of Bucharest'
p235
asS'Pune Institute Of Computer Technology'
p236
(lp237
S'Pune Institute Of Computer Technology'
p238
asS'Pembroke State University'
p239
(lp240
S'Pembroke State University'
p241
asS'Prairie View A&m University'
p242
(lp243
S'Prairie View A&m University'
p244
asS"Prince George's Community College"
p245
(lp246
S"Prince George's Community College"
p247
asS'Pikes Peak Community Colleges'
p248
(lp249
S'Pikes Peak Community Colleges'
p250
as.