(dp1
S'Xavier University'
p2
(lp3
S'Xavier University'
p4
asS"Xi'an Jiao Tong University"
p5
(lp6
S"Xi'an Jiao Tong University"
p7
asS'Xiangtan University'
p8
(lp9
S'Xiangtan University'
p10
asS'Xian Medical University'
p11
(lp12
S'Xian Medical University'
p13
asS'Xiamen University'
p14
(lp15
S'Xiamen University'
p16
as.