(dp1
S'Quincy University'
p2
(lp3
S'Quincy University'
p4
asS'Queensland University Of Technology'
p5
(lp6
S'Queensland University Of Technology'
p7
asS"Queen's University, Kingston, Ontario"
p8
(lp9
S"Queen's University, Kingston, Ontario"
p10
asS"Queen's University, Belfast"
p11
(lp12
S"Queen's University, Belfast"
p13
asS'Quinnipiac College'
p14
(lp15
S'Quinnipiac College'
p16
asS'Queen Mary And Westfield College, University Of London'
p17
(lp18
S'Queen Mary And Westfield College, University Of London'
p19
asS"Queen's College"
p20
(lp21
S"Queen's College"
p22
asS'Queen Margaret College, Edinburgh'
p23
(lp24
S'Queen Margaret College, Edinburgh'
p25
asS'Queens College'
p26
(lp27
S'Queens College'
p28
asS'Queensland International Heritage College'
p29
(lp30
S'Queensland International Heritage College'
p31
as.