(dp1
S'Harvard Graduate School Of Education'
p2
(lp3
S'Harvard Graduate School Of Education'
p4
asS'H\xc3\xbfgskolen I Bod\xc3\xbf'
p5
(lp6
S'H\xc3\xbfgskolen I Bod\xc3\xbf'
p7
asS'Hong Kong Polytechnic University'
p8
(lp9
S'Hong Kong Polytechnic University'
p10
asS'Hiroshima Shudo University'
p11
(lp12
S'Hiroshima Shudo University'
p13
asS'Howard University'
p14
(lp15
S'Howard University'
p16
asS'Hochschule F\xc3\xbcr Musik Und Darstellende Kunst In Graz'
p17
(lp18
S'Hochschule F\xc3\xbcr Musik Und Darstellende Kunst In Graz'
p19
asS'Hampshire College'
p20
(lp21
S'Hampshire College'
p22
asS'Harvey Mudd College'
p23
(lp24
S'Harvey Mudd College'
p25
asS'Houghton College'
p26
(lp27
S'Houghton College'
p28
asS'Helsinki University Of Technology'
p29
(lp30
S'Helsinki University Of Technology'
p31
asS'Hochschule F\xc3\xbcr Druck Stuttgart'
p32
(lp33
S'Hochschule F\xc3\xbcr Druck Stuttgart'
p34
asS'Hill College'
p35
(lp36
S'Hill College'
p37
asS'Holyoke Community College'
p38
(lp39
S'Holyoke Community College'
p40
asS'Hochschule F\xc3\xbcr Technik Und Wirtschaft Dresden'
p41
(lp42
S'Hochschule F\xc3\xbcr Technik Und Wirtschaft Dresden'
p43
asS'Hacettepe University'
p44
(lp45
S'Hacettepe University'
p46
asS'Harbin Engineering University'
p47
(lp48
S'Harbin Engineering University'
p49
asS'Hochschule F\xc3\xbcr Technik Und Wirtschaft Mittweida'
p50
(lp51
S'Hochschule F\xc3\xbcr Technik Und Wirtschaft Mittweida'
p52
asS'Hong Kong University Of Science And Technology'
p53
(lp54
S'Hong Kong University Of Science And Technology'
p55
asS'Hastings College'
p56
(lp57
S'Hastings College'
p58
asS'Hogeschool Van Utrecht'
p59
(lp60
S'Hogeschool Van Utrecht'
p61
asS'Hitotsubashi University'
p62
(lp63
S'Hitotsubashi University'
p64
asS'H\xc3\xbfgskolen I Hedmark'
p65
(lp66
S'H\xc3\xbfgskolen I Hedmark'
p67
asS'Huntington College'
p68
(lp69
S'Huntington College'
p70
asS'Hartland Institute Of Health And Education'
p71
(lp72
S'Hartland Institute Of Health And Education'
p73
asS'Hiram College'
p74
(lp75
S'Hiram College'
p76
asS'Hiroshima City University'
p77
(lp78
S'Hiroshima City University'
p79
asS'Heriot-watt University'
p80
(lp81
S'Heriot-watt University'
p82
asS'Hope College'
p83
(lp84
S'Hope College'
p85
asS'Houston Community College System'
p86
(lp87
S'Houston Community College System'
p88
asS'Hunan Agricultural University'
p89
(lp90
S'Hunan Agricultural University'
p91
asS'Helsinki Business Polytechnic'
p92
(lp93
S'Helsinki Business Polytechnic'
p94
asS'Hocking College'
p95
(lp96
S'Hocking College'
p97
asS'Harvard University'
p98
(lp99
S'Harvard University'
p100
asS'Halmstad University'
p101
(lp102
S'Halmstad University'
p103
asS'Hallym University'
p104
(lp105
S'Hallym University'
p106
asS'Henderson State University'
p107
(lp108
S'Henderson State University'
p109
asS'Heald Institute Of Technology'
p110
(lp111
S'Heald Institute Of Technology'
p112
asS'Humber College Of Applied Arts And Technology'
p113
(lp114
S'Humber College Of Applied Arts And Technology'
p115
asS'Helsinki School Of Economics'
p116
(lp117
S'Helsinki School Of Economics'
p118
asS'Huafan College Of Humanitites And Technology'
p119
(lp120
S'Huafan College Of Humanitites And Technology'
p121
asS'Humboldt State University'
p122
(lp123
S'Humboldt State University'
p124
asS'Hamline University'
p125
(lp126
S'Hamline University'
p127
asS'Hiroshima Institute Of Technology'
p128
(lp129
S'Hiroshima Institute Of Technology'
p130
asS'Holland College'
p131
(lp132
S'Holland College'
p133
asS'H\xc3\xb6gskolan P\xc3\xa5 Gotland'
p134
(lp135
S'H\xc3\xb6gskolan P\xc3\xa5 Gotland'
p136
asS'Hahnemann University'
p137
(lp138
S'Hahnemann University'
p139
asS'Hiroshima-denki Institute Of Technology'
p140
(lp141
S'Hiroshima-denki Institute Of Technology'
p142
asS'Hong Kong Baptist University'
p143
(lp144
S'Hong Kong Baptist University'
p145
asS'Hiroshima University'
p146
(lp147
S'Hiroshima University'
p148
asS'Hanover College'
p149
(lp150
S'Hanover College'
p151
asS'Haagse Hogeschool'
p152
(lp153
S'Haagse Hogeschool'
p154
asS'Hochschule F\xc3\xbcr Technik, wirtschaft Und Sozialwesen Zittau/G\xc3\xb6rlit'
p155
(lp156
S'Hochschule F\xc3\xbcr Technik, wirtschaft Und Sozialwesen Zittau/G\xc3\xb6rlit'
p157
asS'Hirosaki University'
p158
(lp159
S'Hirosaki University'
p160
asS'Hochschule F\xc3\xbcr Musik Und Darstellende Kunst Mozarteum'
p161
(lp162
S'Hochschule F\xc3\xbcr Musik Und Darstellende Kunst Mozarteum'
p163
asS'Hudson Valley Community College'
p164
(lp165
S'Hudson Valley Community College'
p166
asS'Heidelberg College'
p167
(lp168
S'Heidelberg College'
p169
asS'Hogeschool Van Amsterdam'
p170
(lp171
S'Hogeschool Van Amsterdam'
p172
asS'High Point University'
p173
(lp174
S'High Point University'
p175
asS'Hochschule F\xc3\xbcr Technik Und Wirtshaft Zwickau'
p176
(lp177
S'Hochschule F\xc3\xbcr Technik Und Wirtshaft Zwickau'
p178
asS'Hogeschool Eindhoven'
p179
(lp180
S'Hogeschool Eindhoven'
p181
asS'Honolulu Community College'
p182
(lp183
S'Honolulu Community College'
p184
asS'Hung-kuang College Of Nursing'
p185
(lp186
S'Hung-kuang College Of Nursing'
p187
asS'Hood College'
p188
(lp189
S'Hood College'
p190
asS'Hanyang University'
p191
(lp192
S'Hanyang University'
p193
asS'Hangzhou University'
p194
(lp195
S'Hangzhou University'
p196
asS'Hendrix College'
p197
(lp198
S'Hendrix College'
p199
asS'Hampton University'
p200
(lp201
S'Hampton University'
p202
asS'Hebrew College'
p203
(lp204
S'Hebrew College'
p205
asS'Howard Community College'
p206
(lp207
S'Howard Community College'
p208
asS'Hillsdale College'
p209
(lp210
S'Hillsdale College'
p211
asS'Hawaii Pacific University'
p212
(lp213
S'Hawaii Pacific University'
p214
asS'Huntingdon College'
p215
(lp216
S'Huntingdon College'
p217
asS'Heinrich-heine-universit\xc3\xa5t D\xc3\xbcsseldorf'
p218
(lp219
S'Heinrich-heine-universit\xc3\xa5t D\xc3\xbcsseldorf'
p220
asS'Hastings College Of Law'
p221
(lp222
S'Hastings College Of Law'
p223
asS'H\xc3\xbfgskolen I Oslo'
p224
(lp225
S'H\xc3\xbfgskolen I Oslo'
p226
asS'Hofstra University'
p227
(lp228
S'Hofstra University'
p229
asS'Huddersfield University'
p230
(lp231
S'Huddersfield University'
p232
asS'Hochschule F\xc3\xbcr Technik, Wirtschaft Und Kultur Leipzig'
p233
(lp234
S'Hochschule F\xc3\xbcr Technik, Wirtschaft Und Kultur Leipzig'
p235
asS'H\xc3\xa5me Polytechnic'
p236
(lp237
S'H\xc3\xa5me Polytechnic'
p238
asS'Hohai University'
p239
(lp240
S'Hohai University'
p241
asS'Hautes Etudes Commerciales'
p242
(lp243
S'Hautes Etudes Commerciales'
p244
asS'Humboldt-university, Berlin'
p245
(lp246
S'Humboldt-university, Berlin'
p247
asS'Haverford College'
p248
(lp249
S'Haverford College'
p250
asS'Hesston College'
p251
(lp252
S'Hesston College'
p253
asS'Hebrew University Of Jerusalem'
p254
(lp255
S'Hebrew University Of Jerusalem'
p256
asS'Hochschule F\xc3\xbcr Architektur Und Bauwesen Weimar'
p257
(lp258
S'Hochschule F\xc3\xbcr Architektur Und Bauwesen Weimar'
p259
asS'Hachinohe Institute Of Technology'
p260
(lp261
S'Hachinohe Institute Of Technology'
p262
asS'Huazhong University Of Science & Technology'
p263
(lp264
S'Huazhong University Of Science & Technology'
p265
aS'Huazhong University Of Science & Technology'
p266
asS'Hankook University Of Foreign Studies'
p267
(lp268
S'Hankook University Of Foreign Studies'
p269
asS'Hanzehogeschool'
p270
(lp271
S'Hanzehogeschool'
p272
asS'Hokkaido University'
p273
(lp274
S'Hokkaido University'
p275
asS'Harding University'
p276
(lp277
S'Harding University'
p278
asS'Handelshochschule Leipzig'
p279
(lp280
S'Handelshochschule Leipzig'
p281
asS'Higher Colleges Of Technology'
p282
(lp283
S'Higher Colleges Of Technology'
p284
asS'Hampden-sydney College'
p285
(lp286
S'Hampden-sydney College'
p287
asS'Harbin Institute Of Technology'
p288
(lp289
S'Harbin Institute Of Technology'
p290
asS'Hokkaido University Of Education'
p291
(lp292
S'Hokkaido University Of Education'
p293
asS'Hobart And William Smith Colleges'
p294
(lp295
S'Hobart And William Smith Colleges'
p296
asS'Hamilton College'
p297
(lp298
S'Hamilton College'
p299
as.