(dp1
S'Jawaharlal Nehru Technological University'
p2
(lp3
S'Jawaharlal Nehru Technological University'
p4
asS'James Cook University'
p5
(lp6
S'James Cook University'
p7
asS'Johnson County Community College'
p8
(lp9
S'Johnson County Community College'
p10
asS'Jackson State Community College'
p11
(lp12
S'Jackson State Community College'
p13
asS'Japan Advanced Institute Of Science And Technology'
p14
(lp15
S'Japan Advanced Institute Of Science And Technology'
p16
asS'J\xc3\xb6nk\xc3\xb6ping International Business School'
p17
(lp18
S'J\xc3\xb6nk\xc3\xb6ping International Business School'
p19
asS'Jordan University Of Science And Technology'
p20
(lp21
S'Jordan University Of Science And Technology'
p22
asS'Joliet Junior College'
p23
(lp24
S'Joliet Junior College'
p25
asS'Johnson & Wales University, Rhode Island'
p26
(lp27
S'Johnson & Wales University, Rhode Island'
p28
asS'Johannes Kepler University Of Linz'
p29
(lp30
S'Johannes Kepler University Of Linz'
p31
asS'Johannes Gutenberg Universit\xc3\xa5t, Mainz'
p32
(lp33
S'Johannes Gutenberg Universit\xc3\xa5t, Mainz'
p34
asS'Jawaharlal Nehru University'
p35
(lp36
S'Jawaharlal Nehru University'
p37
asS"Japan Women's University"
p38
(lp39
S"Japan Women's University"
p40
asS'Juhasz Gyula Teacher Training College'
p41
(lp42
S'Juhasz Gyula Teacher Training College'
p43
asS'Jacksonville University'
p44
(lp45
S'Jacksonville University'
p46
asS'Janus Pannonius University'
p47
(lp48
S'Janus Pannonius University'
p49
asS'Jilin University'
p50
(lp51
S'Jilin University'
p52
aS'Jilin University'
p53
asS'J\xc3\xb6nk\xc3\xb6ping University'
p54
(lp55
S'J\xc3\xb6nk\xc3\xb6ping University'
p56
asS'Jin Wen College'
p57
(lp58
S'Jin Wen College'
p59
asS'Julius-maximilians-universit\xc3\xa5t, W\xc3\xbcrzburg'
p60
(lp61
S'Julius-maximilians-universit\xc3\xa5t, W\xc3\xbcrzburg'
p62
asS'Johnson C. Smith University'
p63
(lp64
S'Johnson C. Smith University'
p65
asS'Jacksonville State University, Alabama'
p66
(lp67
S'Jacksonville State University, Alabama'
p68
asS'Johnson & Wales University, South Carolina'
p69
(lp70
S'Johnson & Wales University, South Carolina'
p71
asS'Judson College'
p72
(lp73
S'Judson College'
p74
asS'John Brown University'
p75
(lp76
S'John Brown University'
p77
asS'Jessenius Faculty Of Medicine'
p78
(lp79
S'Jessenius Faculty Of Medicine'
p80
asS'James Madison University'
p81
(lp82
S'James Madison University'
p83
asS'Jones College'
p84
(lp85
S'Jones College'
p86
asS'John A. Logan College'
p87
(lp88
S'John A. Logan College'
p89
asS'Jacksonville State University'
p90
(lp91
S'Jacksonville State University'
p92
asS'Jones County Junior College'
p93
(lp94
S'Jones County Junior College'
p95
asS'Jagiellonian University'
p96
(lp97
S'Jagiellonian University'
p98
asS'Johns Hopkins University'
p99
(lp100
S'Johns Hopkins University'
p101
asS'John F. Kennedy School Of Government'
p102
(lp103
S'John F. Kennedy School Of Government'
p104
asS'Jefferson State Community College'
p105
(lp106
S'Jefferson State Community College'
p107
asS'J. E. Purkyne University'
p108
(lp109
S'J. E. Purkyne University'
p110
asS'Jamestown College'
p111
(lp112
S'Jamestown College'
p113
asS'Jefferson Community College'
p114
(lp115
S'Jefferson Community College'
p116
asS'John Carroll University'
p117
(lp118
S'John Carroll University'
p119
asS'Jadavpur University'
p120
(lp121
S'Jadavpur University'
p122
asS'John Marshall Law School'
p123
(lp124
S'John Marshall Law School'
p125
asS'Jackson State University'
p126
(lp127
S'Jackson State University'
p128
as.