(dp1
S'Technikum Winterthur Ingenieurschule'
p2
(lp3
S'Technikum Winterthur Ingenieurschule'
p4
asS'Tomball College'
p5
(lp6
S'Tomball College'
p7
asS'Texas Southern University'
p8
(lp9
S'Texas Southern University'
p10
asS'Trinity University'
p11
(lp12
S'Trinity University'
p13
asS'Thammasat University'
p14
(lp15
S'Thammasat University'
p16
asS'Tri-state University'
p17
(lp18
S'Tri-state University'
p19
asS'Tokyo University Of Agriculture & Technology'
p20
(lp21
S'Tokyo University Of Agriculture & Technology'
p22
asS'Technical University Of Timisoara'
p23
(lp24
S'Technical University Of Timisoara'
p25
asS'Trinity College'
p26
(lp27
S'Trinity College'
p28
asS'Technical University Of Iasi'
p29
(lp30
S'Technical University Of Iasi'
p31
asS'Taegu University'
p32
(lp33
S'Taegu University'
p34
asS'Technische Universit\xc3\xa5t Berlin'
p35
(lp36
S'Technische Universit\xc3\xa5t Berlin'
p37
asS'Technical University In Zvolen'
p38
(lp39
S'Technical University In Zvolen'
p40
asS'Toronto School Of Theology'
p41
(lp42
S'Toronto School Of Theology'
p43
asS'Tokyo International University'
p44
(lp45
S'Tokyo International University'
p46
asS'Tokai University'
p47
(lp48
S'Tokai University'
p49
asS'Technische Universit\xc3\xa5t Braunschweig'
p50
(lp51
S'Technische Universit\xc3\xa5t Braunschweig'
p52
asS"The King's University College"
p53
(lp54
S"The King's University College"
p55
asS'Taylor University'
p56
(lp57
S'Taylor University'
p58
asS'The American College'
p59
(lp60
S'The American College'
p61
asS'Tatung Institute Of Technology'
p62
(lp63
S'Tatung Institute Of Technology'
p64
asS'Technical University Of Cluj'
p65
(lp66
S'Technical University Of Cluj'
p67
asS'Technische Universit\xc3\xa5t Clausthal'
p68
(lp69
S'Technische Universit\xc3\xa5t Clausthal'
p70
asS'Tokyo Kaseigakuin Tsukuba Junior College'
p71
(lp72
S'Tokyo Kaseigakuin Tsukuba Junior College'
p73
asS'Tunghai University'
p74
(lp75
S'Tunghai University'
p76
asS'Tele-universite'
p77
(lp78
S'Tele-universite'
p79
asS'Toccoa Falls College'
p80
(lp81
S'Toccoa Falls College'
p82
asS'Tongji University'
p83
(lp84
S'Tongji University'
p85
asS'Temple University'
p86
(lp87
S'Temple University'
p88
asS'Technikum Vorarlberg'
p89
(lp90
S'Technikum Vorarlberg'
p91
asS'Temasek Polytechnic'
p92
(lp93
S'Temasek Polytechnic'
p94
asS'Technische Fachhochschule Berlin'
p95
(lp96
S'Technische Fachhochschule Berlin'
p97
asS'Texas A&m University'
p98
(lp99
S'Texas A&m University'
p100
asS'Technische Universit\xc3\xa5t Ilmenau'
p101
(lp102
S'Technische Universit\xc3\xa5t Ilmenau'
p103
asS'Teikyo Post University'
p104
(lp105
S'Teikyo Post University'
p106
asS'Tohoku University'
p107
(lp108
S'Tohoku University'
p109
asS"The Queen's College, Oxford"
p110
(lp111
S"The Queen's College, Oxford"
p112
asS'Tamsui Oxford University College'
p113
(lp114
S'Tamsui Oxford University College'
p115
asS'Tel Aviv University'
p116
(lp117
S'Tel Aviv University'
p118
asS'Teikyo University'
p119
(lp120
S'Teikyo University'
p121
asS'Tulane University'
p122
(lp123
S'Tulane University'
p124
asS'Tokyo University Of Foreign Studies'
p125
(lp126
S'Tokyo University Of Foreign Studies'
p127
asS'Texas A&m University - Kingsville'
p128
(lp129
S'Texas A&m University - Kingsville'
p130
asS'Transylvania University'
p131
(lp132
S'Transylvania University'
p133
asS'Thadomal Shahani Engineering College'
p134
(lp135
S'Thadomal Shahani Engineering College'
p136
asS'Texas Tech University'
p137
(lp138
S'Texas Tech University'
p139
asS'Technical University Of Crete'
p140
(lp141
S'Technical University Of Crete'
p142
asS'Technical University Of Targu Mures'
p143
(lp144
S'Technical University Of Targu Mures'
p145
asS'Toyama Medical And Pharmaceutical University'
p146
(lp147
S'Toyama Medical And Pharmaceutical University'
p148
asS'Triton College'
p149
(lp150
S'Triton College'
p151
asS"Tokyo Women's Medial College"
p152
(lp153
S"Tokyo Women's Medial College"
p154
asS'Texas A&m International University'
p155
(lp156
S'Texas A&m International University'
p157
asS'Texas Christian University'
p158
(lp159
S'Texas Christian University'
p160
asS'Trinity College & Theological Seminary'
p161
(lp162
S'Trinity College & Theological Seminary'
p163
asS'Tarleton State University'
p164
(lp165
S'Tarleton State University'
p166
asS'Taejeon Vocational Junior College'
p167
(lp168
S'Taejeon Vocational Junior College'
p169
asS"Texas Woman's University"
p170
(lp171
S"Texas Woman's University"
p172
asS'Technical University Of Brno'
p173
(lp174
S'Technical University Of Brno'
p175
asS'Tufts University'
p176
(lp177
S'Tufts University'
p178
asS'Texas A&m University, Corpus Christi'
p179
(lp180
S'Texas A&m University, Corpus Christi'
p181
asS'Tung Nan Junior College Of Technology'
p182
(lp183
S'Tung Nan Junior College Of Technology'
p184
asS'Technische Universit\xc3\xa5t Hamburg-harburg'
p185
(lp186
S'Technische Universit\xc3\xa5t Hamburg-harburg'
p187
asS'Tsinghua University'
p188
(lp189
S'Tsinghua University'
p190
asS'Technical University Of Nova Scotia'
p191
(lp192
S'Technical University Of Nova Scotia'
p193
asS'Tokyo Metropolitan College Of Aeronautical Engineering'
p194
(lp195
S'Tokyo Metropolitan College Of Aeronautical Engineering'
p196
asS'Tidewater Community College'
p197
(lp198
S'Tidewater Community College'
p199
asS"Tokyo Woman's Christian University"
p200
(lp201
S"Tokyo Woman's Christian University"
p202
asS'Takuma National College Of Technology'
p203
(lp204
S'Takuma National College Of Technology'
p205
asS'Technische Universit\xc3\xa5t Freiberg'
p206
(lp207
S'Technische Universit\xc3\xa5t Freiberg'
p208
asS'Truckee Meadows Community College'
p209
(lp210
S'Truckee Meadows Community College'
p211
asS'Thomas Edison State College'
p212
(lp213
S'Thomas Edison State College'
p214
asS'Tennessee State University'
p215
(lp216
S'Tennessee State University'
p217
asS'Technische Universit\xc3\xa5t Chemnitz-zwickau'
p218
(lp219
S'Technische Universit\xc3\xa5t Chemnitz-zwickau'
p220
asS'Tianjin University'
p221
(lp222
S'Tianjin University'
p223
asS'Trent University'
p224
(lp225
S'Trent University'
p226
asS'Trenton State College'
p227
(lp228
S'Trenton State College'
p229
asS'Tokyo Gakugei University'
p230
(lp231
S'Tokyo Gakugei University'
p232
asS'Texas State Technical College'
p233
(lp234
S'Texas State Technical College'
p235
asS'Technical University Of Denmark'
p236
(lp237
S'Technical University Of Denmark'
p238
asS'Tokyo Medical And Dental University'
p239
(lp240
S'Tokyo Medical And Dental University'
p241
asS'Tampere Institute Of Technology'
p242
(lp243
S'Tampere Institute Of Technology'
p244
asS'Technische Universit\xc3\xa5t M\xc3\xbcnchen'
p245
(lp246
S'Technische Universit\xc3\xa5t M\xc3\xbcnchen'
p247
asS'Tokyo Kogei Tanki University'
p248
(lp249
S'Tokyo Kogei Tanki University'
p250
asS'Tucson University'
p251
(lp252
S'Tucson University'
p253
asS'Tomsk State University'
p254
(lp255
S'Tomsk State University'
p256
asS'Temple University Japan'
p257
(lp258
S'Temple University Japan'
p259
asS'Taipei Medical College'
p260
(lp261
S'Taipei Medical College'
p262
asS'Tampere University Of Technology'
p263
(lp264
S'Tampere University Of Technology'
p265
asS'Technical University Of British Columbia'
p266
(lp267
S'Technical University Of British Columbia'
p268
asS'T\xc3\xbcrkiye Bilimsel Ve Teknik Arastirma Kurumu'
p269
(lp270
S'T\xc3\xbcrkiye Bilimsel Ve Teknik Arastirma Kurumu'
p271
asS'Toyama University'
p272
(lp273
S'Toyama University'
p274
asS'Tamkang University'
p275
(lp276
S'Tamkang University'
p277
asS'Thomas More College'
p278
(lp279
S'Thomas More College'
p280
asS'Tokyo Institute Of Technology'
p281
(lp282
S'Tokyo Institute Of Technology'
p283
asS'Teachers College'
p284
(lp285
S'Teachers College'
p286
asS'Technische Hochschule Darmstadt'
p287
(lp288
S'Technische Hochschule Darmstadt'
p289
asS'Trinidad State Junior College'
p290
(lp291
S'Trinidad State Junior College'
p292
asS'Tanjore Medical College'
p293
(lp294
S'Tanjore Medical College'
p295
asS'Telemark College'
p296
(lp297
S'Telemark College'
p298
asS'Trinity Western University'
p299
(lp300
S'Trinity Western University'
p301
asS'Tallinn Technical University'
p302
(lp303
S'Tallinn Technical University'
p304
asS'Thomas Jefferson University'
p305
(lp306
S'Thomas Jefferson University'
p307
asS'Towson State University'
p308
(lp309
S'Towson State University'
p310
asS'Tralee Regional Technical College'
p311
(lp312
S'Tralee Regional Technical College'
p313
asS'Trinity College Dublin'
p314
(lp315
S'Trinity College Dublin'
p316
asS'Tilburg University'
p317
(lp318
S'Tilburg University'
p319
asS'Technion, Israel Institute Of Technology'
p320
(lp321
S'Technion, Israel Institute Of Technology'
p322
asS'Taft College'
p323
(lp324
S'Taft College'
p325
asS'Technical University Kosice'
p326
(lp327
S'Technical University Kosice'
p328
asS'Tennessee Technological University'
p329
(lp330
S'Tennessee Technological University'
p331
asS'Tompkins Cortland Community College'
p332
(lp333
S'Tompkins Cortland Community College'
p334
asS'Technische Universit\xc3\xa5t Dresden'
p335
(lp336
S'Technische Universit\xc3\xa5t Dresden'
p337
asS'Thomas College'
p338
(lp339
S'Thomas College'
p340
asS'Technical University Of Budapest'
p341
(lp342
S'Technical University Of Budapest'
p343
asS'Technikon Southern Africa'
p344
(lp345
S'Technikon Southern Africa'
p346
asS'Tama Institute Of Management & Information Sciences'
p347
(lp348
S'Tama Institute Of Management & Information Sciences'
p349
as.