(dp1
S"Ecole Nationale Superieure D'electronique, D'electrotechnique, D'informatique Et D'hydraulique De Toulouse"
p2
(lp3
S"Ecole Nationale Superieure D'electronique, D'electrotechnique, D'informatique Et D'hydraulique De Toulouse"
p4
asS'Eastern Michigan University'
p5
(lp6
S'Eastern Michigan University'
p7
asS"Ecole Nationale D'administration Publique"
p8
(lp9
S"Ecole Nationale D'administration Publique"
p10
asS'European Business School Schlo\xc3\x9f Reichartshausen'
p11
(lp12
S'European Business School Schlo\xc3\x9f Reichartshausen'
p13
asS'Ehime University'
p14
(lp15
S'Ehime University'
p16
asS'Edinboro University'
p17
(lp18
S'Edinboro University'
p19
asS'Emmaus Bible College'
p20
(lp21
S'Emmaus Bible College'
p22
asS'Ecole Centrale De Lyon'
p23
(lp24
S'Ecole Centrale De Lyon'
p25
asS'Enpc Graduate School Of International Business'
p26
(lp27
S'Enpc Graduate School Of International Business'
p28
asS'Eastern Washington University'
p29
(lp30
S'Eastern Washington University'
p31
asS'Emerson College'
p32
(lp33
S'Emerson College'
p34
asS'Ecole Nationale Sup\xc3\xa9rieure Des Mines De St-etienne'
p35
(lp36
S'Ecole Nationale Sup\xc3\xa9rieure Des Mines De St-etienne'
p37
asS'East Stroudsburg State University'
p38
(lp39
S'East Stroudsburg State University'
p40
asS'El Colegio De Michoac\xc3\xa1n'
p41
(lp42
S'El Colegio De Michoac\xc3\xa1n'
p43
asS'Estrella Mountain Community College'
p44
(lp45
S'Estrella Mountain Community College'
p46
asS'Ecole Superieure De Commerce De Marseille-provence'
p47
(lp48
S'Ecole Superieure De Commerce De Marseille-provence'
p49
asS'Ecole Centrale Paris'
p50
(lp51
S'Ecole Centrale Paris'
p52
asS'Elizabethtown Community College'
p53
(lp54
S'Elizabethtown Community College'
p55
asS"Ewha Women's University"
p56
(lp57
S"Ewha Women's University"
p58
asS'Escola T\xc3\xa9cnica Federal De Goi\xc3\xa1'
p59
(lp60
S'Escola T\xc3\xa9cnica Federal De Goi\xc3\xa1'
p61
asS'Evergreen State College'
p62
(lp63
S'Evergreen State College'
p64
asS'Emory University'
p65
(lp66
S'Emory University'
p67
asS'Emory And Henry College'
p68
(lp69
S'Emory And Henry College'
p70
asS'Eastern Iowa Community College District'
p71
(lp72
S'Eastern Iowa Community College District'
p73
asS'Ecole De Technologie Supirieure'
p74
(lp75
S'Ecole De Technologie Supirieure'
p76
asS"Ecole Internationale Des Sciences Du Traitement De L'information"
p77
(lp78
S"Ecole Internationale Des Sciences Du Traitement De L'information"
p79
asS'European Institute Of Business Administration'
p80
(lp81
S'European Institute Of Business Administration'
p82
asS'Erasmus University Of Rotterdam'
p83
(lp84
S'Erasmus University Of Rotterdam'
p85
asS'Escuela De Administracion De Negocios Para Graduados'
p86
(lp87
S'Escuela De Administracion De Negocios Para Graduados'
p88
asS"Ecole Nationale De L'aviation Civile"
p89
(lp90
S"Ecole Nationale De L'aviation Civile"
p91
asS'Earlham College'
p92
(lp93
S'Earlham College'
p94
asS'Embry Riddle Aeronautical University, Arizona'
p95
(lp96
S'Embry Riddle Aeronautical University, Arizona'
p97
asS'Escola Federal De Engenharia De Itajuba'
p98
(lp99
S'Escola Federal De Engenharia De Itajuba'
p100
asS'Eastern New Mexico University'
p101
(lp102
S'Eastern New Mexico University'
p103
asS'East Carolina University'
p104
(lp105
S'East Carolina University'
p106
asS"Ecole Nationale Sup\xc3\xa9rieure D'arts Et M\xc3\xa9tiers De Paris"
p107
(lp108
S"Ecole Nationale Sup\xc3\xa9rieure D'arts Et M\xc3\xa9tiers De Paris"
p109
asS'Evergreen Valley College'
p110
(lp111
S'Evergreen Valley College'
p112
asS"Ecole Nationale Sup\xc3\xa9rieure D'electronique Et De Radio\xc3\xa9lectricit\xc3\xa9 De Grenoble"
p113
(lp114
S"Ecole Nationale Sup\xc3\xa9rieure D'electronique Et De Radio\xc3\xa9lectricit\xc3\xa9 De Grenoble"
p115
asS'Ege University'
p116
(lp117
S'Ege University'
p118
asS'Eotvos Lorand University Of Sciences'
p119
(lp120
S'Eotvos Lorand University Of Sciences'
p121
asS'East Tennessee State University'
p122
(lp123
S'East Tennessee State University'
p124
asS"Ecole Nationale Sup\xc3\xa9rieure D'informatique Et De Math\xc3\xa9matiques Appliqu\xc3\xa9es De Grenoble"
p125
(lp126
S"Ecole Nationale Sup\xc3\xa9rieure D'informatique Et De Math\xc3\xa9matiques Appliqu\xc3\xa9es De Grenoble"
p127
asS'East Texas State University'
p128
(lp129
S'East Texas State University'
p130
asS'East China University Of Science And Technology'
p131
(lp132
S'East China University Of Science And Technology'
p133
asS'East Central University, Ada Ok'
p134
(lp135
S'East Central University, Ada Ok'
p136
asS'Escuela De Agricultura De La Regi\xc3\xb3n Tropical H\xc3\xbameda'
p137
(lp138
S'Escuela De Agricultura De La Regi\xc3\xb3n Tropical H\xc3\xbameda'
p139
aS'Escuela De Agricultura De La Regi\xc3\xb3n Tropical H\xc3\xbameda'
p140
asS'Erindale College'
p141
(lp142
S'Erindale College'
p143
asS'Edmonds Community College'
p144
(lp145
S'Edmonds Community College'
p146
asS'Eastern Mediterranean University'
p147
(lp148
S'Eastern Mediterranean University'
p149
asS'Embry Riddle Aeronautical University, Florida'
p150
(lp151
S'Embry Riddle Aeronautical University, Florida'
p152
asS'Ecole Nationale Superieure Des Telecommunications De Paris'
p153
(lp154
S'Ecole Nationale Superieure Des Telecommunications De Paris'
p155
asS'Eastern Mennonite University'
p156
(lp157
S'Eastern Mennonite University'
p158
asS'Eastern Virginia Medical School'
p159
(lp160
S'Eastern Virginia Medical School'
p161
asS'Erie Community College'
p162
(lp163
S'Erie Community College'
p164
asS'Eckerd College'
p165
(lp166
S'Eckerd College'
p167
asS'Everett Community College'
p168
(lp169
S'Everett Community College'
p170
asS'Europa-universit\xc3\xa5t Viadrina Frankfurt'
p171
(lp172
S'Europa-universit\xc3\xa5t Viadrina Frankfurt'
p173
asS'Emory & Henry College'
p174
(lp175
S'Emory & Henry College'
p176
asS'Eastern Kentucky University'
p177
(lp178
S'Eastern Kentucky University'
p179
asS'El Colegio De Mexico, A.c.'
p180
(lp181
S'El Colegio De Mexico, A.c.'
p182
asS'Escola De Administra\xc3\xa7\xc3\xa3o De Empresas De S\xc3\xa3o Paulo Funda\xc3\xa7\xc3\xa3o Get\xc3\xbalio Vargas'
p183
(lp184
S'Escola De Administra\xc3\xa7\xc3\xa3o De Empresas De S\xc3\xa3o Paulo Funda\xc3\xa7\xc3\xa3o Get\xc3\xbalio Vargas'
p185
asS'Elmira College'
p186
(lp187
S'Elmira College'
p188
asS'Eastfield College'
p189
(lp190
S'Eastfield College'
p191
asS'Etisalat College Of Engineering'
p192
(lp193
S'Etisalat College Of Engineering'
p194
asS'Eindhoven University Of Technology'
p195
(lp196
S'Eindhoven University Of Technology'
p197
asS'Escuela T\xc3\xa9cnica Superior De Ingenieros De Minas De Oviedo'
p198
(lp199
S'Escuela T\xc3\xa9cnica Superior De Ingenieros De Minas De Oviedo'
p200
asS'Emporia State University'
p201
(lp202
S'Emporia State University'
p203
asS"Ecole Nationale Superieure D'ingenieurs En Construction Aeronautique"
p204
(lp205
S"Ecole Nationale Superieure D'ingenieurs En Construction Aeronautique"
p206
asS'El Paso Community College'
p207
(lp208
S'El Paso Community College'
p209
asS'Ecole Normale Sup\xc3\xa9rieure De Lyon'
p210
(lp211
S'Ecole Normale Sup\xc3\xa9rieure De Lyon'
p212
asS'Escuela Universitaria De Estudios Empresariales'
p213
(lp214
S'Escuela Universitaria De Estudios Empresariales'
p215
asS'Erskine College'
p216
(lp217
S'Erskine College'
p218
asS'Eastern Illinois University'
p219
(lp220
S'Eastern Illinois University'
p221
asS'Edgewood College'
p222
(lp223
S'Edgewood College'
p224
asS"Ecole Pour L'informatique Et Les Techniques Avanc\xc3\xa9e"
p225
(lp226
S"Ecole Pour L'informatique Et Les Techniques Avanc\xc3\xa9e"
p227
asS'Elon College'
p228
(lp229
S'Elon College'
p230
asS'Ecole Sup\xc3\xa9rieure En Sciences Informatiques'
p231
(lp232
S'Ecole Sup\xc3\xa9rieure En Sciences Informatiques'
p233
asS"Ecole Nationale Superieure D'electronique Et De Radioelectricite De Bordeaux"
p234
(lp235
S"Ecole Nationale Superieure D'electronique Et De Radioelectricite De Bordeaux"
p236
asS'Ecole Superieure De Commerce De Paris'
p237
(lp238
S'Ecole Superieure De Commerce De Paris'
p239
asS'Escola Superior De Educa\xc3\xa7\xc3\xa3o De Set\xc3\xbabal'
p240
(lp241
S'Escola Superior De Educa\xc3\xa7\xc3\xa3o De Set\xc3\xbabal'
p242
asS'Empire State Baptist Seminary'
p243
(lp244
S'Empire State Baptist Seminary'
p245
asS'Eastern College Of Applied Arts, Technology And Continuing Education'
p246
(lp247
S'Eastern College Of Applied Arts, Technology And Continuing Education'
p248
asS'Escuela Superior Polit\xc3\xa9cnica Del Litoral'
p249
(lp250
S'Escuela Superior Polit\xc3\xa9cnica Del Litoral'
p251
asS'Edith Cowan University'
p252
(lp253
S'Edith Cowan University'
p254
asS'Ecole Polytechnique De Montreal'
p255
(lp256
S'Ecole Polytechnique De Montreal'
p257
asS'European University Of Lefke'
p258
(lp259
S'European University Of Lefke'
p260
asS'Eastern Pentecostal Bible College'
p261
(lp262
S'Eastern Pentecostal Bible College'
p263
asS'Eckerd.college'
p264
(lp265
S'Eckerd.college'
p266
asS'Ernst-moritz-arndt-university Greifswald'
p267
(lp268
S'Ernst-moritz-arndt-university Greifswald'
p269
asS'Escuela Nacional De Marina Mercante'
p270
(lp271
S'Escuela Nacional De Marina Mercante'
p272
asS'European University Institute'
p273
(lp274
S'European University Institute'
p275
asS'Eastern Arizona College'
p276
(lp277
S'Eastern Arizona College'
p278
asS'Emmanuel College'
p279
(lp280
S'Emmanuel College'
p281
asS'Ecole Des Hautes Etudes Commerciales'
p282
(lp283
S'Ecole Des Hautes Etudes Commerciales'
p284
asS'European School Of Economics'
p285
(lp286
S'European School Of Economics'
p287
as.