(dp1
S'23424757'
p2
(lp3
S'Belgium'
p4
asS'23424756'
p5
(lp6
S'Bermuda'
p7
asS'23424755'
p8
(lp9
S'Botswana'
p10
asS'23424754'
p11
(lp12
S'Barbados'
p13
asS'23424753'
p14
(lp15
S'Bahrain'
p16
asS'23424947'
p17
(lp18
S'San Marino'
p19
asS'23424751'
p20
(lp21
S'Anguilla'
p22
asS'23424750'
p23
(lp24
S'Austria'
p25
asS'23424860'
p26
(lp27
S'Jordan'
p28
asS'23424863'
p29
(lp30
S'Kenya'
p31
asS'23424949'
p32
(lp33
S'Somalia'
p34
asS'23424865'
p35
(lp36
S"Democratic People's Republic Of Korea"
p37
aS'North Korea'
p38
aS"Korea, Democratic People's Republic Of"
p39
asS'23424864'
p40
(lp41
S'Kyrgyzstan'
p42
asS'23424759'
p43
(lp44
S'Bangladesh'
p45
asS'23424758'
p46
(lp47
S'Bahamas'
p48
asS'23424941'
p49
(lp50
S'Seychelles'
p51
asS'23424946'
p52
(lp53
S'Sierra Leone'
p54
asS'23424944'
p55
(lp56
S'Saint Helena, Ascension And Tristan Da Cunha'
p57
aS'Saint Helena'
p58
asS'23424945'
p59
(lp60
S'Slovenia'
p61
asS'23424948'
p62
(lp63
S'Singapore'
p64
asS'23424955'
p65
(lp66
S'South Georgia And The South Sandwich Islands'
p67
asS'23424954'
p68
(lp69
S'Sweden'
p70
asS'23424957'
p71
(lp72
S'Switzerland'
p73
asS'23424956'
p74
(lp75
S'Syrian Arab Republic'
p76
aS'Syria'
p77
asS'23424951'
p78
(lp79
S'Saint Lucia'
p80
asS'23424950'
p81
(lp82
S'Spain'
p83
asS'23424952'
p84
(lp85
S'Sudan'
p86
asS'23424814'
p87
(lp88
S'Falkland Islands'
p89
aS'Malvinas'
p90
aS'Falkland Islands (Malvinas)'
p91
asS'23424815'
p92
(lp93
S'Federated States Of Micronesia'
p94
aS'Micronesia'
p95
aS'Micronesia, Federated States Of'
p96
asS'23424816'
p97
(lp98
S'Faroe Islands'
p99
asS'23424817'
p100
(lp101
S'French Polynesia'
p102
asS'23424810'
p103
(lp104
S'Czech Republic'
p105
asS'23424811'
p106
(lp107
S'French Guiana'
p108
asS'23424812'
p109
(lp110
S'Finland'
p111
asS'23424813'
p112
(lp113
S'Fiji'
p114
asS'23424867'
p115
(lp116
S'Kiribati'
p117
asS'23424894'
p118
(lp119
S'Mauritius'
p120
asS'23424896'
p121
(lp122
S'Mauritania'
p123
asS'23424897'
p124
(lp125
S'Malta'
p126
asS'23424890'
p127
(lp128
S'Macedonia'
p129
aS'The Former Yugoslav Republic Of Macedonia'
p130
aS'Macedonia, The Former Yugoslav Republic Of'
p131
asS'23424891'
p132
(lp133
S'Mali'
p134
asS'23424892'
p135
(lp136
S'Monaco'
p137
asS'23424893'
p138
(lp139
S'Morocco'
p140
asS'23424898'
p141
(lp142
S'Oman'
p143
asS'23424899'
p144
(lp145
S'Maldives'
p146
asS'23424808'
p147
(lp148
S'Ethiopia'
p149
asS'23424807'
p150
(lp151
S'El Salvador'
p152
aS'Salvador'
p153
asS'23424806'
p154
(lp155
S'Eritrea'
p156
asS'23424805'
p157
(lp158
S'Estonia'
p159
asS'23424804'
p160
(lp161
S'Equatorial Guinea'
p162
asS'23424803'
p163
(lp164
S'Ireland'
p165
asS'23424802'
p166
(lp167
S'Egypt'
p168
asS'23424801'
p169
(lp170
S'Ecuador'
p171
asS'23424800'
p172
(lp173
S'Dominican Republic'
p174
asS'23424922'
p175
(lp176
S'Pakistan'
p177
asS'23424923'
p178
(lp179
S'Poland'
p180
asS'23424924'
p181
(lp182
S'Panama'
p183
asS'23424925'
p184
(lp185
S'Portugal'
p186
asS'23424926'
p187
(lp188
S'Papua New Guinea'
p189
asS'20069817'
p190
(lp191
S'Montenegro'
p192
asS'20069818'
p193
(lp194
S'Serbia'
p195
asS'23424929'
p196
(lp197
S'Guinea-Bissau'
p198
asS'23424887'
p199
(lp200
S'Mongolia'
p201
asS'23424886'
p202
(lp203
S'Mayotte'
p204
asS'23424885'
p205
(lp206
S'Republic Of Moldova'
p207
aS'Moldova'
p208
aS'Moldova, Republic Of'
p209
aS'Moldavia'
p210
asS'23424884'
p211
(lp212
S'Martinique'
p213
asS'23424883'
p214
(lp215
S'Madagascar'
p216
asS'23424882'
p217
(lp218
S'Libyan Arab Jamahiriya'
p219
aS'Libya'
p220
asS'23424881'
p221
(lp222
S'Luxembourg'
p223
asS'23424880'
p224
(lp225
S'Lesotho'
p226
asS'26812346'
p227
(lp228
S'Cyprus'
p229
asS'23424978'
p230
(lp231
S'Burkina Faso'
p232
asS'23424889'
p233
(lp234
S'Malawi'
p235
asS'23424888'
p236
(lp237
S'Montserrat'
p238
asS'23424965'
p239
(lp240
S'Togo'
p241
asS'23424768'
p242
(lp243
S'Brazil'
p244
asS'23424762'
p245
(lp246
S'Plurinational State Of Bolivia'
p247
aS'Bolivia'
p248
aS'Bolivia, Plurinational State Of'
p249
asS'23424763'
p250
(lp251
S'Myanmar'
p252
aS'Burma'
p253
asS'23424760'
p254
(lp255
S'Belize'
p256
asS'23424761'
p257
(lp258
S'Bosnia And Herzegovina'
p259
asS'23424766'
p260
(lp261
S'Solomon Islands'
p262
asS'23424764'
p263
(lp264
S'Benin'
p265
asS'23424765'
p266
(lp267
S'Belarus'
p268
asS'23424832'
p269
(lp270
S'Guam'
p271
asS'23424833'
p272
(lp273
S'Greece'
p274
asS'23424831'
p275
(lp276
S'Guadeloupe'
p277
asS'23424836'
p278
(lp279
S'Guyana'
p280
asS'23424834'
p281
(lp282
S'Guatemala'
p283
asS'23424835'
p284
(lp285
S'Guinea'
p286
asS'23424942'
p287
(lp288
S'South Africa'
p289
asS'23424973'
p290
(lp291
S'United Republic Of Tanzania'
p292
aS'Tanzania'
p293
aS'Tanzania, United Republic Of'
p294
asS'23424839'
p295
(lp296
S'Haiti'
p297
asS'23424964'
p298
(lp299
S'Tonga'
p300
asS'23424933'
p301
(lp302
S'Romania'
p303
asS'23424932'
p304
(lp305
S'Marshall Islands'
p306
asS'23424931'
p307
(lp308
S'R\xc3\xa9union'
p309
aS'Reunion'
p310
asS'23424930'
p311
(lp312
S'Qatar'
p313
asS'23424937'
p314
(lp315
S'Rwanda'
p316
asS'23424936'
p317
(lp318
S'Russian Federation'
p319
aS'Russia'
p320
asS'23424935'
p321
(lp322
S'Puerto Rico'
p323
asS'23424934'
p324
(lp325
S'Philippines'
p326
asS'23424938'
p327
(lp328
S'Saudi Arabia'
p329
asS'23424943'
p330
(lp331
S'Senegal'
p332
asS'23425004'
p333
(lp334
S'Zimbabwe'
p335
asS'23425002'
p336
(lp337
S'Yemen'
p338
asS'23425003'
p339
(lp340
S'Zambia'
p341
asS'23424779'
p342
(lp343
S'Congo'
p344
asS'23424778'
p345
(lp346
S'Sri Lanka'
p347
asS'23424970'
p348
(lp349
S'Tuvalu'
p350
asS'23424775'
p351
(lp352
S'Canada'
p353
asS'23424774'
p354
(lp355
S'Burundi'
p356
asS'23424777'
p357
(lp358
S'Chad'
p359
asS'23424776'
p360
(lp361
S'Cambodia'
p362
asS'23424771'
p363
(lp364
S'Bulgaria'
p365
asS'23424770'
p366
(lp367
S'Bhutan'
p368
asS'23424773'
p369
(lp370
S'Brunei'
p371
aS'Brunei Darussalam'
p372
asS'23424825'
p373
(lp374
S'Gibraltar'
p375
asS'23424824'
p376
(lp377
S'Ghana'
p378
asS'23424940'
p379
(lp380
S'Saint Kitts And Nevis'
p381
asS'23424826'
p382
(lp383
S'Grenada'
p384
asS'23424821'
p385
(lp386
S'Gambia'
p387
asS'23424823'
p388
(lp389
S'Georgia'
p390
asS'23424822'
p391
(lp392
S'Gabon'
p393
asS'23424829'
p394
(lp395
S'Germany'
p396
aS'Deutschland'
p397
asS'23424828'
p398
(lp399
S'Greenland'
p400
asS'28289413'
p401
(lp402
S'Svalbard And Jan Mayen'
p403
asS'23424906'
p404
(lp405
S'Niger'
p406
asS'23424907'
p407
(lp408
S'Vanuatu'
p409
asS'23424904'
p410
(lp411
S'Niue'
p412
asS'23424905'
p413
(lp414
S'Norfolk Island'
p415
asS'23424902'
p416
(lp417
S'Mozambique'
p418
asS'23424903'
p419
(lp420
S'New Caledonia'
p421
asS'23424900'
p422
(lp423
S'Mexico'
p424
asS'23424901'
p425
(lp426
S'Malaysia'
p427
asS'23424908'
p428
(lp429
S'Nigeria'
p430
asS'23424909'
p431
(lp432
S'Netherlands'
p433
asS'23424986'
p434
(lp435
S'Holy See (Vatican City State)'
p436
aS'Holy See'
p437
aS'Vatican City State'
p438
aS'Vatican City'
p439
aS'Vatican'
p440
asS'23424987'
p441
(lp442
S'Namibia'
p443
asS'23424984'
p444
(lp445
S'Viet Nam'
p446
aS'Vietnam'
p447
asS'23424985'
p448
(lp449
S'United States Virgin Islands'
p450
aS'US Virgin Islands'
p451
aS'Virgin Islands, U.S.'
p452
aS'Virgin Islands, US'
p453
aS'U.S. Virgin Islands'
p454
asS'23424982'
p455
(lp456
S'Bolivarian Republic Of Venezuela'
p457
aS'Venezuela'
p458
aS'Venezuela, Bolivarian Republic Of'
p459
asS'23424983'
p460
(lp461
S'British Virgin Islands'
p462
aS'Virgin Islands, British'
p463
asS'23424980'
p464
(lp465
S'Uzbekistan'
p466
asS'23424981'
p467
(lp468
S'Saint Vincent And The Grenadines'
p469
asS'23424780'
p470
(lp471
S'The Democratic Republic Of The Congo'
p472
aS'Congo, The Democratic Republic Of The'
p473
asS'23424781'
p474
(lp475
S'China'
p476
asS'23424782'
p477
(lp478
S'Chile'
p479
asS'23424783'
p480
(lp481
S'Cayman Islands'
p482
asS'23424784'
p483
(lp484
S'Cocos (Keeling) Islands'
p485
aS'Cocos Islands'
p486
aS'Keeling Islands'
p487
asS'23424785'
p488
(lp489
S'Cameroon'
p490
asS'23424786'
p491
(lp492
S'Comoros'
p493
asS'23424787'
p494
(lp495
S'Colombia'
p496
asS'23424919'
p497
(lp498
S'Peru'
p499
asS'23424918'
p500
(lp501
S'Pitcairn'
p502
asS'23424967'
p503
(lp504
S'Tunisia'
p505
asS'23424869'
p506
(lp507
S'Christmas Island'
p508
asS'28289408'
p509
(lp510
S'Occupied Palestinian Territory'
p511
aS'Palestina'
p512
aS'Palestinian Territory, Occupied'
p513
asS'23424911'
p514
(lp515
S'Nepal'
p516
asS'23424910'
p517
(lp518
S'Norway'
p519
asS'23424913'
p520
(lp521
S'Suriname'
p522
asS'23424915'
p523
(lp524
S'Nicaragua'
p525
asS'23424914'
p526
(lp527
S'Netherlands Antilles'
p528
asS'23424917'
p529
(lp530
S'Paraguay'
p531
asS'23424916'
p532
(lp533
S'New Zealand'
p534
asS'23424851'
p535
(lp536
S'Islamic Republic Of Iran'
p537
aS'Iran'
p538
aS'Iran, Islamic Republic Of'
p539
asS'23424852'
p540
(lp541
S'Israel'
p542
asS'23424853'
p543
(lp544
S'Italy'
p545
asS'23424854'
p546
(lp547
S"C\xc3\xb4te D'Ivoire"
p548
aS'Ivory Coast'
p549
asS'23424855'
p550
(lp551
S'Iraq'
p552
asS'23424856'
p553
(lp554
S'Japan'
p555
asS'23424858'
p556
(lp557
S'Jamaica'
p558
asS'23424990'
p559
(lp560
S'Western Sahara'
p561
asS'23424993'
p562
(lp563
S'Swaziland'
p564
asS'23424992'
p565
(lp566
S'Samoa'
p567
asS'23424868'
p568
(lp569
S'Republic Of Korea'
p570
aS'South Korea'
p571
aS'Korea, Republic Of'
p572
asS'23424793'
p573
(lp574
S'Cuba'
p575
asS'23424792'
p576
(lp577
S'Central African Republic'
p578
asS'23424791'
p579
(lp580
S'Costa Rica'
p581
asS'23424797'
p582
(lp583
S'Djibouti'
p584
asS'23424796'
p585
(lp586
S'Denmark'
p587
asS'23424795'
p588
(lp589
S'Cook Islands'
p590
asS'23424794'
p591
(lp592
S'Cape Verde'
p593
asS'23424798'
p594
(lp595
S'Dominica'
p596
asS'23424968'
p597
(lp598
S'Timor-Leste'
p599
asS'23424969'
p600
(lp601
S'Turkey'
p602
asS'23424737'
p603
(lp604
S'Antigua And Barbuda'
p605
asS'23424736'
p606
(lp607
S'Aruba'
p608
asS'23424739'
p609
(lp610
S'Afghanistan'
p611
asS'23424738'
p612
(lp613
S'United Arab Emirates'
p614
asS'23424966'
p615
(lp616
S'S\xc3\xa3o Tom\xc3\xa9'
p617
aS'Sao Tome'
p618
asS'23424927'
p619
(lp620
S'Palau'
p621
asS'23424960'
p622
(lp623
S'Thailand'
p624
asS'23424961'
p625
(lp626
S'Tajikistan'
p627
asS'23424962'
p628
(lp629
S'Turks And Caicos Islands'
p630
asS'23424843'
p631
(lp632
S'Croatia'
p633
asS'20070017'
p634
(lp635
S'Macao'
p636
asS'23424841'
p637
(lp638
S'Honduras'
p639
asS'23424846'
p640
(lp641
S'Indonesia'
p642
asS'23424845'
p643
(lp644
S'Iceland'
p645
asS'23424844'
p646
(lp647
S'Hungary'
p648
asS'56042304'
p649
(lp650
S'Saint Barth\xc3\xa9lemy'
p651
aS'Saint Barthelemy'
p652
asS'23424848'
p653
(lp654
S'India'
p655
asS'23424819'
p656
(lp657
S'France'
p658
asS'24865698'
p659
(lp660
S'Hong Kong'
p661
asS'23424744'
p662
(lp663
S'Andorra'
p664
asS'23424745'
p665
(lp666
S'Angola'
p667
asS'23424746'
p668
(lp669
S'American Samoa'
p670
asS'23424747'
p671
(lp672
S'Argentina'
p673
asS'23424740'
p674
(lp675
S'Algeria'
p676
asS'23424741'
p677
(lp678
S'Azerbaijan'
p679
asS'23424742'
p680
(lp681
S'Albania'
p682
asS'23424743'
p683
(lp684
S'Armenia'
p685
asS'23424977'
p686
(lp687
S'United States Of America'
p688
aS'United States'
p689
aS'USA'
p690
asS'23424976'
p691
(lp692
S'Ukraine'
p693
asS'23424975'
p694
(lp695
S'United Kingdom'
p696
aS'Great Britain'
p697
asS'23424974'
p698
(lp699
S'Uganda'
p700
asS'23424748'
p701
(lp702
S'Australia'
p703
asS'23424972'
p704
(lp705
S'Turkmenistan'
p706
asS'23424971'
p707
(lp708
S'Taiwan, Province Of China'
p709
aS'Taiwan'
p710
asS'23424958'
p711
(lp712
S'Trinidad And Tobago'
p713
asS'23424876'
p714
(lp715
S'Liberia'
p716
asS'23424877'
p717
(lp718
S'Slovak Republic'
p719
aS'Slovakia'
p720
asS'23424874'
p721
(lp722
S'Latvia'
p723
asS'23424875'
p724
(lp725
S'Lithuania'
p726
asS'23424872'
p727
(lp728
S'Laos'
p729
asS'23424873'
p730
(lp731
S'Lebanon'
p732
asS'23424870'
p733
(lp734
S'Kuwait'
p735
asS'23424871'
p736
(lp737
S'Kazakhstan'
p738
asS'23424879'
p739
(lp740
S'Liechtenstein'
p741
asS'23424979'
p742
(lp743
S'Uruguay'
p744
as.