(dp1
S'Korea'
p2
(lp3
S'Asia'
p4
aS'Asia'
p5
asS'Kuwait'
p6
(lp7
S'Asia'
p8
asS'Kiribati'
p9
(lp10
S'Oceania'
p11
asS'Kyrgyz Republic'
p12
(lp13
S'Asia'
p14
asS'Kenya'
p15
(lp16
S'Africa'
p17
asS'Kazakhstan'
p18
(lp19
S'Asia'
p20
as.