(dp1
S'Libyan Arab Jamahiriya'
p2
(lp3
S'Africa'
p4
asS'Liberia'
p5
(lp6
S'Africa'
p7
asS"Lao People's Democratic Republic"
p8
(lp9
S'Asia'
p10
asS'Lithuania'
p11
(lp12
S'Europe'
p13
asS'Lebanon'
p14
(lp15
S'Asia'
p16
asS'Luxembourg'
p17
(lp18
S'Europe'
p19
asS'Lesotho'
p20
(lp21
S'Africa'
p22
asS'Liechtenstein'
p23
(lp24
S'Europe'
p25
asS'Latvia'
p26
(lp27
S'Europe'
p28
as.