(dp1
S'Zhongshan University'
p2
(lp3
S'Zhongshan University'
p4
asS'Zhengzhou University'
p5
(lp6
S'Zhengzhou University'
p7
asS'Zhejiang Medical University'
p8
(lp9
S'Zhejiang Medical University'
p10
asS'Zhejiang University'
p11
(lp12
S'Zhejiang University'
p13
as.