(dp1
S'Victoria University Of Manchester'
p2
(lp3
S'Victoria University Of Manchester'
p4
asS'Vilnius Technical University'
p5
(lp6
S'Vilnius Technical University'
p7
asS'Virginia Wesleyan College'
p8
(lp9
S'Virginia Wesleyan College'
p10
asS'Victoria University Of Wellington'
p11
(lp12
S'Victoria University Of Wellington'
p13
asS'Victoria University Of Technology'
p14
(lp15
S'Victoria University Of Technology'
p16
asS'Vellore Engineering College'
p17
(lp18
S'Vellore Engineering College'
p19
asS'Vasavi College Of Engineering'
p20
(lp21
S'Vasavi College Of Engineering'
p22
asS'Volda College'
p23
(lp24
S'Volda College'
p25
asS'Vilnius University'
p26
(lp27
S'Vilnius University'
p28
asS'Vannumg Junior College'
p29
(lp30
S'Vannumg Junior College'
p31
asS'Victoria Jubilee Technical Institute'
p32
(lp33
S'Victoria Jubilee Technical Institute'
p34
asS'Villanova University'
p35
(lp36
S'Villanova University'
p37
asS'Vienna University Of Technology'
p38
(lp39
S'Vienna University Of Technology'
p40
asS'Van Nung Institute Of Technology'
p41
(lp42
S'Van Nung Institute Of Technology'
p43
asS'Visvesvaraya Regional College Of Engineering'
p44
(lp45
S'Visvesvaraya Regional College Of Engineering'
p46
asS'Virtual Online University'
p47
(lp48
S'Virtual Online University'
p49
asS'Virginia Military Institute'
p50
(lp51
S'Virginia Military Institute'
p52
asS'Vernon Regional Junior College'
p53
(lp54
S'Vernon Regional Junior College'
p55
asS'Vanderbilt University'
p56
(lp57
S'Vanderbilt University'
p58
asS'Vermont Law School'
p59
(lp60
S'Vermont Law School'
p61
asS'V\xc3\xa5xj\xc3\xb6 University'
p62
(lp63
S'V\xc3\xa5xj\xc3\xb6 University'
p64
asS'Vestfold College'
p65
(lp66
S'Vestfold College'
p67
asS'Vincennes University'
p68
(lp69
S'Vincennes University'
p70
asS'Vermont Technical College'
p71
(lp72
S'Vermont Technical College'
p73
asS'Villa Julie College'
p74
(lp75
S'Villa Julie College'
p76
asS'Vesalius College'
p77
(lp78
S'Vesalius College'
p79
asS'Vassar College'
p80
(lp81
S'Vassar College'
p82
asS'Vista University'
p83
(lp84
S'Vista University'
p85
asS"Vivekanand Education Society's Institute Of Technology"
p86
(lp87
S"Vivekanand Education Society's Institute Of Technology"
p88
asS'Virginia Commonwealth University'
p89
(lp90
S'Virginia Commonwealth University'
p91
asS'Valparaiso University'
p92
(lp93
S'Valparaiso University'
p94
asS'Valencia Community College'
p95
(lp96
S'Valencia Community College'
p97
asS'Valdosta State University'
p98
(lp99
S'Valdosta State University'
p100
asS'Voorhees College'
p101
(lp102
S'Voorhees College'
p103
asS'Vrije University'
p104
(lp105
S'Vrije University'
p106
asS'Virginia Tech'
p107
(lp108
S'Virginia Tech'
p109
as.