(dp1
S'partial'
p2
(lp3
S'1783'
p4
aS'a'
asS'pardon'
p5
(lp6
S'1671'
p7
aS'n'
asS'protest'
p8
(lp9
S'3809'
p10
aS'n'
a(lp11
S'2660'
p12
aS'v'
aasS'proposition'
p13
(lp14
S'2018'
p15
aS'n'
asS'per'
p16
(lp17
S'14402'
p18
aS'prep'
p19
asS'poorly'
p20
(lp21
S'976'
p22
aS'adv'
p23
asS'passage'
p24
(lp25
S'5116'
p26
aS'n'
asS'program'
p27
(lp28
S'5677'
p29
aS'n'
a(lp30
S'947'
p31
aS'v'
aasS'permanently'
p32
(lp33
S'1229'
p34
aS'adv'
p35
asS'painter'
p36
(lp37
S'1681'
p38
aS'n'
asS'pride'
p39
(lp40
S'2633'
p41
aS'n'
asS'presentation'
p42
(lp43
S'3798'
p44
aS'n'
asS'pay'
p45
(lp46
S'5110'
p47
aS'n'
a(lp48
S'36665'
p49
aS'v'
aasS'protective'
p50
(lp51
S'1285'
p52
aS'a'
asS'premium'
p53
(lp54
S'2325'
p55
aS'n'
asS'parcel'
p56
(lp57
S'1080'
p58
aS'n'
asS'psychologist'
p59
(lp60
S'1360'
p61
aS'n'
asS'polytechnic'
p62
(lp63
S'1635'
p64
aS'n'
asS'perceived'
p65
(lp66
S'815'
p67
aS'a'
asS'prize'
p68
(lp69
S'4187'
p70
aS'n'
asS'policeman'
p71
(lp72
S'3306'
p73
aS'n'
asS'prolonged'
p74
(lp75
S'870'
p76
aS'a'
asS'participation'
p77
(lp78
S'2690'
p79
aS'n'
asS'programme'
p80
(lp81
S'25444'
p82
aS'n'
asS'prevent'
p83
(lp84
S'10286'
p85
aS'v'
asS'publicly'
p86
(lp87
S'1584'
p88
aS'adv'
p89
asS'pledge'
p90
(lp91
S'1016'
p92
aS'v'
asS'prediction'
p93
(lp94
S'1540'
p95
aS'n'
asS'pulse'
p96
(lp97
S'1312'
p98
aS'n'
asS'past'
p99
(lp100
S'8728'
p101
aS'a'
a(lp102
S'2142'
p103
aS'adv'
p104
aa(lp105
S'8972'
p106
aS'n'
aa(lp107
S'6426'
p108
aS'prep'
p109
aasS'persuade'
p110
(lp111
S'4970'
p112
aS'v'
asS'perspective'
p113
(lp114
S'3779'
p115
aS'n'
asS'pass'
p116
(lp117
S'2452'
p118
aS'n'
a(lp119
S'20633'
p120
aS'v'
aasS'port'
p121
(lp122
S'4125'
p123
aS'n'
asS'profitability'
p124
(lp125
S'844'
p126
aS'n'
asS'poison'
p127
(lp128
S'1014'
p129
aS'n'
a(lp130
S'808'
p131
aS'v'
aasS'paragraph'
p132
(lp133
S'3401'
p134
aS'n'
asS'public'
p135
(lp136
S'30983'
p137
aS'a'
a(lp138
S'7411'
p139
aS'n'
aasS'processing'
p140
(lp141
S'2379'
p142
aS'n'
asS'prescribe'
p143
(lp144
S'1220'
p145
aS'v'
asS'punch'
p146
(lp147
S'1111'
p148
aS'n'
a(lp149
S'979'
p150
aS'v'
aasS'protection'
p151
(lp152
S'8025'
p153
aS'n'
asS'poverty'
p154
(lp155
S'3115'
p156
aS'n'
asS'pub'
p157
(lp158
S'5127'
p159
aS'n'
asS'path'
p160
(lp161
S'7596'
p162
aS'n'
asS'publisher'
p163
(lp164
S'2993'
p165
aS'n'
asS'prior'
p166
(lp167
S'4224'
p168
aS'a'
asS'permit'
p169
(lp170
S'4289'
p171
aS'v'
asS'principally'
p172
(lp173
S'964'
p174
aS'adv'
p175
asS'pillow'
p176
(lp177
S'1068'
p178
aS'n'
asS'projection'
p179
(lp180
S'1072'
p181
aS'n'
asS'prefer'
p182
(lp183
S'6854'
p184
aS'v'
asS'private'
p185
(lp186
S'17022'
p187
aS'a'
asS'psychological'
p188
(lp189
S'2768'
p190
aS'a'
asS'patience'
p191
(lp192
S'1143'
p193
aS'n'
asS'privately'
p194
(lp195
S'1209'
p196
aS'adv'
p197
asS'patrol'
p198
(lp199
S'991'
p200
aS'n'
asS'plot'
p201
(lp202
S'2214'
p203
aS'n'
a(lp204
S'1168'
p205
aS'v'
aasS'proceed'
p206
(lp207
S'1160'
p208
aS'n'
a(lp209
S'4022'
p210
aS'v'
aasS'prove'
p211
(lp212
S'14812'
p213
aS'v'
asS'positive'
p214
(lp215
S'8397'
p216
aS'a'
asS'papal'
p217
(lp218
S'825'
p219
aS'a'
asS'prey'
p220
(lp221
S'1551'
p222
aS'n'
asS'passport'
p223
(lp224
S'964'
p225
aS'n'
asS'possession'
p226
(lp227
S'3691'
p228
aS'n'
asS'pencil'
p229
(lp230
S'1420'
p231
aS'n'
asS'parliament'
p232
(lp233
S'10010'
p234
aS'n'
asS'psychiatric'
p235
(lp236
S'1079'
p237
aS'a'
asS'phone'
p238
(lp239
S'7150'
p240
aS'n'
a(lp241
S'3001'
p242
aS'v'
aasS'particular'
p243
(lp244
S'28887'
p245
aS'a'
a(lp246
S'831'
p247
aS'n'
aasS'pursue'
p248
(lp249
S'4471'
p250
aS'v'
asS'pretend'
p251
(lp252
S'2752'
p253
aS'v'
asS'pour'
p254
(lp255
S'3739'
p256
aS'v'
asS'printing'
p257
(lp258
S'1200'
p259
aS'n'
asS'praise'
p260
(lp261
S'1273'
p262
aS'n'
a(lp263
S'1472'
p264
aS'v'
aasS'proof'
p265
(lp266
S'2921'
p267
aS'n'
asS'purchaser'
p268
(lp269
S'2360'
p270
aS'n'
asS'performer'
p271
(lp272
S'1096'
p273
aS'n'
asS'pony'
p274
(lp275
S'1057'
p276
aS'n'
asS'patron'
p277
(lp278
S'1158'
p279
aS'n'
asS'prosecute'
p280
(lp281
S'1036'
p282
aS'v'
asS'predict'
p283
(lp284
S'3578'
p285
aS'v'
asS'phrase'
p286
(lp287
S'4103'
p288
aS'n'
asS'pond'
p289
(lp290
S'1994'
p291
aS'n'
asS'provoke'
p292
(lp293
S'1898'
p294
aS'v'
asS'presently'
p295
(lp296
S'968'
p297
aS'adv'
p298
asS'pink'
p299
(lp300
S'2948'
p301
aS'a'
asS'provincial'
p302
(lp303
S'1627'
p304
aS'a'
asS'productive'
p305
(lp306
S'1390'
p307
aS'a'
asS'provide'
p308
(lp309
S'47923'
p310
aS'v'
asS'poetry'
p311
(lp312
S'2811'
p313
aS'n'
asS'pine'
p314
(lp315
S'958'
p316
aS'n'
asS'pair'
p317
(lp318
S'8143'
p319
aS'n'
asS'pure'
p320
(lp321
S'3613'
p322
aS'a'
asS'place'
p323
(lp324
S'51537'
p325
aS'n'
a(lp326
S'16392'
p327
aS'v'
aasS'parameter'
p328
(lp329
S'1720'
p330
aS'n'
asS'pint'
p331
(lp332
S'1744'
p333
aS'n'
asS'profile'
p334
(lp335
S'2792'
p336
aS'n'
asS'parliamentary'
p337
(lp338
S'4337'
p339
aS'a'
asS'plant'
p340
(lp341
S'14638'
p342
aS'n'
a(lp343
S'2752'
p344
aS'v'
aasS'philosophy'
p345
(lp346
S'3590'
p347
aS'n'
asS'plane'
p348
(lp349
S'4505'
p350
aS'n'
asS'promoter'
p351
(lp352
S'1255'
p353
aS'n'
asS'president'
p354
(lp355
S'10678'
p356
aS'n'
asS'parallel'
p357
(lp358
S'1651'
p359
aS'a'
a(lp360
S'1393'
p361
aS'n'
aasS'purchase'
p362
(lp363
S'3671'
p364
aS'n'
a(lp365
S'3764'
p366
aS'v'
aasS'provisional'
p367
(lp368
S'832'
p369
aS'a'
asS'patent'
p370
(lp371
S'1177'
p372
aS'n'
asS'parish'
p373
(lp374
S'4373'
p375
aS'n'
asS'pleasure'
p376
(lp377
S'5853'
p378
aS'n'
asS'pollution'
p379
(lp380
S'3789'
p381
aS'n'
asS'producer'
p382
(lp383
S'3538'
p384
aS'n'
asS'paper'
p385
(lp386
S'23694'
p387
aS'n'
asS'pitch'
p388
(lp389
S'3003'
p390
aS'n'
asS'perfect'
p391
(lp392
S'5574'
p393
aS'a'
asS'police'
p394
(lp395
S'27508'
p396
aS'n'
asS'personal'
p397
(lp398
S'17622'
p399
aS'a'
asS'platform'
p400
(lp401
S'3366'
p402
aS'n'
asS'permanent'
p403
(lp404
S'4530'
p405
aS'a'
asS'persist'
p406
(lp407
S'1785'
p408
aS'v'
asS'policy'
p409
(lp410
S'34775'
p411
aS'n'
asS'pad'
p412
(lp413
S'991'
p414
aS'n'
asS'petition'
p415
(lp416
S'1524'
p417
aS'n'
asS'post-war'
p418
(lp419
S'1614'
p420
aS'a'
asS'propose'
p421
(lp422
S'1403'
p423
aS'v'
asS'plaster'
p424
(lp425
S'913'
p426
aS'n'
asS'practice'
p427
(lp428
S'20950'
p429
aS'n'
asS'predator'
p430
(lp431
S'1311'
p432
aS'n'
asS'process'
p433
(lp434
S'28035'
p435
aS'n'
a(lp436
S'2085'
p437
aS'v'
aasS'provision'
p438
(lp439
S'12876'
p440
aS'n'
asS'presidential'
p441
(lp442
S'2095'
p443
aS'a'
asS'possess'
p444
(lp445
S'4038'
p446
aS'v'
asS'pregnant'
p447
(lp448
S'2215'
p449
aS'a'
asS'panic'
p450
(lp451
S'1771'
p452
aS'n'
asS'peasant'
p453
(lp454
S'3345'
p455
aS'n'
asS'prohibit'
p456
(lp457
S'974'
p458
aS'v'
asS'privatisation'
p459
(lp460
S'1319'
p461
aS'n'
asS'product'
p462
(lp463
S'21712'
p464
aS'n'
asS'proclaim'
p465
(lp466
S'1176'
p467
aS'v'
asS'psychology'
p468
(lp469
S'2536'
p470
aS'n'
asS'profit'
p471
(lp472
S'11119'
p473
aS'n'
a(lp474
S'825'
p475
aS'v'
aasS'pigeon'
p476
(lp477
S'837'
p478
aS'n'
asS'publish'
p479
(lp480
S'12242'
p481
aS'v'
asS'print'
p482
(lp483
S'3129'
p484
aS'n'
a(lp485
S'3923'
p486
aS'v'
aasS'postpone'
p487
(lp488
S'1134'
p489
aS'v'
asS'perception'
p490
(lp491
S'3320'
p492
aS'n'
asS'possibility'
p493
(lp494
S'9555'
p495
aS'n'
asS'promptly'
p496
(lp497
S'914'
p498
aS'adv'
p499
asS'pleasant'
p500
(lp501
S'2766'
p502
aS'a'
asS'plea'
p503
(lp504
S'1455'
p505
aS'n'
asS'put'
p506
(lp507
S'69978'
p508
aS'v'
asS'princess'
p509
(lp510
S'1743'
p511
aS'n'
asS'perform'
p512
(lp513
S'8648'
p514
aS'v'
asS'programming'
p515
(lp516
S'861'
p517
aS'n'
asS'produce'
p518
(lp519
S'805'
p520
aS'n'
a(lp521
S'29490'
p522
aS'v'
aasS'prejudice'
p523
(lp524
S'1396'
p525
aS'n'
asS'promotion'
p526
(lp527
S'3612'
p528
aS'n'
asS'prospective'
p529
(lp530
S'1317'
p531
aS'a'
asS'probability'
p532
(lp533
S'1919'
p534
aS'n'
asS'powerful'
p535
(lp536
S'7213'
p537
aS'a'
asS'primary'
p538
(lp539
S'7821'
p540
aS'a'
a(lp541
S'1765'
p542
aS'n'
aasS'preservation'
p543
(lp544
S'1090'
p545
aS'n'
asS'philosophical'
p546
(lp547
S'1285'
p548
aS'a'
asS'precisely'
p549
(lp550
S'3486'
p551
aS'adv'
p552
asS'portable'
p553
(lp554
S'918'
p555
aS'a'
asS'pensioner'
p556
(lp557
S'1960'
p558
aS'n'
asS'publication'
p559
(lp560
S'5706'
p561
aS'n'
asS'privacy'
p562
(lp563
S'1049'
p564
aS'n'
asS'plastic'
p565
(lp566
S'4511'
p567
aS'n'
asS'priority'
p568
(lp569
S'5327'
p570
aS'n'
asS'paint'
p571
(lp572
S'2536'
p573
aS'n'
a(lp574
S'4539'
p575
aS'v'
aasS'percentage'
p576
(lp577
S'2984'
p578
aS'n'
asS'perfectly'
p579
(lp580
S'4439'
p581
aS'adv'
p582
asS'painful'
p583
(lp584
S'1915'
p585
aS'a'
asS'prone'
p586
(lp587
S'807'
p588
aS'a'
asS'punish'
p589
(lp590
S'1309'
p591
aS'v'
asS'park'
p592
(lp593
S'5879'
p594
aS'n'
a(lp595
S'2510'
p596
aS'v'
aasS'procession'
p597
(lp598
S'865'
p599
aS'n'
asS'part'
p600
(lp601
S'65773'
p602
aS'n'
a(lp603
S'1052'
p604
aS'v'
aasS'predictable'
p605
(lp606
S'936'
p607
aS'a'
asS'photographic'
p608
(lp609
S'882'
p610
aS'a'
asS'peculiar'
p611
(lp612
S'1441'
p613
aS'a'
asS'positively'
p614
(lp615
S'1337'
p616
aS'adv'
p617
asS'population'
p618
(lp619
S'14664'
p620
aS'n'
asS'photograph'
p621
(lp622
S'5549'
p623
aS'n'
a(lp624
S'1044'
p625
aS'v'
aasS'preparation'
p626
(lp627
S'4332'
p628
aS'n'
asS'providing'
p629
(lp630
S'2292'
p631
aS'conj'
p632
asS'prospect'
p633
(lp634
S'5014'
p635
aS'n'
asS'palace'
p636
(lp637
S'2814'
p638
aS'n'
asS'partnership'
p639
(lp640
S'3950'
p641
aS'n'
asS'pedestrian'
p642
(lp643
S'863'
p644
aS'n'
asS'prosperity'
p645
(lp646
S'1106'
p647
aS'n'
asS'predominantly'
p648
(lp649
S'1248'
p650
aS'adv'
p651
asS'potential'
p652
(lp653
S'6456'
p654
aS'a'
a(lp655
S'4904'
p656
aS'n'
aasS'performance'
p657
(lp658
S'14620'
p659
aS'n'
asS'province'
p660
(lp661
S'3074'
p662
aS'n'
asS'play'
p663
(lp664
S'8250'
p665
aS'n'
a(lp666
S'38053'
p667
aS'v'
aasS'printer'
p668
(lp669
S'2504'
p670
aS'n'
asS'pain'
p671
(lp672
S'8408'
p673
aS'n'
asS'petrol'
p674
(lp675
S'2309'
p676
aS'n'
asS'price'
p677
(lp678
S'27166'
p679
aS'n'
a(lp680
S'1417'
p681
aS'v'
aasS'paid'
p682
(lp683
S'1224'
p684
aS'a'
asS'plan'
p685
(lp686
S'21727'
p687
aS'n'
a(lp688
S'15538'
p689
aS'v'
aasS'plenty'
p690
(lp691
S'4841'
p692
aS'pron'
p693
asS'preliminary'
p694
(lp695
S'1417'
p696
aS'a'
asS'phase'
p697
(lp698
S'5639'
p699
aS'n'
asS'prestige'
p700
(lp701
S'836'
p702
aS'n'
asS'payment'
p703
(lp704
S'9811'
p705
aS'n'
asS'placement'
p706
(lp707
S'1094'
p708
aS'n'
asS'payable'
p709
(lp710
S'1666'
p711
aS'a'
asS'professor'
p712
(lp713
S'2168'
p714
aS'n'
asS'popularity'
p715
(lp716
S'1345'
p717
aS'n'
asS'pipe'
p718
(lp719
S'3111'
p720
aS'n'
asS'part-time'
p721
(lp722
S'1888'
p723
aS'a'
asS'principle'
p724
(lp725
S'13877'
p726
aS'n'
asS'professional'
p727
(lp728
S'10527'
p729
aS'a'
a(lp730
S'2969'
p731
aS'n'
aasS'physics'
p732
(lp733
S'1862'
p734
aS'n'
asS'precise'
p735
(lp736
S'2892'
p737
aS'a'
asS'particularly'
p738
(lp739
S'22002'
p740
aS'adv'
p741
asS'phenomenon'
p742
(lp743
S'3541'
p744
aS'n'
asS'pope'
p745
(lp746
S'1548'
p747
aS'n'
asS'probe'
p748
(lp749
S'1269'
p750
aS'n'
a(lp751
S'929'
p752
aS'v'
aasS'purely'
p753
(lp754
S'2562'
p755
aS'adv'
p756
asS'planning'
p757
(lp758
S'8433'
p759
aS'n'
asS'participate'
p760
(lp761
S'2860'
p762
aS'v'
asS'portfolio'
p763
(lp764
S'1798'
p765
aS'n'
asS'pleased'
p766
(lp767
S'3076'
p768
aS'a'
asS'principal'
p769
(lp770
S'3498'
p771
aS'a'
a(lp772
S'1599'
p773
aS'n'
aasS'pause'
p774
(lp775
S'1581'
p776
aS'n'
a(lp777
S'3419'
p778
aS'v'
aasS'productivity'
p779
(lp780
S'1920'
p781
aS'n'
asS'proportion'
p782
(lp783
S'7822'
p784
aS'n'
asS'penalty'
p785
(lp786
S'3766'
p787
aS'n'
asS'pretty'
p788
(lp789
S'2736'
p790
aS'a'
a(lp791
S'5421'
p792
aS'adv'
p793
aasS'piano'
p794
(lp795
S'2102'
p796
aS'n'
asS'personality'
p797
(lp798
S'3621'
p799
aS'n'
asS'predecessor'
p800
(lp801
S'1622'
p802
aS'n'
asS'plate'
p803
(lp804
S'5515'
p805
aS'n'
asS'publicity'
p806
(lp807
S'2461'
p808
aS'n'
asS'permission'
p809
(lp810
S'3343'
p811
aS'n'
asS'plaintiff'
p812
(lp813
S'3863'
p814
aS'n'
asS'photography'
p815
(lp816
S'1067'
p817
aS'n'
asS'perceive'
p818
(lp819
S'2811'
p820
aS'v'
asS'preferred'
p821
(lp822
S'981'
p823
aS'a'
asS'pocket'
p824
(lp825
S'5172'
p826
aS'n'
asS'progress'
p827
(lp828
S'6987'
p829
aS'n'
a(lp830
S'2525'
p831
aS'v'
aasS'penetrate'
p832
(lp833
S'1235'
p834
aS'v'
asS'prime'
p835
(lp836
S'12031'
p837
aS'a'
asS'progressive'
p838
(lp839
S'1727'
p840
aS'a'
asS'patch'
p841
(lp842
S'2257'
p843
aS'n'
asS'priest'
p844
(lp845
S'3256'
p846
aS'n'
asS'precaution'
p847
(lp848
S'889'
p849
aS'n'
asS'preach'
p850
(lp851
S'994'
p852
aS'v'
asS'physically'
p853
(lp854
S'1980'
p855
aS'adv'
p856
asS'packet'
p857
(lp858
S'1735'
p859
aS'n'
asS'plausible'
p860
(lp861
S'810'
p862
aS'a'
asS'powder'
p863
(lp864
S'1249'
p865
aS'n'
asS'parking'
p866
(lp867
S'1031'
p868
aS'n'
asS'portrait'
p869
(lp870
S'2240'
p871
aS'n'
asS'project'
p872
(lp873
S'18916'
p874
aS'n'
a(lp875
S'2732'
p876
aS'v'
aasS'probable'
p877
(lp878
S'1210'
p879
aS'a'
asS'pattern'
p880
(lp881
S'14934'
p882
aS'n'
asS'please'
p883
(lp884
S'12862'
p885
aS'adv'
p886
a(lp887
S'3689'
p888
aS'v'
aasS'pump'
p889
(lp890
S'1269'
p891
aS'n'
a(lp892
S'1191'
p893
aS'v'
aasS'probably'
p894
(lp895
S'27303'
p896
aS'adv'
p897
asS'preserve'
p898
(lp899
S'3629'
p900
aS'v'
asS'parent'
p901
(lp902
S'20060'
p903
aS'n'
asS'parental'
p904
(lp905
S'1321'
p906
aS'a'
asS'premise'
p907
(lp908
S'3881'
p909
aS'n'
asS'precious'
p910
(lp911
S'1768'
p912
aS'a'
asS'pity'
p913
(lp914
S'1811'
p915
aS'n'
asS'protect'
p916
(lp917
S'8610'
p918
aS'v'
asS'planner'
p919
(lp920
S'1179'
p921
aS'n'
asS'prescription'
p922
(lp923
S'1019'
p924
aS'n'
asS'pray'
p925
(lp926
S'2501'
p927
aS'v'
asS'planned'
p928
(lp929
S'1474'
p930
aS'a'
asS'pursuit'
p931
(lp932
S'1614'
p933
aS'n'
asS'presumably'
p934
(lp935
S'3279'
p936
aS'adv'
p937
asS'point'
p938
(lp939
S'49187'
p940
aS'n'
a(lp941
S'12844'
p942
aS'v'
aasS'pot'
p943
(lp944
S'2936'
p945
aS'n'
asS'period'
p946
(lp947
S'28300'
p948
aS'n'
asS'pop'
p949
(lp950
S'2358'
p951
aS'n'
a(lp952
S'1916'
p953
aS'v'
aasS'pole'
p954
(lp955
S'2419'
p956
aS'n'
asS'pregnancy'
p957
(lp958
S'1775'
p959
aS'n'
asS'poll'
p960
(lp961
S'3901'
p962
aS'n'
asS'poem'
p963
(lp964
S'3997'
p965
aS'n'
asS'petty'
p966
(lp967
S'815'
p968
aS'a'
asS'publishing'
p969
(lp970
S'1277'
p971
aS'n'
asS'political'
p972
(lp973
S'30366'
p974
aS'a'
asS'proprietor'
p975
(lp976
S'847'
p977
aS'n'
asS'production'
p978
(lp979
S'15837'
p980
aS'n'
asS'peaceful'
p981
(lp982
S'1640'
p983
aS'a'
asS'privilege'
p984
(lp985
S'2533'
p986
aS'n'
asS'proposal'
p987
(lp988
S'10963'
p989
aS'n'
asS'premier'
p990
(lp991
S'1189'
p992
aS'a'
asS'partly'
p993
(lp994
S'5706'
p995
aS'adv'
p996
asS'pat'
p997
(lp998
S'825'
p999
aS'v'
asS'precision'
p1000
(lp1001
S'1126'
p1002
aS'n'
asS'personally'
p1003
(lp1004
S'2635'
p1005
aS'adv'
p1006
asS'present'
p1007
(lp1008
S'13308'
p1009
aS'a'
a(lp1010
S'10023'
p1011
aS'n'
aa(lp1012
S'13475'
p1013
aS'v'
aasS'pilot'
p1014
(lp1015
S'4117'
p1016
aS'n'
asS'physician'
p1017
(lp1018
S'811'
p1019
aS'n'
asS'politician'
p1020
(lp1021
S'4391'
p1022
aS'n'
asS'presidency'
p1023
(lp1024
S'1064'
p1025
aS'n'
asS'plain'
p1026
(lp1027
S'2425'
p1028
aS'a'
a(lp1029
S'1507'
p1030
aS'n'
aasS'premature'
p1031
(lp1032
S'821'
p1033
aS'a'
asS'pace'
p1034
(lp1035
S'3191'
p1036
aS'n'
asS'pudding'
p1037
(lp1038
S'1102'
p1039
aS'n'
asS'property'
p1040
(lp1041
S'16646'
p1042
aS'n'
asS'plead'
p1043
(lp1044
S'1745'
p1045
aS'v'
asS'precede'
p1046
(lp1047
S'2324'
p1048
aS'v'
asS'procedure'
p1049
(lp1050
S'11100'
p1051
aS'n'
asS'pack'
p1052
(lp1053
S'2976'
p1054
aS'n'
a(lp1055
S'3598'
p1056
aS'v'
aasS'polymer'
p1057
(lp1058
S'1113'
p1059
aS'n'
asS'pound'
p1060
(lp1061
S'18058'
p1062
aS'n'
asS'prevalence'
p1063
(lp1064
S'979'
p1065
aS'n'
asS'player'
p1066
(lp1067
S'13337'
p1068
aS'n'
asS'partner'
p1069
(lp1070
S'8605'
p1071
aS'n'
asS'protein'
p1072
(lp1073
S'4037'
p1074
aS'n'
asS'portray'
p1075
(lp1076
S'1179'
p1077
aS'v'
asS'par'
p1078
(lp1079
S'941'
p1080
aS'n'
asS'participant'
p1081
(lp1082
S'2836'
p1083
aS'n'
asS'perhaps'
p1084
(lp1085
S'35039'
p1086
aS'adv'
p1087
asS'pit'
p1088
(lp1089
S'2338'
p1090
aS'n'
asS'potentially'
p1091
(lp1092
S'2437'
p1093
aS'adv'
p1094
asS'party'
p1095
(lp1096
S'52979'
p1097
aS'n'
asS'pupil'
p1098
(lp1099
S'10320'
p1100
aS'n'
asS'pal'
p1101
(lp1102
S'833'
p1103
aS'n'
asS'privileged'
p1104
(lp1105
S'972'
p1106
aS'a'
asS'pan'
p1107
(lp1108
S'1562'
p1109
aS'n'
asS'practitioner'
p1110
(lp1111
S'3010'
p1112
aS'n'
asS'pick'
p1113
(lp1114
S'14622'
p1115
aS'v'
asS'purpose'
p1116
(lp1117
S'15159'
p1118
aS'n'
asS'punishment'
p1119
(lp1120
S'2418'
p1121
aS'n'
asS'person'
p1122
(lp1123
S'28981'
p1124
aS'n'
asS'position'
p1125
(lp1126
S'26625'
p1127
aS'n'
a(lp1128
S'1446'
p1129
aS'v'
aasS'prevention'
p1130
(lp1131
S'1454'
p1132
aS'n'
asS'propos'
p1133
(lp1134
S'6345'
p1135
aS'v'
asS'protocol'
p1136
(lp1137
S'1396'
p1138
aS'n'
asS'proposed'
p1139
(lp1140
S'3494'
p1141
aS'a'
asS'photo'
p1142
(lp1143
S'1962'
p1144
aS'n'
asS'prompt'
p1145
(lp1146
S'2160'
p1147
aS'v'
asS'polish'
p1148
(lp1149
S'1389'
p1150
aS'a'
a(lp1151
S'1000'
p1152
aS'v'
aasS'prince'
p1153
(lp1154
S'3774'
p1155
aS'n'
asS'previous'
p1156
(lp1157
S'12286'
p1158
aS'a'
asS'profitable'
p1159
(lp1160
S'1359'
p1161
aS'a'
asS'photographer'
p1162
(lp1163
S'1672'
p1164
aS'n'
asS'passive'
p1165
(lp1166
S'1354'
p1167
aS'a'
asS'pile'
p1168
(lp1169
S'2294'
p1170
aS'n'
a(lp1171
S'843'
p1172
aS'v'
aasS'prison'
p1173
(lp1174
S'7368'
p1175
aS'n'
asS'practise'
p1176
(lp1177
S'3069'
p1178
aS'v'
asS'plasma'
p1179
(lp1180
S'915'
p1181
aS'n'
asS'pill'
p1182
(lp1183
S'1075'
p1184
aS'n'
asS'possible'
p1185
(lp1186
S'34178'
p1187
aS'a'
asS'possibly'
p1188
(lp1189
S'7211'
p1190
aS'adv'
p1191
asS'preference'
p1192
(lp1193
S'3085'
p1194
aS'n'
asS'presume'
p1195
(lp1196
S'1121'
p1197
aS'v'
asS'press'
p1198
(lp1199
S'10129'
p1200
aS'n'
a(lp1201
S'7438'
p1202
aS'v'
aasS'pier'
p1203
(lp1204
S'843'
p1205
aS'n'
asS'prominent'
p1206
(lp1207
S'1932'
p1208
aS'a'
asS'particle'
p1209
(lp1210
S'2342'
p1211
aS'n'
asS'postcard'
p1212
(lp1213
S'868'
p1214
aS'n'
asS'pillar'
p1215
(lp1216
S'1014'
p1217
aS'n'
asS'piece'
p1218
(lp1219
S'14873'
p1220
aS'n'
asS'pavement'
p1221
(lp1222
S'1819'
p1223
aS'n'
asS'popular'
p1224
(lp1225
S'10600'
p1226
aS'a'
asS'passionate'
p1227
(lp1228
S'922'
p1229
aS'a'
asS'page'
p1230
(lp1231
S'14546'
p1232
aS'n'
asS'parade'
p1233
(lp1234
S'994'
p1235
aS'n'
asS'people'
p1236
(lp1237
S'125430'
p1238
aS'n'
asS'pronounce'
p1239
(lp1240
S'1341'
p1241
aS'v'
asS'privatization'
p1242
(lp1243
S'852'
p1244
aS'n'
asS'palm'
p1245
(lp1246
S'1544'
p1247
aS'n'
asS'proper'
p1248
(lp1249
S'6504'
p1250
aS'a'
asS'pasture'
p1251
(lp1252
S'826'
p1253
aS'n'
asS'pale'
p1254
(lp1255
S'3556'
p1256
aS'a'
asS'provided'
p1257
(lp1258
S'4692'
p1259
aS'conj'
p1260
asS'proceeding'
p1261
(lp1262
S'4455'
p1263
aS'n'
asS'pet'
p1264
(lp1265
S'1375'
p1266
aS'n'
asS'philosopher'
p1267
(lp1268
S'1122'
p1269
aS'n'
asS'prop'
p1270
(lp1271
S'820'
p1272
aS'v'
asS'pioneer'
p1273
(lp1274
S'865'
p1275
aS'n'
asS'pen'
p1276
(lp1277
S'2374'
p1278
aS'n'
asS'passion'
p1279
(lp1280
S'2516'
p1281
aS'n'
asS'provider'
p1282
(lp1283
S'1157'
p1284
aS'n'
asS'porter'
p1285
(lp1286
S'857'
p1287
aS'n'
asS'pepper'
p1288
(lp1289
S'1137'
p1290
aS'n'
asS'patient'
p1291
(lp1292
S'2447'
p1293
aS'a'
a(lp1294
S'23106'
p1295
aS'n'
aasS'power'
p1296
(lp1297
S'37963'
p1298
aS'n'
a(lp1299
S'861'
p1300
aS'v'
aasS'pose'
p1301
(lp1302
S'2778'
p1303
aS'v'
asS'pressure'
p1304
(lp1305
S'14635'
p1306
aS'n'
asS'peer'
p1307
(lp1308
S'1245'
p1309
aS'n'
a(lp1310
S'1801'
p1311
aS'v'
aasS'post'
p1312
(lp1313
S'9776'
p1314
aS'n'
a(lp1315
S'1527'
p1316
aS'v'
aasS'panel'
p1317
(lp1318
S'4857'
p1319
aS'n'
asS'plug'
p1320
(lp1321
S'855'
p1322
aS'v'
asS'package'
p1323
(lp1324
S'6646'
p1325
aS'n'
a(lp1326
S'1233'
p1327
aS'v'
aasS'practical'
p1328
(lp1329
S'7753'
p1330
aS'a'
asS'plus'
p1331
(lp1332
S'7592'
p1333
aS'prep'
p1334
asS'processor'
p1335
(lp1336
S'2177'
p1337
aS'n'
asS'printed'
p1338
(lp1339
S'1170'
p1340
aS'a'
asS'primitive'
p1341
(lp1342
S'1476'
p1343
aS'a'
asS'presence'
p1344
(lp1345
S'8097'
p1346
aS'n'
asS'previously'
p1347
(lp1348
S'6873'
p1349
aS'adv'
p1350
asS'puzzle'
p1351
(lp1352
S'851'
p1353
aS'v'
asS'profession'
p1354
(lp1355
S'3939'
p1356
aS'n'
asS'prisoner'
p1357
(lp1358
S'4574'
p1359
aS'n'
asS'promise'
p1360
(lp1361
S'3502'
p1362
aS'n'
a(lp1363
S'6930'
p1364
aS'v'
aasS'primarily'
p1365
(lp1366
S'3137'
p1367
aS'adv'
p1368
asS'proportional'
p1369
(lp1370
S'916'
p1371
aS'a'
asS'prepare'
p1372
(lp1373
S'14961'
p1374
aS'v'
asS'plunge'
p1375
(lp1376
S'1356'
p1377
aS'v'
asS'poster'
p1378
(lp1379
S'1568'
p1380
aS'n'
asS'poet'
p1381
(lp1382
S'3153'
p1383
aS'n'
asS'properly'
p1384
(lp1385
S'5667'
p1386
aS'adv'
p1387
asS'promote'
p1388
(lp1389
S'6085'
p1390
aS'v'
asS'partially'
p1391
(lp1392
S'1307'
p1393
aS'adv'
p1394
asS'pull'
p1395
(lp1396
S'13852'
p1397
aS'v'
asS'potato'
p1398
(lp1399
S'2518'
p1400
aS'n'
asS'planet'
p1401
(lp1402
S'2348'
p1403
aS'n'
asS'pest'
p1404
(lp1405
S'817'
p1406
aS'n'
asS'problem'
p1407
(lp1408
S'56483'
p1409
aS'n'
asS'politically'
p1410
(lp1411
S'1695'
p1412
aS'adv'
p1413
asS'propaganda'
p1414
(lp1415
S'1100'
p1416
aS'n'
asS'passenger'
p1417
(lp1418
S'4416'
p1419
aS'n'
asS'proud'
p1420
(lp1421
S'3200'
p1422
aS'a'
asS'pin'
p1423
(lp1424
S'1287'
p1425
aS'n'
a(lp1426
S'1451'
p1427
aS'v'
aasS'penny'
p1428
(lp1429
S'2089'
p1430
aS'n'
asS'pie'
p1431
(lp1432
S'1154'
p1433
aS'n'
asS'pig'
p1434
(lp1435
S'2149'
p1436
aS'n'
asS'prayer'
p1437
(lp1438
S'3111'
p1439
aS'n'
asS'politics'
p1440
(lp1441
S'7456'
p1442
aS'n'
asS'prevail'
p1443
(lp1444
S'1150'
p1445
aS'v'
asS'physical'
p1446
(lp1447
S'9569'
p1448
aS'a'
asS'personnel'
p1449
(lp1450
S'3325'
p1451
aS'n'
asS'peace'
p1452
(lp1453
S'8847'
p1454
aS'n'
asS'percent'
p1455
(lp1456
S'41205'
p1457
aS'n'
asS'preoccupation'
p1458
(lp1459
S'836'
p1460
aS'n'
asS'poor'
p1461
(lp1462
S'16579'
p1463
aS'a'
asS'picture'
p1464
(lp1465
S'15748'
p1466
aS'n'
a(lp1467
S'1275'
p1468
aS'v'
aasS'prosecution'
p1469
(lp1470
S'2464'
p1471
aS'n'
asS'polite'
p1472
(lp1473
S'1195'
p1474
aS'a'
asS'peak'
p1475
(lp1476
S'3374'
p1477
aS'n'
asS'pool'
p1478
(lp1479
S'5513'
p1480
aS'n'
asS'pottery'
p1481
(lp1482
S'984'
p1483
aS'n'
asS'practically'
p1484
(lp1485
S'1407'
p1486
aS'adv'
p1487
asS'painting'
p1488
(lp1489
S'6895'
p1490
aS'n'
asS'profound'
p1491
(lp1492
S'1460'
p1493
aS'a'
asS'persistent'
p1494
(lp1495
S'1249'
p1496
aS'a'
asS'purple'
p1497
(lp1498
S'1140'
p1499
aS'a'
asS'portion'
p1500
(lp1501
S'1541'
p1502
aS'n'
asS'pension'
p1503
(lp1504
S'5979'
p1505
aS'n'
asS'push'
p1506
(lp1507
S'1893'
p1508
aS'n'
a(lp1509
S'9266'
p1510
aS'v'
aasS'precedent'
p1511
(lp1512
S'895'
p1513
aS'n'
as.