(dp1
S'Quynh'
p2
(lp3
S'0.00085'
p4
asS'Qing'
p5
(lp6
S'0.00009'
p7
asS'Qian'
p8
(lp9
S'0.00013'
p10
asS'Quy'
p11
(lp12
S'0.00039'
p13
asS'Quyen'
p14
(lp15
S'0.00083'
p16
asS'Que'
p17
(lp18
S'0.00021'
p19
as.