(dp1
S'Ireton'
p2
(lp3
S'0.000'
p4
asS'Imondi'
p5
(lp6
S'0.000'
p7
asS'Igbinosun'
p8
(lp9
S'0.000'
p10
asS'Isla'
p11
(lp12
S'0.000'
p13
asS'Isle'
p14
(lp15
S'0.000'
p16
asS'Isachsen'
p17
(lp18
S'0.000'
p19
asS'Immediato'
p20
(lp21
S'0.000'
p22
asS'Ichikawa'
p23
(lp24
S'0.000'
p25
asS'Igwe'
p26
(lp27
S'0.000'
p28
asS'Iker'
p29
(lp30
S'0.000'
p31
asS'Iwami'
p32
(lp33
S'0.000'
p34
asS'Imrie'
p35
(lp36
S'0.000'
p37
asS'Iannuzzi'
p38
(lp39
S'0.000'
p40
asS'Isagawa'
p41
(lp42
S'0.000'
p43
asS'Inoa'
p44
(lp45
S'0.000'
p46
asS'Isebrand'
p47
(lp48
S'0.000'
p49
asS'Innella'
p50
(lp51
S'0.000'
p52
asS'Innocenti'
p53
(lp54
S'0.000'
p55
asS'Innarelli'
p56
(lp57
S'0.000'
p58
asS'Isch'
p59
(lp60
S'0.000'
p61
asS'Igbal'
p62
(lp63
S'0.000'
p64
asS'Irvin'
p65
(lp66
S'0.009'
p67
asS'Ifft'
p68
(lp69
S'0.000'
p70
asS'Iwamoto'
p71
(lp72
S'0.000'
p73
asS'Ingargiola'
p74
(lp75
S'0.000'
p76
asS'Idleburg'
p77
(lp78
S'0.000'
p79
asS'Iddings'
p80
(lp81
S'0.001'
p82
asS'Ibbotson'
p83
(lp84
S'0.000'
p85
asS'Infante'
p86
(lp87
S'0.002'
p88
asS'Ivon'
p89
(lp90
S'0.000'
p91
asS'Iwasko'
p92
(lp93
S'0.000'
p94
asS'Ihde'
p95
(lp96
S'0.000'
p97
asS'Imbruglia'
p98
(lp99
S'0.000'
p100
asS'Iserman'
p101
(lp102
S'0.000'
p103
asS'Ishizu'
p104
(lp105
S'0.000'
p106
asS'Immordino'
p107
(lp108
S'0.000'
p109
asS'Ichinose'
p110
(lp111
S'0.000'
p112
asS'Iovino'
p113
(lp114
S'0.000'
p115
asS'Izarraras'
p116
(lp117
S'0.000'
p118
asS'Iiams'
p119
(lp120
S'0.000'
p121
asS'Ismail'
p122
(lp123
S'0.001'
p124
asS'Ibale'
p125
(lp126
S'0.000'
p127
asS'Imholte'
p128
(lp129
S'0.000'
p130
asS'Inglese'
p131
(lp132
S'0.000'
p133
asS'Ioli'
p134
(lp135
S'0.000'
p136
asS'Incorvaia'
p137
(lp138
S'0.000'
p139
asS'Isgrigg'
p140
(lp141
S'0.000'
p142
asS'Iezzi'
p143
(lp144
S'0.000'
p145
asS'Illas'
p146
(lp147
S'0.000'
p148
asS'Igo'
p149
(lp150
S'0.001'
p151
asS'Iulo'
p152
(lp153
S'0.000'
p154
asS'Ibach'
p155
(lp156
S'0.000'
p157
asS'Iannaccone'
p158
(lp159
S'0.000'
p160
asS'Imes'
p161
(lp162
S'0.002'
p163
asS'Imburgia'
p164
(lp165
S'0.000'
p166
asS'Isenberger'
p167
(lp168
S'0.000'
p169
asS'Ingersol'
p170
(lp171
S'0.000'
p172
asS'Imboden'
p173
(lp174
S'0.000'
p175
asS'Iwata'
p176
(lp177
S'0.000'
p178
asS'Itkin'
p179
(lp180
S'0.000'
p181
asS'Imel'
p182
(lp183
S'0.001'
p184
asS'Isassi'
p185
(lp186
S'0.000'
p187
asS'Igtanloc'
p188
(lp189
S'0.000'
p190
asS'Irwin'
p191
(lp192
S'0.013'
p193
asS'Imamura'
p194
(lp195
S'0.000'
p196
asS'Ifversen'
p197
(lp198
S'0.000'
p199
asS'Isagba'
p200
(lp201
S'0.000'
p202
asS'Inostraza'
p203
(lp204
S'0.000'
p205
asS'Isreal'
p206
(lp207
S'0.000'
p208
asS'Irr'
p209
(lp210
S'0.000'
p211
asS'Iacobellis'
p212
(lp213
S'0.000'
p214
asS'Iliff'
p215
(lp216
S'0.001'
p217
asS'Iturbe'
p218
(lp219
S'0.000'
p220
asS'Icard'
p221
(lp222
S'0.000'
p223
asS'Illsley'
p224
(lp225
S'0.000'
p226
asS'Iqbal'
p227
(lp228
S'0.000'
p229
asS'Isley'
p230
(lp231
S'0.001'
p232
asS'Isler'
p233
(lp234
S'0.001'
p235
asS'Isles'
p236
(lp237
S'0.000'
p238
asS'Ivancic'
p239
(lp240
S'0.000'
p241
asS'Ibric'
p242
(lp243
S'0.000'
p244
asS'Ihnen'
p245
(lp246
S'0.000'
p247
asS'Inglin'
p248
(lp249
S'0.000'
p250
asS'Ingole'
p251
(lp252
S'0.000'
p253
asS'Ingold'
p254
(lp255
S'0.000'
p256
asS'Iuliucci'
p257
(lp258
S'0.000'
p259
asS'Irani'
p260
(lp261
S'0.000'
p262
asS'Iwanejko'
p263
(lp264
S'0.000'
p265
asS'Imparato'
p266
(lp267
S'0.000'
p268
asS'Isaak'
p269
(lp270
S'0.000'
p271
asS'Iverslie'
p272
(lp273
S'0.000'
p274
asS'Isaac'
p275
(lp276
S'0.007'
p277
asS'Inglis'
p278
(lp279
S'0.001'
p280
asS'Ippolito'
p281
(lp282
S'0.001'
p283
asS'Inks'
p284
(lp285
S'0.000'
p286
asS'Illies'
p287
(lp288
S'0.000'
p289
asS'Iannalo'
p290
(lp291
S'0.000'
p292
asS'Iacopino'
p293
(lp294
S'0.000'
p295
asS'Israelson'
p296
(lp297
S'0.000'
p298
asS'Iler'
p299
(lp300
S'0.001'
p301
asS'Iles'
p302
(lp303
S'0.001'
p304
asS'Ihnat'
p305
(lp306
S'0.000'
p307
asS'Inscho'
p308
(lp309
S'0.000'
p310
asS'Ikemoto'
p311
(lp312
S'0.000'
p313
asS'Igou'
p314
(lp315
S'0.000'
p316
asS'Iseri'
p317
(lp318
S'0.000'
p319
asS'Inniss'
p320
(lp321
S'0.001'
p322
asS'Inda'
p323
(lp324
S'0.000'
p325
asS'Irie'
p326
(lp327
S'0.000'
p328
asS'Innamorato'
p329
(lp330
S'0.000'
p331
asS'Inferrera'
p332
(lp333
S'0.000'
p334
asS'Isenhart'
p335
(lp336
S'0.000'
p337
asS'Intveld'
p338
(lp339
S'0.000'
p340
asS'Iheme'
p341
(lp342
S'0.000'
p343
asS'Iacovone'
p344
(lp345
S'0.000'
p346
asS'Inciong'
p347
(lp348
S'0.000'
p349
asS'Interiano'
p350
(lp351
S'0.000'
p352
asS'Irby'
p353
(lp354
S'0.005'
p355
asS'Ink'
p356
(lp357
S'0.000'
p358
asS'Ing'
p359
(lp360
S'0.000'
p361
asS'Ina'
p362
(lp363
S'0.000'
p364
asS'Irons'
p365
(lp366
S'0.003'
p367
asS'Imig'
p368
(lp369
S'0.000'
p370
asS'Ijams'
p371
(lp372
S'0.000'
p373
asS'Iruegas'
p374
(lp375
S'0.000'
p376
asS'Iacono'
p377
(lp378
S'0.000'
p379
asS'Inman'
p380
(lp381
S'0.009'
p382
asS'Isbell'
p383
(lp384
S'0.005'
p385
asS'Ingels'
p386
(lp387
S'0.000'
p388
asS'Innocent'
p389
(lp390
S'0.001'
p391
asS'Israels'
p392
(lp393
S'0.000'
p394
asS'Ivins'
p395
(lp396
S'0.000'
p397
asS'Inzerillo'
p398
(lp399
S'0.000'
p400
asS'Irving'
p401
(lp402
S'0.007'
p403
asS'Irvine'
p404
(lp405
S'0.003'
p406
asS'Ikuta'
p407
(lp408
S'0.000'
p409
asS'Ingargiolo'
p410
(lp411
S'0.000'
p412
asS'Ivester'
p413
(lp414
S'0.000'
p415
asS'Ishmael'
p416
(lp417
S'0.001'
p418
asS'Isacson'
p419
(lp420
S'0.000'
p421
asS'Isip'
p422
(lp423
S'0.000'
p424
asS'Ijames'
p425
(lp426
S'0.000'
p427
asS'Ingebretsen'
p428
(lp429
S'0.000'
p430
asS'Itri'
p431
(lp432
S'0.000'
p433
asS'Inyart'
p434
(lp435
S'0.000'
p436
asS'Ihrig'
p437
(lp438
S'0.000'
p439
asS'Ingrim'
p440
(lp441
S'0.000'
p442
asS'Isola'
p443
(lp444
S'0.000'
p445
asS'Islar'
p446
(lp447
S'0.000'
p448
asS'Irelan'
p449
(lp450
S'0.000'
p451
asS'Ingmire'
p452
(lp453
S'0.000'
p454
asS'Ilacqua'
p455
(lp456
S'0.000'
p457
asS'Isiminger'
p458
(lp459
S'0.000'
p460
asS'Isabel'
p461
(lp462
S'0.001'
p463
asS'Immel'
p464
(lp465
S'0.000'
p466
asS'Immen'
p467
(lp468
S'0.000'
p469
asS'Irene'
p470
(lp471
S'0.000'
p472
asS'Iyer'
p473
(lp474
S'0.000'
p475
asS'Ingala'
p476
(lp477
S'0.000'
p478
asS'Iorio'
p479
(lp480
S'0.001'
p481
asS'Ibarra'
p482
(lp483
S'0.011'
p484
asS'Inge'
p485
(lp486
S'0.001'
p487
asS'Inga'
p488
(lp489
S'0.000'
p490
asS'Ingles'
p491
(lp492
S'0.001'
p493
asS'Ingraham'
p494
(lp495
S'0.003'
p496
asS'Ickert'
p497
(lp498
S'0.000'
p499
asS'Itani'
p500
(lp501
S'0.000'
p502
asS'Innes'
p503
(lp504
S'0.001'
p505
asS'Iredale'
p506
(lp507
S'0.000'
p508
asS'Itzkowitz'
p509
(lp510
S'0.000'
p511
asS'Iwanyszyn'
p512
(lp513
S'0.000'
p514
asS'Insognia'
p515
(lp516
S'0.000'
p517
asS'Iwanski'
p518
(lp519
S'0.000'
p520
asS'Intrieri'
p521
(lp522
S'0.000'
p523
asS'Ivens'
p524
(lp525
S'0.000'
p526
asS'Ingalls'
p527
(lp528
S'0.002'
p529
asS'Illig'
p530
(lp531
S'0.000'
p532
asS'Igneri'
p533
(lp534
S'0.000'
p535
asS'Inglish'
p536
(lp537
S'0.000'
p538
asS'Irizarry'
p539
(lp540
S'0.006'
p541
asS'Iborra'
p542
(lp543
S'0.000'
p544
asS'Isbill'
p545
(lp546
S'0.000'
p547
asS'Iba'
p548
(lp549
S'0.000'
p550
asS'Iuchs'
p551
(lp552
S'0.000'
p553
asS'Ihlenfeld'
p554
(lp555
S'0.000'
p556
asS'Ilaria'
p557
(lp558
S'0.000'
p559
asS'Imgrund'
p560
(lp561
S'0.000'
p562
asS'Iniguez'
p563
(lp564
S'0.001'
p565
asS'Isais'
p566
(lp567
S'0.000'
p568
asS'Intrabartolo'
p569
(lp570
S'0.000'
p571
asS'Imdieke'
p572
(lp573
S'0.000'
p574
asS'Inestroza'
p575
(lp576
S'0.000'
p577
asS'Imbach'
p578
(lp579
S'0.000'
p580
asS'Interrante'
p581
(lp582
S'0.000'
p583
asS'Ikenberry'
p584
(lp585
S'0.000'
p586
asS'Ishmon'
p587
(lp588
S'0.000'
p589
asS'Inocente'
p590
(lp591
S'0.000'
p592
asS'Ildefonso'
p593
(lp594
S'0.000'
p595
asS'Ivanov'
p596
(lp597
S'0.000'
p598
asS'Iannucci'
p599
(lp600
S'0.000'
p601
asS'Imme'
p602
(lp603
S'0.000'
p604
asS'Isome'
p605
(lp606
S'0.000'
p607
asS'Iseli'
p608
(lp609
S'0.000'
p610
asS'Izaguine'
p611
(lp612
S'0.000'
p613
asS'Imbrenda'
p614
(lp615
S'0.000'
p616
asS'Iwasaki'
p617
(lp618
S'0.000'
p619
asS'Icardo'
p620
(lp621
S'0.000'
p622
asS'Ivancich'
p623
(lp624
S'0.000'
p625
asS'Ienco'
p626
(lp627
S'0.000'
p628
asS'Inbody'
p629
(lp630
S'0.000'
p631
asS'Iams'
p632
(lp633
S'0.000'
p634
asS'Irzyk'
p635
(lp636
S'0.000'
p637
asS'Iliffe'
p638
(lp639
S'0.000'
p640
asS'Idell'
p641
(lp642
S'0.000'
p643
asS'Ingerson'
p644
(lp645
S'0.000'
p646
asS'Impson'
p647
(lp648
S'0.000'
p649
asS'Iracheta'
p650
(lp651
S'0.000'
p652
asS'Ivel'
p653
(lp654
S'0.000'
p655
asS'Inacio'
p656
(lp657
S'0.000'
p658
asS'Ives'
p659
(lp660
S'0.003'
p661
asS'Iachetta'
p662
(lp663
S'0.000'
p664
asS'Iamiceli'
p665
(lp666
S'0.000'
p667
asS'Iburg'
p668
(lp669
S'0.000'
p670
asS'Ivey'
p671
(lp672
S'0.010'
p673
asS'Izsak'
p674
(lp675
S'0.000'
p676
asS'Izquierdo'
p677
(lp678
S'0.001'
p679
asS'Ibara'
p680
(lp681
S'0.000'
p682
asS'Ivans'
p683
(lp684
S'0.000'
p685
asS'Inscoe'
p686
(lp687
S'0.000'
p688
asS'Ickes'
p689
(lp690
S'0.001'
p691
asS'Inclan'
p692
(lp693
S'0.000'
p694
asS'Ilardi'
p695
(lp696
S'0.000'
p697
asS'Imhoff'
p698
(lp699
S'0.002'
p700
asS'Ivrin'
p701
(lp702
S'0.000'
p703
asS'Ifill'
p704
(lp705
S'0.000'
p706
asS'Imm'
p707
(lp708
S'0.000'
p709
asS'Inch'
p710
(lp711
S'0.000'
p712
asS'Ince'
p713
(lp714
S'0.001'
p715
asS'Iveson'
p716
(lp717
S'0.000'
p718
asS'Isham'
p719
(lp720
S'0.002'
p721
asS'Ishak'
p722
(lp723
S'0.000'
p724
asS'Iglehart'
p725
(lp726
S'0.000'
p727
asS'Indest'
p728
(lp729
S'0.000'
p730
asS'Itnyre'
p731
(lp732
S'0.000'
p733
asS'Iara'
p734
(lp735
S'0.000'
p736
asS'Iyengar'
p737
(lp738
S'0.000'
p739
asS'Iribarren'
p740
(lp741
S'0.000'
p742
asS'Issler'
p743
(lp744
S'0.000'
p745
asS'Istorico'
p746
(lp747
S'0.000'
p748
asS'Illingworth'
p749
(lp750
S'0.000'
p751
asS'Iese'
p752
(lp753
S'0.000'
p754
asS'Izard'
p755
(lp756
S'0.000'
p757
asS'Ingrassia'
p758
(lp759
S'0.001'
p760
asS'Ibraham'
p761
(lp762
S'0.000'
p763
asS'Imbriale'
p764
(lp765
S'0.000'
p766
asS'Iseley'
p767
(lp768
S'0.000'
p769
asS'Islas'
p770
(lp771
S'0.001'
p772
asS'Iberra'
p773
(lp774
S'0.000'
p775
asS'Irick'
p776
(lp777
S'0.001'
p778
asS'Iwanicki'
p779
(lp780
S'0.000'
p781
asS'Ismael'
p782
(lp783
S'0.000'
p784
asS'Indelicato'
p785
(lp786
S'0.000'
p787
asS'Imlay'
p788
(lp789
S'0.000'
p790
asS'Isadore'
p791
(lp792
S'0.000'
p793
asS'Izzo'
p794
(lp795
S'0.002'
p796
asS'Ibanez'
p797
(lp798
S'0.002'
p799
asS'Izzi'
p800
(lp801
S'0.000'
p802
asS'Ignoria'
p803
(lp804
S'0.000'
p805
asS'Italiano'
p806
(lp807
S'0.000'
p808
asS'Iwasa'
p809
(lp810
S'0.000'
p811
asS'Ignowski'
p812
(lp813
S'0.000'
p814
asS'Idler'
p815
(lp816
S'0.000'
p817
asS'Ipson'
p818
(lp819
S'0.000'
p820
asS'Iglesias'
p821
(lp822
S'0.002'
p823
asS'Idriss'
p824
(lp825
S'0.000'
p826
asS'Irmeger'
p827
(lp828
S'0.000'
p829
asS'Ianuzzi'
p830
(lp831
S'0.000'
p832
asS'Imaino'
p833
(lp834
S'0.000'
p835
asS'Iadarola'
p836
(lp837
S'0.000'
p838
asS'Ikehara'
p839
(lp840
S'0.000'
p841
asS'Ingegneri'
p842
(lp843
S'0.000'
p844
asS'Ironhorse'
p845
(lp846
S'0.000'
p847
asS'Istre'
p848
(lp849
S'0.000'
p850
asS'Irland'
p851
(lp852
S'0.000'
p853
asS'Ingran'
p854
(lp855
S'0.000'
p856
asS'Ingram'
p857
(lp858
S'0.030'
p859
asS'Iarussi'
p860
(lp861
S'0.000'
p862
asS'Inafuku'
p863
(lp864
S'0.000'
p865
asS'Izaguirre'
p866
(lp867
S'0.001'
p868
asS'Imbier'
p869
(lp870
S'0.000'
p871
asS'Iannacone'
p872
(lp873
S'0.000'
p874
asS'Igus'
p875
(lp876
S'0.000'
p877
asS'Inagaki'
p878
(lp879
S'0.000'
p880
asS'Iniestra'
p881
(lp882
S'0.000'
p883
asS'Ingber'
p884
(lp885
S'0.000'
p886
asS'Iffert'
p887
(lp888
S'0.000'
p889
asS'Inoue'
p890
(lp891
S'0.001'
p892
asS'Indovina'
p893
(lp894
S'0.000'
p895
asS'Ivan'
p896
(lp897
S'0.000'
p898
asS'Isa'
p899
(lp900
S'0.000'
p901
asS'Innerst'
p902
(lp903
S'0.000'
p904
asS'Ivaska'
p905
(lp906
S'0.000'
p907
asS'Illescas'
p908
(lp909
S'0.000'
p910
asS'Ito'
p911
(lp912
S'0.001'
p913
asS'Ianni'
p914
(lp915
S'0.000'
p916
asS'Ith'
p917
(lp918
S'0.000'
p919
asS'Inzer'
p920
(lp921
S'0.000'
p922
asS'Ishida'
p923
(lp924
S'0.000'
p925
asS'Iversen'
p926
(lp927
S'0.001'
p928
asS'Isherwood'
p929
(lp930
S'0.000'
p931
asS'Isaacsen'
p932
(lp933
S'0.000'
p934
asS'Ineson'
p935
(lp936
S'0.000'
p937
asS'Ilic'
p938
(lp939
S'0.000'
p940
asS'Isales'
p941
(lp942
S'0.000'
p943
asS'Ibbetson'
p944
(lp945
S'0.000'
p946
asS'Ideue'
p947
(lp948
S'0.000'
p949
asS'Itson'
p950
(lp951
S'0.000'
p952
asS'Ingraffea'
p953
(lp954
S'0.000'
p955
asS'Illar'
p956
(lp957
S'0.000'
p958
asS'Ilarraza'
p959
(lp960
S'0.000'
p961
asS'Ishee'
p962
(lp963
S'0.001'
p964
asS'Irion'
p965
(lp966
S'0.000'
p967
asS'Imada'
p968
(lp969
S'0.000'
p970
asS'Irey'
p971
(lp972
S'0.000'
p973
asS'Ikner'
p974
(lp975
S'0.001'
p976
asS'Igler'
p977
(lp978
S'0.000'
p979
asS'Igles'
p980
(lp981
S'0.000'
p982
asS'Imaizumi'
p983
(lp984
S'0.000'
p985
asS'Islam'
p986
(lp987
S'0.001'
p988
asS'Imbesi'
p989
(lp990
S'0.000'
p991
asS'Ingleton'
p992
(lp993
S'0.000'
p994
asS'Iodice'
p995
(lp996
S'0.000'
p997
asS'Issa'
p998
(lp999
S'0.001'
p1000
asS'Iseman'
p1001
(lp1002
S'0.000'
p1003
asS'Irimata'
p1004
(lp1005
S'0.000'
p1006
asS'Illian'
p1007
(lp1008
S'0.000'
p1009
asS'Ilg'
p1010
(lp1011
S'0.000'
p1012
asS'Ilse'
p1013
(lp1014
S'0.000'
p1015
asS'Illovsky'
p1016
(lp1017
S'0.000'
p1018
asS'Imler'
p1019
(lp1020
S'0.001'
p1021
asS'Ieng'
p1022
(lp1023
S'0.000'
p1024
asS'Ismay'
p1025
(lp1026
S'0.000'
p1027
asS'Ibasitas'
p1028
(lp1029
S'0.000'
p1030
asS'Iarossi'
p1031
(lp1032
S'0.000'
p1033
asS'Imbrock'
p1034
(lp1035
S'0.000'
p1036
asS'Ihenyen'
p1037
(lp1038
S'0.000'
p1039
asS'Inklebarger'
p1040
(lp1041
S'0.000'
p1042
asS'Iacovetto'
p1043
(lp1044
S'0.000'
p1045
asS'Intermill'
p1046
(lp1047
S'0.000'
p1048
asS'Inhulsen'
p1049
(lp1050
S'0.000'
p1051
asS'Imbimbo'
p1052
(lp1053
S'0.000'
p1054
asS'Idema'
p1055
(lp1056
S'0.000'
p1057
asS'Iacobucci'
p1058
(lp1059
S'0.000'
p1060
asS'Isacs'
p1061
(lp1062
S'0.000'
p1063
asS'Inkavesvanitc'
p1064
(lp1065
S'0.000'
p1066
asS'Imoto'
p1067
(lp1068
S'0.000'
p1069
asS'Idiart'
p1070
(lp1071
S'0.000'
p1072
asS'Iser'
p1073
(lp1074
S'0.001'
p1075
asS'Interdonato'
p1076
(lp1077
S'0.000'
p1078
asS'Issac'
p1079
(lp1080
S'0.001'
p1081
asS'Inaba'
p1082
(lp1083
S'0.000'
p1084
asS'Isenhour'
p1085
(lp1086
S'0.001'
p1087
asS'Ishikawa'
p1088
(lp1089
S'0.000'
p1090
asS'Isenberg'
p1091
(lp1092
S'0.002'
p1093
asS'Irizzary'
p1094
(lp1095
S'0.000'
p1096
asS'Idris'
p1097
(lp1098
S'0.000'
p1099
asS'Isaiah'
p1100
(lp1101
S'0.000'
p1102
asS'Isackson'
p1103
(lp1104
S'0.000'
p1105
asS'Isabella'
p1106
(lp1107
S'0.000'
p1108
asS'Isenbarger'
p1109
(lp1110
S'0.000'
p1111
asS'Isabelle'
p1112
(lp1113
S'0.001'
p1114
asS'Ingwersen'
p1115
(lp1116
S'0.000'
p1117
asS'Ipock'
p1118
(lp1119
S'0.000'
p1120
asS'Isett'
p1121
(lp1122
S'0.000'
p1123
asS'Ikemire'
p1124
(lp1125
S'0.000'
p1126
asS'Issacs'
p1127
(lp1128
S'0.000'
p1129
asS'Iossa'
p1130
(lp1131
S'0.000'
p1132
asS'Isaacs'
p1133
(lp1134
S'0.005'
p1135
asS'Intriago'
p1136
(lp1137
S'0.000'
p1138
asS'Irle'
p1139
(lp1140
S'0.000'
p1141
asS'Indermuehle'
p1142
(lp1143
S'0.000'
p1144
asS'Iffland'
p1145
(lp1146
S'0.000'
p1147
asS'Irineo'
p1148
(lp1149
S'0.000'
p1150
asS'Ivy'
p1151
(lp1152
S'0.006'
p1153
asS'Ihm'
p1154
(lp1155
S'0.000'
p1156
asS'Idrovo'
p1157
(lp1158
S'0.000'
p1159
asS'Isaack'
p1160
(lp1161
S'0.000'
p1162
asS'Imperato'
p1163
(lp1164
S'0.000'
p1165
asS'Ivery'
p1166
(lp1167
S'0.001'
p1168
asS'Izzard'
p1169
(lp1170
S'0.000'
p1171
asS'Ingham'
p1172
(lp1173
S'0.001'
p1174
asS'Irizary'
p1175
(lp1176
S'0.000'
p1177
asS'Ivers'
p1178
(lp1179
S'0.001'
p1180
asS'Illes'
p1181
(lp1182
S'0.000'
p1183
asS'Iller'
p1184
(lp1185
S'0.000'
p1186
asS'Isgur'
p1187
(lp1188
S'0.000'
p1189
asS'Ikeda'
p1190
(lp1191
S'0.001'
p1192
asS'Ireland'
p1193
(lp1194
S'0.004'
p1195
asS'Ikkela'
p1196
(lp1197
S'0.000'
p1198
asS'Ingwerson'
p1199
(lp1200
S'0.000'
p1201
asS'Ivanoff'
p1202
(lp1203
S'0.000'
p1204
asS'Isgro'
p1205
(lp1206
S'0.000'
p1207
asS'Ibrahim'
p1208
(lp1209
S'0.002'
p1210
asS'Ilalio'
p1211
(lp1212
S'0.000'
p1213
asS'Icenogle'
p1214
(lp1215
S'0.000'
p1216
asS'Isaksen'
p1217
(lp1218
S'0.000'
p1219
asS'Isbister'
p1220
(lp1221
S'0.000'
p1222
asS'Igartua'
p1223
(lp1224
S'0.000'
p1225
asS'Iannotti'
p1226
(lp1227
S'0.000'
p1228
asS'Innis'
p1229
(lp1230
S'0.001'
p1231
asS'Insana'
p1232
(lp1233
S'0.000'
p1234
asS'Insco'
p1235
(lp1236
S'0.000'
p1237
asS'Inouye'
p1238
(lp1239
S'0.001'
p1240
asS'Imfeld'
p1241
(lp1242
S'0.000'
p1243
asS'Isita'
p1244
(lp1245
S'0.000'
p1246
asS'Imus'
p1247
(lp1248
S'0.000'
p1249
asS'Iberg'
p1250
(lp1251
S'0.000'
p1252
asS'Iozzi'
p1253
(lp1254
S'0.000'
p1255
asS'Iglesia'
p1256
(lp1257
S'0.000'
p1258
asS'Inguardsen'
p1259
(lp1260
S'0.000'
p1261
asS'Isaacks'
p1262
(lp1263
S'0.000'
p1264
asS'Ignacio'
p1265
(lp1266
S'0.001'
p1267
asS'Ianacone'
p1268
(lp1269
S'0.000'
p1270
asS'Intihar'
p1271
(lp1272
S'0.000'
p1273
asS'Iott'
p1274
(lp1275
S'0.000'
p1276
asS'Ichinotsubo'
p1277
(lp1278
S'0.000'
p1279
asS'Imperial'
p1280
(lp1281
S'0.000'
p1282
asS'Iriarte'
p1283
(lp1284
S'0.000'
p1285
asS'Ialongo'
p1286
(lp1287
S'0.000'
p1288
asS'Israel'
p1289
(lp1290
S'0.004'
p1291
asS'Ikerd'
p1292
(lp1293
S'0.000'
p1294
asS'Izaquirre'
p1295
(lp1296
S'0.000'
p1297
asS'Ivie'
p1298
(lp1299
S'0.002'
p1300
asS'Illich'
p1301
(lp1302
S'0.000'
p1303
asS'Insogna'
p1304
(lp1305
S'0.000'
p1306
asS'Ike'
p1307
(lp1308
S'0.000'
p1309
asS'Induddi'
p1310
(lp1311
S'0.000'
p1312
asS'Ingenito'
p1313
(lp1314
S'0.000'
p1315
asS'Ingersoll'
p1316
(lp1317
S'0.002'
p1318
asS'Ill'
p1319
(lp1320
S'0.000'
p1321
asS'Ivancevic'
p1322
(lp1323
S'0.000'
p1324
asS'Iannelli'
p1325
(lp1326
S'0.000'
p1327
asS'Isam'
p1328
(lp1329
S'0.000'
p1330
asS'Iuliano'
p1331
(lp1332
S'0.000'
p1333
asS'Iron'
p1334
(lp1335
S'0.000'
p1336
asS'Ishihara'
p1337
(lp1338
S'0.000'
p1339
asS'Iafrate'
p1340
(lp1341
S'0.000'
p1342
asS'Iden'
p1343
(lp1344
S'0.000'
p1345
asS'Iha'
p1346
(lp1347
S'0.000'
p1348
asS'Iwaoka'
p1349
(lp1350
S'0.000'
p1351
asS'Ishii'
p1352
(lp1353
S'0.000'
p1354
asS'Isiordia'
p1355
(lp1356
S'0.000'
p1357
asS'Ip'
p1358
(lp1359
S'0.000'
p1360
asS'Ibsen'
p1361
(lp1362
S'0.000'
p1363
asS'Immerman'
p1364
(lp1365
S'0.000'
p1366
asS'Im'
p1367
(lp1368
S'0.001'
p1369
asS'In'
p1370
(lp1371
S'0.000'
p1372
asS'Ille'
p1373
(lp1374
S'0.000'
p1375
asS'Ifie'
p1376
(lp1377
S'0.000'
p1378
asS'Ishibashi'
p1379
(lp1380
S'0.000'
p1381
asS'Illa'
p1382
(lp1383
S'0.000'
p1384
asS'Inmon'
p1385
(lp1386
S'0.000'
p1387
asS'Iwashita'
p1388
(lp1389
S'0.000'
p1390
asS'Inghem'
p1391
(lp1392
S'0.000'
p1393
asS'Inverso'
p1394
(lp1395
S'0.000'
p1396
asS'Ishman'
p1397
(lp1398
S'0.000'
p1399
asS'Iozzo'
p1400
(lp1401
S'0.000'
p1402
asS'Ibey'
p1403
(lp1404
S'0.000'
p1405
asS'Inloes'
p1406
(lp1407
S'0.000'
p1408
asS'Izumi'
p1409
(lp1410
S'0.000'
p1411
asS'Ionescu'
p1412
(lp1413
S'0.000'
p1414
asS'Inzunza'
p1415
(lp1416
S'0.000'
p1417
asS'Ilagan'
p1418
(lp1419
S'0.000'
p1420
asS'Ipsen'
p1421
(lp1422
S'0.000'
p1423
asS'Ingvolostad'
p1424
(lp1425
S'0.000'
p1426
asS'Inocencio'
p1427
(lp1428
S'0.000'
p1429
asS'Imbrogno'
p1430
(lp1431
S'0.000'
p1432
asS'Iturralde'
p1433
(lp1434
S'0.000'
p1435
asS'Iltzsch'
p1436
(lp1437
S'0.000'
p1438
asS'Ioele'
p1439
(lp1440
S'0.000'
p1441
asS'Iveans'
p1442
(lp1443
S'0.000'
p1444
asS'Ingrahm'
p1445
(lp1446
S'0.000'
p1447
asS'Island'
p1448
(lp1449
S'0.000'
p1450
asS'Iyo'
p1451
(lp1452
S'0.000'
p1453
asS'Illuzzi'
p1454
(lp1455
S'0.000'
p1456
asS'Ihrke'
p1457
(lp1458
S'0.000'
p1459
asS'Iannone'
p1460
(lp1461
S'0.000'
p1462
asS'Inabnit'
p1463
(lp1464
S'0.000'
p1465
asS'Ingwell'
p1466
(lp1467
S'0.000'
p1468
asS'Iverson'
p1469
(lp1470
S'0.006'
p1471
asS'Imhof'
p1472
(lp1473
S'0.000'
p1474
asS'Isby'
p1475
(lp1476
S'0.000'
p1477
asS'Iraheta'
p1478
(lp1479
S'0.001'
p1480
asS'Irvan'
p1481
(lp1482
S'0.000'
p1483
asS'Ibdah'
p1484
(lp1485
S'0.000'
p1486
asS'Ihle'
p1487
(lp1488
S'0.000'
p1489
asS'Irestone'
p1490
(lp1491
S'0.000'
p1492
asS'Inabinett'
p1493
(lp1494
S'0.000'
p1495
asS'Isenhower'
p1496
(lp1497
S'0.000'
p1498
asS'Illiano'
p1499
(lp1500
S'0.000'
p1501
asS'Ingalsbe'
p1502
(lp1503
S'0.000'
p1504
asS'Inghram'
p1505
(lp1506
S'0.000'
p1507
asS'Infinger'
p1508
(lp1509
S'0.000'
p1510
asS'Italia'
p1511
(lp1512
S'0.000'
p1513
asS'Iner'
p1514
(lp1515
S'0.000'
p1516
asS'Ines'
p1517
(lp1518
S'0.000'
p1519
asS'Ingrum'
p1520
(lp1521
S'0.000'
p1522
asS'Isaacson'
p1523
(lp1524
S'0.003'
p1525
asS'Iskra'
p1526
(lp1527
S'0.000'
p1528
asS'Ioannidis'
p1529
(lp1530
S'0.000'
p1531
asS'Inches'
p1532
(lp1533
S'0.000'
p1534
asS'Izatt'
p1535
(lp1536
S'0.000'
p1537
asS'Ion'
p1538
(lp1539
S'0.000'
p1540
asS'Idemoto'
p1541
(lp1542
S'0.000'
p1543
asS'Ising'
p1544
(lp1545
S'0.000'
p1546
asS'Ikeard'
p1547
(lp1548
S'0.000'
p1549
asS'Iino'
p1550
(lp1551
S'0.000'
p1552
asS'Iacovelli'
p1553
(lp1554
S'0.001'
p1555
asS'Iacovissi'
p1556
(lp1557
S'0.000'
p1558
asS'Inskeep'
p1559
(lp1560
S'0.000'
p1561
asS'Imbert'
p1562
(lp1563
S'0.000'
p1564
asS'Insley'
p1565
(lp1566
S'0.001'
p1567
asS'Imperatore'
p1568
(lp1569
S'0.000'
p1570
asS'Igoe'
p1571
(lp1572
S'0.000'
p1573
asS'Ible'
p1574
(lp1575
S'0.000'
p1576
asS'Imberg'
p1577
(lp1578
S'0.000'
p1579
asS'Imeson'
p1580
(lp1581
S'0.000'
p1582
asS'Infantino'
p1583
(lp1584
S'0.000'
p1585
asS'Ifeanyi'
p1586
(lp1587
S'0.000'
p1588
asS'Isabell'
p1589
(lp1590
S'0.001'
p1591
asS'Isidro'
p1592
(lp1593
S'0.000'
p1594
asS'Iacuzio'
p1595
(lp1596
S'0.000'
p1597
asS'Infantolino'
p1598
(lp1599
S'0.000'
p1600
asS'Ireson'
p1601
(lp1602
S'0.000'
p1603
asS'Imber'
p1604
(lp1605
S'0.000'
p1606
asS'Ivory'
p1607
(lp1608
S'0.004'
p1609
asS'Incera'
p1610
(lp1611
S'0.000'
p1612
asS'Inzano'
p1613
(lp1614
S'0.000'
p1615
asS'Insko'
p1616
(lp1617
S'0.000'
p1618
asS'Incle'
p1619
(lp1620
S'0.000'
p1621
asS'Inzana'
p1622
(lp1623
S'0.000'
p1624
asS'Isom'
p1625
(lp1626
S'0.005'
p1627
asS'Ison'
p1628
(lp1629
S'0.004'
p1630
asS'Inabinet'
p1631
(lp1632
S'0.001'
p1633
asS'Irizarri'
p1634
(lp1635
S'0.000'
p1636
asS'Irigoyen'
p1637
(lp1638
S'0.000'
p1639
asS'Isleib'
p1640
(lp1641
S'0.000'
p1642
asS'Incomstanti'
p1643
(lp1644
S'0.000'
p1645
asS'Imming'
p1646
(lp1647
S'0.000'
p1648
asS'Introini'
p1649
(lp1650
S'0.000'
p1651
asS'Isaza'
p1652
(lp1653
S'0.000'
p1654
asS'Iulianetti'
p1655
(lp1656
S'0.000'
p1657
asS'Iguina'
p1658
(lp1659
S'0.000'
p1660
asS'Israelsen'
p1661
(lp1662
S'0.000'
p1663
asS'Ianniello'
p1664
(lp1665
S'0.000'
p1666
asS'Inserra'
p1667
(lp1668
S'0.000'
p1669
asS'Iopa'
p1670
(lp1671
S'0.000'
p1672
asS'Irish'
p1673
(lp1674
S'0.003'
p1675
asS'Isaman'
p1676
(lp1677
S'0.000'
p1678
asS'Izak'
p1679
(lp1680
S'0.000'
p1681
asS'Ingle'
p1682
(lp1683
S'0.003'
p1684
asS'Iida'
p1685
(lp1686
S'0.000'
p1687
asS'Isbrecht'
p1688
(lp1689
S'0.000'
p1690
asS'Icenhour'
p1691
(lp1692
S'0.001'
p1693
asS'Irsik'
p1694
(lp1695
S'0.000'
p1696
asS'Iniquez'
p1697
(lp1698
S'0.000'
p1699
asS'Iacobelli'
p1700
(lp1701
S'0.000'
p1702
asS'Isner'
p1703
(lp1704
S'0.000'
p1705
asS'Ivener'
p1706
(lp1707
S'0.000'
p1708
asS'Iturbide'
p1709
(lp1710
S'0.000'
p1711
asS'Ice'
p1712
(lp1713
S'0.001'
p1714
asS'Inlow'
p1715
(lp1716
S'0.000'
p1717
asS'Inscore'
p1718
(lp1719
S'0.000'
p1720
asS'Indal'
p1721
(lp1722
S'0.000'
p1723
asS'Igel'
p1724
(lp1725
S'0.000'
p1726
asS'Idol'
p1727
(lp1728
S'0.000'
p1729
asS'Iwanowski'
p1730
(lp1731
S'0.000'
p1732
asS'Imam'
p1733
(lp1734
S'0.000'
p1735
asS'Ifantides'
p1736
(lp1737
S'0.000'
p1738
asS'Iman'
p1739
(lp1740
S'0.000'
p1741
asS'Imai'
p1742
(lp1743
S'0.001'
p1744
asS'Ikzda'
p1745
(lp1746
S'0.000'
p1747
asS'Isakson'
p1748
(lp1749
S'0.001'
p1750
asS'Irias'
p1751
(lp1752
S'0.000'
p1753
asS'Insalaco'
p1754
(lp1755
S'0.000'
p1756
asS'Ikard'
p1757
(lp1758
S'0.001'
p1759
asS'Isidore'
p1760
(lp1761
S'0.000'
p1762
asS'Ittner'
p1763
(lp1764
S'0.000'
p1765
asS'Isidoro'
p1766
(lp1767
S'0.000'
p1768
asS'Iarocci'
p1769
(lp1770
S'0.000'
p1771
asS'Instasi'
p1772
(lp1773
S'0.000'
p1774
asS'Iennaco'
p1775
(lp1776
S'0.000'
p1777
asS'Ide'
p1778
(lp1779
S'0.001'
p1780
asS'Ida'
p1781
(lp1782
S'0.000'
p1783
asS'Iavarone'
p1784
(lp1785
S'0.000'
p1786
asS'Iurato'
p1787
(lp1788
S'0.000'
p1789
asS'Iatarola'
p1790
(lp1791
S'0.000'
p1792
asS'Incarnato'
p1793
(lp1794
S'0.000'
p1795
asS'Ignasiak'
p1796
(lp1797
S'0.000'
p1798
asS'Infield'
p1799
(lp1800
S'0.000'
p1801
asS'Iacovino'
p1802
(lp1803
S'0.000'
p1804
asS'Indeck'
p1805
(lp1806
S'0.000'
p1807
asS'Ingemi'
p1808
(lp1809
S'0.000'
p1810
asS'Ilasin'
p1811
(lp1812
S'0.000'
p1813
as.