(dp1
S'Ziv'
p2
(lp3
S'1'
aS'1'
asS'Zvonimir'
p4
(lp5
S'1'
asS'Zahi'
p6
(lp7
S'1'
asS'Zubin'
p8
(lp9
S'1'
asS'Zsolt'
p10
(lp11
S'1'
asS'Ziya'
p12
(lp13
S'1'
asS'Zane'
p14
(lp15
S'1'
asS'Zhong'
p16
(lp17
S'1'
asS'Zsigmond'
p18
(lp19
S'1'
asS'Zhubin'
p20
(lp21
S'1'
asS'Zvi'
p22
(lp23
S'1'
asS'Zachery'
p24
(lp25
S'1'
asS'Zdislav'
p26
(lp27
S'1'
asS'Zlatan'
p28
(lp29
S'1'
asS'Ziemowit'
p30
(lp31
S'1'
asS'Zia'
p32
(lp33
S'1'
asS'Zavier'
p34
(lp35
S'1'
asS'Zackery'
p36
(lp37
S'1'
asS'Zygmunt'
p38
(lp39
S'1'
asS'Zolt\xc3\x81n'
p40
(lp41
S'1'
asS'Zheng'
p42
(lp43
S'1'
asS'Zion'
p44
(lp45
S'1'
asS'Zack'
p46
(lp47
S'1'
asS'Zach'
p48
(lp49
S'1'
asS'Zlatko'
p50
(lp51
S'1'
aS'1'
asS'Zelig'
p52
(lp53
S'1'
asS'Zdenko'
p54
(lp55
S'1'
aS'1'
asS'Z\xc3\x89'
p56
(lp57
S'1'
asS'Zvonko'
p58
(lp59
S'1'
asS'Zahir'
p60
(lp61
S'1'
asS'Zulfikar'
p62
(lp63
S'1'
asS'Zusman'
p64
(lp65
S'1'
asS'Zuberi'
p66
(lp67
S'1'
asS'Zaahir'
p68
(lp69
S'1'
aS'1'
asS'Zachariasz'
p70
(lp71
S'1'
asS'Zsiga'
p72
(lp73
S'1'
asS'Zayn'
p74
(lp75
S'1'
asS'Zygfryd'
p76
(lp77
S'1'
asS'Zhelyazko'
p78
(lp79
S'1'
asS'Zhou'
p80
(lp81
S'1'
asS'Zbigniew'
p82
(lp83
S'1'
asS'Zayd'
p84
(lp85
S'1'
asS'Zeru'
p86
(lp87
S'1'
asS'Zacar\xc3\x8das'
p88
(lp89
S'1'
asS'Zorion'
p90
(lp91
S'1'
aS'1'
asS'Zain'
p92
(lp93
S'1'
asS'Zalman'
p94
(lp95
S'1'
asS'Zachary'
p96
(lp97
S'1'
asS'Zaid'
p98
(lp99
S'1'
asS'Zenon'
p100
(lp101
S'1'
asS'Zeferino'
p102
(lp103
S'1'
asS'Zhenya'
p104
(lp105
S'1'
aS'1'
aS'1'
aS'1'
asS'Zechariah'
p106
(lp107
S'1'
asS'Zeki'
p108
(lp109
S'1'
asS'Zulfiqar'
p110
(lp111
S'1'
asS'Zacharie'
p112
(lp113
S'1'
asS'Zhi'
p114
(lp115
S'1'
asS'Zinoviy'
p116
(lp117
S'1'
asS'Zdzis\xc5\x81aw'
p118
(lp119
S'1'
asS'Ziad'
p120
(lp121
S'1'
asS'Zoran'
p122
(lp123
S'1'
aS'1'
aS'1'
asS'Zeev'
p124
(lp125
S'1'
asS'Zaki'
p126
(lp127
S'1'
asS'Zan'
p128
(lp129
S'1'
asS'Zackary'
p130
(lp131
S'1'
asS'Zhivko'
p132
(lp133
S'1'
aS'1'
asS'Zef'
p134
(lp135
S'1'
asS'Zak'
p136
(lp137
S'1'
asS'Zed'
p138
(lp139
S'1'
asS'Zahari'
p140
(lp141
S'1'
asS'Zaman'
p142
(lp143
S'1'
asS'Zigor'
p144
(lp145
S'1'
asS'Zuzen'
p146
(lp147
S'1'
asS'Ziyad'
p148
(lp149
S'1'
asS'Zdravko'
p150
(lp151
S'1'
aS'1'
aS'1'
asS'Zander'
p152
(lp153
S'1'
asS'Zahid'
p154
(lp155
S'1'
asS'Zev'
p156
(lp157
S'1'
asS'Zohar'
p158
(lp159
S'1'
aS'1'
asS'Zulfaqar'
p160
(lp161
S'1'
asS'Zakhar'
p162
(lp163
S'1'
asS'Zeke'
p164
(lp165
S'1'
asS'Zeph'
p166
(lp167
S'1'
asS'Zachariah'
p168
(lp169
S'1'
asS'Zden\xc4\x9ak'
p170
(lp171
S'1'
as.