(dp1
S'Chibuzo'
p2
(lp3
S'1'
aS'1'
asS'Corbin'
p4
(lp5
S'1'
asS'Chiemeka'
p6
(lp7
S'1'
asS'Chiranjivi'
p8
(lp9
S'1'
asS'Claus'
p10
(lp11
S'1'
aS'1'
asS'Casey'
p12
(lp13
S'1'
aS'1'
asS'Calbhach'
p14
(lp15
S'1'
asS'Calum'
p16
(lp17
S'1'
asS'Crispian'
p18
(lp19
S'1'
asS'Claud'
p20
(lp21
S'1'
asS'Cosmin'
p22
(lp23
S'1'
asS'Cionaodh'
p24
(lp25
S'1'
asS'Cu\xc3\x81n'
p26
(lp27
S'1'
asS'Corwin'
p28
(lp29
S'1'
asS'Calvin'
p30
(lp31
S'1'
asS'Chidiebube'
p32
(lp33
S'1'
aS'1'
asS'Cande'
p34
(lp35
S'1'
aS'1'
asS'Cadoc'
p36
(lp37
S'1'
asS'Chico'
p38
(lp39
S'1'
asS'Chesley'
p40
(lp41
S'1'
asS'Carlo'
p42
(lp43
S'1'
asS'Chase'
p44
(lp45
S'1'
asS'Claude'
p46
(lp47
S'1'
aS'1'
aS'1'
aS'1'
asS'Christie'
p48
(lp49
S'1'
aS'1'
asS'Carbrey'
p50
(lp51
S'1'
aS'1'
asS'Cl\xc3\x89ment'
p52
(lp53
S'1'
asS'Colten'
p54
(lp55
S'1'
asS'Colm\xc3\x81n'
p56
(lp57
S'1'
asS'Cruz'
p58
(lp59
S'1'
aS'1'
aS'1'
aS'1'
asS'Comhgh\xc3\x81n'
p60
(lp61
S'1'
asS'Caradoc'
p62
(lp63
S'1'
asS'Charlie'
p64
(lp65
S'1'
aS'1'
asS'Curro'
p66
(lp67
S'1'
asS'Cassius'
p68
(lp69
S'1'
asS'Chijindum'
p70
(lp71
S'1'
aS'1'
asS'Coinneach'
p72
(lp73
S'1'
asS'Crispin'
p74
(lp75
S'1'
asS'Clark'
p76
(lp77
S'1'
asS'Cortney'
p78
(lp79
S'1'
aS'1'
asS'Conn'
p80
(lp81
S'1'
asS'Chester'
p82
(lp83
S'1'
asS'Chidi'
p84
(lp85
S'1'
aS'1'
asS'Cairbre'
p86
(lp87
S'1'
aS'1'
asS'Chibuike'
p88
(lp89
S'1'
aS'1'
asS'Chayim'
p90
(lp91
S'1'
asS'Ciro'
p92
(lp93
S'1'
aS'1'
asS'Cort'
p94
(lp95
S'1'
asS'Connor'
p96
(lp97
S'1'
aS'1'
asS'Cedric'
p98
(lp99
S'1'
asS'Clemens'
p100
(lp101
S'1'
asS'Clement'
p102
(lp103
S'1'
asS'Chuck'
p104
(lp105
S'1'
asS'Charalampos'
p106
(lp107
S'1'
asS'Carsten'
p108
(lp109
S'1'
asS'Creighton'
p110
(lp111
S'1'
asS'Chaim'
p112
(lp113
S'1'
asS'Ciril'
p114
(lp115
S'1'
asS'Chibueze'
p116
(lp117
S'1'
aS'1'
asS'Clair'
p118
(lp119
S'1'
aS'1'
asS'Caspar'
p120
(lp121
S'1'
asS'C\xc3\x89sar'
p122
(lp123
S'1'
aS'1'
aS'1'
asS'Celso'
p124
(lp125
S'1'
aS'1'
aS'1'
asS'Chauncey'
p126
(lp127
S'1'
asS'Ceferino'
p128
(lp129
S'1'
asS'Conr\xc3\x8d'
p130
(lp131
S'1'
asS'Coleman'
p132
(lp133
S'1'
aS'1'
asS'Christmas'
p134
(lp135
S'1'
aS'1'
asS'Carbry'
p136
(lp137
S'1'
aS'1'
asS'Chinweuba'
p138
(lp139
S'1'
aS'1'
asS'Clayton'
p140
(lp141
S'1'
asS'Cliff'
p142
(lp143
S'1'
asS'Chinwendu'
p144
(lp145
S'1'
aS'1'
asS'Calvino'
p146
(lp147
S'1'
asS'Cosimo'
p148
(lp149
S'1'
asS'Cian\xc3\x81n'
p150
(lp151
S'1'
asS'Casimir'
p152
(lp153
S'1'
asS'Cleve'
p154
(lp155
S'1'
asS'Carlos'
p156
(lp157
S'1'
aS'1'
asS'Calvagh'
p158
(lp159
S'1'
asS'Crofton'
p160
(lp161
S'1'
asS'Carrol'
p162
(lp163
S'1'
asS'Chimo'
p164
(lp165
S'1'
asS'Caden'
p166
(lp167
S'1'
asS'Chima'
p168
(lp169
S'1'
asS'Chinedu'
p170
(lp171
S'1'
aS'1'
asS'Che'
p172
(lp173
S'1'
asS'Cefin'
p174
(lp175
S'1'
asS'Chi'
p176
(lp177
S'1'
aS'1'
asS'Calogero'
p178
(lp179
S'1'
asS'Costin'
p180
(lp181
S'1'
asS'Cooper'
p182
(lp183
S'1'
asS'Cecilio'
p184
(lp185
S'1'
aS'1'
aS'1'
asS'Colombano'
p186
(lp187
S'1'
asS'Cullen'
p188
(lp189
S'1'
asS'Cobus'
p190
(lp191
S'1'
asS'Cearbhall'
p192
(lp193
S'1'
asS'Colton'
p194
(lp195
S'1'
asS'Christen'
p196
(lp197
S'1'
asS'Carroll'
p198
(lp199
S'1'
asS'Caj'
p200
(lp201
S'1'
aS'1'
aS'1'
asS'Cai'
p202
(lp203
S'1'
aS'1'
aS'1'
aS'1'
asS'Can'
p204
(lp205
S'1'
asS'Cam'
p206
(lp207
S'1'
aS'1'
asS'Cal'
p208
(lp209
S'1'
asS'Colum'
p210
(lp211
S'1'
asS'Cairo'
p212
(lp213
S'1'
asS'Chizoba'
p214
(lp215
S'1'
aS'1'
asS'Cailean'
p216
(lp217
S'1'
asS'Conall'
p218
(lp219
S'1'
aS'1'
asS'Conan'
p220
(lp221
S'1'
asS'Celestyn'
p222
(lp223
S'1'
asS'Christoffer'
p224
(lp225
S'1'
aS'1'
aS'1'
asS'Cavan'
p226
(lp227
S'1'
asS'Cheng'
p228
(lp229
S'1'
asS'Coos'
p230
(lp231
S'1'
asS'Camron'
p232
(lp233
S'1'
asS'Comgan'
p234
(lp235
S'1'
asS'Comgal'
p236
(lp237
S'1'
asS'Comhghall'
p238
(lp239
S'1'
asS'Cary'
p240
(lp241
S'1'
aS'1'
asS'Cl\xc3\x8dmaco'
p242
(lp243
S'1'
asS'Chang'
p244
(lp245
S'1'
asS'Carleton'
p246
(lp247
S'1'
asS'Curt'
p248
(lp249
S'1'
asS'Clinton'
p250
(lp251
S'1'
asS'Cathal'
p252
(lp253
S'1'
asS'Chad'
p254
(lp255
S'1'
asS'Cahir'
p256
(lp257
S'1'
asS'Charlton'
p258
(lp259
S'1'
asS'Chas'
p260
(lp261
S'1'
asS'Chaz'
p262
(lp263
S'1'
asS'Chandrakant'
p264
(lp265
S'1'
asS'Crescenzo'
p266
(lp267
S'1'
asS'Cyril'
p268
(lp269
S'1'
aS'1'
asS'Cherokee'
p270
(lp271
S'1'
aS'1'
asS'Calisto'
p272
(lp273
S'1'
aS'1'
asS'Cosmo'
p274
(lp275
S'1'
asS'Celyn'
p276
(lp277
S'1'
asS'Cosme'
p278
(lp279
S'1'
aS'1'
asS'Cosma'
p280
(lp281
S'1'
asS'Cyrille'
p282
(lp283
S'1'
aS'1'
asS'Clancy'
p284
(lp285
S'1'
aS'1'
asS'Chuks'
p286
(lp287
S'1'
asS'Ceri'
p288
(lp289
S'1'
aS'1'
asS'Caelan'
p290
(lp291
S'1'
aS'1'
asS'Cristian'
p292
(lp293
S'1'
asS'Codie'
p294
(lp295
S'1'
asS'Channing'
p296
(lp297
S'1'
aS'1'
asS'Cadwgawn'
p298
(lp299
S'1'
asS'Craig'
p300
(lp301
S'1'
aS'1'
asS'Caleb'
p302
(lp303
S'1'
asS'Colin'
p304
(lp305
S'1'
aS'1'
aS'1'
asS'Ciar'
p306
(lp307
S'1'
asS'Casper'
p308
(lp309
S'1'
asS'Cecil'
p310
(lp311
S'1'
asS'Cody'
p312
(lp313
S'1'
aS'1'
asS'Cl\xc3\x81udio'
p314
(lp315
S'1'
asS'Clint'
p316
(lp317
S'1'
asS'Carran'
p318
(lp319
S'1'
asS'Connell'
p320
(lp321
S'1'
asS'Cipriano'
p322
(lp323
S'1'
aS'1'
aS'1'
asS'Clive'
p324
(lp325
S'1'
asS'Cale'
p326
(lp327
S'1'
asS'Christian'
p328
(lp329
S'1'
aS'1'
aS'1'
aS'1'
aS'1'
aS'1'
asS'Chidiebere'
p330
(lp331
S'1'
aS'1'
asS'Cahya'
p332
(lp333
S'1'
asS'Chavdar'
p334
(lp335
S'1'
asS'Cibor'
p336
(lp337
S'1'
asS'C\xc4\x82t\xc4\x82lin'
p338
(lp339
S'1'
asS'Cletus'
p340
(lp341
S'1'
asS'Cystennin'
p342
(lp343
S'1'
asS'Cadell'
p344
(lp345
S'1'
asS'Chidike'
p346
(lp347
S'1'
asS'Conrad'
p348
(lp349
S'1'
aS'1'
asS'Culhwch'
p350
(lp351
S'1'
asS'Chet'
p352
(lp353
S'1'
asS'Corneliu'
p354
(lp355
S'1'
asS'Cornelis'
p356
(lp357
S'1'
asS'Celeste'
p358
(lp359
S'1'
aS'1'
aS'1'
aS'1'
asS'Cadfael'
p360
(lp361
S'1'
asS'Callahan'
p362
(lp363
S'1'
asS'Chen'
p364
(lp365
S'1'
asS'Cornelio'
p366
(lp367
S'1'
aS'1'
asS'Ciar\xc3\x81n'
p368
(lp369
S'1'
asS'Cenek'
p370
(lp371
S'1'
asS'C\xc3\x89leste'
p372
(lp373
S'1'
aS'1'
asS'Carlyle'
p374
(lp375
S'1'
asS'Chiranjeevi'
p376
(lp377
S'1'
asS'Chidiegwu'
p378
(lp379
S'1'
aS'1'
asS'Colbert'
p380
(lp381
S'1'
asS'Carey'
p382
(lp383
S'1'
aS'1'
aS'1'
aS'1'
asS'Cordell'
p384
(lp385
S'1'
asS'Cyrus'
p386
(lp387
S'1'
asS'Chidubem'
p388
(lp389
S'1'
asS'Carmine'
p390
(lp391
S'1'
asS'Christophe'
p392
(lp393
S'1'
asS'Carlitos'
p394
(lp395
S'1'
aS'1'
asS'Citlali'
p396
(lp397
S'1'
aS'1'
asS'Cayetano'
p398
(lp399
S'1'
asS'Cristi'
p400
(lp401
S'1'
asS'Cesarino'
p402
(lp403
S'1'
asS'Cornel'
p404
(lp405
S'1'
asS'Carles'
p406
(lp407
S'1'
asS'Callisto'
p408
(lp409
S'1'
asS'Camden'
p410
(lp411
S'1'
asS'Cian'
p412
(lp413
S'1'
asS'Caerwyn'
p414
(lp415
S'1'
asS'Cillian'
p416
(lp417
S'1'
asS'Christer'
p418
(lp419
S'1'
aS'1'
asS'Clifford'
p420
(lp421
S'1'
asS'Csaba'
p422
(lp423
S'1'
asS'Corn\xc3\x89lio'
p424
(lp425
S'1'
asS'Cheyenne'
p426
(lp427
S'1'
aS'1'
asS'Cesare'
p428
(lp429
S'1'
asS'Custodio'
p430
(lp431
S'1'
asS'Cree'
p432
(lp433
S'1'
asS'Constantijn'
p434
(lp435
S'1'
asS'Cezar'
p436
(lp437
S'1'
aS'1'
aS'1'
asS'Cristoforo'
p438
(lp439
S'1'
asS'Cadwalader'
p440
(lp441
S'1'
asS'Costanzo'
p442
(lp443
S'1'
asS'Costantino'
p444
(lp445
S'1'
asS'Caetano'
p446
(lp447
S'1'
asS'Conrado'
p448
(lp449
S'1'
asS'Chucho'
p450
(lp451
S'1'
asS'Caradog'
p452
(lp453
S'1'
asS'Cuauht\xc3\x89moc'
p454
(lp455
S'1'
asS'Cowal'
p456
(lp457
S'1'
asS'Carver'
p458
(lp459
S'1'
asS'Chip'
p460
(lp461
S'1'
asS'Cill\xc3\x8dn'
p462
(lp463
S'1'
asS'Chin'
p464
(lp465
S'1'
asS'Cornelius'
p466
(lp467
S'1'
aS'1'
aS'1'
asS'Carlisle'
p468
(lp469
S'1'
asS'Corentin'
p470
(lp471
S'1'
aS'1'
asS'Collin'
p472
(lp473
S'1'
asS'Colwyn'
p474
(lp475
S'1'
asS'Clay'
p476
(lp477
S'1'
asS'Coby'
p478
(lp479
S'1'
aS'1'
aS'1'
aS'1'
asS'Clyde'
p480
(lp481
S'1'
asS'Chiumbo'
p482
(lp483
S'1'
asS'Chrysanthos'
p484
(lp485
S'1'
asS'Conchobhar'
p486
(lp487
S'1'
asS'Constantin'
p488
(lp489
S'1'
aS'1'
asS'Clarence'
p490
(lp491
S'1'
asS'Czes\xc5\x81aw'
p492
(lp493
S'1'
asS'Chance'
p494
(lp495
S'1'
asS'Cath\xc3\x81n'
p496
(lp497
S'1'
asS'Carl'
p498
(lp499
S'1'
aS'1'
aS'1'
aS'1'
aS'1'
asS'Crist\xc3\x93bal'
p500
(lp501
S'1'
asS'Cledwyn'
p502
(lp503
S'1'
asS'Cin\xc3\x81ed'
p504
(lp505
S'1'
asS'Chandra'
p506
(lp507
S'1'
aS'1'
asS'Camille'
p508
(lp509
S'1'
aS'1'
asS'Conway'
p510
(lp511
S'1'
asS'C\xc3\x89lestin'
p512
(lp513
S'1'
asS'Catahecassa'
p514
(lp515
S'1'
asS'Ciriaco'
p516
(lp517
S'1'
aS'1'
asS'Cy'
p518
(lp519
S'1'
asS'Colm'
p520
(lp521
S'1'
asS'Chikelu'
p522
(lp523
S'1'
aS'1'
asS'Cleveland'
p524
(lp525
S'1'
asS'Campbell'
p526
(lp527
S'1'
asS'Cole'
p528
(lp529
S'1'
asS'Celestino'
p530
(lp531
S'1'
aS'1'
aS'1'
asS'Celestine'
p532
(lp533
S'1'
aS'1'
asS'Courtney'
p534
(lp535
S'1'
aS'1'
asS'Cahal'
p536
(lp537
S'1'
asS'Chandler'
p538
(lp539
S'1'
asS'Ctibor'
p540
(lp541
S'1'
asS'Cristiano'
p542
(lp543
S'1'
aS'1'
asS'Crawford'
p544
(lp545
S'1'
asS'Coilean'
p546
(lp547
S'1'
asS'Chioma'
p548
(lp549
S'1'
aS'1'
asS'Costica'
p550
(lp551
S'1'
asS'Christy'
p552
(lp553
S'1'
aS'1'
asS'Carol'
p554
(lp555
S'1'
aS'1'
aS'1'
asS'Chinweike'
p556
(lp557
S'1'
aS'1'
asS'Caoimh\xc3\x8dn'
p558
(lp559
S'1'
asS'Cebri\xc3\x81n'
p560
(lp561
S'1'
asS'Carter'
p562
(lp563
S'1'
asS'Carlton'
p564
(lp565
S'1'
asS'Colombo'
p566
(lp567
S'1'
asS'Cesaire'
p568
(lp569
S'1'
asS'Colombain'
p570
(lp571
S'1'
asS'Colby'
p572
(lp573
S'1'
asS'Conleth'
p574
(lp575
S'1'
asS'Camilo'
p576
(lp577
S'1'
aS'1'
asS'Chukwuma'
p578
(lp579
S'1'
asS'Christopher'
p580
(lp581
S'1'
asS'Clemente'
p582
(lp583
S'1'
aS'1'
asS'Cathair'
p584
(lp585
S'1'
asS'Charlot'
p586
(lp587
S'1'
asS'Cleto'
p588
(lp589
S'1'
aS'1'
aS'1'
asS'Chander'
p590
(lp591
S'1'
asS'Corrado'
p592
(lp593
S'1'
asS'Cowessess'
p594
(lp595
S'1'
asS'Claudio'
p596
(lp597
S'1'
aS'1'
asS'Chesed'
p598
(lp599
S'1'
aS'1'
asS'Claudiu'
p600
(lp601
S'1'
asS'Cade'
p602
(lp603
S'1'
asS'Cibr\xc3\x81n'
p604
(lp605
S'1'
asS'Chike'
p606
(lp607
S'1'
aS'1'
asS'Casimiro'
p608
(lp609
S'1'
aS'1'
aS'1'
asS'Cadfan'
p610
(lp611
S'1'
asS'Chukwuemeka'
p612
(lp613
S'1'
asS'Conley'
p614
(lp615
S'1'
asS'Coty'
p616
(lp617
S'1'
asS'Cletis'
p618
(lp619
S'1'
asS'Carlito'
p620
(lp621
S'1'
aS'1'
asS'Chris'
p622
(lp623
S'1'
aS'1'
asS'Calixto'
p624
(lp625
S'1'
aS'1'
asS'Coskun'
p626
(lp627
S'1'
asS'Chetan'
p628
(lp629
S'1'
asS'Corey'
p630
(lp631
S'1'
asS'Cirillo'
p632
(lp633
S'1'
asS'Chatzkel'
p634
(lp635
S'1'
asS'Cathaoir'
p636
(lp637
S'1'
asS'Chukwudi'
p638
(lp639
S'1'
asS'Christoph'
p640
(lp641
S'1'
asS'Cameron'
p642
(lp643
S'1'
aS'1'
aS'1'
aS'1'
asS'Cees'
p644
(lp645
S'1'
asS'Ceallach'
p646
(lp647
S'1'
asS'Celino'
p648
(lp649
S'1'
aS'1'
asS'Cadogan'
p650
(lp651
S'1'
aS'1'
asS'Christiaan'
p652
(lp653
S'1'
asS'Cass'
p654
(lp655
S'1'
aS'1'
asS'Cornell'
p656
(lp657
S'1'
asS'Cormag'
p658
(lp659
S'1'
asS'Corn\xc3\x89'
p660
(lp661
S'1'
asS'Cormac'
p662
(lp663
S'1'
asS'Celio'
p664
(lp665
S'1'
aS'1'
aS'1'
asS'Costel'
p666
(lp667
S'1'
asS'Ciprian'
p668
(lp669
S'1'
asS'Chile'
p670
(lp671
S'1'
asS'C\xc3\x94me'
p672
(lp673
S'1'
asS'Cassidy'
p674
(lp675
S'1'
aS'1'
asS'Callum'
p676
(lp677
S'1'
asS'Crist\xc3\x93v\xc3\x83o'
p678
(lp679
S'1'
asS'Chadwick'
p680
(lp681
S'1'
asS'Cory'
p682
(lp683
S'1'
asS'Cirino'
p684
(lp685
S'1'
aS'1'
asS'Candelario'
p686
(lp687
S'1'
asS'Cvetko'
p688
(lp689
S'1'
asS'Chandan'
p690
(lp691
S'1'
asS'Czcibor'
p692
(lp693
S'1'
asS'Carson'
p694
(lp695
S'1'
aS'1'
aS'1'
aS'1'
aS'1'
aS'1'
asS'Conner'
p696
(lp697
S'1'
asS'Camillo'
p698
(lp699
S'1'
asS'Curtis'
p700
(lp701
S'1'
asS'Chun'
p702
(lp703
S'1'
asS'Caol\xc3\x81n'
p704
(lp705
S'1'
asS'Carwyn'
p706
(lp707
S'1'
asS'Chus'
p708
(lp709
S'1'
aS'1'
asS'Chikere'
p710
(lp711
S'1'
aS'1'
asS'Chuy'
p712
(lp713
S'1'
asS'Conor'
p714
(lp715
S'1'
aS'1'
asS'Ceallagh'
p716
(lp717
S'1'
asS'Cash'
p718
(lp719
S'1'
asS'Corin'
p720
(lp721
S'1'
asS'Cristi\xc3\x81n'
p722
(lp723
S'1'
asS'Chinwe'
p724
(lp725
S'1'
aS'1'
asS'Concetto'
p726
(lp727
S'1'
asS'Carmelo'
p728
(lp729
S'1'
aS'1'
asS'Charley'
p730
(lp731
S'1'
aS'1'
asS'Constant'
p732
(lp733
S'1'
aS'1'
asS'Cuthbert'
p734
(lp735
S'1'
asS'Charles'
p736
(lp737
S'1'
aS'1'
asS'Clifton'
p738
(lp739
S'1'
asS'Chanda'
p740
(lp741
S'1'
aS'1'
asS'Cyryl'
p742
(lp743
S'1'
asS'Clem'
p744
(lp745
S'1'
as.