(dp1
S'Willy'
p2
(lp3
S'1'
aS'1'
aS'1'
aS'1'
aS'1'
aS'1'
asS'Wilmot'
p4
(lp5
S'1'
asS'Wawrzyniec'
p6
(lp7
S'1'
asS'Wahid'
p8
(lp9
S'1'
asS'Wasswa'
p10
(lp11
S'1'
asS'Watse'
p12
(lp13
S'1'
asS'Wilson'
p14
(lp15
S'1'
asS'Wayne'
p16
(lp17
S'1'
asS'Waqar'
p18
(lp19
S'1'
asS'W\xc5\x81odzimierz'
p20
(lp21
S'1'
asS'Wayna'
p22
(lp23
S'1'
asS'Walid'
p24
(lp25
S'1'
asS'Whitaker'
p26
(lp27
S'1'
asS'Wapasha'
p28
(lp29
S'1'
asS'Wira'
p30
(lp31
S'1'
asS'Wac\xc5\x81aw'
p32
(lp33
S'1'
asS'Willoughby'
p34
(lp35
S'1'
asS'Wesley'
p36
(lp37
S'1'
asS'Wu'
p38
(lp39
S'1'
asS'Waldemar'
p40
(lp41
S'1'
aS'1'
aS'1'
aS'1'
aS'1'
asS'Wilfred'
p42
(lp43
S'1'
asS'Whitney'
p44
(lp45
S'1'
aS'1'
asS'Wojciech'
p46
(lp47
S'1'
asS'Wieland'
p48
(lp49
S'1'
asS'Wilbur'
p50
(lp51
S'1'
asS'Wen'
p52
(lp53
S'1'
asS'Wiktor'
p54
(lp55
S'1'
asS'Wolf'
p56
(lp57
S'1'
aS'1'
aS'1'
asS'Webster'
p58
(lp59
S'1'
asS'Wiremu'
p60
(lp61
S'1'
asS'Willi'
p62
(lp63
S'1'
asS'Wynn'
p64
(lp65
S'1'
asS'Wayland'
p66
(lp67
S'1'
asS'Wilbert'
p68
(lp69
S'1'
asS'Washington'
p70
(lp71
S'1'
asS'Werner'
p72
(lp73
S'1'
aS'1'
aS'1'
aS'1'
aS'1'
asS'Waldek'
p74
(lp75
S'1'
asS'Windsor'
p76
(lp77
S'1'
asS'Wenzel'
p78
(lp79
S'1'
asS'Wilton'
p80
(lp81
S'1'
asS'Warwick'
p82
(lp83
S'1'
asS'Willard'
p84
(lp85
S'1'
asS'Wolfe'
p86
(lp87
S'1'
asS'Wright'
p88
(lp89
S'1'
asS'Wilhelm'
p90
(lp91
S'1'
aS'1'
asS'Winslow'
p92
(lp93
S'1'
asS'Wob'
p94
(lp95
S'1'
aS'1'
asS'Walt'
p96
(lp97
S'1'
asS'Wat'
p98
(lp99
S'1'
asS'Weldon'
p100
(lp101
S'1'
asS'Wolfgang'
p102
(lp103
S'1'
asS'Wiley'
p104
(lp105
S'1'
asS'Woodrow'
p106
(lp107
S'1'
asS'Wisdom'
p108
(lp109
S'1'
aS'1'
asS'William'
p110
(lp111
S'1'
asS'Wallis'
p112
(lp113
S'1'
aS'1'
asS'W\xc5\x81adys\xc5\x81aw'
p114
(lp115
S'1'
asS'Waheed'
p116
(lp117
S'1'
asS'Ward'
p118
(lp119
S'1'
asS'W\xc5\x81odzis\xc5\x81aw'
p120
(lp121
S'1'
asS'Wit'
p122
(lp123
S'1'
asS'Wolodymyr'
p124
(lp125
S'1'
asS'Wito\xc5\x81d'
p126
(lp127
S'1'
asS'Wekesa'
p128
(lp129
S'1'
asS'Warner'
p130
(lp131
S'1'
asS'Willem'
p132
(lp133
S'1'
asS'Winthrop'
p134
(lp135
S'1'
asS'Walery'
p136
(lp137
S'1'
asS'Wystan'
p138
(lp139
S'1'
asS'Woody'
p140
(lp141
S'1'
asS'Warren'
p142
(lp143
S'1'
asS'Wubbe'
p144
(lp145
S'1'
aS'1'
asS'Wayra'
p146
(lp147
S'1'
asS'Wallace'
p148
(lp149
S'1'
aS'1'
asS'Wendel'
p150
(lp151
S'1'
aS'1'
asS'Willis'
p152
(lp153
S'1'
asS'Walenty'
p154
(lp155
S'1'
asS'Willie'
p156
(lp157
S'1'
aS'1'
asS'Wincenty'
p158
(lp159
S'1'
asS'Walton'
p160
(lp161
S'1'
asS'Wendell'
p162
(lp163
S'1'
asS'Wate'
p164
(lp165
S'1'
asS'Waylon'
p166
(lp167
S'1'
asS'Wasim'
p168
(lp169
S'1'
asS'Wis\xc5\x81aw'
p170
(lp171
S'1'
asS'Wally'
p172
(lp173
S'1'
asS'Wilfredo'
p174
(lp175
S'1'
asS'Wynne'
p176
(lp177
S'1'
aS'1'
aS'1'
asS'Wasyl'
p178
(lp179
S'1'
asS'Waldo'
p180
(lp181
S'1'
aS'1'
asS'Wilfrid'
p182
(lp183
S'1'
asS'Winoc'
p184
(lp185
S'1'
aS'1'
asS'Walker'
p186
(lp187
S'1'
asS'Wibo'
p188
(lp189
S'1'
aS'1'
asS'Walther'
p190
(lp191
S'1'
asS'Wilford'
p192
(lp193
S'1'
asS'Winston'
p194
(lp195
S'1'
asS'Wasi'
p196
(lp197
S'1'
asS'Westley'
p198
(lp199
S'1'
asS'Wilkie'
p200
(lp201
S'1'
asS'Wickaninnish'
p202
(lp203
S'1'
asS'Walerian'
p204
(lp205
S'1'
asS'Wade'
p206
(lp207
S'1'
asS'Wilmer'
p208
(lp209
S'1'
asS'Wibawa'
p210
(lp211
S'1'
asS'Wies\xc5\x81aw'
p212
(lp213
S'1'
asS'Witold'
p214
(lp215
S'1'
aS'1'
asS'Wendelin'
p216
(lp217
S'1'
aS'1'
asS'Wojtek'
p218
(lp219
S'1'
asS'Wolfram'
p220
(lp221
S'1'
asS'Walter'
p222
(lp223
S'1'
aS'1'
aS'1'
aS'1'
aS'1'
aS'1'
asS'Wook'
p224
(lp225
S'1'
asS'Wynfor'
p226
(lp227
S'1'
asS'Wielis\xc5\x81aw'
p228
(lp229
S'1'
asS'Waldu\xc5\x9a'
p230
(lp231
S'1'
asS'Wardell'
p232
(lp233
S'1'
asS'Wouter'
p234
(lp235
S'1'
asS'Winton'
p236
(lp237
S'1'
asS'Wide'
p238
(lp239
S'1'
asS'Wassim'
p240
(lp241
S'1'
asS'Will'
p242
(lp243
S'1'
asS'Wafai'
p244
(lp245
S'1'
asS'Wenzeslaus'
p246
(lp247
S'1'
asS'Wiebe'
p248
(lp249
S'1'
aS'1'
aS'1'
asS'Wyn'
p250
(lp251
S'1'
asS'Wilf'
p252
(lp253
S'1'
asS'Warrick'
p254
(lp255
S'1'
asS'Wilburn'
p256
(lp257
S'1'
asS'Wyatt'
p258
(lp259
S'1'
asS'Winfred'
p260
(lp261
S'1'
asS'W\xc5\x81odek'
p262
(lp263
S'1'
asS'Wim'
p264
(lp265
S'1'
aS'1'
asS'Wil'
p266
(lp267
S'1'
asS'Wilfried'
p268
(lp269
S'1'
asS'Weston'
p270
(lp271
S'1'
asS'Wafi'
p272
(lp273
S'1'
asS'Werther'
p274
(lp275
S'1'
asS'Winfried'
p276
(lp277
S'1'
as.