(dp1
S'Iowa Falls'
p2
(lp3
S'50126'
p4
asS'Ibarra'
p5
(lp6
S'20400'
p7
aS'20400'
p8
asS'Im Fang'
p9
(lp10
S'1656'
p11
aS'1656'
p12
asS'Ikornnes'
p13
(lp14
S'6222'
p15
asS'Imon'
p16
(lp17
S'19269'
p18
aS'19269'
p19
asS'Indore Malwa Mills'
p20
(lp21
S'452002'
p22
asS'Indore Barwali Chowk'
p23
(lp24
S'452006'
p25
aS'452006'
p26
asS'Indian Trail'
p27
(lp28
S'28079'
p29
aS'28079'
p30
asS'Itanagar'
p31
(lp32
S'791111'
p33
aS'785015'
p34
aS'785676'
p35
aS'786001'
p36
aS'786001'
p37
aS'786001'
p38
aS'786003'
p39
aS'786004'
p40
aS'786007'
p41
aS'786010'
p42
aS'786052'
p43
aS'786054'
p44
aS'786102'
p45
aS'786125'
p46
aS'786125'
p47
aS'786145'
p48
aS'786147'
p49
aS'786150'
p50
aS'786151'
p51
aS'786153'
p52
aS'786155'
p53
aS'786158'
p54
aS'786159'
p55
aS'786171'
p56
aS'786172'
p57
aS'786180'
p58
aS'786182'
p59
aS'786184'
p60
aS'786601'
p61
aS'786612'
p62
aS'786614'
p63
aS'786616'
p64
aS'786622'
p65
aS'786624'
p66
aS'786631'
p67
aS'790002'
p68
aS'790102'
p69
aS'790104'
p70
aS'790115'
p71
aS'791002'
p72
aS'791102'
p73
aS'791104'
p74
aS'791113'
p75
aS'791120'
p76
aS'791122'
p77
aS'792051'
p78
aS'792055'
p79
aS'792102'
p80
aS'792104'
p81
aS'792110'
p82
aS'792120'
p83
aS'792122'
p84
aS'786171'
p85
aS'786610'
p86
aS'785015'
p87
aS'785676'
p88
aS'786001'
p89
aS'786003'
p90
aS'786004'
p91
aS'786007'
p92
aS'786010'
p93
aS'786052'
p94
aS'786054'
p95
aS'786102'
p96
aS'786125'
p97
aS'786145'
p98
aS'786147'
p99
aS'786150'
p100
aS'786151'
p101
aS'786153'
p102
aS'786155'
p103
aS'786158'
p104
aS'786159'
p105
aS'786171'
p106
aS'786172'
p107
aS'786180'
p108
aS'786182'
p109
aS'786184'
p110
aS'786601'
p111
aS'786610'
p112
aS'786612'
p113
aS'786614'
p114
aS'786616'
p115
aS'786622'
p116
aS'786624'
p117
aS'786631'
p118
aS'790002'
p119
aS'790102'
p120
aS'790104'
p121
aS'790115'
p122
aS'791002'
p123
aS'791102'
p124
aS'791104'
p125
aS'791111'
p126
ag126
aS'791113'
p127
aS'791120'
p128
aS'791122'
p129
aS'792051'
p130
aS'792055'
p131
aS'792102'
p132
aS'792104'
p133
aS'792110'
p134
aS'792120'
p135
aS'792122'
p136
asS'Iv\xc3\xa1ncsa'
p137
(lp138
S'2454'
p139
aS'2454'
p140
asS'Isla'
p141
(lp142
S'39195'
p143
aS'39195'
p144
asS'Ind Dev Are Jeed Hyd'
p145
(lp146
S'500855'
p147
aS'500855'
p148
asS'Ibrahimpatnam'
p149
(lp150
S'501506'
p151
aS'501506'
p152
asS'Isenthal'
p153
(lp154
S'6461'
p155
aS'6461'
p156
asS'Ilsbo'
p157
(lp158
S'82071'
p159
aS'82071'
p160
asS'Industrial Area Sector 28'
p161
(lp162
S'160002'
p163
aS'160002'
p164
asS'Indore Industrial Estate'
p165
(lp166
S'452002'
p167
asS'Innsbruck'
p168
(lp169
S'6020'
p170
aS'6130'
p171
aS'6281'
p172
aS'6300'
p173
aS'6370'
p174
aS'6410'
p175
aS'6600'
p176
aS'6063'
p177
aS'6112'
p178
aS'6170'
p179
aS'6212'
p180
aS'6233'
p181
aS'6280'
p182
aS'6450'
p183
aS'6500'
p184
aS'6543'
p185
aS'6563'
p186
aS'6631'
p187
aS'9920'
p188
aS'6068'
p189
aS'6091'
p190
aS'6111'
p191
aS'6134'
p192
aS'6142'
p193
aS'6173'
p194
aS'6215'
p195
aS'6250'
p196
aS'6271'
p197
aS'6283'
p198
aS'6294'
p199
aS'6322'
p200
aS'6341'
p201
aS'6345'
p202
aS'6363'
p203
aS'6365'
p204
aS'6414'
p205
aS'6433'
p206
aS'6465'
p207
aS'6474'
p208
aS'6533'
p209
aS'6555'
p210
aS'6633'
p211
aS'6673'
p212
aS'6065'
p213
aS'6074'
p214
aS'6133'
p215
aS'6162'
p216
aS'6330'
p217
aS'6421'
p218
aS'6425'
p219
aS'6522'
p220
aS'6632'
p221
aS'6060'
p222
aS'6073'
p223
aS'6080'
p224
ag224
aS'6091'
p225
aS'6100'
p226
aS'6114'
p227
aS'6122'
p228
aS'6130'
p229
aS'6143'
p230
aS'6150'
p231
aS'6156'
p232
aS'6175'
p233
aS'6182'
p234
aS'6200'
p235
aS'6234'
p236
aS'6236'
p237
aS'6272'
p238
aS'6274'
p239
aS'6283'
p240
aS'6295'
p241
aS'6313'
p242
aS'6323'
p243
aS'6342'
p244
aS'6351'
p245
aS'6370'
p246
aS'6382'
p247
aS'6393'
p248
aS'6403'
p249
aS'6414'
p250
aS'6423'
p251
aS'6426'
p252
aS'6432'
p253
aS'6456'
p254
aS'6464'
p255
aS'6481'
p256
aS'6491'
p257
aS'6521'
p258
aS'6531'
p259
aS'6551'
p260
aS'6562'
p261
aS'6572'
p262
aS'6591'
p263
aS'6600'
p264
aS'6600'
p265
aS'6600'
p266
aS'6621'
p267
aS'6644'
p268
aS'6653'
p269
aS'6060'
p270
aS'6091'
p271
aS'6122'
p272
aS'6130'
p273
aS'6134'
p274
aS'6150'
p275
aS'6156'
p276
aS'6170'
p277
aS'6175'
p278
aS'6182'
p279
aS'6200'
p280
aS'6215'
p281
aS'6233'
p282
aS'6234'
p283
aS'6236'
p284
aS'6250'
p285
aS'6271'
p286
aS'6272'
p287
aS'6274'
p288
aS'6283'
p289
aS'6295'
p290
aS'6313'
p291
aS'6322'
p292
aS'6323'
p293
aS'6345'
p294
aS'6351'
p295
aS'6370'
p296
aS'6382'
p297
aS'6393'
p298
aS'6403'
p299
aS'6414'
p300
aS'6423'
p301
aS'6426'
p302
aS'6432'
p303
aS'6433'
p304
aS'6456'
p305
aS'6464'
p306
aS'6465'
p307
aS'6474'
p308
aS'6481'
p309
aS'6491'
p310
aS'6521'
p311
aS'6522'
p312
aS'6531'
p313
aS'6533'
p314
aS'6543'
p315
aS'6551'
p316
aS'6555'
p317
aS'6562'
p318
aS'6572'
p319
aS'6591'
p320
aS'6600'
p321
aS'6621'
p322
aS'6632'
p323
aS'6633'
p324
aS'6653'
p325
aS'6673'
p326
aS'9920'
p327
asS'Ingolstadt'
p328
(lp329
S'85049'
p330
aS'85053'
p331
aS'85049'
p332
aS'85053'
p333
asS'Isle La Motte'
p334
(lp335
S'05463'
p336
aS'05463'
p337
asS'Idapasham'
p338
(lp339
S'502307'
p340
aS'502307'
p341
asS'Icod'
p342
(lp343
S'38430'
p344
aS'38430'
p345
asS'Ilha do Faial'
p346
(lp347
S'9900-011'
p348
aS'9900-014'
p349
ag349
aS'9900-016'
p350
ag350
aS'9900-018'
p351
ag351
aS'9900-020'
p352
ag352
aS'9900-023'
p353
ag353
aS'9900-025'
p354
ag354
aS'9900-027'
p355
ag355
aS'9900-029'
p356
ag356
aS'9900-031'
p357
ag357
aS'9900-037'
p358
ag358
aS'9900-039'
p359
ag359
aS'9900-044'
p360
ag360
aS'9900-046'
p361
ag361
aS'9900-048'
p362
ag362
aS'9900-050'
p363
ag363
aS'9900-052'
p364
ag364
aS'9900-056'
p365
ag365
aS'9900-058'
p366
ag366
aS'9900-061'
p367
ag367
aS'9900-063'
p368
ag368
aS'9900-065'
p369
ag369
aS'9900-067'
p370
ag370
aS'9900-070'
p371
ag371
aS'9900-073'
p372
ag372
aS'9900-075'
p373
ag373
aS'9900-077'
p374
ag374
aS'9900-079'
p375
ag375
aS'9900-081'
p376
ag376
aS'9900-083'
p377
ag377
aS'9900-085'
p378
ag378
aS'9900-087'
p379
ag379
aS'9900-089'
p380
ag380
aS'9900-091'
p381
ag381
aS'9900-094'
p382
ag382
aS'9900-096'
p383
ag383
aS'9900-098'
p384
ag384
aS'9900-100'
p385
ag385
aS'9900-102'
p386
ag386
aS'9900-104'
p387
ag387
aS'9900-106'
p388
ag388
aS'9900-108'
p389
ag389
aS'9900-110'
p390
ag390
aS'9900-112'
p391
ag391
aS'9900-114'
p392
ag392
aS'9900-117'
p393
ag393
aS'9900-119'
p394
ag394
aS'9900-122'
p395
ag395
aS'9900-124'
p396
ag396
aS'9900-126'
p397
ag397
aS'9900-128'
p398
ag398
aS'9900-130'
p399
ag399
aS'9900-132'
p400
ag400
aS'9900-134'
p401
ag401
aS'9900-136'
p402
ag402
aS'9900-138'
p403
ag403
aS'9900-140'
p404
ag404
aS'9900-142'
p405
ag405
aS'9900-144'
p406
ag406
aS'9900-146'
p407
ag407
aS'9900-148'
p408
ag408
aS'9900-150'
p409
ag409
aS'9900-153'
p410
ag410
aS'9900-155'
p411
ag411
aS'9900-157'
p412
ag412
aS'9900-160'
p413
ag413
aS'9900-163'
p414
ag414
aS'9900-165'
p415
ag415
aS'9900-167'
p416
ag416
aS'9900-169'
p417
ag417
aS'9900-171'
p418
ag418
aS'9900-173'
p419
ag419
aS'9900-175'
p420
ag420
aS'9900-302'
p421
aS'9900-304'
p422
aS'9900-321'
p423
aS'9900-323'
p424
aS'9900-325'
p425
aS'9900-327'
p426
aS'9900-329'
p427
aS'9900-331'
p428
aS'9900-333'
p429
aS'9900-343'
p430
aS'9900-345'
p431
aS'9900-347'
p432
aS'9900-362'
p433
aS'9900-364'
p434
aS'9900-367'
p435
aS'9900-369'
p436
aS'9900-371'
p437
aS'9900-374'
p438
aS'9900-401'
p439
aS'9900-403'
p440
aS'9900-407'
p441
aS'9900-421'
p442
aS'9900-423'
p443
aS'9900-425'
p444
aS'9900-427'
p445
aS'9900-429'
p446
aS'9900-432'
p447
aS'9900-011'
p448
ag448
aS'9900-014'
p449
ag449
aS'9900-016'
p450
ag450
aS'9900-018'
p451
ag451
aS'9900-020'
p452
ag452
aS'9900-023'
p453
ag453
aS'9900-025'
p454
ag454
aS'9900-027'
p455
ag455
aS'9900-029'
p456
ag456
aS'9900-031'
p457
ag457
aS'9900-037'
p458
ag458
aS'9900-039'
p459
ag459
aS'9900-044'
p460
ag460
aS'9900-046'
p461
ag461
aS'9900-048'
p462
ag462
aS'9900-050'
p463
ag463
aS'9900-052'
p464
ag464
aS'9900-056'
p465
ag465
aS'9900-058'
p466
ag466
aS'9900-061'
p467
ag467
aS'9900-063'
p468
ag468
aS'9900-065'
p469
ag469
aS'9900-067'
p470
ag470
aS'9900-070'
p471
ag471
aS'9900-073'
p472
ag472
aS'9900-075'
p473
ag473
aS'9900-077'
p474
ag474
aS'9900-079'
p475
ag475
aS'9900-081'
p476
ag476
aS'9900-083'
p477
ag477
aS'9900-085'
p478
ag478
aS'9900-087'
p479
ag479
aS'9900-089'
p480
ag480
aS'9900-091'
p481
ag481
aS'9900-094'
p482
ag482
aS'9900-096'
p483
ag483
aS'9900-098'
p484
ag484
aS'9900-100'
p485
ag485
aS'9900-102'
p486
ag486
aS'9900-104'
p487
ag487
aS'9900-106'
p488
ag488
aS'9900-108'
p489
ag489
aS'9900-110'
p490
ag490
aS'9900-112'
p491
ag491
aS'9900-114'
p492
ag492
aS'9900-117'
p493
ag493
aS'9900-119'
p494
ag494
aS'9900-122'
p495
ag495
aS'9900-124'
p496
ag496
aS'9900-126'
p497
ag497
aS'9900-128'
p498
ag498
aS'9900-130'
p499
ag499
aS'9900-132'
p500
ag500
aS'9900-134'
p501
ag501
aS'9900-136'
p502
ag502
aS'9900-138'
p503
ag503
aS'9900-140'
p504
ag504
aS'9900-142'
p505
ag505
aS'9900-144'
p506
ag506
aS'9900-146'
p507
ag507
aS'9900-148'
p508
ag508
aS'9900-150'
p509
ag509
aS'9900-153'
p510
ag510
aS'9900-155'
p511
ag511
aS'9900-157'
p512
ag512
aS'9900-160'
p513
ag513
aS'9900-163'
p514
ag514
aS'9900-165'
p515
ag515
aS'9900-167'
p516
ag516
aS'9900-169'
p517
ag517
aS'9900-171'
p518
ag518
aS'9900-173'
p519
ag519
aS'9900-175'
p520
ag520
aS'9900-302'
p521
aS'9900-304'
p522
aS'9900-321'
p523
aS'9900-323'
p524
aS'9900-325'
p525
aS'9900-327'
p526
aS'9900-329'
p527
aS'9900-331'
p528
aS'9900-333'
p529
aS'9900-343'
p530
aS'9900-345'
p531
aS'9900-347'
p532
aS'9900-362'
p533
aS'9900-364'
p534
aS'9900-367'
p535
aS'9900-369'
p536
aS'9900-371'
p537
aS'9900-374'
p538
aS'9900-401'
p539
aS'9900-403'
p540
aS'9900-407'
p541
aS'9900-421'
p542
aS'9900-423'
p543
aS'9900-425'
p544
aS'9900-427'
p545
aS'9900-429'
p546
aS'9900-432'
p547
asS'Istenmezeje'
p548
(lp549
S'3253'
p550
aS'3253'
p551
asS'Iharosber\xc3\xa9ny'
p552
(lp553
S'8725'
p554
asS'Industrial Area Moga'
p555
(lp556
S'142001'
p557
aS'142001'
p558
aS'142001'
p559
asS'Igis'
p560
(lp561
S'7206'
p562
aS'7206'
p563
asS'Icogne'
p564
(lp565
S'1977'
p566
aS'1977'
p567
asS'Indian Springs'
p568
(lp569
S'89018'
p570
aS'89018'
p571
asS'International Border Region (Cardston)'
p572
(lp573
S'T0K'
p574
aS'T0K'
p575
asS'Industry'
p576
(lp577
S'15052'
p578
aS'15052'
p579
asS'Indian Nation'
p580
(lp581
S'800001'
p582
asS'Ilha do Pico'
p583
(lp584
S'9930-011'
p585
aS'9930-022'
p586
aS'9930-024'
p587
aS'9930-026'
p588
aS'9930-028'
p589
aS'9930-030'
p590
aS'9930-051'
p591
aS'9930-053'
p592
aS'9930-055'
p593
aS'9930-057'
p594
aS'9930-102'
p595
aS'9930-104'
p596
aS'9930-106'
p597
aS'9930-108'
p598
aS'9930-122'
p599
aS'9930-124'
p600
aS'9930-126'
p601
aS'9930-128'
p602
aS'9930-130'
p603
aS'9930-132'
p604
aS'9930-134'
p605
aS'9930-136'
p606
aS'9930-138'
p607
aS'9930-140'
p608
aS'9930-142'
p609
aS'9930-144'
p610
aS'9930-146'
p611
aS'9930-148'
p612
aS'9930-150'
p613
aS'9930-152'
p614
aS'9930-154'
p615
aS'9930-172'
p616
aS'9930-174'
p617
aS'9930-176'
p618
aS'9930-178'
p619
aS'9930-201'
p620
aS'9930-203'
p621
aS'9930-205'
p622
aS'9930-207'
p623
aS'9930-209'
p624
aS'9930-211'
p625
aS'9930-213'
p626
aS'9930-215'
p627
aS'9930-222'
p628
aS'9930-224'
p629
aS'9930-226'
p630
aS'9930-228'
p631
aS'9930-251'
p632
aS'9930-253'
p633
aS'9930-301'
p634
aS'9930-303'
p635
aS'9930-305'
p636
aS'9930-307'
p637
aS'9930-309'
p638
aS'9930-320'
p639
aS'9930-322'
p640
aS'9930-324'
p641
aS'9930-326'
p642
aS'9930-328'
p643
aS'9930-330'
p644
aS'9930-332'
p645
aS'9930-334'
p646
aS'9930-336'
p647
aS'9930-338'
p648
aS'9930-340'
p649
aS'9930-342'
p650
aS'9930-401'
p651
aS'9930-422'
p652
aS'9930-424'
p653
aS'9930-426'
p654
aS'9930-428'
p655
aS'9930-430'
p656
aS'9930-432'
p657
aS'9930-451'
p658
aS'9930-453'
p659
aS'9930-455'
p660
aS'9930-457'
p661
aS'9930-472'
p662
aS'9930-999'
p663
aS'9940-012'
p664
aS'9940-014'
p665
aS'9940-016'
p666
aS'9940-018'
p667
aS'9940-020'
p668
aS'9940-022'
p669
aS'9940-024'
p670
aS'9940-032'
p671
aS'9940-034'
p672
aS'9940-036'
p673
aS'9940-038'
p674
aS'9940-040'
p675
aS'9940-042'
p676
aS'9940-060'
p677
aS'9940-062'
p678
aS'9940-064'
p679
aS'9940-066'
p680
aS'9940-068'
p681
aS'9940-101'
p682
aS'9940-103'
p683
aS'9940-105'
p684
aS'9930-011'
p685
ag685
aS'9930-022'
p686
aS'9930-024'
p687
aS'9930-026'
p688
aS'9930-028'
p689
aS'9930-030'
p690
aS'9930-051'
p691
aS'9930-053'
p692
aS'9930-055'
p693
aS'9930-057'
p694
aS'9930-102'
p695
aS'9930-104'
p696
aS'9930-106'
p697
aS'9930-108'
p698
aS'9930-122'
p699
aS'9930-124'
p700
aS'9930-126'
p701
aS'9930-128'
p702
aS'9930-130'
p703
aS'9930-132'
p704
aS'9930-134'
p705
aS'9930-136'
p706
aS'9930-138'
p707
aS'9930-140'
p708
aS'9930-142'
p709
aS'9930-144'
p710
aS'9930-146'
p711
aS'9930-148'
p712
aS'9930-150'
p713
aS'9930-152'
p714
aS'9930-154'
p715
aS'9930-172'
p716
aS'9930-174'
p717
aS'9930-176'
p718
aS'9930-178'
p719
aS'9930-201'
p720
aS'9930-203'
p721
aS'9930-205'
p722
aS'9930-207'
p723
aS'9930-209'
p724
aS'9930-211'
p725
aS'9930-213'
p726
aS'9930-215'
p727
aS'9930-222'
p728
aS'9930-224'
p729
aS'9930-226'
p730
aS'9930-228'
p731
aS'9930-251'
p732
aS'9930-253'
p733
aS'9930-301'
p734
aS'9930-303'
p735
aS'9930-305'
p736
aS'9930-307'
p737
aS'9930-309'
p738
aS'9930-320'
p739
aS'9930-322'
p740
aS'9930-324'
p741
aS'9930-326'
p742
aS'9930-328'
p743
aS'9930-330'
p744
aS'9930-332'
p745
aS'9930-334'
p746
aS'9930-336'
p747
aS'9930-338'
p748
aS'9930-340'
p749
aS'9930-342'
p750
aS'9930-401'
p751
aS'9930-422'
p752
aS'9930-424'
p753
aS'9930-426'
p754
aS'9930-428'
p755
aS'9930-430'
p756
aS'9930-432'
p757
aS'9930-451'
p758
aS'9930-453'
p759
aS'9930-455'
p760
aS'9930-457'
p761
aS'9930-472'
p762
aS'9930-999'
p763
aS'9940-012'
p764
aS'9940-014'
p765
aS'9940-016'
p766
aS'9940-018'
p767
aS'9940-020'
p768
aS'9940-022'
p769
aS'9940-024'
p770
aS'9940-032'
p771
aS'9940-034'
p772
aS'9940-036'
p773
aS'9940-038'
p774
aS'9940-040'
p775
aS'9940-042'
p776
aS'9940-060'
p777
aS'9940-062'
p778
aS'9940-064'
p779
aS'9940-066'
p780
aS'9940-068'
p781
aS'9940-101'
p782
aS'9940-103'
p783
aS'9940-105'
p784
asS'Indira Bazar'
p785
(lp786
S'302001'
p787
aS'302001'
p788
asS'Idstein'
p789
(lp790
S'65510'
p791
aS'65510'
p792
asS'Indore Vallabhnagar'
p793
(lp794
S'452002'
p795
asS'Illodu'
p796
(lp797
S'604210'
p798
aS'604210'
p799
asS'Indore City'
p800
(lp801
S'452002'
p802
aS'452002'
p803
asS'Inkster'
p804
(lp805
S'58244'
p806
aS'58244'
p807
asS'Irurita'
p808
(lp809
S'31730'
p810
aS'31730'
p811
asS'Ismay'
p812
(lp813
S'59336'
p814
aS'59336'
p815
asS'Iv\xc3\xa1d'
p816
(lp817
S'3248'
p818
aS'3248'
p819
asS'Inderpuri'
p820
(lp821
S'110012'
p822
asS'Industrial Estate'
p823
(lp824
S'184102'
p825
aS'141003'
p826
aS'141003'
p827
aS'302006'
p828
aS'121006'
p829
aS'121006'
p830
aS'184102'
p831
aS'302006'
p832
asS'Industrial Estate Moulali'
p833
(lp834
S'500040'
p835
aS'500040'
p836
asS'Iv\xc3\xa1n'
p837
(lp838
S'9374'
p839
aS'9374'
p840
asS'Industrial Suburb I Stage'
p841
(lp842
S'570008'
p843
aS'570008'
p844
asS'Igorre'
p845
(lp846
S'48140'
p847
aS'48140'
p848
asS'Iniesta'
p849
(lp850
S'16235'
p851
aS'16235'
p852
asS'Iluka'
p853
(lp854
S'6028'
p855
asS'Indore Siyaganj'
p856
(lp857
S'452001'
p858
asS'Indore Yeshwant Road H O'
p859
(lp860
S'452004'
p861
aS'452004'
p862
asS'Indianola'
p863
(lp864
S'38751'
p865
aS'38751'
p866
asS'Islares'
p867
(lp868
S'39798'
p869
aS'39798'
p870
asS'Innvik'
p871
(lp872
S'6793'
p873
asS'Index'
p874
(lp875
S'98256'
p876
aS'98256'
p877
asS'Indraprastha Estate'
p878
(lp879
S'110002'
p880
asS'Innaloo'
p881
(lp882
S'6018'
p883
asS'Igar'
p884
(lp885
S'7015'
p886
aS'7015'
p887
asS'I.I.P. Dehradun'
p888
(lp889
S'248005'
p890
aS'248005'
p891
asS'Ichak'
p892
(lp893
S'825402'
p894
aS'825402'
p895
asS'Incline Village'
p896
(lp897
S'89450'
p898
aS'89452'
p899
aS'89450'
p900
aS'89452'
p901
asS'Irenental'
p902
(lp903
S'3011'
p904
asS'Igal'
p905
(lp906
S'7275'
p907
asS'Isaszeg'
p908
(lp909
S'2117'
p910
aS'2117'
p911
asS'Ibapah'
p912
(lp913
S'84034'
p914
aS'84034'
p915
asS'Indore Pardesipura'
p916
(lp917
S'452002'
p918
asS'Indore Biyavani'
p919
(lp920
S'452005'
p921
aS'452005'
p922
asS'Ikbalganj Ludhiana'
p923
(lp924
S'141008'
p925
aS'141008'
p926
asS'Iowa'
p927
(lp928
S'50002'
p929
aS'50003'
p930
aS'50006'
p931
aS'50010'
p932
aS'50011'
p933
aS'50020'
p934
aS'50025'
p935
aS'50028'
p936
aS'50032'
p937
aS'50034'
p938
aS'50036'
p939
aS'50038'
p940
aS'50040'
p941
aS'50042'
p942
aS'50046'
p943
aS'50048'
p944
aS'50050'
p945
aS'50055'
p946
aS'50057'
p947
aS'50060'
p948
aS'50063'
p949
aS'50066'
p950
aS'50068'
p951
aS'50071'
p952
aS'50073'
p953
aS'50075'
p954
aS'50104'
p955
aS'50106'
p956
aS'50108'
p957
aS'50111'
p958
aS'50116'
p959
aS'50118'
p960
aS'50122'
p961
aS'50129'
p962
aS'50139'
p963
aS'50143'
p964
aS'50146'
p965
aS'50148'
p966
aS'50150'
p967
aS'50152'
p968
aS'50155'
p969
aS'50157'
p970
aS'50162'
p971
aS'50164'
p972
aS'50166'
p973
aS'50168'
p974
aS'50173'
p975
aS'50201'
p976
aS'50207'
p977
aS'50208'
p978
aS'50211'
p979
aS'50214'
p980
aS'50217'
p981
aS'50219'
p982
aS'50220'
p983
aS'50225'
p984
aS'50228'
p985
aS'50232'
p986
aS'50234'
p987
aS'50236'
p988
aS'50238'
p989
aS'50243'
p990
aS'50246'
p991
aS'50248'
p992
aS'50250'
p993
aS'50255'
p994
aS'50257'
p995
aS'50259'
p996
aS'50262'
p997
aS'50264'
p998
aS'50268'
p999
aS'50271'
p1000
aS'50273'
p1001
aS'50275'
p1002
aS'50309'
p1003
aS'50321'
p1004
aS'50325'
p1005
aS'50428'
p1006
aS'50613'
p1007
aS'51401'
p1008
aS'51501'
p1009
aS'52001'
p1010
aS'52101'
p1011
aS'52242'
p1012
aS'52402'
p1013
aS'52501'
p1014
aS'52601'
p1015
aS'52632'
p1016
aS'52732'
p1017
aS'52801'
p1018
aS'52807'
p1019
aS'50003'
p1020
aS'50010'
p1021
aS'50036'
p1022
aS'50131'
p1023
aS'50208'
p1024
aS'50219'
p1025
aS'50309'
p1026
aS'50321'
p1027
aS'50325'
p1028
aS'50428'
p1029
aS'50613'
p1030
aS'51401'
p1031
aS'51501'
p1032
aS'52001'
p1033
aS'52101'
p1034
aS'52242'
p1035
aS'52402'
p1036
aS'52501'
p1037
aS'52601'
p1038
aS'52632'
p1039
aS'52732'
p1040
aS'52801'
p1041
aS'52807'
p1042
aS'50002'
p1043
ag1043
aS'50006'
p1044
aS'50011'
p1045
aS'50020'
p1046
aS'50025'
p1047
aS'50028'
p1048
aS'50032'
p1049
aS'50034'
p1050
aS'50038'
p1051
aS'50040'
p1052
aS'50042'
p1053
aS'50046'
p1054
aS'50048'
p1055
aS'50050'
p1056
aS'50055'
p1057
aS'50057'
p1058
aS'50060'
p1059
aS'50063'
p1060
aS'50066'
p1061
aS'50068'
p1062
aS'50071'
p1063
aS'50073'
p1064
aS'50075'
p1065
aS'50104'
p1066
aS'50106'
p1067
aS'50108'
p1068
aS'50111'
p1069
aS'50116'
p1070
aS'50118'
p1071
aS'50122'
p1072
aS'50124'
p1073
ag4
aS'50129'
p1074
aS'50132'
p1075
aS'50135'
p1076
aS'50137'
p1077
aS'50139'
p1078
aS'50141'
p1079
aS'50143'
p1080
aS'50146'
p1081
aS'50148'
p1082
aS'50150'
p1083
aS'50152'
p1084
aS'50155'
p1085
aS'50157'
p1086
aS'50162'
p1087
aS'50164'
p1088
aS'50166'
p1089
aS'50168'
p1090
aS'50170'
p1091
aS'50173'
p1092
aS'50201'
p1093
aS'50207'
p1094
aS'50211'
p1095
aS'50214'
p1096
aS'50217'
p1097
aS'50220'
p1098
aS'50225'
p1099
aS'50228'
p1100
aS'50230'
p1101
aS'50232'
p1102
aS'50234'
p1103
aS'50236'
p1104
aS'50238'
p1105
aS'50243'
p1106
aS'50246'
p1107
aS'50248'
p1108
aS'50250'
p1109
aS'50255'
p1110
aS'50257'
p1111
aS'50259'
p1112
aS'50262'
p1113
aS'50264'
p1114
aS'50268'
p1115
aS'50271'
p1116
aS'50273'
p1117
aS'50275'
p1118
asS'Istv\xc3\xa1ndi'
p1119
(lp1120
S'7987'
p1121
aS'7987'
p1122
asS'Ilha de Santa Maria'
p1123
(lp1124
S'9580-011'
p1125
aS'9580-013'
p1126
aS'9580-015'
p1127
aS'9580-017'
p1128
aS'9580-019'
p1129
aS'9580-021'
p1130
aS'9580-023'
p1131
aS'9580-025'
p1132
aS'9580-027'
p1133
aS'9580-029'
p1134
aS'9580-031'
p1135
aS'9580-101'
p1136
aS'9580-103'
p1137
aS'9580-105'
p1138
aS'9580-107'
p1139
aS'9580-109'
p1140
aS'9580-111'
p1141
aS'9580-113'
p1142
aS'9580-115'
p1143
aS'9580-201'
p1144
aS'9580-203'
p1145
aS'9580-205'
p1146
aS'9580-207'
p1147
aS'9580-209'
p1148
aS'9580-211'
p1149
aS'9580-213'
p1150
aS'9580-215'
p1151
aS'9580-217'
p1152
aS'9580-219'
p1153
aS'9580-221'
p1154
aS'9580-223'
p1155
aS'9580-225'
p1156
aS'9580-227'
p1157
aS'9580-229'
p1158
aS'9580-231'
p1159
aS'9580-233'
p1160
aS'9580-235'
p1161
aS'9580-237'
p1162
aS'9580-239'
p1163
aS'9580-303'
p1164
aS'9580-305'
p1165
aS'9580-307'
p1166
aS'9580-309'
p1167
aS'9580-311'
p1168
aS'9580-313'
p1169
aS'9580-315'
p1170
aS'9580-317'
p1171
aS'9580-319'
p1172
aS'9580-321'
p1173
aS'9580-323'
p1174
aS'9580-325'
p1175
aS'9580-327'
p1176
aS'9580-329'
p1177
aS'9580-331'
p1178
aS'9580-333'
p1179
aS'9580-402'
p1180
aS'9580-404'
p1181
aS'9580-406'
p1182
aS'9580-408'
p1183
aS'9580-410'
p1184
aS'9580-412'
p1185
aS'9580-414'
p1186
aS'9580-416'
p1187
aS'9580-418'
p1188
aS'9580-420'
p1189
aS'9580-422'
p1190
aS'9580-424'
p1191
aS'9580-426'
p1192
aS'9580-428'
p1193
aS'9580-430'
p1194
aS'9580-432'
p1195
aS'9580-434'
p1196
aS'9580-471'
p1197
aS'9580-473'
p1198
aS'9580-475'
p1199
aS'9580-477'
p1200
aS'9580-479'
p1201
aS'9580-481'
p1202
aS'9580-483'
p1203
aS'9580-485'
p1204
aS'9580-487'
p1205
aS'9580-489'
p1206
aS'9580-491'
p1207
aS'9580-501'
p1208
aS'9580-503'
p1209
aS'9580-505'
p1210
aS'9580-507'
p1211
aS'9580-509'
p1212
aS'9580-511'
p1213
aS'9580-513'
p1214
aS'9580-515'
p1215
aS'9580-517'
p1216
aS'9580-519'
p1217
aS'9580-521'
p1218
aS'9580-523'
p1219
aS'9580-525'
p1220
aS'9580-527'
p1221
aS'9580-529'
p1222
aS'9580-531'
p1223
aS'9580-011'
p1224
ag1224
aS'9580-013'
p1225
aS'9580-015'
p1226
aS'9580-017'
p1227
aS'9580-019'
p1228
aS'9580-021'
p1229
aS'9580-023'
p1230
aS'9580-025'
p1231
aS'9580-027'
p1232
aS'9580-029'
p1233
aS'9580-031'
p1234
aS'9580-101'
p1235
aS'9580-103'
p1236
aS'9580-105'
p1237
aS'9580-107'
p1238
aS'9580-109'
p1239
aS'9580-111'
p1240
aS'9580-113'
p1241
aS'9580-115'
p1242
aS'9580-201'
p1243
aS'9580-203'
p1244
aS'9580-205'
p1245
aS'9580-207'
p1246
aS'9580-209'
p1247
aS'9580-211'
p1248
aS'9580-213'
p1249
aS'9580-215'
p1250
aS'9580-217'
p1251
aS'9580-219'
p1252
aS'9580-221'
p1253
aS'9580-223'
p1254
aS'9580-225'
p1255
aS'9580-227'
p1256
aS'9580-229'
p1257
aS'9580-231'
p1258
aS'9580-233'
p1259
aS'9580-235'
p1260
aS'9580-237'
p1261
aS'9580-239'
p1262
aS'9580-303'
p1263
aS'9580-305'
p1264
aS'9580-307'
p1265
aS'9580-309'
p1266
aS'9580-311'
p1267
aS'9580-313'
p1268
aS'9580-315'
p1269
aS'9580-317'
p1270
aS'9580-319'
p1271
aS'9580-321'
p1272
aS'9580-323'
p1273
aS'9580-325'
p1274
aS'9580-327'
p1275
aS'9580-329'
p1276
aS'9580-331'
p1277
aS'9580-333'
p1278
aS'9580-402'
p1279
aS'9580-404'
p1280
aS'9580-406'
p1281
aS'9580-408'
p1282
aS'9580-410'
p1283
aS'9580-412'
p1284
aS'9580-414'
p1285
aS'9580-416'
p1286
aS'9580-418'
p1287
aS'9580-420'
p1288
aS'9580-422'
p1289
aS'9580-424'
p1290
aS'9580-426'
p1291
aS'9580-428'
p1292
aS'9580-430'
p1293
aS'9580-432'
p1294
aS'9580-434'
p1295
aS'9580-471'
p1296
aS'9580-473'
p1297
aS'9580-475'
p1298
aS'9580-477'
p1299
aS'9580-479'
p1300
aS'9580-481'
p1301
aS'9580-483'
p1302
aS'9580-485'
p1303
aS'9580-487'
p1304
aS'9580-489'
p1305
aS'9580-491'
p1306
aS'9580-501'
p1307
aS'9580-503'
p1308
aS'9580-505'
p1309
aS'9580-507'
p1310
aS'9580-509'
p1311
aS'9580-511'
p1312
aS'9580-513'
p1313
aS'9580-515'
p1314
aS'9580-517'
p1315
aS'9580-519'
p1316
aS'9580-521'
p1317
aS'9580-523'
p1318
aS'9580-525'
p1319
aS'9580-527'
p1320
aS'9580-529'
p1321
aS'9580-531'
p1322
asS'Ilha de S\xc3\xa3o Jorge'
p1323
(lp1324
S'9800-011'
p1325
aS'9800-022'
p1326
aS'9800-024'
p1327
aS'9800-026'
p1328
aS'9800-028'
p1329
aS'9800-030'
p1330
aS'9800-032'
p1331
aS'9800-034'
p1332
aS'9800-036'
p1333
aS'9800-038'
p1334
aS'9800-040'
p1335
aS'9800-051'
p1336
aS'9800-101'
p1337
aS'9800-103'
p1338
aS'9800-105'
p1339
aS'9800-122'
p1340
aS'9800-124'
p1341
aS'9800-126'
p1342
aS'9800-128'
p1343
aS'9800-130'
p1344
aS'9800-132'
p1345
aS'9800-151'
p1346
aS'9800-153'
p1347
aS'9800-202'
p1348
aS'9800-204'
p1349
aS'9800-206'
p1350
aS'9800-208'
p1351
aS'9800-210'
p1352
aS'9800-222'
p1353
aS'9800-225'
p1354
aS'9800-227'
p1355
aS'9800-229'
p1356
aS'9800-231'
p1357
aS'9800-301'
p1358
aS'9800-303'
p1359
aS'9800-305'
p1360
aS'9800-307'
p1361
aS'9800-309'
p1362
aS'9800-322'
p1363
aS'9800-324'
p1364
aS'9800-326'
p1365
aS'9800-328'
p1366
aS'9800-330'
p1367
aS'9800-332'
p1368
aS'9800-334'
p1369
aS'9800-336'
p1370
aS'9800-338'
p1371
aS'9800-340'
p1372
aS'9800-342'
p1373
aS'9800-344'
p1374
aS'9800-346'
p1375
aS'9800-348'
p1376
aS'9800-401'
p1377
aS'9800-404'
p1378
aS'9800-421'
p1379
aS'9800-423'
p1380
aS'9800-425'
p1381
aS'9800-427'
p1382
aS'9800-429'
p1383
aS'9800-431'
p1384
aS'9800-433'
p1385
aS'9800-435'
p1386
aS'9800-502'
p1387
aS'9800-504'
p1388
aS'9800-506'
p1389
aS'9800-522'
p1390
aS'9800-524'
p1391
aS'9800-526'
p1392
aS'9800-528'
p1393
aS'9800-530'
p1394
aS'9800-532'
p1395
aS'9800-534'
p1396
aS'9800-536'
p1397
aS'9800-538'
p1398
aS'9800-540'
p1399
aS'9800-542'
p1400
aS'9800-544'
p1401
aS'9800-546'
p1402
aS'9800-548'
p1403
aS'9800-550'
p1404
aS'9800-552'
p1405
aS'9800-554'
p1406
aS'9800-556'
p1407
aS'9800-558'
p1408
aS'9800-560'
p1409
aS'9800-999'
p1410
aS'9850-013'
p1411
aS'9850-021'
p1412
aS'9850-023'
p1413
aS'9850-026'
p1414
aS'9850-028'
p1415
aS'9850-030'
p1416
aS'9850-032'
p1417
aS'9850-034'
p1418
aS'9850-036'
p1419
aS'9850-038'
p1420
aS'9850-040'
p1421
aS'9850-042'
p1422
aS'9850-045'
p1423
aS'9850-062'
p1424
aS'9800-011'
p1425
ag1425
aS'9800-022'
p1426
aS'9800-024'
p1427
aS'9800-026'
p1428
aS'9800-028'
p1429
aS'9800-030'
p1430
aS'9800-032'
p1431
aS'9800-034'
p1432
aS'9800-036'
p1433
aS'9800-038'
p1434
aS'9800-040'
p1435
aS'9800-051'
p1436
aS'9800-101'
p1437
aS'9800-103'
p1438
aS'9800-105'
p1439
aS'9800-122'
p1440
aS'9800-124'
p1441
aS'9800-126'
p1442
aS'9800-128'
p1443
aS'9800-130'
p1444
aS'9800-132'
p1445
aS'9800-151'
p1446
aS'9800-153'
p1447
aS'9800-202'
p1448
aS'9800-204'
p1449
aS'9800-206'
p1450
aS'9800-208'
p1451
aS'9800-210'
p1452
aS'9800-222'
p1453
aS'9800-225'
p1454
aS'9800-227'
p1455
aS'9800-229'
p1456
aS'9800-231'
p1457
aS'9800-301'
p1458
aS'9800-303'
p1459
aS'9800-305'
p1460
aS'9800-307'
p1461
aS'9800-309'
p1462
aS'9800-322'
p1463
aS'9800-324'
p1464
aS'9800-326'
p1465
aS'9800-328'
p1466
aS'9800-330'
p1467
aS'9800-332'
p1468
aS'9800-334'
p1469
aS'9800-336'
p1470
aS'9800-338'
p1471
aS'9800-340'
p1472
aS'9800-342'
p1473
aS'9800-344'
p1474
aS'9800-346'
p1475
aS'9800-348'
p1476
aS'9800-401'
p1477
aS'9800-404'
p1478
aS'9800-421'
p1479
aS'9800-423'
p1480
aS'9800-425'
p1481
aS'9800-427'
p1482
aS'9800-429'
p1483
aS'9800-431'
p1484
aS'9800-433'
p1485
aS'9800-435'
p1486
aS'9800-502'
p1487
aS'9800-504'
p1488
aS'9800-506'
p1489
aS'9800-522'
p1490
aS'9800-524'
p1491
aS'9800-526'
p1492
aS'9800-528'
p1493
aS'9800-530'
p1494
aS'9800-532'
p1495
aS'9800-534'
p1496
aS'9800-536'
p1497
aS'9800-538'
p1498
aS'9800-540'
p1499
aS'9800-542'
p1500
aS'9800-544'
p1501
aS'9800-546'
p1502
aS'9800-548'
p1503
aS'9800-550'
p1504
aS'9800-552'
p1505
aS'9800-554'
p1506
aS'9800-556'
p1507
aS'9800-558'
p1508
aS'9800-560'
p1509
aS'9800-999'
p1510
aS'9850-013'
p1511
aS'9850-021'
p1512
aS'9850-023'
p1513
aS'9850-026'
p1514
aS'9850-028'
p1515
aS'9850-030'
p1516
aS'9850-032'
p1517
aS'9850-034'
p1518
aS'9850-036'
p1519
aS'9850-038'
p1520
aS'9850-040'
p1521
aS'9850-042'
p1522
aS'9850-045'
p1523
aS'9850-062'
p1524
asS'I I T Kanpur'
p1525
(lp1526
S'208016'
p1527
aS'208016'
p1528
asS'Indian Agriculture'
p1529
(lp1530
S'110002'
p1531
asS'Insj\xc3\xb6n'
p1532
(lp1533
S'79341'
p1534
aS'79341'
p1535
asS'Ibr\xc3\xa1ny'
p1536
(lp1537
S'4484'
p1538
aS'4484'
p1539
asS'Independence'
p1540
(lp1541
S'38638'
p1542
aS'41051'
p1543
aS'64052'
p1544
aS'64057'
p1545
aS'41051'
p1546
aS'64052'
p1547
aS'64057'
p1548
aS'38638'
p1549
asS'Islampur'
p1550
(lp1551
S'801303'
p1552
aS'801303'
p1553
asS'Ichalampady B.O'
p1554
(lp1555
S'671321'
p1556
asS'Ilha Terceira'
p1557
(lp1558
S'9700-009'
p1559
aS'9700-012'
p1560
ag1560
aS'9700-014'
p1561
ag1561
aS'9700-016'
p1562
ag1562
aS'9700-019'
p1563
ag1563
aS'9700-021'
p1564
ag1564
aS'9700-023'
p1565
ag1565
aS'9700-025'
p1566
ag1566
aS'9700-027'
p1567
ag1567
aS'9700-029'
p1568
ag1568
aS'9700-031'
p1569
ag1569
aS'9700-033'
p1570
ag1570
aS'9700-037'
p1571
ag1571
aS'9700-039'
p1572
ag1572
aS'9700-041'
p1573
ag1573
aS'9700-043'
p1574
ag1574
aS'9700-045'
p1575
ag1575
aS'9700-047'
p1576
ag1576
aS'9700-050'
p1577
ag1577
aS'9700-052'
p1578
ag1578
aS'9700-054'
p1579
ag1579
aS'9700-056'
p1580
ag1580
aS'9700-059'
p1581
ag1581
aS'9700-061'
p1582
ag1582
aS'9700-063'
p1583
ag1583
aS'9700-065'
p1584
ag1584
aS'9700-068'
p1585
ag1585
aS'9700-070'
p1586
ag1586
aS'9700-072'
p1587
ag1587
aS'9700-075'
p1588
ag1588
aS'9700-077'
p1589
ag1589
aS'9700-079'
p1590
ag1590
aS'9700-081'
p1591
ag1591
aS'9700-085'
p1592
ag1592
aS'9700-087'
p1593
ag1593
aS'9700-089'
p1594
ag1594
aS'9700-091'
p1595
ag1595
aS'9700-093'
p1596
ag1596
aS'9700-095'
p1597
ag1597
aS'9700-097'
p1598
ag1598
aS'9700-099'
p1599
ag1599
aS'9700-102'
p1600
ag1600
aS'9700-104'
p1601
ag1601
aS'9700-106'
p1602
ag1602
aS'9700-108'
p1603
ag1603
aS'9700-110'
p1604
ag1604
aS'9700-112'
p1605
ag1605
aS'9700-114'
p1606
ag1606
aS'9700-116'
p1607
ag1607
aS'9700-118'
p1608
ag1608
aS'9700-120'
p1609
ag1609
aS'9700-122'
p1610
ag1610
aS'9700-124'
p1611
ag1611
aS'9700-126'
p1612
ag1612
aS'9700-128'
p1613
aS'9700-130'
p1614
ag1614
aS'9700-133'
p1615
ag1615
aS'9700-135'
p1616
ag1616
aS'9700-137'
p1617
ag1617
aS'9700-140'
p1618
ag1618
aS'9700-142'
p1619
ag1619
aS'9700-144'
p1620
ag1620
aS'9700-146'
p1621
ag1621
aS'9700-148'
p1622
ag1622
aS'9700-150'
p1623
ag1623
aS'9700-152'
p1624
ag1624
aS'9700-154'
p1625
ag1625
aS'9700-157'
p1626
ag1626
aS'9700-159'
p1627
ag1627
aS'9700-161'
p1628
ag1628
aS'9700-163'
p1629
ag1629
aS'9700-165'
p1630
ag1630
aS'9700-167'
p1631
ag1631
aS'9700-170'
p1632
aS'9700-172'
p1633
ag1633
aS'9700-174'
p1634
ag1634
aS'9700-177'
p1635
ag1635
aS'9700-179'
p1636
ag1636
aS'9700-181'
p1637
ag1637
aS'9700-183'
p1638
ag1638
aS'9700-185'
p1639
ag1639
aS'9700-187'
p1640
ag1640
aS'9700-189'
p1641
ag1641
aS'9700-192'
p1642
ag1642
aS'9700-194'
p1643
ag1643
aS'9700-197'
p1644
ag1644
aS'9700-199'
p1645
ag1645
aS'9700-201'
p1646
ag1646
aS'9700-203'
p1647
ag1647
aS'9700-205'
p1648
ag1648
aS'9700-207'
p1649
ag1649
aS'9700-211'
p1650
ag1650
aS'9700-213'
p1651
ag1651
aS'9700-215'
p1652
ag1652
aS'9700-217'
p1653
ag1653
aS'9700-219'
p1654
ag1654
aS'9700-221'
p1655
ag1655
aS'9700-223'
p1656
ag1656
aS'9700-225'
p1657
ag1657
aS'9700-227'
p1658
ag1658
aS'9700-009'
p1659
ag1659
aS'9700-012'
p1660
ag1660
aS'9700-014'
p1661
ag1661
aS'9700-016'
p1662
ag1662
aS'9700-019'
p1663
ag1663
aS'9700-021'
p1664
ag1664
aS'9700-023'
p1665
ag1665
aS'9700-025'
p1666
ag1666
aS'9700-027'
p1667
ag1667
aS'9700-029'
p1668
ag1668
aS'9700-031'
p1669
ag1669
aS'9700-033'
p1670
ag1670
aS'9700-037'
p1671
ag1671
aS'9700-039'
p1672
ag1672
aS'9700-041'
p1673
ag1673
aS'9700-043'
p1674
ag1674
aS'9700-045'
p1675
ag1675
aS'9700-047'
p1676
ag1676
aS'9700-050'
p1677
ag1677
aS'9700-052'
p1678
ag1678
aS'9700-054'
p1679
ag1679
aS'9700-056'
p1680
ag1680
aS'9700-059'
p1681
ag1681
aS'9700-061'
p1682
ag1682
aS'9700-063'
p1683
ag1683
aS'9700-065'
p1684
ag1684
aS'9700-068'
p1685
ag1685
aS'9700-070'
p1686
ag1686
aS'9700-072'
p1687
ag1687
aS'9700-075'
p1688
ag1688
aS'9700-077'
p1689
ag1689
aS'9700-079'
p1690
ag1690
aS'9700-081'
p1691
ag1691
aS'9700-085'
p1692
ag1692
aS'9700-087'
p1693
ag1693
aS'9700-089'
p1694
ag1694
aS'9700-091'
p1695
ag1695
aS'9700-093'
p1696
ag1696
aS'9700-095'
p1697
ag1697
aS'9700-097'
p1698
ag1698
aS'9700-099'
p1699
ag1699
aS'9700-102'
p1700
ag1700
aS'9700-104'
p1701
ag1701
aS'9700-106'
p1702
ag1702
aS'9700-108'
p1703
ag1703
aS'9700-110'
p1704
ag1704
aS'9700-112'
p1705
ag1705
aS'9700-114'
p1706
ag1706
aS'9700-116'
p1707
ag1707
aS'9700-118'
p1708
ag1708
aS'9700-120'
p1709
ag1709
aS'9700-122'
p1710
ag1710
aS'9700-124'
p1711
ag1711
aS'9700-126'
p1712
ag1712
aS'9700-128'
p1713
aS'9700-130'
p1714
ag1714
aS'9700-133'
p1715
ag1715
aS'9700-135'
p1716
ag1716
aS'9700-137'
p1717
ag1717
aS'9700-140'
p1718
ag1718
aS'9700-142'
p1719
ag1719
aS'9700-144'
p1720
ag1720
aS'9700-146'
p1721
ag1721
aS'9700-148'
p1722
ag1722
aS'9700-150'
p1723
ag1723
aS'9700-152'
p1724
ag1724
aS'9700-154'
p1725
ag1725
aS'9700-157'
p1726
ag1726
aS'9700-159'
p1727
ag1727
aS'9700-161'
p1728
ag1728
aS'9700-163'
p1729
ag1729
aS'9700-165'
p1730
ag1730
aS'9700-167'
p1731
ag1731
aS'9700-170'
p1732
aS'9700-172'
p1733
ag1733
aS'9700-174'
p1734
ag1734
aS'9700-177'
p1735
ag1735
aS'9700-179'
p1736
ag1736
aS'9700-181'
p1737
ag1737
aS'9700-183'
p1738
ag1738
aS'9700-185'
p1739
ag1739
aS'9700-187'
p1740
ag1740
aS'9700-189'
p1741
ag1741
aS'9700-192'
p1742
ag1742
aS'9700-194'
p1743
ag1743
aS'9700-197'
p1744
ag1744
aS'9700-199'
p1745
ag1745
aS'9700-201'
p1746
ag1746
aS'9700-203'
p1747
ag1747
aS'9700-205'
p1748
ag1748
aS'9700-207'
p1749
ag1749
aS'9700-211'
p1750
ag1750
aS'9700-213'
p1751
ag1751
aS'9700-215'
p1752
ag1752
aS'9700-217'
p1753
ag1753
aS'9700-219'
p1754
ag1754
aS'9700-221'
p1755
ag1755
aS'9700-223'
p1756
ag1756
aS'9700-225'
p1757
ag1757
aS'9700-227'
p1758
ag1758
asS'Illingen'
p1759
(lp1760
S'66557'
p1761
aS'66557'
p1762
asS'Itasca'
p1763
(lp1764
S'60143'
p1765
aS'60143'
p1766
asS'Ichtershausen'
p1767
(lp1768
S'99334'
p1769
aS'99334'
p1770
asS'Indore Kasturba Nagar'
p1771
(lp1772
S'452020'
p1773
aS'452020'
p1774
asS'Industrial Area'
p1775
(lp1776
S'124507'
p1777
asS'Ibafa'
p1778
(lp1779
S'7935'
p1780
aS'7935'
p1781
asS'Igreja'
p1782
(lp1783
S'4880-038'
p1784
ag1154
aS'4880-038'
p1785
ag1253
asS'Ilsenburg'
p1786
(lp1787
S'38871'
p1788
aS'38871'
p1789
asS'Inside Passage and the Queen Charlottes (Queen Charlotte City)'
p1790
(lp1791
S'V0T'
p1792
aS'V0T'
p1793
asS'Indianapolis'
p1794
(lp1795
S'46202'
p1796
aS'46204'
p1797
aS'46206'
p1798
aS'46214'
p1799
aS'46217'
p1800
aS'46219'
p1801
aS'46224'
p1802
aS'46226'
p1803
aS'46228'
p1804
aS'46250'
p1805
aS'46256'
p1806
aS'46260'
p1807
aS'46278'
p1808
aS'46285'
p1809
aS'46202'
p1810
aS'46204'
p1811
aS'46206'
p1812
aS'46214'
p1813
aS'46217'
p1814
aS'46219'
p1815
aS'46224'
p1816
aS'46226'
p1817
aS'46228'
p1818
aS'46240'
p1819
aS'46250'
p1820
aS'46256'
p1821
aS'46260'
p1822
aS'46278'
p1823
aS'46285'
p1824
asS'Iriyanni B.O'
p1825
(lp1826
S'671542'
p1827
aS'671542'
p1828
asS'Iriveri Edso'
p1829
(lp1830
S'670614'
p1831
aS'670614'
p1832
asS'Iragna'
p1833
(lp1834
S'6707'
p1835
asS'Irdning'
p1836
(lp1837
S'8952'
p1838
aS'8952'
p1839
asS'Igueste De Candelaria'
p1840
(lp1841
S'38520'
p1842
aS'38520'
p1843
asS'Iliny'
p1844
(lp1845
S'2675'
p1846
aS'2675'
p1847
asS'Ichalkaranji'
p1848
(lp1849
S'416115'
p1850
aS'416115'
p1851
asS'Intally'
p1852
(lp1853
S'700014'
p1854
aS'700014'
p1855
asS'Ilha de S\xc3\xa3o Miguel'
p1856
(lp1857
S'9500-010'
p1858
aS'9500-012'
p1859
ag1859
aS'9500-014'
p1860
ag1860
aS'9500-016'
p1861
ag1861
aS'9500-018'
p1862
ag1862
aS'9500-020'
p1863
ag1863
aS'9500-022'
p1864
ag1864
aS'9500-025'
p1865
ag1865
aS'9500-027'
p1866
ag1866
aS'9500-029'
p1867
ag1867
aS'9500-031'
p1868
ag1868
aS'9500-033'
p1869
ag1869
aS'9500-035'
p1870
ag1870
aS'9500-037'
p1871
ag1871
aS'9500-039'
p1872
ag1872
aS'9500-041'
p1873
ag1873
aS'9500-043'
p1874
ag1874
aS'9500-045'
p1875
ag1875
aS'9500-047'
p1876
ag1876
aS'9500-049'
p1877
ag1877
aS'9500-051'
p1878
ag1878
aS'9500-053'
p1879
ag1879
aS'9500-055'
p1880
ag1880
aS'9500-057'
p1881
ag1881
aS'9500-059'
p1882
ag1882
aS'9500-061'
p1883
ag1883
aS'9500-063'
p1884
ag1884
aS'9500-065'
p1885
ag1885
aS'9500-067'
p1886
ag1886
aS'9500-069'
p1887
ag1887
aS'9500-071'
p1888
ag1888
aS'9500-073'
p1889
ag1889
aS'9500-075'
p1890
ag1890
aS'9500-077'
p1891
ag1891
aS'9500-079'
p1892
ag1892
aS'9500-081'
p1893
ag1893
aS'9500-083'
p1894
ag1894
aS'9500-085'
p1895
ag1895
aS'9500-087'
p1896
ag1896
aS'9500-089'
p1897
ag1897
aS'9500-091'
p1898
ag1898
aS'9500-093'
p1899
ag1899
aS'9500-095'
p1900
ag1900
aS'9500-097'
p1901
ag1901
aS'9500-099'
p1902
ag1902
aS'9500-101'
p1903
ag1903
aS'9500-103'
p1904
ag1904
aS'9500-105'
p1905
ag1905
aS'9500-107'
p1906
ag1906
aS'9500-109'
p1907
ag1907
aS'9500-111'
p1908
ag1908
aS'9500-113'
p1909
ag1909
aS'9500-115'
p1910
ag1910
aS'9500-117'
p1911
ag1911
aS'9500-150'
p1912
ag1912
aS'9500-152'
p1913
ag1913
aS'9500-154'
p1914
ag1914
aS'9500-158'
p1915
ag1915
aS'9500-160'
p1916
ag1916
aS'9500-162'
p1917
ag1917
aS'9500-166'
p1918
ag1918
aS'9500-168'
p1919
ag1919
aS'9500-170'
p1920
ag1920
aS'9500-172'
p1921
ag1921
aS'9500-174'
p1922
ag1922
aS'9500-176'
p1923
ag1923
aS'9500-178'
p1924
ag1924
aS'9500-180'
p1925
ag1925
aS'9500-182'
p1926
ag1926
aS'9500-184'
p1927
ag1927
aS'9500-186'
p1928
ag1928
aS'9500-188'
p1929
ag1929
aS'9500-190'
p1930
ag1930
aS'9500-192'
p1931
ag1931
aS'9500-195'
p1932
ag1932
aS'9500-197'
p1933
ag1933
aS'9500-199'
p1934
ag1934
aS'9500-203'
p1935
ag1935
aS'9500-205'
p1936
ag1936
aS'9500-207'
p1937
ag1937
aS'9500-209'
p1938
ag1938
aS'9500-212'
p1939
ag1939
aS'9500-216'
p1940
ag1940
aS'9500-221'
p1941
ag1941
aS'9500-223'
p1942
ag1942
aS'9500-225'
p1943
ag1943
aS'9500-229'
p1944
ag1944
aS'9500-231'
p1945
ag1945
aS'9500-234'
p1946
ag1946
aS'9500-237'
p1947
ag1947
aS'9500-239'
p1948
ag1948
aS'9500-241'
p1949
ag1949
aS'9500-243'
p1950
ag1950
aS'9500-245'
p1951
ag1951
aS'9500-247'
p1952
ag1952
aS'9500-249'
p1953
ag1953
aS'9500-251'
p1954
ag1954
aS'9500-253'
p1955
ag1955
aS'9500-292'
p1956
ag1956
aS'9500-294'
p1957
ag1957
aS'9970-070'
p1958
aS'9970-072'
p1959
aS'9970-074'
p1960
aS'9970-076'
p1961
aS'9970-078'
p1962
aS'9970-080'
p1963
aS'9970-082'
p1964
aS'9970-084'
p1965
aS'9970-086'
p1966
aS'9970-088'
p1967
aS'9970-090'
p1968
aS'9970-092'
p1969
aS'9970-094'
p1970
aS'9970-096'
p1971
aS'9500-010'
p1972
ag1972
aS'9500-012'
p1973
ag1973
aS'9500-014'
p1974
ag1974
aS'9500-016'
p1975
ag1975
aS'9500-018'
p1976
ag1976
aS'9500-020'
p1977
ag1977
aS'9500-022'
p1978
ag1978
aS'9500-025'
p1979
ag1979
aS'9500-027'
p1980
ag1980
aS'9500-029'
p1981
ag1981
aS'9500-031'
p1982
ag1982
aS'9500-033'
p1983
ag1983
aS'9500-035'
p1984
ag1984
aS'9500-037'
p1985
ag1985
aS'9500-039'
p1986
ag1986
aS'9500-041'
p1987
ag1987
aS'9500-043'
p1988
ag1988
aS'9500-045'
p1989
ag1989
aS'9500-047'
p1990
ag1990
aS'9500-049'
p1991
ag1991
aS'9500-051'
p1992
ag1992
aS'9500-053'
p1993
ag1993
aS'9500-055'
p1994
ag1994
aS'9500-057'
p1995
ag1995
aS'9500-059'
p1996
ag1996
aS'9500-061'
p1997
ag1997
aS'9500-063'
p1998
ag1998
aS'9500-065'
p1999
ag1999
aS'9500-067'
p2000
ag2000
aS'9500-069'
p2001
ag2001
aS'9500-071'
p2002
ag2002
aS'9500-073'
p2003
ag2003
aS'9500-075'
p2004
ag2004
aS'9500-077'
p2005
ag2005
aS'9500-079'
p2006
ag2006
aS'9500-081'
p2007
ag2007
aS'9500-083'
p2008
ag2008
aS'9500-085'
p2009
ag2009
aS'9500-087'
p2010
ag2010
aS'9500-089'
p2011
ag2011
aS'9500-091'
p2012
ag2012
aS'9500-093'
p2013
ag2013
aS'9500-095'
p2014
ag2014
aS'9500-097'
p2015
ag2015
aS'9500-099'
p2016
ag2016
aS'9500-101'
p2017
ag2017
aS'9500-103'
p2018
ag2018
aS'9500-105'
p2019
ag2019
aS'9500-107'
p2020
ag2020
aS'9500-109'
p2021
ag2021
aS'9500-111'
p2022
ag2022
aS'9500-113'
p2023
ag2023
aS'9500-115'
p2024
ag2024
aS'9500-117'
p2025
ag2025
aS'9500-150'
p2026
ag2026
aS'9500-152'
p2027
ag2027
aS'9500-154'
p2028
ag2028
aS'9500-158'
p2029
ag2029
aS'9500-160'
p2030
ag2030
aS'9500-162'
p2031
ag2031
aS'9500-166'
p2032
ag2032
aS'9500-168'
p2033
ag2033
aS'9500-170'
p2034
ag2034
aS'9500-172'
p2035
ag2035
aS'9500-174'
p2036
ag2036
aS'9500-176'
p2037
ag2037
aS'9500-178'
p2038
ag2038
aS'9500-180'
p2039
ag2039
aS'9500-182'
p2040
ag2040
aS'9500-184'
p2041
ag2041
aS'9500-186'
p2042
ag2042
aS'9500-188'
p2043
ag2043
aS'9500-190'
p2044
ag2044
aS'9500-192'
p2045
ag2045
aS'9500-195'
p2046
ag2046
aS'9500-197'
p2047
ag2047
aS'9500-199'
p2048
ag2048
aS'9500-203'
p2049
ag2049
aS'9500-205'
p2050
ag2050
aS'9500-207'
p2051
ag2051
aS'9500-209'
p2052
ag2052
aS'9500-212'
p2053
ag2053
aS'9500-216'
p2054
ag2054
aS'9500-221'
p2055
ag2055
aS'9500-223'
p2056
ag2056
aS'9500-225'
p2057
ag2057
aS'9500-229'
p2058
ag2058
aS'9500-231'
p2059
ag2059
aS'9500-234'
p2060
ag2060
aS'9500-237'
p2061
ag2061
aS'9500-239'
p2062
ag2062
aS'9500-241'
p2063
ag2063
aS'9500-243'
p2064
ag2064
aS'9500-245'
p2065
ag2065
aS'9500-247'
p2066
ag2066
aS'9500-249'
p2067
ag2067
aS'9500-251'
p2068
ag2068
aS'9500-253'
p2069
ag2069
aS'9500-292'
p2070
ag2070
aS'9500-294'
p2071
ag2071
aS'9970-070'
p2072
aS'9970-072'
p2073
aS'9970-074'
p2074
aS'9970-076'
p2075
aS'9970-078'
p2076
aS'9970-080'
p2077
aS'9970-082'
p2078
aS'9970-084'
p2079
aS'9970-086'
p2080
aS'9970-088'
p2081
aS'9970-090'
p2082
aS'9970-092'
p2083
aS'9970-094'
p2084
aS'9970-096'
p2085
asS'Ir\xc3\xban'
p2086
(lp2087
S'20300'
p2088
aS'20301'
p2089
aS'20304'
p2090
aS'20300'
p2091
aS'20304'
p2092
aS'20301'
p2093
asS'Isora'
p2094
(lp2095
S'38915'
p2096
aS'38915'
p2097
asS'Indira Nagar'
p2098
(lp2099
S'503111'
p2100
aS'503111'
p2101
asS'Iona'
p2102
(lp2103
S'B2C'
p2104
aS'B2C'
p2105
asS'Injapur'
p2106
(lp2107
S'500035'
p2108
aS'500035'
p2109
asS'Imsterberg'
p2110
(lp2111
g257
ag310
asS'Irvington'
p2112
(lp2113
S'07111'
p2114
aS'40146'
p2115
aS'40146'
p2116
aS'07111'
p2117
asS'Inder\xc3\xb8y'
p2118
(lp2119
S'7670'
p2120
aS'7671'
p2121
aS'7670'
p2122
aS'7671'
p2123
asS'Innertkirchen'
p2124
(lp2125
S'3862'
p2126
aS'3862'
p2127
asS'Ipsach'
p2128
(lp2129
S'2563'
p2130
aS'2563'
p2131
asS'Iguvarpalayam'
p2132
(lp2133
S'601212'
p2134
aS'601212'
p2135
asS'Industrial Colony Ludhiana'
p2136
(lp2137
S'141003'
p2138
aS'141003'
p2139
asS'Istighofen'
p2140
(lp2141
S'8575'
p2142
aS'8575'
p2143
asS'Indemini'
p2144
(lp2145
S'6571'
p2146
aS'6571'
p2147
asS'Iowa City'
p2148
(lp2149
g1012
ag1035
asS'Ittenthal'
p2150
(lp2151
S'5083'
p2152
aS'5083'
p2153
asS'Ikr\xc3\xa9ny'
p2154
(lp2155
S'9141'
p2156
asS'Idgah Road I S B T'
p2157
(lp2158
S'110006'
p2159
asS'Islallana'
p2160
(lp2161
S'26121'
p2162
asS'Indira Nagar Colony'
p2163
(lp2164
S'502103'
p2165
aS'502103'
p2166
asS'Ikkadu'
p2167
(lp2168
S'602021'
p2169
aS'602021'
p2170
asS'Inca'
p2171
(lp2172
S'07300'
p2173
aS'07300'
p2174
asS'Isthmus of Chignecto (River H\xc3\xa9bert)'
p2175
(lp2176
S'B0L'
p2177
aS'B0L'
p2178
asS'Indore Industrial Area'
p2179
(lp2180
S'452002'
p2181
asS'In\xc3\xa1rcs'
p2182
(lp2183
S'2365'
p2184
aS'2365'
p2185
asS'Isabella Plains'
p2186
(lp2187
S'2905'
p2188
asS'Iveland'
p2189
(lp2190
S'4724'
p2191
aS'4724'
p2192
asS'Isdalst\xc3\xb8'
p2193
(lp2194
S'5914'
p2195
aS'5914'
p2196
asS'Isleta'
p2197
(lp2198
S'87022'
p2199
aS'87022'
p2200
asS'Intragna'
p2201
(lp2202
S'6655'
p2203
aS'6655'
p2204
asS'Ikes Fork'
p2205
(lp2206
S'24845'
p2207
aS'24845'
p2208
asS'Irinjalakuda'
p2209
(lp2210
S'680121'
p2211
aS'680121'
p2212
asS'Irrsdorf'
p2213
(lp2214
S'5204'
p2215
aS'5204'
p2216
asS'Industrial Trainging Institute'
p2217
(lp2218
S'206002'
p2219
aS'206002'
p2220
asS'Iklanber\xc3\xa9ny'
p2221
(lp2222
S'9634'
p2223
aS'9634'
p2224
asS'Island Lake'
p2225
(lp2226
S'60042'
p2227
aS'60042'
p2228
asS'Izs\xc3\xb3falva'
p2229
(lp2230
S'3741'
p2231
aS'3741'
p2232
asS'Iringere'
p2233
(lp2234
S'570001'
p2235
aS'570001'
p2236
asS'Indiana'
p2237
(lp2238
S'46001'
p2239
aS'46013'
p2240
aS'46014'
p2241
aS'46017'
p2242
aS'46030'
p2243
aS'46032'
p2244
aS'46034'
p2245
aS'46036'
p2246
aS'46039'
p2247
aS'46041'
p2248
aS'46044'
p2249
aS'46047'
p2250
aS'46049'
p2251
aS'46051'
p2252
aS'46052'
p2253
aS'46058'
p2254
aS'46060'
p2255
aS'46063'
p2256
aS'46065'
p2257
aS'46077'
p2258
aS'46112'
p2259
aS'46122'
p2260
aS'46131'
p2261
aS'46140'
p2262
aS'46143'
p2263
aS'46149'
p2264
aS'46158'
p2265
aS'46161'
p2266
aS'46176'
p2267
ag1796
ag1797
ag1798
ag1799
ag1800
ag1801
ag1802
ag1803
ag1804
ag1805
ag1806
ag1807
ag1808
ag1809
aS'46303'
p2268
aS'46307'
p2269
aS'46312'
p2270
aS'46320'
p2271
aS'46350'
p2272
aS'46368'
p2273
aS'46383'
p2274
aS'46507'
p2275
aS'46514'
p2276
aS'46526'
p2277
aS'46530'
p2278
aS'46545'
p2279
aS'46556'
p2280
aS'46580'
p2281
aS'46637'
p2282
aS'46706'
p2283
aS'46721'
p2284
aS'46733'
p2285
aS'46750'
p2286
aS'46769'
p2287
aS'46772'
p2288
aS'46782'
p2289
aS'46792'
p2290
aS'46804'
p2291
aS'46808'
p2292
aS'46825'
p2293
aS'46902'
p2294
aS'46952'
p2295
aS'46970'
p2296
aS'46979'
p2297
aS'47001'
p2298
aS'47111'
p2299
aS'47117'
p2300
aS'47130'
p2301
aS'47164'
p2302
aS'47201'
p2303
aS'47274'
p2304
aS'47303'
p2305
aS'47305'
p2306
aS'47334'
p2307
aS'47362'
p2308
aS'47374'
p2309
aS'47396'
p2310
aS'47404'
p2311
aS'47408'
p2312
aS'47448'
p2313
aS'47542'
p2314
aS'47586'
p2315
aS'47670'
p2316
aS'47711'
p2317
aS'47715'
p2318
aS'47834'
p2319
aS'47901'
p2320
aS'47905'
p2321
aS'47933'
p2322
aS'46041'
p2323
aS'46013'
p2324
aS'46032'
p2325
aS'46036'
p2326
aS'46052'
p2327
aS'46060'
p2328
aS'46077'
p2329
aS'46112'
p2330
aS'46117'
p2331
aS'46122'
p2332
aS'46131'
p2333
aS'46140'
p2334
aS'46143'
p2335
aS'46149'
p2336
aS'46158'
p2337
aS'46161'
p2338
aS'46176'
p2339
ag1810
ag1811
ag1812
ag1813
ag1814
ag1815
ag1816
ag1817
ag1818
ag1819
ag1820
ag1821
ag1822
ag1823
ag1824
aS'46303'
p2340
aS'46307'
p2341
aS'46312'
p2342
aS'46320'
p2343
aS'46350'
p2344
aS'46368'
p2345
aS'46383'
p2346
aS'46507'
p2347
aS'46514'
p2348
aS'46526'
p2349
aS'46530'
p2350
aS'46545'
p2351
aS'46556'
p2352
aS'46580'
p2353
aS'46637'
p2354
aS'46706'
p2355
aS'46721'
p2356
aS'46733'
p2357
aS'46750'
p2358
aS'46769'
p2359
aS'46772'
p2360
aS'46782'
p2361
aS'46792'
p2362
aS'46804'
p2363
aS'46808'
p2364
aS'46825'
p2365
aS'46902'
p2366
aS'46952'
p2367
aS'46970'
p2368
aS'46979'
p2369
aS'47001'
p2370
aS'47111'
p2371
aS'47117'
p2372
aS'47130'
p2373
aS'47164'
p2374
aS'47201'
p2375
aS'47274'
p2376
aS'47303'
p2377
aS'47305'
p2378
aS'47334'
p2379
aS'47362'
p2380
aS'47374'
p2381
aS'47396'
p2382
aS'47404'
p2383
aS'47408'
p2384
aS'47448'
p2385
aS'47542'
p2386
aS'47586'
p2387
aS'47670'
p2388
aS'47711'
p2389
aS'47715'
p2390
aS'47834'
p2391
aS'47901'
p2392
aS'47905'
p2393
aS'47933'
p2394
aS'46001'
p2395
aS'46014'
p2396
aS'46017'
p2397
aS'46030'
p2398
aS'46034'
p2399
aS'46039'
p2400
aS'46044'
p2401
aS'46047'
p2402
aS'46049'
p2403
aS'46051'
p2404
aS'46058'
p2405
aS'46063'
p2406
aS'46065'
p2407
asS'Interlaken'
p2408
(lp2409
S'3800'
p2410
asS'Inver Grove Heights'
p2411
(lp2412
S'55076'
p2413
aS'55077'
p2414
aS'55076'
p2415
aS'55077'
p2416
asS'Ilha da Madeira'
p2417
(lp2418
S'9000-001'
p2419
aS'9000-003'
p2420
ag2420
aS'9000-005'
p2421
ag2421
aS'9000-011'
p2422
ag2422
aS'9000-013'
p2423
ag2423
aS'9000-015'
p2424
ag2424
aS'9000-018'
p2425
ag2425
aS'9000-020'
p2426
ag2426
aS'9000-022'
p2427
ag2427
aS'9000-025'
p2428
ag2428
aS'9000-027'
p2429
ag2429
aS'9000-029'
p2430
ag2430
aS'9000-031'
p2431
ag2431
aS'9000-033'
p2432
ag2432
aS'9000-036'
p2433
ag2433
aS'9000-038'
p2434
ag2434
aS'9000-040'
p2435
ag2435
aS'9000-042'
p2436
ag2436
aS'9000-044'
p2437
ag2437
aS'9000-046'
p2438
ag2438
aS'9000-048'
p2439
ag2439
aS'9000-050'
p2440
ag2440
aS'9000-052'
p2441
ag2441
aS'9000-054'
p2442
ag2442
aS'9000-056'
p2443
ag2443
aS'9000-058'
p2444
ag2444
aS'9000-060'
p2445
ag2445
aS'9000-062'
p2446
ag2446
aS'9000-064'
p2447
ag2447
aS'9000-066'
p2448
ag2448
aS'9000-068'
p2449
ag2449
aS'9000-070'
p2450
ag2450
aS'9000-072'
p2451
ag2451
aS'9000-074'
p2452
ag2452
aS'9000-076'
p2453
ag2453
aS'9000-078'
p2454
ag2454
aS'9000-080'
p2455
ag2455
aS'9000-082'
p2456
ag2456
aS'9000-084'
p2457
ag2457
aS'9000-086'
p2458
ag2458
aS'9000-088'
p2459
ag2459
aS'9000-090'
p2460
ag2460
aS'9000-093'
p2461
ag2461
aS'9000-095'
p2462
ag2462
aS'9000-098'
p2463
ag2463
aS'9000-100'
p2464
ag2464
aS'9000-103'
p2465
ag2465
aS'9000-106'
p2466
ag2466
aS'9000-108'
p2467
ag2467
aS'9000-110'
p2468
ag2468
aS'9000-112'
p2469
ag2469
aS'9000-114'
p2470
ag2470
aS'9000-116'
p2471
ag2471
aS'9000-118'
p2472
ag2472
aS'9000-120'
p2473
ag2473
aS'9000-122'
p2474
ag2474
aS'9000-124'
p2475
ag2475
aS'9000-127'
p2476
ag2476
aS'9000-129'
p2477
ag2477
aS'9000-131'
p2478
ag2478
aS'9000-133'
p2479
ag2479
aS'9000-135'
p2480
ag2480
aS'9000-137'
p2481
ag2481
aS'9000-141'
p2482
ag2482
aS'9000-144'
p2483
ag2483
aS'9000-146'
p2484
ag2484
aS'9000-150'
p2485
ag2485
aS'9000-154'
p2486
ag2486
aS'9000-156'
p2487
ag2487
aS'9000-158'
p2488
ag2488
aS'9000-160'
p2489
ag2489
aS'9000-162'
p2490
ag2490
aS'9000-164'
p2491
ag2491
aS'9000-166'
p2492
ag2492
aS'9000-168'
p2493
ag2493
aS'9000-170'
p2494
ag2494
aS'9000-172'
p2495
ag2495
aS'9000-174'
p2496
ag2496
aS'9000-176'
p2497
ag2497
aS'9000-178'
p2498
ag2498
aS'9000-180'
p2499
ag2499
aS'9000-182'
p2500
ag2500
aS'9000-184'
p2501
ag2501
aS'9000-186'
p2502
ag2502
aS'9000-189'
p2503
ag2503
aS'9000-191'
p2504
ag2504
aS'9000-198'
p2505
ag2505
aS'9000-200'
p2506
ag2506
aS'9000-203'
p2507
ag2507
aS'9000-205'
p2508
ag2508
aS'9000-207'
p2509
ag2509
aS'9000-210'
p2510
ag2510
aS'9000-212'
p2511
ag2511
aS'9000-215'
p2512
ag2512
aS'9000-217'
p2513
ag2513
aS'9000-219'
p2514
ag2514
aS'9000-221'
p2515
ag2515
aS'9000-223'
p2516
ag2516
aS'9000-226'
p2517
ag2517
aS'9000-228'
p2518
ag2518
aS'9000-001'
p2519
ag2519
aS'9000-003'
p2520
ag2520
aS'9000-005'
p2521
ag2521
aS'9000-011'
p2522
ag2522
aS'9000-013'
p2523
ag2523
aS'9000-015'
p2524
ag2524
aS'9000-018'
p2525
ag2525
aS'9000-020'
p2526
ag2526
aS'9000-022'
p2527
ag2527
aS'9000-025'
p2528
ag2528
aS'9000-027'
p2529
ag2529
aS'9000-029'
p2530
ag2530
aS'9000-031'
p2531
ag2531
aS'9000-033'
p2532
ag2532
aS'9000-036'
p2533
ag2533
aS'9000-038'
p2534
ag2534
aS'9000-040'
p2535
ag2535
aS'9000-042'
p2536
ag2536
aS'9000-044'
p2537
ag2537
aS'9000-046'
p2538
ag2538
aS'9000-048'
p2539
ag2539
aS'9000-050'
p2540
ag2540
aS'9000-052'
p2541
ag2541
aS'9000-054'
p2542
ag2542
aS'9000-056'
p2543
ag2543
aS'9000-058'
p2544
ag2544
aS'9000-060'
p2545
ag2545
aS'9000-062'
p2546
ag2546
aS'9000-064'
p2547
ag2547
aS'9000-066'
p2548
ag2548
aS'9000-068'
p2549
ag2549
aS'9000-070'
p2550
ag2550
aS'9000-072'
p2551
ag2551
aS'9000-074'
p2552
ag2552
aS'9000-076'
p2553
ag2553
aS'9000-078'
p2554
ag2554
aS'9000-080'
p2555
ag2555
aS'9000-082'
p2556
ag2556
aS'9000-084'
p2557
ag2557
aS'9000-086'
p2558
ag2558
aS'9000-088'
p2559
ag2559
aS'9000-090'
p2560
ag2560
aS'9000-093'
p2561
ag2561
aS'9000-095'
p2562
ag2562
aS'9000-098'
p2563
ag2563
aS'9000-100'
p2564
ag2564
aS'9000-103'
p2565
ag2565
aS'9000-106'
p2566
ag2566
aS'9000-108'
p2567
ag2567
aS'9000-110'
p2568
ag2568
aS'9000-112'
p2569
ag2569
aS'9000-114'
p2570
ag2570
aS'9000-116'
p2571
ag2571
aS'9000-118'
p2572
ag2572
aS'9000-120'
p2573
ag2573
aS'9000-122'
p2574
ag2574
aS'9000-124'
p2575
ag2575
aS'9000-127'
p2576
ag2576
aS'9000-129'
p2577
ag2577
aS'9000-131'
p2578
ag2578
aS'9000-133'
p2579
ag2579
aS'9000-135'
p2580
ag2580
aS'9000-137'
p2581
ag2581
aS'9000-141'
p2582
ag2582
aS'9000-144'
p2583
ag2583
aS'9000-146'
p2584
ag2584
aS'9000-150'
p2585
ag2585
aS'9000-154'
p2586
ag2586
aS'9000-156'
p2587
ag2587
aS'9000-158'
p2588
ag2588
aS'9000-160'
p2589
ag2589
aS'9000-162'
p2590
ag2590
aS'9000-164'
p2591
ag2591
aS'9000-166'
p2592
ag2592
aS'9000-168'
p2593
ag2593
aS'9000-170'
p2594
ag2594
aS'9000-172'
p2595
ag2595
aS'9000-174'
p2596
ag2596
aS'9000-176'
p2597
ag2597
aS'9000-178'
p2598
ag2598
aS'9000-180'
p2599
ag2599
aS'9000-182'
p2600
ag2600
aS'9000-184'
p2601
ag2601
aS'9000-186'
p2602
ag2602
aS'9000-189'
p2603
ag2603
aS'9000-191'
p2604
ag2604
aS'9000-198'
p2605
ag2605
aS'9000-200'
p2606
ag2606
aS'9000-203'
p2607
ag2607
aS'9000-205'
p2608
ag2608
aS'9000-207'
p2609
ag2609
aS'9000-210'
p2610
ag2610
aS'9000-212'
p2611
ag2611
aS'9000-215'
p2612
ag2612
aS'9000-217'
p2613
ag2613
aS'9000-219'
p2614
ag2614
aS'9000-221'
p2615
ag2615
aS'9000-223'
p2616
ag2616
aS'9000-226'
p2617
ag2617
aS'9000-228'
p2618
ag2618
asS'Ipolytarn\xc3\xb3c'
p2619
(lp2620
S'3138'
p2621
aS'3138'
p2622
asS'Inndyr'
p2623
(lp2624
S'8140'
p2625
aS'8140'
p2626
asS'Ilha do Corvo'
p2627
(lp2628
S'9980-010'
p2629
aS'9980-021'
p2630
aS'9980-023'
p2631
aS'9980-025'
p2632
aS'9980-027'
p2633
aS'9980-029'
p2634
aS'9980-031'
p2635
aS'9980-033'
p2636
aS'9980-035'
p2637
aS'9980-037'
p2638
aS'9980-039'
p2639
aS'9980-060'
p2640
aS'9980-999'
p2641
aS'9980-010'
p2642
ag2642
aS'9980-021'
p2643
aS'9980-023'
p2644
aS'9980-025'
p2645
aS'9980-027'
p2646
aS'9980-029'
p2647
aS'9980-031'
p2648
aS'9980-033'
p2649
aS'9980-035'
p2650
aS'9980-037'
p2651
aS'9980-039'
p2652
aS'9980-060'
p2653
aS'9980-999'
p2654
asS'Illgau'
p2655
(lp2656
S'6434'
p2657
aS'6434'
p2658
asS'Indore Jail Road'
p2659
(lp2660
S'452001'
p2661
asS'Idre'
p2662
(lp2663
S'79091'
p2664
aS'79091'
p2665
asS'Isaacs'
p2666
(lp2667
S'2607'
p2668
aS'2607'
p2669
asS'Itsasondo'
p2670
(lp2671
S'20249'
p2672
asS'Illinois'
p2673
(lp2674
S'60001'
p2675
aS'60004'
p2676
aS'60007'
p2677
aS'60009'
p2678
aS'60010'
p2679
aS'60012'
p2680
aS'60014'
p2681
aS'60016'
p2682
aS'60019'
p2683
aS'60020'
p2684
aS'60025'
p2685
aS'60030'
p2686
aS'60033'
p2687
aS'60035'
p2688
aS'60039'
p2689
ag2227
aS'60043'
p2690
aS'60045'
p2691
aS'60048'
p2692
aS'60049'
p2693
aS'60053'
p2694
aS'60060'
p2695
aS'60062'
p2696
aS'60064'
p2697
aS'60068'
p2698
aS'60071'
p2699
aS'60074'
p2700
aS'60077'
p2701
aS'60084'
p2702
aS'60089'
p2703
aS'60091'
p2704
aS'60101'
p2705
aS'60103'
p2706
aS'60106'
p2707
aS'60115'
p2708
aS'60130'
p2709
aS'60134'
p2710
aS'60139'
p2711
ag1765
aS'60148'
p2712
aS'60160'
p2713
aS'60178'
p2714
aS'60185'
p2715
aS'60188'
p2716
aS'60201'
p2717
aS'60208'
p2718
aS'60402'
p2719
aS'60411'
p2720
aS'60423'
p2721
aS'60438'
p2722
aS'60443'
p2723
aS'60450'
p2724
aS'60453'
p2725
aS'60456'
p2726
aS'60459'
p2727
aS'60463'
p2728
aS'60473'
p2729
aS'60504'
p2730
aS'60506'
p2731
aS'60513'
p2732
aS'60516'
p2733
aS'60532'
p2734
aS'60563'
p2735
aS'60601'
p2736
aS'60603'
p2737
aS'60604'
p2738
aS'60606'
p2739
aS'60609'
p2740
aS'60610'
p2741
aS'60613'
p2742
aS'60616'
p2743
aS'60618'
p2744
aS'60620'
p2745
aS'60622'
p2746
aS'60624'
p2747
aS'60626'
p2748
aS'60629'
p2749
aS'60631'
p2750
aS'60633'
p2751
aS'60636'
p2752
aS'60638'
p2753
aS'60640'
p2754
aS'60643'
p2755
aS'60645'
p2756
aS'60647'
p2757
aS'60651'
p2758
aS'60653'
p2759
aS'60655'
p2760
aS'60657'
p2761
aS'60659'
p2762
aS'60661'
p2763
aS'61008'
p2764
aS'61032'
p2765
aS'61265'
p2766
aS'61614'
p2767
aS'61801'
p2768
aS'61821'
p2769
aS'62002'
p2770
aS'60601'
p2771
aS'60610'
p2772
aS'60603'
p2773
aS'60606'
p2774
aS'60657'
p2775
aS'60004'
p2776
aS'60007'
p2777
aS'60010'
p2778
aS'60014'
p2779
aS'60016'
p2780
aS'60020'
p2781
aS'60025'
p2782
aS'60030'
p2783
aS'60035'
p2784
aS'60043'
p2785
aS'60045'
p2786
aS'60048'
p2787
aS'60053'
p2788
aS'60060'
p2789
aS'60062'
p2790
aS'60068'
p2791
aS'60071'
p2792
aS'60074'
p2793
aS'60077'
p2794
aS'60084'
p2795
aS'60089'
p2796
aS'60091'
p2797
aS'60101'
p2798
aS'60103'
p2799
aS'60106'
p2800
aS'60115'
p2801
aS'60123'
p2802
aS'60130'
p2803
aS'60134'
p2804
aS'60139'
p2805
ag1766
aS'60148'
p2806
aS'60160'
p2807
aS'60178'
p2808
aS'60185'
p2809
aS'60188'
p2810
aS'60201'
p2811
aS'60208'
p2812
aS'60402'
p2813
aS'60411'
p2814
aS'60423'
p2815
aS'60431'
p2816
aS'60438'
p2817
aS'60443'
p2818
aS'60450'
p2819
aS'60453'
p2820
aS'60456'
p2821
aS'60459'
p2822
aS'60463'
p2823
aS'60473'
p2824
aS'60504'
p2825
aS'60506'
p2826
aS'60513'
p2827
aS'60516'
p2828
aS'60532'
p2829
aS'60563'
p2830
aS'60604'
p2831
aS'60609'
p2832
aS'60613'
p2833
aS'60616'
p2834
aS'60618'
p2835
aS'60620'
p2836
aS'60622'
p2837
aS'60624'
p2838
aS'60626'
p2839
aS'60629'
p2840
aS'60631'
p2841
aS'60633'
p2842
aS'60636'
p2843
aS'60638'
p2844
aS'60640'
p2845
aS'60643'
p2846
aS'60645'
p2847
aS'60647'
p2848
aS'60651'
p2849
aS'60653'
p2850
aS'60655'
p2851
aS'60659'
p2852
aS'60661'
p2853
aS'61008'
p2854
aS'61032'
p2855
aS'61265'
p2856
aS'61614'
p2857
aS'61801'
p2858
aS'61821'
p2859
aS'62002'
p2860
aS'60001'
p2861
aS'60009'
p2862
aS'60012'
p2863
aS'60019'
p2864
aS'60033'
p2865
aS'60039'
p2866
ag2228
aS'60049'
p2867
aS'60064'
p2868
asS'Imlay'
p2869
(lp2870
S'89418'
p2871
aS'89418'
p2872
asS'Ibrahim Bagh Lines Hyderabad'
p2873
(lp2874
S'500031'
p2875
aS'500031'
p2876
asS'Ichertswil'
p2877
(lp2878
S'4571'
p2879
aS'4571'
p2880
asS'Itingen'
p2881
(lp2882
S'4452'
p2883
aS'4452'
p2884
asS'Indore Sadar Bazar'
p2885
(lp2886
S'452008'
p2887
aS'452008'
p2888
asS'Ilha das Flores'
p2889
(lp2890
S'9960-010'
p2891
aS'9960-030'
p2892
aS'9960-050'
p2893
aS'9960-070'
p2894
aS'9960-110'
p2895
aS'9960-130'
p2896
aS'9960-150'
p2897
aS'9960-210'
p2898
aS'9960-230'
p2899
aS'9960-250'
p2900
aS'9960-310'
p2901
aS'9960-330'
p2902
aS'9960-350'
p2903
aS'9960-400'
p2904
aS'9960-420'
p2905
aS'9960-431'
p2906
aS'9960-433'
p2907
aS'9960-435'
p2908
aS'9960-437'
p2909
aS'9960-439'
p2910
aS'9960-441'
p2911
aS'9960-443'
p2912
aS'9960-445'
p2913
aS'9960-470'
p2914
aS'9960-474'
p2915
aS'9960-478'
p2916
aS'9960-482'
p2917
aS'9960-500'
p2918
aS'9960-520'
p2919
aS'9960-540'
p2920
aS'9960-560'
p2921
aS'9960-580'
p2922
aS'9960-610'
p2923
aS'9960-630'
p2924
aS'9970-010'
p2925
aS'9970-032'
p2926
aS'9970-061'
p2927
aS'9970-063'
p2928
ag1958
ag1959
ag1960
ag1961
ag1962
ag1963
ag1964
ag1965
ag1966
ag1967
ag1968
ag1969
ag1970
ag1971
aS'9970-205'
p2929
aS'9970-215'
p2930
aS'9970-225'
p2931
aS'9970-240'
p2932
aS'9970-242'
p2933
aS'9970-244'
p2934
aS'9970-246'
p2935
aS'9970-248'
p2936
aS'9970-250'
p2937
aS'9970-260'
p2938
aS'9970-270'
p2939
aS'9970-280'
p2940
aS'9970-301'
p2941
aS'9970-303'
p2942
aS'9970-305'
p2943
aS'9970-307'
p2944
aS'9970-309'
p2945
aS'9970-311'
p2946
aS'9970-313'
p2947
aS'9970-315'
p2948
aS'9970-317'
p2949
aS'9970-319'
p2950
aS'9970-321'
p2951
aS'9970-323'
p2952
aS'9970-325'
p2953
aS'9970-327'
p2954
aS'9970-329'
p2955
aS'9970-331'
p2956
aS'9970-333'
p2957
aS'9970-335'
p2958
aS'9970-337'
p2959
aS'9970-339'
p2960
aS'9970-341'
p2961
aS'9970-380'
p2962
aS'9970-999'
p2963
aS'9960-010'
p2964
ag2964
aS'9960-030'
p2965
aS'9960-050'
p2966
aS'9960-070'
p2967
aS'9960-110'
p2968
aS'9960-130'
p2969
aS'9960-150'
p2970
aS'9960-210'
p2971
aS'9960-230'
p2972
aS'9960-250'
p2973
aS'9960-310'
p2974
aS'9960-330'
p2975
aS'9960-350'
p2976
aS'9960-400'
p2977
aS'9960-420'
p2978
aS'9960-431'
p2979
aS'9960-433'
p2980
aS'9960-435'
p2981
aS'9960-437'
p2982
aS'9960-439'
p2983
aS'9960-441'
p2984
aS'9960-443'
p2985
aS'9960-445'
p2986
aS'9960-470'
p2987
aS'9960-474'
p2988
aS'9960-478'
p2989
aS'9960-482'
p2990
aS'9960-500'
p2991
aS'9960-520'
p2992
aS'9960-540'
p2993
aS'9960-560'
p2994
aS'9960-580'
p2995
aS'9960-610'
p2996
aS'9960-630'
p2997
aS'9970-010'
p2998
aS'9970-032'
p2999
aS'9970-061'
p3000
aS'9970-063'
p3001
ag2072
ag2073
ag2074
ag2075
ag2076
ag2077
ag2078
ag2079
ag2080
ag2081
ag2082
ag2083
ag2084
ag2085
aS'9970-205'
p3002
aS'9970-215'
p3003
aS'9970-225'
p3004
aS'9970-240'
p3005
aS'9970-242'
p3006
aS'9970-244'
p3007
aS'9970-246'
p3008
aS'9970-248'
p3009
aS'9970-250'
p3010
aS'9970-260'
p3011
aS'9970-270'
p3012
aS'9970-280'
p3013
aS'9970-301'
p3014
aS'9970-303'
p3015
aS'9970-305'
p3016
aS'9970-307'
p3017
aS'9970-309'
p3018
aS'9970-311'
p3019
aS'9970-313'
p3020
aS'9970-315'
p3021
aS'9970-317'
p3022
aS'9970-319'
p3023
aS'9970-321'
p3024
aS'9970-323'
p3025
aS'9970-325'
p3026
aS'9970-327'
p3027
aS'9970-329'
p3028
aS'9970-331'
p3029
aS'9970-333'
p3030
aS'9970-335'
p3031
aS'9970-337'
p3032
aS'9970-339'
p3033
aS'9970-341'
p3034
aS'9970-380'
p3035
aS'9970-999'
p3036
asS'Ichilangode B.O'
p3037
(lp3038
S'671324'
p3039
asS'Illocska'
p3040
(lp3041
S'7775'
p3042
aS'7775'
p3043
asS'Indoor'
p3044
(lp3045
S'501152'
p3046
aS'501152'
p3047
asS'Indre Billefjord'
p3048
(lp3049
S'9710'
p3050
aS'9710'
p3051
asS'Itmann'
p3052
(lp3053
S'24847'
p3054
aS'24847'
p3055
asS'Ixonia'
p3056
(lp3057
S'53036'
p3058
aS'53036'
p3059
asS'Iszkaszentgy\xc3\xb6rgy'
p3060
(lp3061
S'8043'
p3062
asS'Indian Research'
p3063
(lp3064
S'700002'
p3065
aS'700002'
p3066
asS'Ivan'
p3067
(lp3068
S'71748'
p3069
aS'71748'
p3070
asS'Indre Arna'
p3071
(lp3072
S'5260'
p3073
aS'5260'
p3074
asS'Illmitz'
p3075
(lp3076
S'7142'
p3077
aS'7142'
p3078
asS'Inglewood'
p3079
(lp3080
S'6052'
p3081
aS'90301'
p3082
aS'90303'
p3083
aS'90306'
p3084
aS'90308'
p3085
aS'90301'
p3086
aS'90303'
p3087
aS'90306'
p3088
aS'90308'
p3089
asS'Ilha da Graciosa'
p3090
(lp3091
S'9880-011'
p3092
aS'9880-013'
p3093
aS'9880-015'
p3094
aS'9880-017'
p3095
aS'9880-019'
p3096
aS'9880-021'
p3097
aS'9880-023'
p3098
aS'9880-025'
p3099
aS'9880-027'
p3100
aS'9880-029'
p3101
aS'9880-102'
p3102
aS'9880-104'
p3103
aS'9880-106'
p3104
aS'9880-108'
p3105
aS'9880-120'
p3106
aS'9880-122'
p3107
aS'9880-124'
p3108
aS'9880-126'
p3109
aS'9880-128'
p3110
aS'9880-130'
p3111
aS'9880-132'
p3112
aS'9880-134'
p3113
aS'9880-136'
p3114
aS'9880-138'
p3115
aS'9880-140'
p3116
aS'9880-142'
p3117
aS'9880-144'
p3118
aS'9880-146'
p3119
aS'9880-148'
p3120
aS'9880-150'
p3121
aS'9880-152'
p3122
aS'9880-154'
p3123
aS'9880-171'
p3124
aS'9880-173'
p3125
aS'9880-201'
p3126
aS'9880-203'
p3127
aS'9880-205'
p3128
aS'9880-207'
p3129
aS'9880-211'
p3130
aS'9880-213'
p3131
aS'9880-215'
p3132
aS'9880-217'
p3133
aS'9880-219'
p3134
aS'9880-221'
p3135
aS'9880-223'
p3136
aS'9880-225'
p3137
aS'9880-227'
p3138
aS'9880-229'
p3139
aS'9880-232'
p3140
aS'9880-234'
p3141
aS'9880-236'
p3142
aS'9880-238'
p3143
aS'9880-241'
p3144
aS'9880-244'
p3145
aS'9880-280'
p3146
aS'9880-301'
p3147
aS'9880-303'
p3148
aS'9880-305'
p3149
aS'9880-307'
p3150
aS'9880-309'
p3151
aS'9880-311'
p3152
aS'9880-313'
p3153
aS'9880-315'
p3154
aS'9880-320'
p3155
aS'9880-322'
p3156
aS'9880-324'
p3157
aS'9880-326'
p3158
aS'9880-328'
p3159
aS'9880-330'
p3160
aS'9880-332'
p3161
aS'9880-334'
p3162
aS'9880-336'
p3163
aS'9880-338'
p3164
aS'9880-340'
p3165
aS'9880-342'
p3166
aS'9880-344'
p3167
aS'9880-346'
p3168
aS'9880-348'
p3169
aS'9880-350'
p3170
aS'9880-352'
p3171
aS'9880-354'
p3172
aS'9880-356'
p3173
aS'9880-358'
p3174
aS'9880-360'
p3175
aS'9880-362'
p3176
aS'9880-364'
p3177
aS'9880-366'
p3178
aS'9880-368'
p3179
aS'9880-370'
p3180
aS'9880-372'
p3181
aS'9880-374'
p3182
aS'9880-376'
p3183
aS'9880-378'
p3184
aS'9880-380'
p3185
aS'9880-382'
p3186
aS'9880-384'
p3187
aS'9880-386'
p3188
aS'9880-388'
p3189
aS'9880-390'
p3190
aS'9880-392'
p3191
aS'9880-011'
p3192
aS'9880-013'
p3193
aS'9880-015'
p3194
aS'9880-017'
p3195
aS'9880-019'
p3196
aS'9880-021'
p3197
aS'9880-023'
p3198
aS'9880-025'
p3199
aS'9880-027'
p3200
aS'9880-029'
p3201
aS'9880-102'
p3202
aS'9880-104'
p3203
aS'9880-106'
p3204
aS'9880-108'
p3205
aS'9880-120'
p3206
aS'9880-122'
p3207
aS'9880-124'
p3208
aS'9880-126'
p3209
aS'9880-128'
p3210
aS'9880-130'
p3211
aS'9880-132'
p3212
aS'9880-134'
p3213
aS'9880-136'
p3214
aS'9880-138'
p3215
aS'9880-140'
p3216
aS'9880-142'
p3217
aS'9880-144'
p3218
aS'9880-146'
p3219
aS'9880-148'
p3220
aS'9880-150'
p3221
aS'9880-152'
p3222
aS'9880-154'
p3223
aS'9880-171'
p3224
aS'9880-173'
p3225
aS'9880-201'
p3226
aS'9880-203'
p3227
aS'9880-205'
p3228
aS'9880-207'
p3229
aS'9880-211'
p3230
aS'9880-213'
p3231
aS'9880-215'
p3232
aS'9880-217'
p3233
aS'9880-219'
p3234
aS'9880-221'
p3235
aS'9880-223'
p3236
aS'9880-225'
p3237
aS'9880-227'
p3238
aS'9880-229'
p3239
aS'9880-232'
p3240
aS'9880-234'
p3241
aS'9880-236'
p3242
aS'9880-238'
p3243
aS'9880-241'
p3244
aS'9880-244'
p3245
aS'9880-280'
p3246
aS'9880-301'
p3247
aS'9880-303'
p3248
aS'9880-305'
p3249
aS'9880-307'
p3250
aS'9880-309'
p3251
aS'9880-311'
p3252
aS'9880-313'
p3253
aS'9880-315'
p3254
aS'9880-320'
p3255
aS'9880-322'
p3256
aS'9880-324'
p3257
aS'9880-326'
p3258
aS'9880-328'
p3259
aS'9880-330'
p3260
aS'9880-332'
p3261
aS'9880-334'
p3262
aS'9880-336'
p3263
aS'9880-338'
p3264
aS'9880-340'
p3265
aS'9880-342'
p3266
aS'9880-344'
p3267
aS'9880-346'
p3268
aS'9880-348'
p3269
aS'9880-350'
p3270
aS'9880-352'
p3271
aS'9880-354'
p3272
aS'9880-356'
p3273
aS'9880-358'
p3274
aS'9880-360'
p3275
aS'9880-362'
p3276
aS'9880-364'
p3277
aS'9880-366'
p3278
aS'9880-368'
p3279
aS'9880-370'
p3280
aS'9880-372'
p3281
aS'9880-374'
p3282
aS'9880-376'
p3283
aS'9880-378'
p3284
aS'9880-380'
p3285
aS'9880-382'
p3286
aS'9880-384'
p3287
aS'9880-386'
p3288
aS'9880-388'
p3289
aS'9880-390'
p3290
aS'9880-392'
p3291
asS'Inden'
p3292
(lp3293
S'3953'
p3294
aS'3953'
p3295
asS'Inzersdorf'
p3296
(lp3297
S'1230'
p3298
asS'Iregszemcse'
p3299
(lp3300
S'7095'
p3301
aS'7095'
p3302
asS'Idaho Falls'
p3303
(lp3304
S'83403'
p3305
aS'83405'
p3306
aS'83415'
p3307
aS'83403'
p3308
aS'83405'
p3309
aS'83415'
p3310
asS'Innisfail'
p3311
(lp3312
S'T4G'
p3313
aS'T4G'
p3314
asS'Issue'
p3315
(lp3316
S'20645'
p3317
aS'20645'
p3318
asS'Itkhori'
p3319
(lp3320
S'825408'
p3321
aS'825408'
p3322
asS'Idaho'
p3323
(lp3324
S'83202'
p3325
aS'83204'
p3326
ag3326
aS'83206'
p3327
ag3327
aS'83210'
p3328
aS'83212'
p3329
aS'83214'
p3330
aS'83217'
p3331
aS'83220'
p3332
aS'83223'
p3333
aS'83227'
p3334
aS'83229'
p3335
aS'83232'
p3336
aS'83234'
p3337
aS'83236'
p3338
aS'83238'
p3339
aS'83241'
p3340
aS'83244'
p3341
aS'83246'
p3342
aS'83252'
p3343
aS'83256'
p3344
aS'83262'
p3345
aS'83271'
p3346
aS'83274'
p3347
aS'83277'
p3348
aS'83281'
p3349
aS'83285'
p3350
aS'83287'
p3351
aS'83301'
p3352
aS'83303'
p3353
aS'83312'
p3354
aS'83314'
p3355
aS'83316'
p3356
aS'83320'
p3357
aS'83322'
p3358
aS'83324'
p3359
aS'83327'
p3360
aS'83330'
p3361
aS'83333'
p3362
aS'83335'
p3363
aS'83337'
p3364
aS'83341'
p3365
aS'83343'
p3366
aS'83346'
p3367
aS'83348'
p3368
aS'83350'
p3369
aS'83353'
p3370
aS'83355'
p3371
ag3305
ag3306
ag3307
aS'83421'
p3372
aS'83423'
p3373
aS'83425'
p3374
aS'83428'
p3375
aS'83431'
p3376
aS'83434'
p3377
aS'83436'
p3378
aS'83440'
p3379
aS'83441'
p3380
aS'83443'
p3381
aS'83445'
p3382
aS'83448'
p3383
aS'83450'
p3384
aS'83452'
p3385
aS'83455'
p3386
aS'83462'
p3387
aS'83464'
p3388
aS'83466'
p3389
aS'83468'
p3390
aS'83520'
p3391
aS'83523'
p3392
aS'83525'
p3393
aS'83530'
p3394
aS'83533'
p3395
aS'83536'
p3396
aS'83539'
p3397
aS'83543'
p3398
aS'83545'
p3399
aS'83547'
p3400
aS'83549'
p3401
aS'83553'
p3402
aS'83555'
p3403
aS'83602'
p3404
aS'83605'
p3405
aS'83606'
p3406
aS'83607'
p3407
aS'83634'
p3408
aS'83642'
p3409
aS'83644'
p3410
aS'83651'
p3411
aS'83676'
p3412
aS'83686'
p3413
aS'83687'
p3414
aS'83703'
p3415
aS'83705'
p3416
aS'83713'
p3417
aS'83714'
p3418
aS'83642'
p3419
aS'83301'
p3420
aS'83686'
p3421
aS'83201'
p3422
ag3422
aS'83605'
p3423
aS'83634'
p3424
aS'83651'
p3425
aS'83687'
p3426
aS'83703'
p3427
aS'83705'
p3428
aS'83713'
p3429
aS'83316'
p3430
aS'83440'
p3431
aS'83607'
p3432
aS'83644'
p3433
aS'83676'
p3434
aS'83714'
p3435
aS'83202'
p3436
ag3436
aS'83204'
p3437
ag3437
aS'83206'
p3438
ag3438
aS'83210'
p3439
aS'83212'
p3440
aS'83214'
p3441
aS'83217'
p3442
aS'83220'
p3443
aS'83223'
p3444
aS'83227'
p3445
aS'83229'
p3446
aS'83232'
p3447
aS'83234'
p3448
aS'83236'
p3449
aS'83238'
p3450
aS'83241'
p3451
aS'83244'
p3452
aS'83246'
p3453
aS'83252'
p3454
aS'83254'
p3455
aS'83256'
p3456
aS'83262'
p3457
aS'83271'
p3458
aS'83274'
p3459
aS'83277'
p3460
aS'83281'
p3461
aS'83285'
p3462
aS'83287'
p3463
aS'83303'
p3464
aS'83312'
p3465
aS'83314'
p3466
aS'83320'
p3467
aS'83322'
p3468
aS'83324'
p3469
aS'83327'
p3470
aS'83330'
p3471
aS'83333'
p3472
aS'83335'
p3473
aS'83337'
p3474
aS'83341'
p3475
aS'83343'
p3476
aS'83346'
p3477
aS'83348'
p3478
aS'83350'
p3479
aS'83353'
p3480
aS'83355'
p3481
ag3308
ag3309
ag3310
aS'83421'
p3482
aS'83423'
p3483
aS'83425'
p3484
aS'83428'
p3485
aS'83431'
p3486
aS'83434'
p3487
aS'83436'
p3488
aS'83441'
p3489
aS'83443'
p3490
aS'83445'
p3491
aS'83448'
p3492
aS'83450'
p3493
aS'83452'
p3494
aS'83455'
p3495
aS'83462'
p3496
aS'83464'
p3497
aS'83466'
p3498
aS'83468'
p3499
aS'83520'
p3500
aS'83523'
p3501
aS'83525'
p3502
aS'83530'
p3503
aS'83533'
p3504
aS'83536'
p3505
aS'83539'
p3506
aS'83541'
p3507
aS'83543'
p3508
aS'83545'
p3509
aS'83547'
p3510
aS'83549'
p3511
aS'83553'
p3512
aS'83555'
p3513
aS'83602'
p3514
aS'83606'
p3515
asS'Igualada'
p3516
(lp3517
S'08700'
p3518
aS'08700'
p3519
asS'Indore B K Colony'
p3520
(lp3521
S'452001'
p3522
aS'452001'
p3523
asS'Indore Cantt'
p3524
(lp3525
S'452001'
p3526
asS'Irving'
p3527
(lp3528
S'75017'
p3529
aS'75037'
p3530
aS'75039'
p3531
aS'75061'
p3532
aS'75063'
p3533
aS'75015'
p3534
aS'75017'
p3535
aS'75037'
p3536
aS'75039'
p3537
aS'75061'
p3538
aS'75063'
p3539
asS'Indore Tukoganj'
p3540
(lp3541
S'452001'
p3542
asS'Isernhagen'
p3543
(lp3544
S'30916'
p3545
aS'30916'
p3546
asS'I E'
p3547
(lp3548
S'363030'
p3549
aS'363030'
p3550
asS'Iszk\xc3\xa1z'
p3551
(lp3552
S'8493'
p3553
aS'8493'
p3554
asS'Industrial Focal Point'
p3555
(lp3556
S'140401'
p3557
aS'140401'
p3558
aS'140401'
p3559
asS'Indre N\xc3\xa6r\xc3\xb8y'
p3560
(lp3561
S'7944'
p3562
aS'7944'
p3563
asS'Ivan\xc4\x8dice'
p3564
(lp3565
S'664 91'
p3566
asS'Industrial Suburb'
p3567
(lp3568
S'560010'
p3569
aS'560010'
p3570
asS'Indore Topkhana'
p3571
(lp3572
S'452001'
p3573
asS'Ilmenau'
p3574
(lp3575
S'98693'
p3576
aS'98693'
p3577
asS'Ilk'
p3578
(lp3579
S'4566'
p3580
aS'4566'
p3581
asS'Islikon'
p3582
(lp3583
S'8546'
p3584
aS'8546'
p3585
asS'Islas Menores'
p3586
(lp3587
S'30384'
p3588
aS'30384'
p3589
asS'Innerbach'
p3590
(lp3591
S'6708'
p3592
asS'Ing\xc3\xb8y'
p3593
(lp3594
S'9672'
p3595
asS'Ilha de Porto Santo'
p3596
(lp3597
S'9400-001'
p3598
aS'9400-010'
p3599
aS'9400-020'
p3600
aS'9400-030'
p3601
aS'9400-040'
p3602
aS'9400-050'
p3603
aS'9400-060'
p3604
aS'9400-070'
p3605
aS'9400-080'
p3606
aS'9400-095'
p3607
aS'9400-105'
p3608
aS'9400-115'
p3609
aS'9400-151'
p3610
ag3610
aS'9400-153'
p3611
ag3611
aS'9400-155'
p3612
ag3612
aS'9400-157'
p3613
ag3613
aS'9400-159'
p3614
ag3614
aS'9400-162'
p3615
ag3615
aS'9400-164'
p3616
ag3616
aS'9400-166'
p3617
ag3617
aS'9400-168'
p3618
ag3618
aS'9400-170'
p3619
ag3619
aS'9400-172'
p3620
ag3620
aS'9400-174'
p3621
ag3621
aS'9400-176'
p3622
ag3622
aS'9400-178'
p3623
ag3623
aS'9400-999'
p3624
ag3624
aS'9400-001'
p3625
ag3625
aS'9400-010'
p3626
aS'9400-020'
p3627
aS'9400-030'
p3628
aS'9400-040'
p3629
aS'9400-050'
p3630
aS'9400-060'
p3631
aS'9400-070'
p3632
aS'9400-080'
p3633
aS'9400-095'
p3634
aS'9400-105'
p3635
aS'9400-115'
p3636
aS'9400-151'
p3637
ag3637
aS'9400-153'
p3638
ag3638
aS'9400-155'
p3639
ag3639
aS'9400-157'
p3640
ag3640
aS'9400-159'
p3641
ag3641
aS'9400-162'
p3642
ag3642
aS'9400-164'
p3643
ag3643
aS'9400-166'
p3644
ag3644
aS'9400-168'
p3645
ag3645
aS'9400-170'
p3646
ag3646
aS'9400-172'
p3647
ag3647
aS'9400-174'
p3648
ag3648
aS'9400-176'
p3649
ag3649
aS'9400-178'
p3650
ag3650
aS'9400-999'
p3651
ag3651
asS'Indore Lokmanyanagar'
p3652
(lp3653
S'452002'
p3654
asS'Ingoldsby'
p3655
(lp3656
S'4343'
p3657
asS'Isfjorden'
p3658
(lp3659
S'6339'
p3660
aS'6339'
p3661
asS'I I T Hauz Khas'
p3662
(lp3663
S'110016'
p3664
asS'Isola'
p3665
(lp3666
S'19126'
p3667
aS'19126'
p3668
aS'38754'
p3669
aS'38754'
p3670
asS'Indian School Of Mines (Ism)'
p3671
(lp3672
S'826004'
p3673
aS'826004'
p3674
asS'Indore Govt College'
p3675
(lp3676
S'452001'
p3677
asS'Ipolyvece'
p3678
(lp3679
S'2669'
p3680
asS'Indrakannu'
p3681
(lp3682
S'502330'
p3683
aS'502330'
p3684
asS'Indupur'
p3685
(lp3686
S'754214'
p3687
aS'754214'
p3688
asS'Idar-Oberstein'
p3689
(lp3690
S'55743'
p3691
aS'55743'
p3692
asS'Imphal H O'
p3693
(lp3694
S'795001'
p3695
aS'795001'
p3696
asS'Irwin'
p3697
(lp3698
S'15642'
p3699
aS'43029'
p3700
ag3375
ag3485
aS'43029'
p3701
aS'15642'
p3702
asS'Indore Sudamanagar'
p3703
(lp3704
S'452009'
p3705
aS'452009'
p3706
asS'Inzenhof'
p3707
(lp3708
S'7540'
p3709
aS'7540'
p3710
asS'Irene'
p3711
(lp3712
S'57037'
p3713
aS'57037'
p3714
as.