(dp1
S'\xc3\x89pinay-sur-Orge'
p2
(lp3
S'589793'
p4
asS'\xc5\x81uk\xc3\xb3w'
p5
(lp6
S'505769'
p7
asS'\xc4\x8cerven\xc3\xbd Kostelec'
p8
(lp9
S'787429'
p10
asS'\xc3\x85benr\xc3\xa5'
p11
(lp12
S'551810'
p13
asS'\xc3\x96demi\xc5\x9f'
p14
(lp15
S'2344292'
p16
asS'\xc3\x81guas de Lind\xc3\xb3ia'
p17
(lp18
S'421029'
p19
asS'\xc4\xb0ncirliova'
p20
(lp21
S'2324296'
p22
asS'\xc3\x87elikhan'
p23
(lp24
S'2314649'
p25
asS'\xc3\x81lvares Machado'
p26
(lp27
S'458410'
p28
asS'\xc5\x9awiecie'
p29
(lp30
S'521189'
p31
asS'\xc4\x8cesk\xc3\xa9 Bud\xc4\x9bjovice'
p32
(lp33
S'787461'
p34
asS'\xc3\x81guas Vermelhas'
p35
(lp36
S'458341'
p37
asS'\xc5\x9etef\xc4\x83ne\xc5\x9fti'
p38
(lp39
S'15002352'
p40
asS'\xc5\x9awidnica'
p41
(lp42
S'521135'
p43
asS'\xc3\x87ubuk'
p44
(lp45
S'2343905'
p46
asS'\xc3\x89guilles'
p47
(lp48
S'589554'
p49
asS'\xc3\x87ama\xc5\x9f'
p50
(lp51
S'2343852'
p52
asS'\xc4\x8cesk\xc3\xa1 Skalice'
p53
(lp54
S'24929858'
p55
asS'\xc3\x81lamo'
p56
(lp57
S'111754'
p58
asS'\xc4\x8cesk\xc3\xbd Krumlov'
p59
(lp60
S'787483'
p61
asS'\xc3\x96stermalm'
p62
(lp63
S'20151473'
p64
asS'\xc4\x8c\xc3\xa1slav'
p65
(lp66
S'787192'
p67
asS'\xc5\x81azy'
p68
(lp69
S'504054'
p70
asS'\xc3\x96nd\xc3\xb6rhaan'
p71
(lp72
S'2266558'
p73
asS'\xc4\x8cesk\xc3\xbd T\xc4\x9b\xc5\xa1\xc3\xadn'
p74
(lp75
S'24929061'
p76
asS"'Ain Benian"
p77
(lp78
S'1252726'
p79
asS'\xc5\xbbebbu\xc4\xa1'
p80
(lp81
S'483573'
p82
asS'\xc5\x9amigiel'
p83
(lp84
S'518900'
p85
asS'\xc3\x89vron'
p86
(lp87
S'590395'
p88
asS'\xc4\x8ca\xc4\x8dak'
p89
(lp90
S'533088'
p91
asS'\xc3\x90\xe1\xbb\x93ng H\xe1\xbb\x9bi'
p92
(lp93
S'1252392'
p94
asS'\xc3\x81ngel R. Cabada'
p95
(lp96
S'112156'
p97
asS'\xc5\xbbmigr\xc3\xb3d'
p98
(lp99
S'529056'
p100
asS'\xc4\xb0neg\xc3\xb6l'
p101
(lp102
S'2344108'
p103
asS'\xc3\x89queurdreville-Hainneville'
p104
(lp105
S'589844'
p106
asS'\xc4\xb0nebolu'
p107
(lp108
S'2344106'
p109
asS'\xc5\x9eark\xc3\xaekaraa\xc4\x9fa\xc3\xa7'
p110
(lp111
S'2344369'
p112
asS'\xc3\x9abeda'
p113
(lp114
S'776200'
p115
asS'\xc4\xa6amrun'
p116
(lp117
S'483362'
p118
asS'\xc3\x89taples'
p119
(lp120
S'590249'
p121
asS'\xc3\x85s'
p122
(lp123
S'856759'
p124
asS'\xc3\x89pinay-sur-Seine'
p125
(lp126
S'589794'
p127
asS'\xc3\x81gua Preta'
p128
(lp129
S'421001'
p130
asS'\xc5\x81om\xc5\xbca'
p131
(lp132
S'505176'
p133
asS'\xc5\xbdamberk'
p134
(lp135
S'801720'
p136
asS'\xc5\x9eiran'
p137
(lp138
S'2337299'
p139
asS'\xc4\xb0mamo\xc4\x9flu'
p140
(lp141
S'2324121'
p142
asS'\xc5\xa0ilut\xc4\x97'
p143
(lp144
S'478425'
p145
asS'\xc4\xb0kizce'
p146
(lp147
S'2323933'
p148
asS'\xc5\x81aziska G\xc3\xb3rne'
p149
(lp150
S'504005'
p151
asS'9 de Julio'
p152
(lp153
S'465956'
p154
aS'465956'
p155
asS'\xc4\xb0mroz'
p156
(lp157
S'2324157'
p158
asS'\xc5\x9eu\xc5\x9fa'
p159
(lp160
S'1951212'
p161
asS'\xc3\x96hringen'
p162
(lp163
S'683119'
p164
asS'\xc3\x85kersberga'
p165
(lp166
S'884309'
p167
asS'\xc5\x9acinawa'
p168
(lp169
S'517500'
p170
asS'\xc3\x84ngelholm'
p171
(lp172
S'884829'
p173
asS'\xc5\x98\xc3\xad\xc4\x8dany'
p174
(lp175
S'797344'
p176
asS'\xc4\x8curug'
p177
(lp178
S'533275'
p179
asS"'Ain Bessem"
p180
(lp181
S'1252728'
p182
asS'\xc3\x93zd'
p183
(lp184
S'813351'
p185
asS'\xc5\xbbory'
p186
(lp187
S'529162'
p188
asS'\xc4\xb0hsaniye'
p189
(lp190
S'2323887'
p191
aS'2323887'
p192
asS'\xc3\x87a\xc4\x9flayancerit'
p193
(lp194
S'2313150'
p195
asS'\xc5\x9eark\xc4\xb1\xc5\x9fla'
p196
(lp197
S'2344370'
p198
asS'\xc3\x85hus'
p199
(lp200
S'884249'
p201
asS'\xc5\x9eile'
p202
(lp203
S'2344386'
p204
asS'\xc5\x9euhut'
p205
(lp206
S'2344409'
p207
asS'\xc5\xbburomin'
p208
(lp209
S'529300'
p210
asS'\xc5\x9eemdinli'
p211
(lp212
S'2336656'
p213
asS'\xc5\x81och\xc3\xb3w'
p214
(lp215
S'505106'
p216
asS'\xc3\x89lancourt'
p217
(lp218
S'589569'
p219
asS'\xc5\xbbnin'
p220
(lp221
S'529083'
p222
asS'\xc5\x9eaphane'
p223
(lp224
S'2335753'
p225
asS'\xc3\x9cbach-Palenberg'
p226
(lp227
S'700308'
p228
asS'\xc5\xacroteppa'
p229
(lp230
S'2213175'
p231
asS"'Ain Temouchent"
p232
(lp233
S'1252868'
p234
asS'\xc3\x9cberlingen'
p235
(lp236
S'700334'
p237
asS'\xc5\xa0ilal\xc4\x97'
p238
(lp239
S'478398'
p240
asS'\xc3\x85storp'
p241
(lp242
S'885457'
p243
asS'\xc3\x89tampes'
p244
(lp245
S'590245'
p246
asS'\xc5\x9eerefliko\xc3\xa7hisar'
p247
(lp248
S'2344379'
p249
asS"'Ain Taya"
p250
(lp251
S'1252862'
p252
asS'\xc3\x85m\xc3\xa5l'
p253
(lp254
S'884686'
p255
asS'\xc5\x81\xc3\xb3d\xc5\xba'
p256
(lp257
S'505120'
p258
asS'\xc3\x96rk\xc3\xa9ny'
p259
(lp260
S'813228'
p261
asS'\xc4\x8ce\xc5\xa1inovo'
p262
(lp263
S'481855'
p264
asS'\xc3\x89chirolles'
p265
(lp266
S'55863469'
p267
asS'\xc5\xbbar\xc3\xb3w'
p268
(lp269
S'527945'
p270
asS'\xc3\x89rd'
p271
(lp272
S'805884'
p273
asS'\xc3\x87aycuma'
p274
(lp275
S'2343875'
p276
asS'\xc5\x81osice'
p277
(lp278
S'505237'
p279
asS'\xc5\xbbychlin'
p280
(lp281
S'529375'
p282
asS'\xc3\x96lgiy'
p283
(lp284
S'2266542'
p285
asS'\xc3\x96stersund'
p286
(lp287
S'901163'
p288
asS'\xc5\x9aroda \xc5\x9al\xc4\x85ska'
p289
(lp290
S'519529'
p291
asS'\xc3\x89vry'
p292
(lp293
S'590398'
p294
asS'\xc3\x84lvsbyn'
p295
(lp296
S'884675'
p297
asS'\xc4\x8cesk\xc3\xa1 T\xc5\x99ebov\xc3\xa1'
p298
(lp299
S'787457'
p300
asS'\xc3\x85rhus'
p301
(lp302
S'552015'
p303
asS'\xc3\x89tr\xc3\xa9chy'
p304
(lp305
S'590307'
p306
asS'\xc3\x81lamos'
p307
(lp308
S'111765'
p309
asS'\xc3\x89couen'
p310
(lp311
S'589462'
p312
asS'\xc4\xa6al Qormi'
p313
(lp314
S'483460'
p315
asS'\xc5\x9eirvan'
p316
(lp317
S'2337354'
p318
asS'\xc3\x87erkezk\xc3\xb6y'
p319
(lp320
S'2314835'
p321
asS'\xc3\x85lesund'
p322
(lp323
S'856555'
p324
asS'\xc3\x93bidos'
p325
(lp326
S'744639'
p327
asS'\xc3\x9apice'
p328
(lp329
S'800234'
p330
asS'\xc3\x81lvaro Obreg\xc3\xb3n'
p331
(lp332
S'111986'
p333
asS'\xc3\x81guas Belas'
p334
(lp335
S'456016'
p336
asS'\xc5\x9eaban\xc3\xb6z\xc3\xbc'
p337
(lp338
S'2344337'
p339
asS'\xc5\x9eimleu Silvaniei'
p340
(lp341
S'880353'
p342
asS'\xc3\x87anakkale'
p343
(lp344
S'2343859'
p345
asS'\xc3\x81guas Santas'
p346
(lp347
S'735477'
p348
asS'\xc5\xa0tip'
p349
(lp350
S'483020'
p351
asS'\xc3\x9ajk\xc3\xadgy\xc3\xb3s'
p352
(lp353
S'817024'
p354
asS'\xc3\x85rs'
p355
(lp356
S'552033'
p357
asS'\xc3\x87orlu'
p358
(lp359
S'2343903'
p360
asS'\xc3\x85krehamn'
p361
(lp362
S'856537'
p363
asS'\xc5\x9awinouj\xc5\x9bcie'
p364
(lp365
S'521376'
p366
asS'\xc5\x9eefaatli'
p367
(lp368
S'2336464'
p369
asS'\xc3\x87atalca'
p370
(lp371
S'2343870'
p372
asS'\xc5\x9awiebodzice'
p373
(lp374
S'521171'
p375
asS'\xc3\x81guas Formosas'
p376
(lp377
S'456628'
p378
asS'\xc5\xbburrieq'
p379
(lp380
S'483577'
p381
asS'\xc4\xb0zmir'
p382
(lp383
S'2344117'
p384
asS'\xc4\xb0vrindi'
p385
(lp386
S'2324625'
p387
asS'\xc5\x9aroda Wielkopolska'
p388
(lp389
S'519530'
p390
asS'\xc3\x96zalp'
p391
(lp392
S'2334380'
p393
asS'\xc4\xb0n\xc3\xb6n\xc3\xbc'
p394
(lp395
S'2324356'
p396
asS'\xc5\xbbabbar'
p397
(lp398
S'483571'
p399
asS'\xc3\x90\xc3\xa0 L\xe1\xba\xa1t'
p400
(lp401
S'1252375'
p402
asS'\xc4\x8cel\xc3\xa1kovice'
p403
(lp404
S'787261'
p405
asS'\xc5\x9eav\xc5\x9fat'
p406
(lp407
S'2336358'
p408
asS'\xc5\xbdelezn\xc3\xbd Brod'
p409
(lp410
S'802024'
p411
asS'\xc4\xb0stanbul'
p412
(lp413
S'2344116'
p414
asS'\xc5\xbbukowo'
p415
(lp416
S'529248'
p417
asS'\xc3\x87iftlik'
p418
(lp419
S'2315073'
p420
asS'\xc3\x87aml\xc4\xb1dere'
p421
(lp422
S'2343856'
p423
asS'\xc5\xbbejtun'
p424
(lp425
S'483575'
p426
asS'\xc3\x89pernon'
p427
(lp428
S'589763'
p429
asS'\xc5\x9awiebodzin'
p430
(lp431
S'521206'
p432
asS'\xc5\x81owicz'
p433
(lp434
S'505285'
p435
asS'\xc4\x8cadca'
p436
(lp437
S'818858'
p438
asS'\xc5\xbbaga\xc5\x84'
p439
(lp440
S'527247'
p441
asS'\xc3\x81gua Branca'
p442
(lp443
S'420897'
p444
aS'420897'
p445
asS'\xc5\xbdupanja'
p446
(lp447
S'851258'
p448
asS'\xc3\x9crg\xc3\xbcp'
p449
(lp450
S'2344473'
p451
asS'\xc5\xbdivinice'
p452
(lp453
S'944793'
p454
asS'\xc3\x96merli'
p455
(lp456
S'2344299'
p457
asS'\xc3\x9ast\xc3\xad nad Labem'
p458
(lp459
S'800260'
p460
asS'\xc3\x87ivril'
p461
(lp462
S'2343898'
p463
asS'\xc3\x87ukurca'
p464
(lp465
S'2315892'
p466
asS'\xc4\xb0scehisar'
p467
(lp468
S'2344109'
p469
asS'\xc3\x87ay\xc4\xb1ralan'
p470
(lp471
S'2314392'
p472
asS'\xc3\x89zanville'
p473
(lp474
S'590464'
p475
asS'\xc3\x87ekerek'
p476
(lp477
S'2343879'
p478
asS'\xc3\x87\xc3\xbcng\xc3\xbc\xc5\x9f'
p479
(lp480
S'2316040'
p481
asS'\xc5\x9awi\xc4\x99toch\xc5\x82owice'
p482
(lp483
S'521319'
p484
asS'\xc3\x87umra'
p485
(lp486
S'2343906'
p487
asS'\xc4\xb0znik'
p488
(lp489
S'2344118'
p490
asS'\xc3\x89vian-les-Bains'
p491
(lp492
S'590379'
p493
asS'\xc3\x81cs'
p494
(lp495
S'802302'
p496
asS'\xc5\x9eebinkarahisar'
p497
(lp498
S'2344376'
p499
asS'\xc3\x96rnsk\xc3\xb6ldsvik'
p500
(lp501
S'900809'
p502
asS'\xc3\x84\xc3\xa4nekoski'
p503
(lp504
S'563930'
p505
asS'\xc4\x8cesk\xc3\xa1 L\xc3\xadpa'
p506
(lp507
S'787449'
p508
asS'\xc4\x8cesk\xc3\xa1 Kamenice'
p509
(lp510
S'787446'
p511
asS'\xc4\xb0psala'
p512
(lp513
S'2324377'
p514
asS'\xc3\x9ajsz\xc3\xa1sz'
p515
(lp516
S'817111'
p517
asS'\xc3\x87aykara'
p518
(lp519
S'2314454'
p520
asS'\xc5\x81obez'
p521
(lp522
S'505090'
p523
asS'\xc3\x96stringen'
p524
(lp525
S'683812'
p526
asS'\xc3\x87ay'
p527
(lp528
S'2343872'
p529
asS'\xc3\x84lmhult'
p530
(lp531
S'884552'
p532
asS'\xc3\x90\xc3\xb4ng H\xc3\xa0'
p533
(lp534
S'1235526'
p535
asS'\xc5\x9awidnik'
p536
(lp537
S'24942455'
p538
asS'\xc5\xbdatec'
p539
(lp540
S'801780'
p541
asS'\xc3\x87e\xc5\x9fme'
p542
(lp543
S'2343885'
p544
asS'\xc3\x9cz\xc3\xbcml\xc3\xbc'
p545
(lp546
S'2340285'
p547
asS'\xc3\x87ifteler'
p548
(lp549
S'2343893'
p550
asS'\xc5\x9arem'
p551
(lp552
S'519521'
p553
asS'\xc3\x9ajfeh\xc3\xa9rt\xc3\xb3'
p554
(lp555
S'816959'
p556
asS'\xc3\x84ht\xc3\xa4ri'
p557
(lp558
S'563986'
p559
asS"'Ain Deheb"
p560
(lp561
S'1252743'
p562
asS'\xc5\xa2\xc4\x83nd\xc4\x83rei'
p563
(lp564
S'881479'
p565
asS'\xc3\x89gly'
p566
(lp567
S'589545'
p568
asS'\xc4\xb0skilip'
p569
(lp570
S'2344111'
p571
asS'\xc5\x9awidwin'
p572
(lp573
S'521168'
p574
asS'\xc3\x87orum'
p575
(lp576
S'2343904'
p577
asS'\xc3\x89pernay'
p578
(lp579
S'589760'
p580
asS'\xc4\x8coka'
p581
(lp582
S'533180'
p583
asS'\xc3\x87ankaya'
p584
(lp585
S'2313873'
p586
asS'\xc5\x81\xc4\x99czyca'
p587
(lp588
S'504113'
p589
asS'\xc3\x89merainville'
p590
(lp591
S'589617'
p592
asS'\xc4\xb0skenderun'
p593
(lp594
S'2344110'
p595
asS'\xc3\x89pinay-sous-S\xc3\xa9nart'
p596
(lp597
S'589790'
p598
asS'\xc3\x85tvidaberg'
p599
(lp600
S'885498'
p601
asS'\xc3\x87ine'
p602
(lp603
S'2343897'
p604
asS'\xc5\xbbyrard\xc3\xb3w'
p605
(lp606
S'529437'
p607
asS'\xc5\x81ask'
p608
(lp609
S'503787'
p610
asS"\xc3\x89caussinnes-d'Enghien"
p611
(lp612
S'969206'
p613
asS'\xc3\x81gueda'
p614
(lp615
S'735485'
p616
asS'\xc3\x89vreux'
p617
(lp618
S'590391'
p619
asS'\xc5\xbd\xc4\x8f\xc3\xa1r nad S\xc3\xa1zavou'
p620
(lp621
S'801895'
p622
asS'\xc5\xbdilina'
p623
(lp624
S'823382'
p625
asS'\xc3\x89ragny'
p626
(lp627
S'589852'
p628
asS'\xc4\xb0spir'
p629
(lp630
S'2344115'
p631
asS'\xc4\xb0mranl\xc4\xb1'
p632
(lp633
S'2324149'
p634
asS'\xc3\x89bora'
p635
(lp636
S'740795'
p637
asS'\xc4\x8capljina'
p638
(lp639
S'941028'
p640
asS'\xc3\x87ank\xc4\xb1r\xc4\xb1'
p641
(lp642
S'2343862'
p643
asS'\xc5\xa0\xc4\xabndand'
p644
(lp645
S'1932710'
p646
asS'\xc3\x81ngel Albino Corzo'
p647
(lp648
S'112153'
p649
asS'\xc3\x89cully'
p650
(lp651
S'589504'
p652
asS'\xc5\x90rbotty\xc3\xa1n'
p653
(lp654
S'813094'
p655
asS'\xc5\xbbywiec'
p656
(lp657
S'529462'
p658
asS'\xc3\x9cll\xc5\x91'
p659
(lp660
S'817254'
p661
asS'\xc4\x8cakovec'
p662
(lp663
S'847109'
p664
asS'\xc3\x9ast\xc3\xad nad Orlic\xc3\xad'
p665
(lp666
S'800261'
p667
asS'\xc4\x8crnomelj'
p668
(lp669
S'529779'
p670
asS'\xc3\x87an'
p671
(lp672
S'2343858'
p673
asS'\xc3\x87ermik'
p674
(lp675
S'2343884'
p676
asS'\xc3\x89gletons'
p677
(lp678
S'589535'
p679
asS'\xc3\x98lstykke'
p680
(lp681
S'556101'
p682
asS'\xc4\xb0dil'
p683
(lp684
S'2344093'
p685
asS'\xc5\x81apy'
p686
(lp687
S'503743'
p688
asS'\xc5\x81a\xc5\x84cut'
p689
(lp690
S'503699'
p691
asS'\xc4\x8calovo'
p692
(lp693
S'818871'
p694
asS'\xc3\x87orovod\xc3\xab'
p695
(lp696
S'469524'
p697
asS'\xc3\x9cberherrn'
p698
(lp699
S'700330'
p700
asS'\xc3\x89pinal'
p701
(lp702
S'589784'
p703
asS'\xc3\x87ar\xc5\x9famba'
p704
(lp705
S'2343864'
p706
asS'\xc3\x87erke\xc5\x9f'
p707
(lp708
S'2343882'
p709
asS'\xc4\x8cesk\xc3\xbd Brod'
p710
(lp711
S'787475'
p712
asS'\xc3\x87ayeli'
p713
(lp714
S'2343876'
p715
asS'\xc4\xb0yidere'
p716
(lp717
S'2324627'
p718
asS'\xc3\x87\xc4\xb1narc\xc4\xb1k'
p719
(lp720
S'2315322'
p721
asS'\xc5\xbbary'
p722
(lp723
S'527963'
p724
asS'\xc3\x81brego'
p725
(lp726
S'368249'
p727
asS'\xc3\x9cnye'
p728
(lp729
S'2344471'
p730
asS'\xc3\x85karp'
p731
(lp732
S'884568'
p733
asS'\xc3\x93csa'
p734
(lp735
S'812980'
p736
asS'\xc3\x89p\xc3\xb4ne'
p737
(lp738
S'589820'
p739
asS'\xc3\x96rebro'
p740
(lp741
S'900751'
p742
asS'\xc5\x81omianki'
p743
(lp744
S'505151'
p745
asS'\xc5\xbdabalj'
p746
(lp747
S'537648'
p748
asS'\xc5\x81\xc4\x99czna'
p749
(lp750
S'504106'
p751
as.