(dp1
S'Montespertoli'
p2
(lp3
S'718979'
p4
asS'Markt Schwaben'
p5
(lp6
S'674024'
p7
asS'Manakara'
p8
(lp9
S'1362273'
p10
asS'Mendota Heights'
p11
(lp12
S'2449415'
p13
asS'Mondariz'
p14
(lp15
S'767431'
p16
asS'Machecoul'
p17
(lp18
S'609146'
p19
asS'Makuyuni'
p20
(lp21
S'1446373'
p22
asS'M\xc3\xb6r\xc3\xb6n'
p23
(lp24
S'2266556'
p25
asS'Middlewich'
p26
(lp27
S'28915'
p28
asS'Moreira'
p29
(lp30
S'744247'
p31
asS'M\xc3\xbclheim'
p32
(lp33
S'676690'
p34
asS'Mimizan'
p35
(lp36
S'611554'
p37
asS'Mandla'
p38
(lp39
S'29026419'
p40
asS'Merlo'
p41
(lp42
S'465829'
p43
asS'Mattydale'
p44
(lp45
S'2446941'
p46
asS'Manacor'
p47
(lp48
S'766422'
p49
asS'Montrose'
p50
(lp51
S'1097355'
p52
aS'29254'
p53
aS'2453545'
p54
aS'2453545'
p55
asS'Maracena'
p56
(lp57
S'757353'
p58
asS'Morant Bay'
p59
(lp60
S'109467'
p61
asS'Matadepera'
p62
(lp63
S'766794'
p64
asS'Minalin'
p65
(lp66
S'1183372'
p67
asS'Meerhout'
p68
(lp69
S'974096'
p70
asS'Manhattan Beach'
p71
(lp72
S'2444772'
p73
asS'Malinyi'
p74
(lp75
S'1446409'
p76
asS'Muskego'
p77
(lp78
S'2456610'
p79
asS'Meylan'
p80
(lp81
S'611371'
p82
asS'Mirpur Mathelo'
p83
(lp84
S'2203663'
p85
asS'Mokhotlong'
p86
(lp87
S'1352413'
p88
asS'Mandra'
p89
(lp90
S'956100'
p91
asS'Maragogipe'
p92
(lp93
S'457537'
p94
asS'Mercogliano'
p95
(lp96
S'718245'
p97
asS'Myrtle Beach'
p98
(lp99
S'2456750'
p100
asS'Machala'
p101
(lp102
S'375735'
p103
asS'Murowana Go\xc5\x9blina'
p104
(lp105
S'508463'
p106
asS'Moorpark'
p107
(lp108
S'2453859'
p109
asS'Mokokchung'
p110
(lp111
S'2289139'
p112
asS'Morangis'
p113
(lp114
S'613186'
p115
asS'Massa di Somma'
p116
(lp117
S'20131054'
p118
asS'Mendeleyevsk'
p119
(lp120
S'2122165'
p121
asS'Maruggio'
p122
(lp123
S'717998'
p124
asS'Montlu\xc3\xa7on'
p125
(lp126
S'612875'
p127
asS'Massagno'
p128
(lp129
S'783274'
p130
asS'Mahavelona'
p131
(lp132
S'1497632'
p133
asS'Mbala'
p134
(lp135
S'1569945'
p136
asS'Maryport'
p137
(lp138
S'28499'
p139
asS'Moravsk\xc3\xa1 T\xc5\x99ebov\xc3\xa1'
p140
(lp141
S'794226'
p142
asS'Minnetonka'
p143
(lp144
S'2452147'
p145
asS'Muzaffarpur'
p146
(lp147
S'29085798'
p148
asS'Montb\xc3\xa9liard'
p149
(lp150
S'612355'
p151
asS'Mayna'
p152
(lp153
S'2122131'
p154
aS'2122131'
p155
asS'Metairie'
p156
(lp157
S'2449881'
p158
asS'Mechanicsburg'
p159
(lp160
S'2448830'
p161
asS'Moraz\xc3\xa1n'
p162
(lp163
S'105357'
p164
asS'Montblanc'
p165
(lp166
S'767525'
p167
asS'Montanhas'
p168
(lp169
S'440592'
p170
asS'Mutlangen'
p171
(lp172
S'676976'
p173
asS'Murgud'
p174
(lp175
S'2292891'
p176
asS'Matel\xc3\xa2ndia'
p177
(lp178
S'460093'
p179
asS'Monte Patria'
p180
(lp181
S'349932'
p182
asS'Mhango'
p183
(lp184
S'1447064'
p185
asS'Maihar'
p186
(lp187
S'2289802'
p188
asS'Marcaria'
p189
(lp190
S'717837'
p191
asS'Millersville'
p192
(lp193
S'2451418'
p194
aS'2451418'
p195
asS'Manston'
p196
(lp197
S'28267'
p198
asS'Mbanza-Ngungu'
p199
(lp200
S'1292961'
p201
asS'Mkuranga'
p202
(lp203
S'1447417'
p204
asS'Monforte de Lemos'
p205
(lp206
S'767461'
p207
asS'Mountlake Terrace'
p208
(lp209
S'2456005'
p210
asS'Maradi'
p211
(lp212
S'1381598'
p213
asS'Mojokerto'
p214
(lp215
S'1047936'
p216
asS'Mamuju'
p217
(lp218
S'1037827'
p219
asS'Muri'
p220
(lp221
S'783450'
p222
aS'783450'
p223
aS'29069010'
p224
asS'M\xc3\xbcnster'
p225
(lp226
S'676867'
p227
aS'676867'
p228
asS'M\xc3\xbcden'
p229
(lp230
S'676410'
p231
asS'Merrill'
p232
(lp233
S'2449683'
p234
asS'Monte Compatri'
p235
(lp236
S'718690'
p237
asS'Muro'
p238
(lp239
S'768073'
p240
asS'Markt Erlbach'
p241
(lp242
S'674020'
p243
asS'Morata de Taju\xc3\xb1a'
p244
(lp245
S'767768'
p246
asS'Murg'
p247
(lp248
S'676901'
p249
asS'Mangawan'
p250
(lp251
S'29105399'
p252
asS'Mbulu'
p253
(lp254
S'1446852'
p255
asS'Mint Hill'
p256
(lp257
S'2452210'
p258
asS'Mirago\xc3\xa2ne'
p259
(lp260
S'94381'
p261
asS'Murr'
p262
(lp263
S'676916'
p264
asS'Media\xc5\x9f'
p265
(lp266
S'875535'
p267
asS'Murom'
p268
(lp269
S'2122299'
p270
asS'Motygino'
p271
(lp272
S'2122271'
p273
asS'Malnate'
p274
(lp275
S'717750'
p276
asS'Molalla'
p277
(lp278
S'2452758'
p279
asS'Madugula'
p280
(lp281
S'2293774'
p282
asS'Mongagu\xc3\xa1'
p283
(lp284
S'460161'
p285
asS'Messina'
p286
(lp287
S'718268'
p288
aS'1584914'
p289
asS'Madruga'
p290
(lp291
S'65151'
p292
asS'Muros'
p293
(lp294
S'768081'
p295
asS'Montecillo'
p296
(lp297
S'134021'
p298
asS'Morole\xc3\xb3n'
p299
(lp300
S'134142'
p301
asS'Maruim'
p302
(lp303
S'460082'
p304
asS'M\xc3\xbccheln'
p305
(lp306
S'676376'
p307
asS'Misilmeri'
p308
(lp309
S'718409'
p310
asS'Macap\xc3\xa1'
p311
(lp312
S'438932'
p313
asS'Meda'
p314
(lp315
S'718153'
p316
asS'Muang Xaignabouri'
p317
(lp318
S'1140579'
p319
asS'Milovice'
p320
(lp321
S'793958'
p322
asS'Michurinsk'
p323
(lp324
S'2045375'
p325
asS'Mexborough'
p326
(lp327
S'28783'
p328
asS'Magnitogorsk'
p329
(lp330
S'2122044'
p331
asS'Maner'
p332
(lp333
S'2288816'
p334
asS'Meinersen'
p335
(lp336
S'674613'
p337
asS'Montego Bay'
p338
(lp339
S'109455'
p340
asS'Mezhdurechensk'
p341
(lp342
S'2045270'
p343
asS'Mi\xc4\x99dzych\xc3\xb3d'
p344
(lp345
S'507269'
p346
asS'Montigny-le-Bretonneux'
p347
(lp348
S'612774'
p349
asS'Mions'
p350
(lp351
S'611579'
p352
asS'Marfil'
p353
(lp354
S'132971'
p355
asS'Mery'
p356
(lp357
S'828455'
p358
asS'Meghraj'
p359
(lp360
S'2291717'
p361
asS'Mokena'
p362
(lp363
S'2452752'
p364
asS'Maragogi'
p365
(lp366
S'460062'
p367
asS'Minnehaha'
p368
(lp369
S'2452118'
p370
asS'Meru'
p371
(lp372
S'1528272'
p373
asS'M\xc3\xb6glingen'
p374
(lp375
S'675776'
p376
asS'Mogliano Veneto'
p377
(lp378
S'718447'
p379
asS'Magaramkent'
p380
(lp381
S'2039636'
p382
asS'Medinipur'
p383
(lp384
S'29011322'
p385
asS'M\xc3\xbcllheim'
p386
(lp387
S'676724'
p388
asS'Mahayag'
p389
(lp390
S'1199547'
p391
asS'Mohan'
p392
(lp393
S'29026831'
p394
asS'Mapusa'
p395
(lp396
S'2292929'
p397
asS'Montemarciano'
p398
(lp399
S'718899'
p400
asS'Montvale'
p401
(lp402
S'2453584'
p403
asS'Merced'
p404
(lp405
S'2449492'
p406
asS'Martapura'
p407
(lp408
S'1047896'
p409
asS'Moapa Valley'
p410
(lp411
S'23417685'
p412
asS'Mount Ivy'
p413
(lp414
S'2455051'
p415
asS'Mardin'
p416
(lp417
S'2344252'
p418
asS'Mankachar'
p419
(lp420
S'2282004'
p421
asS'Matongo'
p422
(lp423
S'1446695'
p424
asS'Machinga'
p425
(lp426
S'1367547'
p427
asS'Mandal'
p428
(lp429
S'29055312'
p430
aS'29055312'
p431
aS'861639'
p432
asS'Mandan'
p433
(lp434
S'2444710'
p435
asS'Malegaon'
p436
(lp437
S'29027869'
p438
asS'Macerata Campania'
p439
(lp440
S'717573'
p441
asS'Madre de Deus'
p442
(lp443
S'439035'
p444
asS'Mirzapur'
p445
(lp446
S'1915150'
p447
aS'29003445'
p448
asS'Malton'
p449
(lp450
S'28206'
p451
asS'Mudu'
p452
(lp453
S'2135563'
p454
asS'Malemort-sur-Corr\xc3\xa8ze'
p455
(lp456
S'609496'
p457
asS'Mirfield'
p458
(lp459
S'29122'
p460
asS'Miranda'
p461
(lp462
S'1103973'
p463
aS'440337'
p464
aS'368346'
p465
asS'Monte San Giusto'
p466
(lp467
S'718740'
p468
asS'Magelang'
p469
(lp470
S'1047829'
p471
asS'Montescaglioso'
p472
(lp473
S'718970'
p474
asS'Melvindale'
p475
(lp476
S'2449302'
p477
asS'Meadows Place'
p478
(lp479
S'23418090'
p480
asS'Marlin'
p481
(lp482
S'2445938'
p483
asS'Mungeli'
p484
(lp485
S'2289536'
p486
asS'Margahayu'
p487
(lp488
S'1038039'
p489
asS'Mordovo'
p490
(lp491
S'2122245'
p492
asS'Matlock'
p493
(lp494
S'28523'
p495
asS'Mishawaka'
p496
(lp497
S'2452302'
p498
asS'Mijdrecht'
p499
(lp500
S'731701'
p501
asS'Mill Valley'
p502
(lp503
S'2451166'
p504
asS'Mamoudzou'
p505
(lp506
S'1365571'
p507
asS'Midvale'
p508
(lp509
S'2450527'
p510
asS'M\xc3\xa9ry-sur-Oise'
p511
(lp512
S'611201'
p513
asS'Momp\xc3\xb3s'
p514
(lp515
S'368218'
p516
asS'Monterrey'
p517
(lp518
S'369151'
p519
aS'134047'
p520
asS'Massaguet'
p521
(lp522
S'1276808'
p523
asS'Minusio'
p524
(lp525
S'783342'
p526
asS'Montevista'
p527
(lp528
S'1183663'
p529
asS'Maria Enzersdorf'
p530
(lp531
S'542745'
p532
asS'Montgomery'
p533
(lp534
S'2453346'
p535
aS'2453346'
p536
aS'2453346'
p537
asS'Magdalena de Kino'
p538
(lp539
S'132671'
p540
asS'Marrero'
p541
(lp542
S'2446023'
p543
asS'Mollet del Vall\xc3\xa8s'
p544
(lp545
S'767393'
p546
asS'Moga'
p547
(lp548
S'2294979'
p549
asS'Mayma'
p550
(lp551
S'2044191'
p552
asS'Moji-Gua\xc3\xa7u'
p553
(lp554
S'440525'
p555
asS'Markt Indersdorf'
p556
(lp557
S'674021'
p558
asS'Manawar'
p559
(lp560
S'2292492'
p561
asS'Menziken'
p562
(lp563
S'783315'
p564
asS'Malchin'
p565
(lp566
S'673558'
p567
asS'Mudkhed'
p568
(lp569
S'2293288'
p570
asS'Mandideep'
p571
(lp572
S'2276821'
p573
asS'Malabo'
p574
(lp575
S'1480564'
p576
asS'Mytishchi'
p577
(lp578
S'2049319'
p579
asS'Mazamet'
p580
(lp581
S'610713'
p582
asS'Moquegua'
p583
(lp584
S'418556'
p585
asS'Makokou'
p586
(lp587
S'1324338'
p588
asS'Montfoort'
p589
(lp590
S'731786'
p591
asS'Murrhardt'
p592
(lp593
S'676917'
p594
asS'Manjeri'
p595
(lp596
S'2295325'
p597
asS'Maibud'
p598
(lp599
S'2238202'
p600
asS'Mobile'
p601
(lp602
S'2452562'
p603
asS'Macia'
p604
(lp605
S'1549406'
p606
asS'Mirik'
p607
(lp608
S'2282386'
p609
asS'Mendham'
p610
(lp611
S'2449394'
p612
asS'Marseille'
p613
(lp614
S'610264'
p615
asS'Mannargudi'
p616
(lp617
S'29079717'
p618
asS'Mexia'
p619
(lp620
S'2449963'
p621
asS'Miguel Calmon'
p622
(lp623
S'457581'
p624
asS'Madanapalle'
p625
(lp626
S'29139120'
p627
asS'Minas de Barroteran'
p628
(lp629
S'55902151'
p630
asS'Milas'
p631
(lp632
S'2344268'
p633
asS'M\xc3\xbcrzzuschlag'
p634
(lp635
S'549245'
p636
asS'Mascoutah'
p637
(lp638
S'2446614'
p639
asS'Mering'
p640
(lp641
S'674856'
p642
asS'Munford'
p643
(lp644
S'2456319'
p645
asS'Muzaffargarh'
p646
(lp647
S'2211279'
p648
asS'Milak'
p649
(lp650
S'29059292'
p651
asS'Magugu'
p652
(lp653
S'1446229'
p654
asS'Merate'
p655
(lp656
S'718228'
p657
asS'Monistrol-sur-Loire'
p658
(lp659
S'611989'
p660
asS'Malmyzh'
p661
(lp662
S'2122079'
p663
asS'Mystic Islands'
p664
(lp665
S'2456794'
p666
asS'Marmaraere\xc4\x9flisi'
p667
(lp668
S'2344253'
p669
asS'Mainburg'
p670
(lp671
S'673498'
p672
asS'Maneromango'
p673
(lp674
S'1446476'
p675
asS'Mufumbwe'
p676
(lp677
S'1570720'
p678
asS'Mariahu'
p679
(lp680
S'2288821'
p681
asS'Mirria'
p682
(lp683
S'1381816'
p684
asS'Mandapam'
p685
(lp686
S'29142012'
p687
asS'Matamey'
p688
(lp689
S'1381635'
p690
asS'Molinella'
p691
(lp692
S'718476'
p693
asS'Mukwonago'
p694
(lp695
S'2456179'
p696
asS'Moguer'
p697
(lp698
S'767331'
p699
asS'Mairena del Aljarafe'
p700
(lp701
S'766339'
p702
asS'Matur\xc3\xadn'
p703
(lp704
S'468384'
p705
asS'Mataundh'
p706
(lp707
S'2288841'
p708
asS'Marhaura'
p709
(lp710
S'2289340'
p711
asS'Mariano Comense'
p712
(lp713
S'717881'
p714
asS'Masaurhi'
p715
(lp716
S'2282143'
p717
asS'Miskolc'
p718
(lp719
S'812036'
p720
asS'Morris'
p721
(lp722
S'2454245'
p723
aS'2454245'
p724
asS'Mulvane'
p725
(lp726
S'2456274'
p727
asS'Maldonado'
p728
(lp729
S'468065'
p730
asS'Monsanto'
p731
(lp732
S'743730'
p733
asS'M\xc3\xbcnden'
p734
(lp735
S'676816'
p736
asS'Murree'
p737
(lp738
S'2211273'
p739
asS'Monessen'
p740
(lp741
S'2452884'
p742
asS'Marble Falls'
p743
(lp744
S'2505118'
p745
asS'Maumere'
p746
(lp747
S'1047905'
p748
asS'Mugardos'
p749
(lp750
S'767963'
p751
asS'Mira Loma'
p752
(lp753
S'2452248'
p754
asS'Marinette'
p755
(lp756
S'2445735'
p757
asS'Modasa'
p758
(lp759
S'2291709'
p760
asS'Mbamba Bay'
p761
(lp762
S'1446790'
p763
asS'Mashhad'
p764
(lp765
S'2254914'
p766
asS'Manthani'
p767
(lp768
S'29134593'
p769
asS'Montevallo'
p770
(lp771
S'2453307'
p772
asS'Marrakesh'
p773
(lp774
S'1537782'
p775
asS'Mossley'
p776
(lp777
S'29424'
p778
asS'Maahlahti'
p779
(lp780
S'569354'
p781
asS'Mairena del Alcor'
p782
(lp783
S'766338'
p784
asS'Maqat'
p785
(lp786
S'2260091'
p787
asS'Madhipura'
p788
(lp789
S'2295445'
p790
asS'Murrysville'
p791
(lp792
S'2456563'
p793
asS'Medina'
p794
(lp795
S'456330'
p796
aS'133264'
p797
aS'1199523'
p798
aS'2448957'
p799
aS'2448957'
p800
asS'Manises'
p801
(lp802
S'766454'
p803
asS'Matalam'
p804
(lp805
S'1199502'
p806
asS'Montebello Ionico'
p807
(lp808
S'718763'
p809
asS'Mejorada del Campo'
p810
(lp811
S'767002'
p812
asS'Middle Valley'
p813
(lp814
S'2450247'
p815
asS'Mortagne-sur-S\xc3\xa8vre'
p816
(lp817
S'613317'
p818
asS'Mesa'
p819
(lp820
S'2449803'
p821
asS'Mapandan'
p822
(lp823
S'1182230'
p824
asS'Montemor-o-Novo'
p825
(lp826
S'744180'
p827
asS'Mestrino'
p828
(lp829
S'718270'
p830
asS'Manavadar'
p831
(lp832
S'2291897'
p833
asS'Menemeni'
p834
(lp835
S'956788'
p836
asS'Mallapuram'
p837
(lp838
S'29080689'
p839
asS'Malappuram'
p840
(lp841
S'2294475'
p842
asS'Monreale'
p843
(lp844
S'718599'
p845
asS'Malden'
p846
(lp847
S'2444442'
p848
asS'Moundou'
p849
(lp850
S'1277318'
p851
asS'Meuselwitz'
p852
(lp853
S'675102'
p854
asS'Muskogee'
p855
(lp856
S'2456621'
p857
asS'Miguel Auza'
p858
(lp859
S'133597'
p860
asS'Muzambinho'
p861
(lp862
S'457649'
p863
asS'M\xc3\xbcnchenbuchsee'
p864
(lp865
S'783437'
p866
asS'Mawana'
p867
(lp868
S'29089026'
p869
asS'Mbale'
p870
(lp871
S'1453742'
p872
asS'Mrakovo'
p873
(lp874
S'2122277'
p875
asS'Meknes'
p876
(lp877
S'1537862'
p878
asS'Malung'
p879
(lp880
S'898115'
p881
asS'Marinhas'
p882
(lp883
S'743175'
p884
asS'Magione'
p885
(lp886
S'717641'
p887
asS'Modica'
p888
(lp889
S'718433'
p890
asS'Martignas-sur-Jalle'
p891
(lp892
S'610308'
p893
asS'Metahara'
p894
(lp895
S'1318905'
p896
asS'Montegranaro'
p897
(lp898
S'718859'
p899
asS'Mucurici'
p900
(lp901
S'457638'
p902
asS'Morrop\xc3\xb3n'
p903
(lp904
S'419040'
p905
asS'Miracatu'
p906
(lp907
S'440310'
p908
asS'Messancy'
p909
(lp910
S'974243'
p911
asS'Moose Jaw'
p912
(lp913
S'2305'
p914
asS'Mallersdorf-Pfaffenberg'
p915
(lp916
S'20155240'
p917
asS'Maribondo'
p918
(lp919
S'457553'
p920
asS'Malm\xc3\xb6'
p921
(lp922
S'898091'
p923
asS'Marengo'
p924
(lp925
S'2445574'
p926
asS'Mariinsk'
p927
(lp928
S'2043161'
p929
asS'Mazyr'
p930
(lp931
S'828404'
p932
asS'Martina Franca'
p933
(lp934
S'717987'
p935
asS'Moers'
p936
(lp937
S'675755'
p938
asS'Morganville'
p939
(lp940
S'2454121'
p941
asS'Maddela'
p942
(lp943
S'1200068'
p944
asS'Mineral del Monte'
p945
(lp946
S'133718'
p947
asS'Murhi'
p948
(lp949
S'29105970'
p950
asS'Magherafelt'
p951
(lp952
S'44984'
p953
asS'Minnetrista'
p954
(lp955
S'2452150'
p956
asS'Moradabad'
p957
(lp958
S'29090662'
p959
asS'Maxixe'
p960
(lp961
S'1550919'
p962
asS'Midyat'
p963
(lp964
S'2344266'
p965
asS'Maramag'
p966
(lp967
S'1199489'
p968
asS'Mason City'
p969
(lp970
S'2446662'
p971
asS'Moche'
p972
(lp973
S'419028'
p974
asS'Montauban'
p975
(lp976
S'612306'
p977
asS'Mahishadal'
p978
(lp979
S'2290035'
p980
asS'Mutum Biyu'
p981
(lp982
S'1400890'
p983
asS'Munkebo'
p984
(lp985
S'555658'
p986
asS'Mironovka'
p987
(lp988
S'927167'
p989
asS'Montefalco'
p990
(lp991
S'718825'
p992
asS'Mr\xc4\x85gowo'
p993
(lp994
S'508351'
p995
asS'Mehrabpur'
p996
(lp997
S'2203346'
p998
asS'Muisne'
p999
(lp1000
S'375875'
p1001
asS'Mildenhall'
p1002
(lp1003
S'28951'
p1004
asS'Marks'
p1005
(lp1006
S'2122111'
p1007
asS'Montargis'
p1008
(lp1009
S'612287'
p1010
asS'Madjenang'
p1011
(lp1012
S'1047825'
p1013
asS'Mobaye'
p1014
(lp1015
S'1309435'
p1016
asS'Majadahonda'
p1017
(lp1018
S'766342'
p1019
asS'Montecorvino Pugliano'
p1020
(lp1021
S'22745665'
p1022
asS'Maynooth'
p1023
(lp1024
S'561669'
p1025
asS'Morbegno'
p1026
(lp1027
S'719077'
p1028
asS'Montemiletto'
p1029
(lp1030
S'718907'
p1031
asS'Motozintla de Mendoza'
p1032
(lp1033
S'134176'
p1034
asS'Montigny-l\xc3\xa8s-Metz'
p1035
(lp1036
S'612787'
p1037
asS'Monterey'
p1038
(lp1039
S'2453253'
p1040
asS'Moura'
p1041
(lp1042
S'744364'
p1043
asS'Manosque'
p1044
(lp1045
S'609700'
p1046
asS'Mau\xc3\xa1'
p1047
(lp1048
S'440067'
p1049
asS'Millville'
p1050
(lp1051
S'2451639'
p1052
asS'Majholi'
p1053
(lp1054
S'29178073'
p1055
asS'Mittenaar'
p1056
(lp1057
S'675597'
p1058
asS'Mondlo'
p1059
(lp1060
S'1585280'
p1061
asS'Mouila'
p1062
(lp1063
S'1483933'
p1064
asS'Mtimbira'
p1065
(lp1066
S'1447853'
p1067
asS'Mohanpur'
p1068
(lp1069
S'29001301'
p1070
asS'Monz\xc3\xb3n'
p1071
(lp1072
S'767711'
p1073
asS'Mattoon'
p1074
(lp1075
S'2446929'
p1076
asS'Magpet'
p1077
(lp1078
S'1200006'
p1079
asS'Moore'
p1080
(lp1081
S'2453702'
p1082
asS'Manlleu'
p1083
(lp1084
S'766461'
p1085
asS"Marhanets'"
p1086
(lp1087
S'926508'
p1088
asS'Melissano'
p1089
(lp1090
S'718200'
p1091
asS'Mariampol\xc4\x97'
p1092
(lp1093
S'476305'
p1094
asS'Mozzo'
p1095
(lp1096
S'20149786'
p1097
asS'M\xc3\xa2ncio Lima'
p1098
(lp1099
S'439275'
p1100
asS'Mammoth Lakes'
p1101
(lp1102
S'2444595'
p1103
asS'Macalelon'
p1104
(lp1105
S'1200024'
p1106
asS'Mnichovo Hradi\xc5\xa1t\xc4\x9b'
p1107
(lp1108
S'794120'
p1109
asS'Moyuta'
p1110
(lp1111
S'84553'
p1112
asS'Malsch'
p1113
(lp1114
S'673610'
p1115
asS'Maidenhead'
p1116
(lp1117
S'28159'
p1118
asS'Munnar'
p1119
(lp1120
S'55864443'
p1121
asS'Mendon'
p1122
(lp1123
S'2449397'
p1124
asS'Manikpur'
p1125
(lp1126
S'29001905'
p1127
asS'Manihari'
p1128
(lp1129
S'29022745'
p1130
asS'Muncar'
p1131
(lp1132
S'1048840'
p1133
asS'Mauguio'
p1134
(lp1135
S'610541'
p1136
asS'Mamburao'
p1137
(lp1138
S'1199460'
p1139
asS'Montgomery Village'
p1140
(lp1141
S'2453417'
p1142
asS'Mbeni'
p1143
(lp1144
S'1306093'
p1145
asS'Macultepec'
p1146
(lp1147
S'132627'
p1148
asS'Mozarl\xc3\xa2ndia'
p1149
(lp1150
S'441022'
p1151
asS'Mergui'
p1152
(lp1153
S'1017608'
p1154
asS'Mejicanos'
p1155
(lp1156
S'79064'
p1157
asS'Mundo Nuevo'
p1158
(lp1159
S'55886520'
p1160
asS'Maule'
p1161
(lp1162
S'610548'
p1163
asS'Makarov'
p1164
(lp1165
S'2122049'
p1166
asS'Mudau'
p1167
(lp1168
S'676407'
p1169
asS'M\xc3\xb6dling'
p1170
(lp1171
S'542845'
p1172
asS'Minden'
p1173
(lp1174
S'675337'
p1175
aS'2451917'
p1176
asS'Machakos'
p1177
(lp1178
S'1528075'
p1179
asS'Mianwali'
p1180
(lp1181
S'2211241'
p1182
asS'Mubi'
p1183
(lp1184
S'1400758'
p1185
asS'Mineiros'
p1186
(lp1187
S'456331'
p1188
asS'Marksville'
p1189
(lp1190
S'2445872'
p1191
asS'Mount Carmel'
p1192
(lp1193
S'2454814'
p1194
aS'2454814'
p1195
aS'2454814'
p1196
asS'Manapla'
p1197
(lp1198
S'1181671'
p1199
asS'Mandasa'
p1200
(lp1201
S'2293689'
p1202
asS'Mazabuka'
p1203
(lp1204
S'1569925'
p1205
asS'Mulanje'
p1206
(lp1207
S'1368396'
p1208
asS'Manamadurai'
p1209
(lp1210
S'2294659'
p1211
asS'Melenci'
p1212
(lp1213
S'535380'
p1214
asS'Mallow'
p1215
(lp1216
S'561648'
p1217
asS'Merzifon'
p1218
(lp1219
S'2344263'
p1220
asS'Mairipor\xc3\xa3'
p1221
(lp1222
S'439065'
p1223
asS'Muro del Alcoy'
p1224
(lp1225
S'768078'
p1226
asS'Maykop'
p1227
(lp1228
S'2044177'
p1229
asS'Manisa'
p1230
(lp1231
S'2344250'
p1232
asS'Mu\xc4\x9fla'
p1233
(lp1234
S'2344271'
p1235
asS'Maine-Soroa'
p1236
(lp1237
S'1381503'
p1238
asS'Mineola'
p1239
(lp1240
S'2451929'
p1241
aS'2451929'
p1242
asS'Mahebourg'
p1243
(lp1244
S'1377381'
p1245
asS'Muscat'
p1246
(lp1247
S'2268284'
p1248
asS'Montanha'
p1249
(lp1250
S'460163'
p1251
asS'Meudon'
p1252
(lp1253
S'611329'
p1254
asS'Mirebalais'
p1255
(lp1256
S'94388'
p1257
asS'Manaus'
p1258
(lp1259
S'457518'
p1260
asS'Mareeba'
p1261
(lp1262
S'1103693'
p1263
asS'Montville Center'
p1264
(lp1265
S'2453597'
p1266
asS'Mutare'
p1267
(lp1268
S'1467360'
p1269
asS'Mendali'
p1270
(lp1271
S'1979515'
p1272
asS'Mafinga'
p1273
(lp1274
S'1446177'
p1275
asS'Monte Plata'
p1276
(lp1277
S'75381'
p1278
asS'Monte Caseros'
p1279
(lp1280
S'467009'
p1281
asS'Matera'
p1282
(lp1283
S'718113'
p1284
asS'Motril'
p1285
(lp1286
S'767902'
p1287
asS'Manggar'
p1288
(lp1289
S'1047869'
p1290
asS'Marineo'
p1291
(lp1292
S'717937'
p1293
asS'Meythet'
p1294
(lp1295
S'611402'
p1296
asS'Mopti'
p1297
(lp1298
S'1374216'
p1299
asS'Militello in Val di Catania'
p1300
(lp1301
S'718358'
p1302
asS'Momignies'
p1303
(lp1304
S'974462'
p1305
asS'Martos'
p1306
(lp1307
S'766665'
p1308
asS'Meulan'
p1309
(lp1310
S'611333'
p1311
asS'Magl\xc3\xb3d'
p1312
(lp1313
S'811335'
p1314
asS'Mourmelon-le-Grand'
p1315
(lp1316
S'613519'
p1317
asS'Mistelbach'
p1318
(lp1319
S'542811'
p1320
asS'Moju'
p1321
(lp1322
S'440526'
p1323
asS'Manage'
p1324
(lp1325
S'973913'
p1326
asS'Madhogarh'
p1327
(lp1328
S'29017891'
p1329
aS'29017891'
p1330
asS'Mehkar'
p1331
(lp1332
S'29206226'
p1333
asS'Moritzburg'
p1334
(lp1335
S'676197'
p1336
asS'M\xe1\xbb\xb9 Tho'
p1337
(lp1338
S'1252498'
p1339
asS'Mojo'
p1340
(lp1341
S'1482647'
p1342
asS'Marske-by-the-Sea'
p1343
(lp1344
S'28428'
p1345
asS'Mainpuri'
p1346
(lp1347
S'29178046'
p1348
asS'Melendugno'
p1349
(lp1350
S'718182'
p1351
asS'Mapastepec'
p1352
(lp1353
S'132935'
p1354
asS'Mouvaux'
p1355
(lp1356
S'613608'
p1357
asS'Mena'
p1358
(lp1359
S'2449368'
p1360
asS'Midland Park'
p1361
(lp1362
S'2450500'
p1363
asS'Moosic'
p1364
(lp1365
S'2453880'
p1366
asS'Maharajganj'
p1367
(lp1368
S'29020033'
p1369
aS'29020033'
p1370
aS'29020033'
p1371
aS'29020033'
p1372
asS'Mansar'
p1373
(lp1374
S'29165025'
p1375
asS'Mendota'
p1376
(lp1377
S'2449407'
p1378
aS'2449407'
p1379
asS'Maicao'
p1380
(lp1381
S'368338'
p1382
asS'Mahwa'
p1383
(lp1384
S'29123102'
p1385
asS'Markfield'
p1386
(lp1387
S'28354'
p1388
asS'Mizan Teferi'
p1389
(lp1390
S'1319017'
p1391
asS'Mae Sot'
p1392
(lp1393
S'1226037'
p1394
asS'Mariveles'
p1395
(lp1396
S'1199497'
p1397
asS'Muramvya'
p1398
(lp1399
S'1270482'
p1400
asS'Montemurlo'
p1401
(lp1402
S'718911'
p1403
asS'Moyobamba'
p1404
(lp1405
S'409250'
p1406
asS'Mitha Tiwana'
p1407
(lp1408
S'2211256'
p1409
asS'Morganton'
p1410
(lp1411
S'2454095'
p1412
asS'Montoir-de-Bretagne'
p1413
(lp1414
S'612943'
p1415
asS'Marshfield'
p1416
(lp1417
S'2446173'
p1418
aS'2446173'
p1419
aS'2446173'
p1420
asS'Minjur'
p1421
(lp1422
S'2282376'
p1423
asS'Marguerittes'
p1424
(lp1425
S'610001'
p1426
asS'Midsayap'
p1427
(lp1428
S'1199529'
p1429
asS'Mogi das Cruzes'
p1430
(lp1431
S'440495'
p1432
asS'Muineachan'
p1433
(lp1434
S'561791'
p1435
asS'Michelstadt'
p1436
(lp1437
S'675190'
p1438
asS'Mutzig'
p1439
(lp1440
S'613765'
p1441
asS'Mittenwald'
p1442
(lp1443
S'675601'
p1444
asS'Monsey'
p1445
(lp1446
S'2453086'
p1447
asS'Mairinque'
p1448
(lp1449
S'456314'
p1450
asS'Moreira Sales'
p1451
(lp1452
S'440834'
p1453
asS'Mysore'
p1454
(lp1455
S'2295421'
p1456
asS'Malvik'
p1457
(lp1458
S'861638'
p1459
asS'Marvejols'
p1460
(lp1461
S'610363'
p1462
asS'Mambajao'
p1463
(lp1464
S'1199458'
p1465
asS'Marina del Rey'
p1466
(lp1467
S'2445713'
p1468
asS'Masaya'
p1469
(lp1470
S'153533'
p1471
asS'Monjas'
p1472
(lp1473
S'84506'
p1474
asS'Martorell'
p1475
(lp1476
S'766663'
p1477
asS'Montignoso'
p1478
(lp1479
S'719031'
p1480
asS'Manyas'
p1481
(lp1482
S'2344251'
p1483
asS'Mota del Cuervo'
p1484
(lp1485
S'767896'
p1486
asS'Motala'
p1487
(lp1488
S'898833'
p1489
asS'Mikhaylovgrad'
p1490
(lp1491
S'838082'
p1492
asS'Monsummano'
p1493
(lp1494
S'718608'
p1495
asS'Mequon'
p1496
(lp1497
S'2449486'
p1498
asS'Mbengwi'
p1499
(lp1500
S'1303088'
p1501
asS'Malangali'
p1502
(lp1503
S'1446389'
p1504
asS'Mamou'
p1505
(lp1506
S'1486724'
p1507
asS'Menlo Park'
p1508
(lp1509
S'2449435'
p1510
asS'Monaco-Ville'
p1511
(lp1512
S'483301'
p1513
asS'Margherita di Savoia'
p1514
(lp1515
S'717875'
p1516
asS'Mebane'
p1517
(lp1518
S'2448812'
p1519
asS'Marsa Matruh'
p1520
(lp1521
S'1525120'
p1522
asS'Menzelinsk'
p1523
(lp1524
S'2122167'
p1525
asS'Malbork'
p1526
(lp1527
S'506316'
p1528
asS'Marchena'
p1529
(lp1530
S'766551'
p1531
asS'Mongo'
p1532
(lp1533
S'1277203'
p1534
asS'Maniago'
p1535
(lp1536
S'717794'
p1537
asS'Micomeseng'
p1538
(lp1539
S'1311566'
p1540
asS'Malambo'
p1541
(lp1542
S'368528'
p1543
asS'Maryland Heights'
p1544
(lp1545
S'2446533'
p1546
asS'Miguel Pereira'
p1547
(lp1548
S'457583'
p1549
asS'Metzingen'
p1550
(lp1551
S'675069'
p1552
asS'M\xc3\xbbrs-Erign\xc3\xa9'
p1553
(lp1554
S'613733'
p1555
asS'Maribor'
p1556
(lp1557
S'530779'
p1558
asS'Mount Gambier'
p1559
(lp1560
S'1104177'
p1561
asS'Mongu'
p1562
(lp1563
S'1570364'
p1564
asS'Mankono'
p1565
(lp1566
S'1344485'
p1567
asS'Majagual'
p1568
(lp1569
S'361968'
p1570
asS'Manhua\xc3\xa7u'
p1571
(lp1572
S'439394'
p1573
asS'Milpitas'
p1574
(lp1575
S'2451745'
p1576
asS'Mahopac'
p1577
(lp1578
S'2444289'
p1579
asS'Menucourt'
p1580
(lp1581
S'611036'
p1582
asS'Much'
p1583
(lp1584
S'676374'
p1585
asS'Mount Kisco'
p1586
(lp1587
S'2455074'
p1588
asS'Merrillville'
p1589
(lp1590
S'2449701'
p1591
asS'Malibu'
p1592
(lp1593
S'2444456'
p1594
asS'Motherwell'
p1595
(lp1596
S'29441'
p1597
asS'Mayflower Village'
p1598
(lp1599
S'23417195'
p1600
asS'Miranda de Ebro'
p1601
(lp1602
S'767265'
p1603
asS'Maraca\xc3\xa7um\xc3\xa9'
p1604
(lp1605
S'457535'
p1606
asS'Mpulungu'
p1607
(lp1608
S'1570515'
p1609
asS'Magalang'
p1610
(lp1611
S'1180189'
p1612
asS'Magburaka'
p1613
(lp1614
S'1421395'
p1615
asS'Mudhol'
p1616
(lp1617
S'29206943'
p1618
asS'Momba\xc3\xa7a'
p1619
(lp1620
S'457606'
p1621
asS'Montrouge'
p1622
(lp1623
S'55863541'
p1624
asS'Mi\xc4\x99dzyzdroje'
p1625
(lp1626
S'507300'
p1627
asS'Medina de Rioseco'
p1628
(lp1629
S'766960'
p1630
asS'Marneuli'
p1631
(lp1632
S'1966870'
p1633
asS'Masquefa'
p1634
(lp1635
S'766776'
p1636
asS'Melle'
p1637
(lp1638
S'974174'
p1639
aS'674691'
p1640
asS'Marly'
p1641
(lp1642
S'610104'
p1643
aS'610104'
p1644
asS'Mount Holly'
p1645
(lp1646
S'2454994'
p1647
aS'2454994'
p1648
asS'Mount Olympus'
p1649
(lp1650
S'2455228'
p1651
asS'Mohiuddinagar'
p1652
(lp1653
S'2282463'
p1654
asS'Montreuil'
p1655
(lp1656
S'613067'
p1657
asS'Mazarr\xc3\xb3n'
p1658
(lp1659
S'766903'
p1660
asS'Madison'
p1661
(lp1662
S'2443927'
p1663
aS'2443927'
p1664
aS'2443927'
p1665
aS'2443927'
p1666
aS'2443927'
p1667
aS'2443927'
p1668
aS'2443927'
p1669
aS'2443927'
p1670
asS'Mangaratiba'
p1671
(lp1672
S'439356'
p1673
asS'Merrydale'
p1674
(lp1675
S'23417543'
p1676
asS'Magor'
p1677
(lp1678
S'28150'
p1679
asS'Mandeville'
p1680
(lp1681
S'109384'
p1682
aS'2444722'
p1683
asS'Maravat\xc3\xado'
p1684
(lp1685
S'132948'
p1686
asS'Mauganj'
p1687
(lp1688
S'2289765'
p1689
asS'Moores Mill'
p1690
(lp1691
S'2453794'
p1692
asS'Magog'
p1693
(lp1694
S'3563'
p1695
asS'Magadi'
p1696
(lp1697
S'29025145'
p1698
asS'Mwaya'
p1699
(lp1700
S'1518553'
p1701
asS'Middelharnis'
p1702
(lp1703
S'731671'
p1704
asS'Moissac'
p1705
(lp1706
S'611732'
p1707
asS'Millcreek'
p1708
(lp1709
S'2451246'
p1710
asS'Meppen'
p1711
(lp1712
S'674836'
p1713
asS'Mez\xc5\x91cs\xc3\xa1t'
p1714
(lp1715
S'811900'
p1716
asS'Meppel'
p1717
(lp1718
S'731637'
p1719
asS'Meriden'
p1720
(lp1721
S'2449569'
p1722
asS'Mo\xc5\x84ki'
p1723
(lp1724
S'508159'
p1725
asS'Meerane'
p1726
(lp1727
S'674459'
p1728
asS'Maser\xc3\xa0 di Padova'
p1729
(lp1730
S'718026'
p1731
asS'Melaka'
p1732
(lp1733
S'1154903'
p1734
asS'Megalopolis'
p1735
(lp1736
S'956654'
p1737
asS'Mogocha'
p1738
(lp1739
S'2122224'
p1740
asS'Meerssen'
p1741
(lp1742
S'731601'
p1743
asS'Machico'
p1744
(lp1745
S'742951'
p1746
asS'Moengo'
p1747
(lp1748
S'377241'
p1749
asS'Mirecourt'
p1750
(lp1751
S'611620'
p1752
asS'Merriam'
p1753
(lp1754
S'2449651'
p1755
asS'Malkera'
p1756
(lp1757
S'29066939'
p1758
asS'Macedo de Cavaleiros'
p1759
(lp1760
S'742934'
p1761
asS'Mantua'
p1762
(lp1763
S'65279'
p1764
aS'2445060'
p1765
asS'Moka'
p1766
(lp1767
S'1377392'
p1768
asS'Misano Adriatico'
p1769
(lp1770
S'718403'
p1771
asS'Montevarchi'
p1772
(lp1773
S'718987'
p1774
asS'Malita'
p1775
(lp1776
S'1199451'
p1777
asS'Majitha'
p1778
(lp1779
S'2290397'
p1780
asS'Mglin'
p1781
(lp1782
S'2122183'
p1783
asS'Maryville'
p1784
(lp1785
S'2446589'
p1786
aS'2446589'
p1787
aS'2446589'
p1788
asS'Marignier'
p1789
(lp1790
S'610029'
p1791
asS'Milagres'
p1792
(lp1793
S'457586'
p1794
asS'Montmorillon'
p1795
(lp1796
S'612929'
p1797
asS'Melton Mowbray'
p1798
(lp1799
S'28688'
p1800
asS'Mairwa'
p1801
(lp1802
S'29164972'
p1803
asS'Minab'
p1804
(lp1805
S'2254939'
p1806
asS'Mon\xc3\xb3var'
p1807
(lp1808
S'767479'
p1809
asS'Monte Alegre'
p1810
(lp1811
S'440598'
p1812
aS'440598'
p1813
asS'Melzo'
p1814
(lp1815
S'718211'
p1816
asS'Marienheide'
p1817
(lp1818
S'673894'
p1819
asS'Martinsicuro'
p1820
(lp1821
S'717992'
p1822
asS'Minas'
p1823
(lp1824
S'65521'
p1825
aS'468068'
p1826
asS'Magumeri'
p1827
(lp1828
S'1399497'
p1829
asS'Muragachha'
p1830
(lp1831
S'29006505'
p1832
asS'Malumfashi'
p1833
(lp1834
S'1399881'
p1835
asS'Mayen'
p1836
(lp1837
S'674379'
p1838
asS'Massy'
p1839
(lp1840
S'610484'
p1841
asS'Maputo'
p1842
(lp1843
S'1550363'
p1844
asS'Massa'
p1845
(lp1846
S'20149757'
p1847
asS'Mart\xc3\xad'
p1848
(lp1849
S'65379'
p1850
asS'Montecchio Maggiore'
p1851
(lp1852
S'718805'
p1853
asS'Mechanicstown'
p1854
(lp1855
S'2448845'
p1856
asS'Muncie'
p1857
(lp1858
S'2456291'
p1859
asS'Monster'
p1860
(lp1861
S'731785'
p1862
asS'Macedonia'
p1863
(lp1864
S'2443674'
p1865
asS'Mulayjah'
p1866
(lp1867
S'1939924'
p1868
asS'Mattersburg'
p1869
(lp1870
S'538937'
p1871
asS'Magangu\xc3\xa9'
p1872
(lp1873
S'368217'
p1874
asS'Middleburg Heights'
p1875
(lp1876
S'2450300'
p1877
asS'Mios'
p1878
(lp1879
S'611580'
p1880
asS'Montalto Uffugo'
p1881
(lp1882
S'718650'
p1883
asS'Mount Vernon'
p1884
(lp1885
S'2455514'
p1886
aS'2455514'
p1887
aS'2455514'
p1888
aS'2455514'
p1889
aS'2455514'
p1890
aS'2455514'
p1891
asS'Miass'
p1892
(lp1893
S'2122184'
p1894
asS'Mangalam'
p1895
(lp1896
S'29075300'
p1897
asS'Maisons-Laffitte'
p1898
(lp1899
S'609406'
p1900
asS'Manati'
p1901
(lp1902
S'161412'
p1903
asS'Melbourne'
p1904
(lp1905
S'1103816'
p1906
aS'2449091'
p1907
asS'Mirganj'
p1908
(lp1909
S'29158764'
p1910
asS'Macenta'
p1911
(lp1912
S'1337321'
p1913
asS'Moramanga'
p1914
(lp1915
S'1363490'
p1916
asS'Mor\xc3\xb3n'
p1917
(lp1918
S'65619'
p1919
aS'468422'
p1920
asS'Murrells Inlet'
p1921
(lp1922
S'2456551'
p1923
asS'Mihalgazi'
p1924
(lp1925
S'2332602'
p1926
asS'Mudgee'
p1927
(lp1928
S'1104301'
p1929
asS'Medina Sidonia'
p1930
(lp1931
S'766962'
p1932
asS'Moj\xc3\xa1car'
p1933
(lp1934
S'767341'
p1935
asS'Mansehra'
p1936
(lp1937
S'2203022'
p1938
asS'Mission'
p1939
(lp1940
S'9190'
p1941
aS'2452320'
p1942
aS'2452320'
p1943
asS'Martellago'
p1944
(lp1945
S'717981'
p1946
asS'Montfort-sur-Meu'
p1947
(lp1948
S'612631'
p1949
asS'Mazatl\xc3\xa1n'
p1950
(lp1951
S'133234'
p1952
asS'Malacat\xc3\xa1n'
p1953
(lp1954
S'84417'
p1955
asS'Me\xc3\xafganga'
p1956
(lp1957
S'1303264'
p1958
asS'Manhasset'
p1959
(lp1960
S'2444758'
p1961
asS'Mizque'
p1962
(lp1963
S'346186'
p1964
asS'Makari'
p1965
(lp1966
S'1302641'
p1967
asS'Madras'
p1968
(lp1969
S'2444038'
p1970
asS'Martigues'
p1971
(lp1972
S'610324'
p1973
asS'Mimo\xc5\x88'
p1974
(lp1975
S'793963'
p1976
asS'Malazgirt'
p1977
(lp1978
S'2344247'
p1979
asS'M\xc5\x82awa'
p1980
(lp1981
S'507769'
p1982
asS'Meerut'
p1983
(lp1984
S'2295393'
p1985
asS'Metropolis'
p1986
(lp1987
S'2449928'
p1988
asS'Millington'
p1989
(lp1990
S'2451504'
p1991
asS'Montgeron'
p1992
(lp1993
S'55863536'
p1994
asS'Mount Pleasant'
p1995
(lp1996
S'2455260'
p1997
aS'2455260'
p1998
aS'2455260'
p1999
aS'2455260'
p2000
asS'Miltenberg'
p2001
(lp2002
S'675313'
p2003
asS'Moroto'
p2004
(lp2005
S'1453827'
p2006
asS'Millis'
p2007
(lp2008
S'2451519'
p2009
asS'Manokwari'
p2010
(lp2011
S'1047877'
p2012
asS'Mbuji-Mayi'
p2013
(lp2014
S'1293042'
p2015
asS'Mococa'
p2016
(lp2017
S'460155'
p2018
asS'Matheran'
p2019
(lp2020
S'2292981'
p2021
asS'Matelica'
p2022
(lp2023
S'718112'
p2024
asS'Mzimba'
p2025
(lp2026
S'1368532'
p2027
asS'Mkushi'
p2028
(lp2029
S'1577805'
p2030
asS'Marano di Napoli'
p2031
(lp2032
S'717821'
p2033
asS'Medina de Pomar'
p2034
(lp2035
S'766959'
p2036
asS'Medgidia'
p2037
(lp2038
S'875534'
p2039
asS'Mananara'
p2040
(lp2041
S'1362331'
p2042
asS'Mashpee'
p2043
(lp2044
S'2446626'
p2045
asS'Mikhaylovka'
p2046
(lp2047
S'2045573'
p2048
aS'2045573'
p2049
aS'2045573'
p2050
aS'927022'
p2051
asS'Merseburg'
p2052
(lp2053
S'674913'
p2054
asS'Mitte'
p2055
(lp2056
S'29348939'
p2057
asS'Manhumirim'
p2058
(lp2059
S'456319'
p2060
asS'Machiques'
p2061
(lp2062
S'468420'
p2063
asS'Montfermeil'
p2064
(lp2065
S'55863535'
p2066
asS'Mundelein'
p2067
(lp2068
S'2456306'
p2069
asS'Maarssen'
p2070
(lp2071
S'731469'
p2072
asS"Maych'ew"
p2073
(lp2074
S'1318649'
p2075
asS'Mainaschaff'
p2076
(lp2077
S'673493'
p2078
asS'Mutsamudu'
p2079
(lp2080
S'1306111'
p2081
asS'Mundwa'
p2082
(lp2083
S'2290938'
p2084
asS'Mbalmayo'
p2085
(lp2086
S'1303011'
p2087
asS'Mingechaur'
p2088
(lp2089
S'1951972'
p2090
asS'Manchar'
p2091
(lp2092
S'2292757'
p2093
asS'Melchor Ocampo'
p2094
(lp2095
S'133285'
p2096
asS'Mungia'
p2097
(lp2098
S'767997'
p2099
asS'Mae Tha'
p2100
(lp2101
S'1226040'
p2102
asS'Magdalena Milpas Altas'
p2103
(lp2104
S'84401'
p2105
asS'Midlothian'
p2106
(lp2107
S'2450508'
p2108
aS'2450508'
p2109
asS'Mo\xc3\xb1itos'
p2110
(lp2111
S'362598'
p2112
asS'Mandurah'
p2113
(lp2114
S'1103644'
p2115
asS'Martinho Campos'
p2116
(lp2117
S'457557'
p2118
asS'Medellin'
p2119
(lp2120
S'1199522'
p2121
asS'Micheldorf in Ober\xc3\xb6sterreich'
p2122
(lp2123
S'545891'
p2124
asS'Muhos'
p2125
(lp2126
S'569909'
p2127
asS'Montenegro'
p2128
(lp2129
S'362686'
p2130
asS'Mysen'
p2131
(lp2132
S'862037'
p2133
asS'Marchin'
p2134
(lp2135
S'973960'
p2136
asS'Mtinko'
p2137
(lp2138
S'1447863'
p2139
asS'Maksatikha'
p2140
(lp2141
S'2122058'
p2142
asS'Morges'
p2143
(lp2144
S'783404'
p2145
asS'Muggi\xc3\xb2'
p2146
(lp2147
S'719196'
p2148
asS'Massalubrense'
p2149
(lp2150
S'718062'
p2151
asS'Martin\xc3\xb3polis'
p2152
(lp2153
S'457558'
p2154
asS'Malakal'
p2155
(lp2156
S'1434441'
p2157
asS'Mo'
p2158
(lp2159
S'861852'
p2160
asS'Mount Horeb'
p2161
(lp2162
S'2455042'
p2163
asS'Mindelheim'
p2164
(lp2165
S'675334'
p2166
asS'Mitchellville'
p2167
(lp2168
S'2452476'
p2169
asS'Mozzate'
p2170
(lp2171
S'719188'
p2172
asS'Metap\xc3\xa1n'
p2173
(lp2174
S'79072'
p2175
asS'Moyamba'
p2176
(lp2177
S'1422814'
p2178
asS'Mustang'
p2179
(lp2180
S'2456636'
p2181
asS'Maymyo'
p2182
(lp2183
S'1017601'
p2184
asS'Mainz'
p2185
(lp2186
S'673516'
p2187
asS'Mirador'
p2188
(lp2189
S'440313'
p2190
asS'Morton Grove'
p2191
(lp2192
S'2454438'
p2193
asS'Mendez-Nu\xc3\xb1ez'
p2194
(lp2195
S'1183243'
p2196
asS'Marseillan'
p2197
(lp2198
S'610262'
p2199
asS'Maltby'
p2200
(lp2201
S'28201'
p2202
aS'2444553'
p2203
asS'Madaripur'
p2204
(lp2205
S'1915136'
p2206
asS'Merimbula'
p2207
(lp2208
S'1097226'
p2209
asS'Mah\xc3\xb3n'
p2210
(lp2211
S'766329'
p2212
asS'Monte Azul Paulista'
p2213
(lp2214
S'440659'
p2215
asS'Malolos'
p2216
(lp2217
S'1199453'
p2218
asS'Moa\xc3\xb1a'
p2219
(lp2220
S'767300'
p2221
asS'Maaseik'
p2222
(lp2223
S'973817'
p2224
asS'Marandahalli'
p2225
(lp2226
S'2282070'
p2227
asS'Monoharpur'
p2228
(lp2229
S'29005744'
p2230
asS'Murraysville'
p2231
(lp2232
S'2456543'
p2233
asS'Magstadt'
p2234
(lp2235
S'673379'
p2236
asS'Mudurnu'
p2237
(lp2238
S'2332801'
p2239
asS'Mudon'
p2240
(lp2241
S'1017663'
p2242
asS'Mercato Saraceno'
p2243
(lp2244
S'718242'
p2245
asS'Mairi'
p2246
(lp2247
S'457506'
p2248
asS'Mersing'
p2249
(lp2250
S'1154927'
p2251
asS'Mahroni'
p2252
(lp2253
S'2281610'
p2254
asS'M\xc3\xb6rlenbach'
p2255
(lp2256
S'676215'
p2257
asS'Morinda'
p2258
(lp2259
S'2282729'
p2260
asS'Minbu'
p2261
(lp2262
S'1017614'
p2263
asS'Macon'
p2264
(lp2265
S'2443829'
p2266
aS'2443829'
p2267
asS'Miasskoye'
p2268
(lp2269
S'2122185'
p2270
asS'Magaria'
p2271
(lp2272
S'1505857'
p2273
asS'Machal\xc3\xad'
p2274
(lp2275
S'348565'
p2276
asS'Montcada i Reixac'
p2277
(lp2278
S'767421'
p2279
asS'Mayfield Heights'
p2280
(lp2281
S'2447238'
p2282
asS'Makakilo City'
p2283
(lp2284
S'2444386'
p2285
asS'Milnrow'
p2286
(lp2287
S'29022'
p2288
asS'Morris Plains'
p2289
(lp2290
S'2454285'
p2291
asS'Musawa'
p2292
(lp2293
S'1509469'
p2294
asS'Media Luna'
p2295
(lp2296
S'65433'
p2297
asS'Mound'
p2298
(lp2299
S'2454683'
p2300
asS'Myski'
p2301
(lp2302
S'2124722'
p2303
asS'Mangalore'
p2304
(lp2305
S'2293536'
p2306
asS'Mvomero'
p2307
(lp2308
S'1448047'
p2309
asS'Montilla'
p2310
(lp2311
S'767656'
p2312
asS'Mutterstadt'
p2313
(lp2314
S'676993'
p2315
asS'Melchor M\xc3\xbazquiz'
p2316
(lp2317
S'133282'
p2318
asS'Malakhovka'
p2319
(lp2320
S'2040297'
p2321
asS'Mandvi'
p2322
(lp2323
S'29061798'
p2324
aS'29061798'
p2325
asS'Melrose Park'
p2326
(lp2327
S'2449243'
p2328
aS'2449243'
p2329
asS'Mexicali'
p2330
(lp2331
S'133475'
p2332
asS'Manasa'
p2333
(lp2334
S'29023941'
p2335
asS'Mahoba'
p2336
(lp2337
S'29019734'
p2338
asS'Mahasamund'
p2339
(lp2340
S'2289629'
p2341
asS"Monticelli d'Ongina"
p2342
(lp2343
S'719015'
p2344
asS'Montague'
p2345
(lp2346
S'2453104'
p2347
asS'Mount Juliet'
p2348
(lp2349
S'2455073'
p2350
asS'Mielec'
p2351
(lp2352
S'507319'
p2353
asS'Misterbianco'
p2354
(lp2355
S'718419'
p2356
asS'Mon\xc3\xa9teau'
p2357
(lp2358
S'611957'
p2359
asS'Mundargi'
p2360
(lp2361
S'29206621'
p2362
asS"Montopoli in Val d'Arno"
p2363
(lp2364
S'719045'
p2365
asS'Makurdi'
p2366
(lp2367
S'1399773'
p2368
asS'Mari\xc3\xa1nsk\xc3\xa9 L\xc3\xa1zn\xc4\x9b'
p2369
(lp2370
S'793598'
p2371
asS'Motueka'
p2372
(lp2373
S'2349605'
p2374
asS'Mounds View'
p2375
(lp2376
S'2454713'
p2377
asS'Margao'
p2378
(lp2379
S'2295175'
p2380
asS'Meyzieu'
p2381
(lp2382
S'611403'
p2383
asS'Mu\xc5\x9f'
p2384
(lp2385
S'2344276'
p2386
asS'Mulki'
p2387
(lp2388
S'2293960'
p2389
asS'Makhachkala'
p2390
(lp2391
S'2039892'
p2392
asS'M\xc3\xbcncheberg'
p2393
(lp2394
S'676749'
p2395
asS'Merano'
p2396
(lp2397
S'718227'
p2398
asS'Mahe'
p2399
(lp2400
S'2290549'
p2401
asS'Mabitac'
p2402
(lp2403
S'1199413'
p2404
asS'Managua'
p2405
(lp2406
S'153523'
p2407
asS'Mindif'
p2408
(lp2409
S'1303522'
p2410
asS'Makamba'
p2411
(lp2412
S'1270370'
p2413
asS'Magadan'
p2414
(lp2415
S'2122039'
p2416
asS'Mawlaik'
p2417
(lp2418
S'1017597'
p2419
asS'Monteprandone'
p2420
(lp2421
S'718933'
p2422
asS'Maholi'
p2423
(lp2424
S'29065384'
p2425
asS'Moutier'
p2426
(lp2427
S'783420'
p2428
asS'Markopoulo'
p2429
(lp2430
S'956278'
p2431
asS'Miagao'
p2432
(lp2433
S'1199528'
p2434
asS'Moraleja'
p2435
(lp2436
S'767735'
p2437
asS'Morvi'
p2438
(lp2439
S'2295078'
p2440
asS'Muscatine'
p2441
(lp2442
S'2456569'
p2443
asS'Morton'
p2444
(lp2445
S'2454413'
p2446
asS'Mold'
p2447
(lp2448
S'29175'
p2449
asS'Mahabad'
p2450
(lp2451
S'2237982'
p2452
asS'Mountsorrel'
p2453
(lp2454
S'29492'
p2455
asS'Mahaban'
p2456
(lp2457
S'2281540'
p2458
asS'Milltown'
p2459
(lp2460
S'2451598'
p2461
asS'Melk'
p2462
(lp2463
S'542795'
p2464
asS'Montigny-l\xc3\xa8s-Cormeilles'
p2465
(lp2466
S'55863537'
p2467
asS'Melo'
p2468
(lp2469
S'468066'
p2470
asS'Muzaffarnagar'
p2471
(lp2472
S'2295462'
p2473
asS'Montgat'
p2474
(lp2475
S'767466'
p2476
asS'Mistrat\xc3\xb3'
p2477
(lp2478
S'369137'
p2479
asS'Maracan\xc3\xa3'
p2480
(lp2481
S'460060'
p2482
asS'Maric\xc3\xa1'
p2483
(lp2484
S'456323'
p2485
asS'Marange-Silvange'
p2486
(lp2487
S'609751'
p2488
asS'Manitowoc'
p2489
(lp2490
S'2444827'
p2491
asS'Maisach'
p2492
(lp2493
S'673525'
p2494
asS'Merzig'
p2495
(lp2496
S'674950'
p2497
asS'Maracaibo'
p2498
(lp2499
S'395270'
p2500
asS'Malihabad'
p2501
(lp2502
S'2288679'
p2503
asS'Montegiorgio'
p2504
(lp2505
S'718856'
p2506
asS'Mbuguni'
p2507
(lp2508
S'1446845'
p2509
asS'Manay'
p2510
(lp2511
S'1199465'
p2512
asS'Maisons-Alfort'
p2513
(lp2514
S'55863523'
p2515
asS'Mel'
p2516
(lp2517
S'718174'
p2518
asS'Mourniai'
p2519
(lp2520
S'957747'
p2521
asS'Minooka'
p2522
(lp2523
S'2452176'
p2524
asS'Mudanya'
p2525
(lp2526
S'2344270'
p2527
asS'Moji-Mirim'
p2528
(lp2529
S'457603'
p2530
asS'Malur'
p2531
(lp2532
S'29211923'
p2533
asS'Martaban'
p2534
(lp2535
S'1017591'
p2536
asS'Mastic'
p2537
(lp2538
S'2446774'
p2539
asS'Masagua'
p2540
(lp2541
S'84452'
p2542
asS'Metairie Terrace'
p2543
(lp2544
S'2449882'
p2545
asS'Mitry-Mory'
p2546
(lp2547
S'611666'
p2548
asS'Mucur'
p2549
(lp2550
S'2344269'
p2551
asS'Manaquiri'
p2552
(lp2553
S'457517'
p2554
asS'Moosinning'
p2555
(lp2556
S'676157'
p2557
asS'Maz\xc4\xb1da\xc4\x9f\xc4\xb1'
p2558
(lp2559
S'2332177'
p2560
asS'Mustafabad'
p2561
(lp2562
S'29086814'
p2563
aS'2211277'
p2564
asS'Montechiarugolo'
p2565
(lp2566
S'718810'
p2567
asS'Mila'
p2568
(lp2569
S'1256454'
p2570
asS'Motul de Felipe Carrillo Puerto'
p2571
(lp2572
S'134178'
p2573
asS'Mohave Valley'
p2574
(lp2575
S'2452694'
p2576
asS'Mahates'
p2577
(lp2578
S'368337'
p2579
asS'Monteux'
p2580
(lp2581
S'612577'
p2582
asS'Maroantsetra'
p2583
(lp2584
S'1362819'
p2585
asS'Morecambe'
p2586
(lp2587
S'29313'
p2588
asS'Manteno'
p2589
(lp2590
S'2445042'
p2591
asS'Moultonborough'
p2592
(lp2593
S'2454673'
p2594
asS'Manizales'
p2595
(lp2596
S'368156'
p2597
asS'M\xc3\xbchlacker'
p2598
(lp2599
S'676459'
p2600
asS'Massafra'
p2601
(lp2602
S'718061'
p2603
asS'Meulaboh'
p2604
(lp2605
S'1047931'
p2606
asS'Marigaon'
p2607
(lp2608
S'2273935'
p2609
asS'Mosbach'
p2610
(lp2611
S'676288'
p2612
asS'Mizil'
p2613
(lp2614
S'875972'
p2615
asS'Meg\xc3\xa8ve'
p2616
(lp2617
S'610819'
p2618
asS'Mount Healthy'
p2619
(lp2620
S'2454962'
p2621
asS'Mandapeta'
p2622
(lp2623
S'2293851'
p2624
asS'Mat\xc3\xa3o'
p2625
(lp2626
S'457565'
p2627
asS'Mussomeli'
p2628
(lp2629
S'719248'
p2630
asS'Morelia'
p2631
(lp2632
S'134091'
p2633
asS'Miami Beach'
p2634
(lp2635
S'2450078'
p2636
asS'Morphou'
p2637
(lp2638
S'841530'
p2639
asS'Monte Alegre de Minas'
p2640
(lp2641
S'440644'
p2642
asS'Mount Arlington'
p2643
(lp2644
S'2454769'
p2645
asS'Mamit'
p2646
(lp2647
S'2281826'
p2648
asS'Mariel'
p2649
(lp2650
S'65365'
p2651
asS'Matar\xc3\xb3'
p2652
(lp2653
S'766829'
p2654
asS'Mittegro\xc3\x9fefehn'
p2655
(lp2656
S'675409'
p2657
asS'Mainaguri'
p2658
(lp2659
S'2288914'
p2660
asS'Mazinde'
p2661
(lp2662
S'1446755'
p2663
asS'Mutki'
p2664
(lp2665
S'2333039'
p2666
asS'Mansa'
p2667
(lp2668
S'2291427'
p2669
aS'2291427'
p2670
aS'1569600'
p2671
asS'Marles-les-Mines'
p2672
(lp2673
S'610092'
p2674
asS'Minas Novas'
p2675
(lp2676
S'457589'
p2677
asS'Marbach am Neckar'
p2678
(lp2679
S'673780'
p2680
asS'McMinns Lagoon'
p2681
(lp2682
S'1097180'
p2683
asS'Medicina'
p2684
(lp2685
S'718160'
p2686
asS'Manpur'
p2687
(lp2688
S'29008198'
p2689
asS'Mehtar L\xc4\x81m'
p2690
(lp2691
S'1926333'
p2692
asS'Monforte del Cid'
p2693
(lp2694
S'767463'
p2695
asS'Matias Barbosa'
p2696
(lp2697
S'439963'
p2698
asS'Maksi'
p2699
(lp2700
S'29025702'
p2701
asS'Maubeuge'
p2702
(lp2703
S'610522'
p2704
asS'Moirai'
p2705
(lp2706
S'957531'
p2707
asS'Mabinay'
p2708
(lp2709
S'1179766'
p2710
asS'Mirpur Khas'
p2711
(lp2712
S'2211252'
p2713
asS'Mesudiye'
p2714
(lp2715
S'2344264'
p2716
asS'Mirandela'
p2717
(lp2718
S'743561'
p2719
asS'Massarosa'
p2720
(lp2721
S'718065'
p2722
asS'Migori'
p2723
(lp2724
S'1528282'
p2725
asS'M\xc3\xbchlheim am Main'
p2726
(lp2727
S'676617'
p2728
asS'Mtwango'
p2729
(lp2730
S'1447908'
p2731
asS'Marmande'
p2732
(lp2733
S'610116'
p2734
asS'Mwanza'
p2735
(lp2736
S'1368479'
p2737
aS'1448146'
p2738
asS'Malanje'
p2739
(lp2740
S'1262220'
p2741
asS'Marzabotto'
p2742
(lp2743
S'717999'
p2744
asS'Mogo\xc5\x9foaia'
p2745
(lp2746
S'876047'
p2747
asS'Merchweiler'
p2748
(lp2749
S'674845'
p2750
asS'Maghar'
p2751
(lp2752
S'2288701'
p2753
asS'Montbard'
p2754
(lp2755
S'612343'
p2756
asS'Musoma'
p2757
(lp2758
S'1448022'
p2759
asS"Makar'yev"
p2760
(lp2761
S'2039689'
p2762
asS'Mollendo'
p2763
(lp2764
S'418555'
p2765
asS'Manuguru'
p2766
(lp2767
S'28999098'
p2768
asS'Molde'
p2769
(lp2770
S'861904'
p2771
asS'Momostenango'
p2772
(lp2773
S'84505'
p2774
asS'Matriz de Camaragibe'
p2775
(lp2776
S'440045'
p2777
asS'Mansa Konko'
p2778
(lp2779
S'1322028'
p2780
asS'Moyeuvre-Grande'
p2781
(lp2782
S'613642'
p2783
asS'Maia'
p2784
(lp2785
S'538151'
p2786
asS'Morro Agudo'
p2787
(lp2788
S'457625'
p2789
asS'Magole'
p2790
(lp2791
S'1446216'
p2792
asS'Marcon'
p2793
(lp2794
S'717860'
p2795
asS'Manduria'
p2796
(lp2797
S'717786'
p2798
asS'Mentekab'
p2799
(lp2800
S'1152203'
p2801
asS'Mussolente'
p2802
(lp2803
S'15000358'
p2804
asS'Manchinabad'
p2805
(lp2806
S'2211242'
p2807
asS'Mankato'
p2808
(lp2809
S'2444832'
p2810
asS'Murphy'
p2811
(lp2812
S'2456433'
p2813
aS'2456433'
p2814
asS'Montanaro'
p2815
(lp2816
S'718655'
p2817
asS'Mondragon'
p2818
(lp2819
S'1199542'
p2820
asS'Merrick'
p2821
(lp2822
S'2449658'
p2823
asS'Manado'
p2824
(lp2825
S'1047862'
p2826
asS'M\xc3\xb6rfelden-Walldorf'
p2827
(lp2828
S'20162174'
p2829
asS'Morwa'
p2830
(lp2831
S'29019898'
p2832
asS'Merefa'
p2833
(lp2834
S'926865'
p2835
asS'Margaride'
p2836
(lp2837
S'743150'
p2838
asS'Maitum'
p2839
(lp2840
S'1180648'
p2841
asS'Mancha Real'
p2842
(lp2843
S'766430'
p2844
asS'Murici'
p2845
(lp2846
S'457645'
p2847
asS'Makoua'
p2848
(lp2849
S'1280981'
p2850
asS'Motta Visconti'
p2851
(lp2852
S'719177'
p2853
asS'M\xc3\xa4ntyharju'
p2854
(lp2855
S'569545'
p2856
asS'Manfalut'
p2857
(lp2858
S'1525073'
p2859
asS'Menomonee Falls'
p2860
(lp2861
S'2449452'
p2862
asS'Mirabela'
p2863
(lp2864
S'456332'
p2865
asS'Melesse'
p2866
(lp2867
S'610873'
p2868
asS'Melsungen'
p2869
(lp2870
S'674718'
p2871
asS'Matigu\xc3\xa1s'
p2872
(lp2873
S'153542'
p2874
asS'Maromme'
p2875
(lp2876
S'55863529'
p2877
asS'Monte Blanco'
p2878
(lp2879
S'133967'
p2880
asS'Maxh\xc3\xbctte-Haidhof'
p2881
(lp2882
S'674366'
p2883
asS'Muar'
p2884
(lp2885
S'1154935'
p2886
asS'Monroe'
p2887
(lp2888
S'2452993'
p2889
aS'2452993'
p2890
aS'2452993'
p2891
aS'2452993'
p2892
aS'2452993'
p2893
aS'2452993'
p2894
aS'2452993'
p2895
aS'2452993'
p2896
asS'Menominee'
p2897
(lp2898
S'2449449'
p2899
aS'2449449'
p2900
asS'Monteagudo'
p2901
(lp2902
S'341368'
p2903
asS'Miles City'
p2904
(lp2905
S'2450923'
p2906
asS'Miguel Alves'
p2907
(lp2908
S'457580'
p2909
asS'Madison Heights'
p2910
(lp2911
S'2443995'
p2912
aS'2443995'
p2913
asS'Marcoussis'
p2914
(lp2915
S'609900'
p2916
asS'Moraga'
p2917
(lp2918
S'2453896'
p2919
asS'Murnau am Staffelsee'
p2920
(lp2921
S'676912'
p2922
asS'Manapparai'
p2923
(lp2924
S'2294545'
p2925
asS'Mafra'
p2926
(lp2927
S'457502'
p2928
aS'743003'
p2929
asS'Montebelluna'
p2930
(lp2931
S'718766'
p2932
asS'Maiori'
p2933
(lp2934
S'717691'
p2935
asS'Meolo'
p2936
(lp2937
S'718225'
p2938
asS'Moreira de Conegos'
p2939
(lp2940
S'744252'
p2941
asS'Maha Sarakham'
p2942
(lp2943
S'1226042'
p2944
asS'Mariinskiy Posad'
p2945
(lp2946
S'2122105'
p2947
asS'Mims'
p2948
(lp2949
S'2451883'
p2950
asS'Medicine Hat'
p2951
(lp2952
S'8623'
p2953
asS'Merchtem'
p2954
(lp2955
S'974210'
p2956
asS'Mougins'
p2957
(lp2958
S'613418'
p2959
asS'Mahalapye'
p2960
(lp2961
S'1265682'
p2962
asS'Mogilno'
p2963
(lp2964
S'508033'
p2965
asS'Malorita'
p2966
(lp2967
S'828192'
p2968
asS'Mallawi'
p2969
(lp2970
S'1525068'
p2971
asS'Manappakkam'
p2972
(lp2973
S'29079427'
p2974
asS'Meung-sur-Loire'
p2975
(lp2976
S'611344'
p2977
asS'Mira\xc3\xad'
p2978
(lp2979
S'440328'
p2980
asS"Mikun'"
p2981
(lp2982
S'2046177'
p2983
asS'Masally'
p2984
(lp2985
S'1951967'
p2986
asS'Menton'
p2987
(lp2988
S'611033'
p2989
asS'Mouans-Sartoux'
p2990
(lp2991
S'613398'
p2992
asS'Muro Leccese'
p2993
(lp2994
S'719229'
p2995
asS'Maxdorf'
p2996
(lp2997
S'674356'
p2998
asS'Marianna'
p2999
(lp3000
S'2445634'
p3001
asS'Mentor'
p3002
(lp3003
S'2449466'
p3004
asS'Mlad\xc3\xa1 Boleslav'
p3005
(lp3006
S'794037'
p3007
asS'Montabaur'
p3008
(lp3009
S'675992'
p3010
asS'Mission Viejo'
p3011
(lp3012
S'2452361'
p3013
asS'Machhiwara'
p3014
(lp3015
S'2281447'
p3016
asS'Mundi'
p3017
(lp3018
S'29067412'
p3019
asS'Manchester'
p3020
(lp3021
S'28218'
p3022
aS'2444642'
p3023
aS'2444642'
p3024
aS'2444642'
p3025
aS'2444642'
p3026
aS'2444642'
p3027
aS'2444642'
p3028
asS'Magenta'
p3029
(lp3030
S'717638'
p3031
asS'Mollerussa'
p3032
(lp3033
S'767392'
p3034
asS'Mbanga'
p3035
(lp3036
S'1478608'
p3037
asS'M\xc3\xbcnnerstadt'
p3038
(lp3039
S'676840'
p3040
asS'Montceau-les-Mines'
p3041
(lp3042
S'612412'
p3043
asS'Mahendranagar'
p3044
(lp3045
S'2269154'
p3046
asS'Maridi'
p3047
(lp3048
S'1434602'
p3049
asS'Maple Shade'
p3050
(lp3051
S'2445284'
p3052
asS'Mount Airy'
p3053
(lp3054
S'2454731'
p3055
aS'2454731'
p3056
asS'Mondrag\xc3\xb3n'
p3057
(lp3058
S'767438'
p3059
asS'Major Isidoro'
p3060
(lp3061
S'456316'
p3062
asS'Montesilvano'
p3063
(lp3064
S'718977'
p3065
asS'Miasteczko \xc5\x9al\xc4\x85skie'
p3066
(lp3067
S'507057'
p3068
asS'Miringa'
p3069
(lp3070
S'1400566'
p3071
asS'Mahanoro'
p3072
(lp3073
S'1497348'
p3074
asS'Merrifield'
p3075
(lp3076
S'2449672'
p3077
asS'Modugno'
p3078
(lp3079
S'718437'
p3080
asS'Monthey'
p3081
(lp3082
S'783382'
p3083
asS'Muheza'
p3084
(lp3085
S'1447958'
p3086
asS'Madukkur'
p3087
(lp3088
S'2294566'
p3089
asS'Montecassiano'
p3090
(lp3091
S'718785'
p3092
asS'Momil'
p3093
(lp3094
S'368535'
p3095
asS'Milan\xc3\xb3wek'
p3096
(lp3097
S'507537'
p3098
asS'Muhammadabad'
p3099
(lp3100
S'29112215'
p3101
aS'29112215'
p3102
aS'29112215'
p3103
asS'Mariental'
p3104
(lp3105
S'1465348'
p3106
asS'Monte Azul'
p3107
(lp3108
S'456343'
p3109
asS'M\xc3\xa4nnedorf'
p3110
(lp3111
S'783248'
p3112
asS'Meise'
p3113
(lp3114
S'974153'
p3115
asS'Moral de Calatrava'
p3116
(lp3117
S'767727'
p3118
asS'Mount Lebanon'
p3119
(lp3120
S'2455083'
p3121
asS'Millau'
p3122
(lp3123
S'611526'
p3124
asS'Moreni'
p3125
(lp3126
S'876104'
p3127
aS'876104'
p3128
asS'Manukau City'
p3129
(lp3130
S'2349386'
p3131
asS'Monheim'
p3132
(lp3133
S'675964'
p3134
asS'Monts'
p3135
(lp3136
S'613112'
p3137
asS'Mesquite'
p3138
(lp3139
S'2449851'
p3140
aS'2449851'
p3141
asS'Mehar'
p3142
(lp3143
S'2211235'
p3144
asS'Maldon'
p3145
(lp3146
S'28184'
p3147
asS'Mazzano'
p3148
(lp3149
S'20149759'
p3150
asS'Monteforte Irpino'
p3151
(lp3152
S'718841'
p3153
asS"Mineral'nyye Vody"
p3154
(lp3155
S'2046335'
p3156
asS'Mattur'
p3157
(lp3158
S'29077021'
p3159
asS'Marlborough'
p3160
(lp3161
S'28367'
p3162
aS'2445909'
p3163
asS'Miesbach'
p3164
(lp3165
S'675243'
p3166
asS'Mahanje'
p3167
(lp3168
S'1446246'
p3169
asS'Mosquera'
p3170
(lp3171
S'362779'
p3172
asS'Malgobek'
p3173
(lp3174
S'2040940'
p3175
asS'Marinhais'
p3176
(lp3177
S'743173'
p3178
asS'Matveyev Kurgan'
p3179
(lp3180
S'2043896'
p3181
asS'Mahmudabad'
p3182
(lp3183
S'29169531'
p3184
asS'Masliyah'
p3185
(lp3186
S'1939908'
p3187
asS'Mandalay'
p3188
(lp3189
S'1017586'
p3190
asS'Martonv\xc3\xa1s\xc3\xa1r'
p3191
(lp3192
S'811679'
p3193
asS'M\xc3\xbcnchen'
p3194
(lp3195
S'676757'
p3196
asS'Meersburg'
p3197
(lp3198
S'674473'
p3199
asS'M\xc3\xb6hlin'
p3200
(lp3201
S'783351'
p3202
asS'Mikhaylov'
p3203
(lp3204
S'2045558'
p3205
asS'Marietta'
p3206
(lp3207
S'2445668'
p3208
aS'2445668'
p3209
asS'Milevsko'
p3210
(lp3211
S'793910'
p3212
asS'Mmabatho'
p3213
(lp3214
S'1585116'
p3215
asS'Mislata'
p3216
(lp3217
S'767288'
p3218
asS'Millbrae'
p3219
(lp3220
S'2451206'
p3221
asS'Monino'
p3222
(lp3223
S'2047647'
p3224
asS'Morteros'
p3225
(lp3226
S'467013'
p3227
asS'Mecca'
p3228
(lp3229
S'2448815'
p3230
asS'Massillon'
p3231
(lp3232
S'2446756'
p3233
asS'Monte'
p3234
(lp3235
S'743762'
p3236
asS'Margraten'
p3237
(lp3238
S'731537'
p3239
asS'Mhangura'
p3240
(lp3241
S'1467306'
p3242
asS'Manorville'
p3243
(lp3244
S'2444963'
p3245
aS'2444963'
p3246
asS'Mezdra'
p3247
(lp3248
S'838068'
p3249
asS'Maracana\xc3\xba'
p3250
(lp3251
S'439506'
p3252
asS'Maibong'
p3253
(lp3254
S'2281627'
p3255
asS'Marshall'
p3256
(lp3257
S'2446090'
p3258
aS'2446090'
p3259
aS'2446090'
p3260
aS'2446090'
p3261
asS'Manalurpet'
p3262
(lp3263
S'2281839'
p3264
asS'Metz'
p3265
(lp3266
S'611317'
p3267
asS'Malaba'
p3268
(lp3269
S'1528139'
p3270
asS'Manglaur'
p3271
(lp3272
S'29091440'
p3273
asS'Masbate'
p3274
(lp3275
S'1199499'
p3276
asS'M\xc3\xbchlhausen'
p3277
(lp3278
S'676593'
p3279
aS'676593'
p3280
asS'Monona'
p3281
(lp3282
S'2452981'
p3283
asS'Mazar-e Sharif'
p3284
(lp3285
S'1926305'
p3286
asS'Madarounfa'
p3287
(lp3288
S'1381455'
p3289
asS'Murrieta'
p3290
(lp3291
S'2456553'
p3292
asS"Mel'nikovo"
p3293
(lp3294
S'2044744'
p3295
asS'Machado'
p3296
(lp3297
S'438984'
p3298
asS'Mockrehna'
p3299
(lp3300
S'675728'
p3301
asS'Marsannay-la-C\xc3\xb4te'
p3302
(lp3303
S'610250'
p3304
asS'Mogila'
p3305
(lp3306
S'482541'
p3307
asS'Machelen'
p3308
(lp3309
S'973825'
p3310
asS'Montevideo'
p3311
(lp3312
S'2453309'
p3313
aS'468052'
p3314
asS'Mundolsheim'
p3315
(lp3316
S'613683'
p3317
asS'Manresa'
p3318
(lp3319
S'766465'
p3320
asS'Merowe'
p3321
(lp3322
S'1434750'
p3323
asS'Meadela'
p3324
(lp3325
S'743359'
p3326
asS'Muna'
p3327
(lp3328
S'134215'
p3329
asS'Martinsville'
p3330
(lp3331
S'2446405'
p3332
aS'2446405'
p3333
asS'Marat'
p3334
(lp3335
S'1938946'
p3336
asS'Mohanur'
p3337
(lp3338
S'2294469'
p3339
asS'Muskegon'
p3340
(lp3341
S'2456614'
p3342
asS'Meraux'
p3343
(lp3344
S'2449490'
p3345
asS'Moraine'
p3346
(lp3347
S'2453899'
p3348
asS'Mussoorie'
p3349
(lp3350
S'2294970'
p3351
asS'Malapatan'
p3352
(lp3353
S'1199440'
p3354
asS'Makumbako'
p3355
(lp3356
S'1446359'
p3357
asS'Maassluis'
p3358
(lp3359
S'731491'
p3360
asS'Morogoro'
p3361
(lp3362
S'1447575'
p3363
asS'Mar del Plata'
p3364
(lp3365
S'466863'
p3366
asS'Mortara'
p3367
(lp3368
S'719133'
p3369
asS'Munderkingen'
p3370
(lp3371
S'676819'
p3372
asS'Montroig'
p3373
(lp3374
S'767697'
p3375
asS'Milagros'
p3376
(lp3377
S'1199530'
p3378
asS'Mapello'
p3379
(lp3380
S'717811'
p3381
asS'Monachil'
p3382
(lp3383
S'767410'
p3384
asS'Maratea'
p3385
(lp3386
S'717834'
p3387
asS'Manoppello'
p3388
(lp3389
S'717798'
p3390
asS'Melong'
p3391
(lp3392
S'1303316'
p3393
asS'Mayahi'
p3394
(lp3395
S'1381720'
p3396
asS'Monte San Biagio'
p3397
(lp3398
S'718736'
p3399
asS'Manerbio'
p3400
(lp3401
S'717788'
p3402
asS'Mezzolombardo'
p3403
(lp3404
S'718306'
p3405
asS'Milford Mill'
p3406
(lp3407
S'22664112'
p3408
asS'Mba\xc3\xafki'
p3409
(lp3410
S'1309295'
p3411
asS'Maxcan\xc3\xba'
p3412
(lp3413
S'133193'
p3414
asS'Mosfellsbaer'
p3415
(lp3416
S'980344'
p3417
asS'Maddaloni'
p3418
(lp3419
S'717586'
p3420
asS'Manticao'
p3421
(lp3422
S'1199482'
p3423
asS'Montalcino'
p3424
(lp3425
S'718634'
p3426
asS'Marana'
p3427
(lp3428
S'2445438'
p3429
asS'Minturno'
p3430
(lp3431
S'718376'
p3432
asS'Marand'
p3433
(lp3434
S'2254901'
p3435
asS'Marang'
p3436
(lp3437
S'1154895'
p3438
asS'Mananwala'
p3439
(lp3440
S'2211212'
p3441
asS'Montluel'
p3442
(lp3443
S'612876'
p3444
asS'Manacapuru'
p3445
(lp3446
S'460032'
p3447
asS'Maiquet\xc3\xada'
p3448
(lp3449
S'468397'
p3450
asS'Marysville'
p3451
(lp3452
S'2446557'
p3453
aS'2446557'
p3454
aS'2446557'
p3455
aS'2446557'
p3456
asS"Medyn'"
p3457
(lp3458
S'2044638'
p3459
asS'Myszk\xc3\xb3w'
p3460
(lp3461
S'508576'
p3462
asS'Makilala'
p3463
(lp3464
S'1180695'
p3465
asS'Mullsj\xc3\xb6'
p3466
(lp3467
S'898863'
p3468
aS'898863'
p3469
asS'Meiningen'
p3470
(lp3471
S'674622'
p3472
asS'Minna'
p3473
(lp3474
S'1400562'
p3475
asS'Mahalingpur'
p3476
(lp3477
S'2281562'
p3478
asS'Mountain Brook'
p3479
(lp3480
S'2455715'
p3481
asS'Marsassoum'
p3482
(lp3483
S'1415312'
p3484
asS'Marinha Grande'
p3485
(lp3486
S'743171'
p3487
asS'Mons'
p3488
(lp3489
S'974484'
p3490
asS'Miracema'
p3491
(lp3492
S'457591'
p3493
asS'Mundo Novo'
p3494
(lp3495
S'441135'
p3496
asS'Merta'
p3497
(lp3498
S'29070788'
p3499
asS'Masjed Soleyman'
p3500
(lp3501
S'2254917'
p3502
asS'Mutuali'
p3503
(lp3504
S'1552679'
p3505
asS'Montecchio Emilia'
p3506
(lp3507
S'718804'
p3508
asS'Mallemort'
p3509
(lp3510
S'609535'
p3511
asS'Morwell'
p3512
(lp3513
S'1104129'
p3514
asS'M\xc3\xbchldorf'
p3515
(lp3516
S'20157966'
p3517
asS'Maragondon'
p3518
(lp3519
S'1199488'
p3520
asS'Mao'
p3521
(lp3522
S'75159'
p3523
aS'1276707'
p3524
asS'Matamba'
p3525
(lp3526
S'1446649'
p3527
asS'Mill Plain'
p3528
(lp3529
S'2451119'
p3530
asS'Mundra'
p3531
(lp3532
S'29180623'
p3533
asS'Marl'
p3534
(lp3535
S'674049'
p3536
asS'Maheshwar'
p3537
(lp3538
S'29001686'
p3539
asS'Muret'
p3540
(lp3541
S'613719'
p3542
asS'Montalvo'
p3543
(lp3544
S'373704'
p3545
asS'Machagai'
p3546
(lp3547
S'466997'
p3548
asS'Murten'
p3549
(lp3550
S'783454'
p3551
asS'Maru'
p3552
(lp3553
S'1400071'
p3554
asS'Madera'
p3555
(lp3556
S'132633'
p3557
aS'2443915'
p3558
asS'M\xc3\xa9lyk\xc3\xbat'
p3559
(lp3560
S'811823'
p3561
asS'Mary'
p3562
(lp3563
S'1936594'
p3564
asS'Mula'
p3565
(lp3566
S'767977'
p3567
asS'Mornant'
p3568
(lp3569
S'613287'
p3570
asS'Moissy-Cramayel'
p3571
(lp3572
S'611742'
p3573
asS'Mambusao'
p3574
(lp3575
S'1199461'
p3576
asS'Madambakkam'
p3577
(lp3578
S'29074740'
p3579
asS'Monterotondo'
p3580
(lp3581
S'718958'
p3582
asS'Montecatini Terme'
p3583
(lp3584
S'718791'
p3585
asS'Madridejos'
p3586
(lp3587
S'766276'
p3588
aS'1199421'
p3589
asS'Montemorelos'
p3590
(lp3591
S'134028'
p3592
asS'Modena'
p3593
(lp3594
S'718431'
p3595
asS'Mount Sinai'
p3596
(lp3597
S'2455442'
p3598
asS'Monte Carmelo'
p3599
(lp3600
S'460168'
p3601
asS'Mer'
p3602
(lp3603
S'611046'
p3604
asS'Miguel\xc3\xb3polis'
p3605
(lp3606
S'457584'
p3607
asS'Mocoa'
p3608
(lp3609
S'368163'
p3610
asS'Mubende'
p3611
(lp3612
S'1453886'
p3613
asS'Malhargarh'
p3614
(lp3615
S'29026455'
p3616
asS'Misau'
p3617
(lp3618
S'1400568'
p3619
asS'Monrovia'
p3620
(lp3621
S'1350536'
p3622
aS'2453074'
p3623
asS'Montlh\xc3\xa9ry'
p3624
(lp3625
S'612861'
p3626
asS'Mogok'
p3627
(lp3628
S'1017625'
p3629
asS'Miajadas'
p3630
(lp3631
S'767146'
p3632
asS'Marigliano'
p3633
(lp3634
S'717885'
p3635
asS'Montigny-en-Gohelle'
p3636
(lp3637
S'612769'
p3638
asS'Manicor\xc3\xa9'
p3639
(lp3640
S'457524'
p3641
asS'Maryland City'
p3642
(lp3643
S'2446530'
p3644
asS'Malesherbes'
p3645
(lp3646
S'609500'
p3647
asS'Moline'
p3648
(lp3649
S'2452773'
p3650
asS'Molchanovo'
p3651
(lp3652
S'2047385'
p3653
asS'Molina'
p3654
(lp3655
S'349931'
p3656
asS'Manzanares el Real'
p3657
(lp3658
S'766492'
p3659
asS'Mansfield Woodhouse'
p3660
(lp3661
S'28263'
p3662
asS'Medell\xc3\xadn'
p3663
(lp3664
S'368150'
p3665
asS'Mampong'
p3666
(lp3667
S'1331013'
p3668
asS'Montalbano Ionico'
p3669
(lp3670
S'718632'
p3671
asS'Middletown'
p3672
(lp3673
S'2450376'
p3674
aS'2450376'
p3675
aS'2450376'
p3676
aS'2450376'
p3677
aS'2450376'
p3678
aS'2450376'
p3679
aS'2450376'
p3680
aS'2450376'
p3681
asS'Metkovic'
p3682
(lp3683
S'849137'
p3684
asS'Mabopane'
p3685
(lp3686
S'1584143'
p3687
asS'Monclova'
p3688
(lp3689
S'133947'
p3690
asS'Mieres'
p3691
(lp3692
S'767158'
p3693
asS'Manukan'
p3694
(lp3695
S'1199483'
p3696
asS'Murbad'
p3697
(lp3698
S'2292744'
p3699
asS'Matiri'
p3700
(lp3701
S'1446685'
p3702
asS'Medebach'
p3703
(lp3704
S'674436'
p3705
asS'Montalto di Castro'
p3706
(lp3707
S'718646'
p3708
asS'Monfalcone'
p3709
(lp3710
S'718578'
p3711
asS'Mount Prospect'
p3712
(lp3713
S'2455401'
p3714
asS'Mombasa'
p3715
(lp3716
S'1528335'
p3717
asS'Macclesfield'
p3718
(lp3719
S'28094'
p3720
asS'Malkangiri'
p3721
(lp3722
S'2281768'
p3723
asS'Molsheim'
p3724
(lp3725
S'611817'
p3726
asS'Marcianise'
p3727
(lp3728
S'717851'
p3729
asS'Maham'
p3730
(lp3731
S'2291466'
p3732
asS'Maserada sul Piave'
p3733
(lp3734
S'20130961'
p3735
asS'Mahad'
p3736
(lp3737
S'29070889'
p3738
asS'Mongomo'
p3739
(lp3740
S'1311616'
p3741
asS'Miusinsk'
p3742
(lp3743
S'927221'
p3744
asS'Meggen'
p3745
(lp3746
S'783298'
p3747
asS'Mixco'
p3748
(lp3749
S'84491'
p3750
asS'Montmorency'
p3751
(lp3752
S'55863539'
p3753
asS'Maiduguri'
p3754
(lp3755
S'1399579'
p3756
asS'Mayskiy'
p3757
(lp3758
S'2122132'
p3759
aS'2122132'
p3760
aS'2122132'
p3761
asS'Miller Place'
p3762
(lp3763
S'2451336'
p3764
asS'Marmaris'
p3765
(lp3766
S'2344254'
p3767
asS"Mariupol'"
p3768
(lp3769
S'926525'
p3770
asS'Montmagny'
p3771
(lp3772
S'612879'
p3773
asS'Malya'
p3774
(lp3775
S'1446425'
p3776
asS'Marennes'
p3777
(lp3778
S'609945'
p3779
asS'Milan'
p3780
(lp3781
S'2450850'
p3782
aS'2450850'
p3783
aS'2450850'
p3784
asS'Monte Santo de Minas'
p3785
(lp3786
S'440728'
p3787
asS'Morelos'
p3788
(lp3789
S'134095'
p3790
asS'Montoro Superiore'
p3791
(lp3792
S'20229536'
p3793
asS'Moscavide'
p3794
(lp3795
S'744296'
p3796
asS'Mordelles'
p3797
(lp3798
S'613204'
p3799
asS'Madhupur'
p3800
(lp3801
S'29001510'
p3802
asS'Morehead'
p3803
(lp3804
S'2453944'
p3805
aS'2453944'
p3806
asS'Merrimack'
p3807
(lp3808
S'2449715'
p3809
asS'Montecristo'
p3810
(lp3811
S'362661'
p3812
asS'Mottola'
p3813
(lp3814
S'719184'
p3815
asS'Montecristi'
p3816
(lp3817
S'375754'
p3818
asS'Mul'
p3819
(lp3820
S'2211268'
p3821
asS'Msowero'
p3822
(lp3823
S'1447747'
p3824
asS'Malchow'
p3825
(lp3826
S'673562'
p3827
asS'Morpeth'
p3828
(lp3829
S'29362'
p3830
asS'Mulanay'
p3831
(lp3832
S'1199548'
p3833
asS'Mindszent'
p3834
(lp3835
S'812020'
p3836
asS'Maranello'
p3837
(lp3838
S'717814'
p3839
asS'Minehead'
p3840
(lp3841
S'29086'
p3842
asS'Mende'
p3843
(lp3844
S'610932'
p3845
asS'Mistretta'
p3846
(lp3847
S'718420'
p3848
asS'Madeira'
p3849
(lp3850
S'2443905'
p3851
asS'Manjlegaon'
p3852
(lp3853
S'2293224'
p3854
asS'Mandya'
p3855
(lp3856
S'2295294'
p3857
asS'Morozovsk'
p3858
(lp3859
S'2122254'
p3860
asS'Moss Point'
p3861
(lp3862
S'2454591'
p3863
asS'Moravsk\xc3\xbd Krumlov'
p3864
(lp3865
S'794239'
p3866
asS'Mostar'
p3867
(lp3868
S'942994'
p3869
asS'Meitingen'
p3870
(lp3871
S'674665'
p3872
asS'Mesolonghi'
p3873
(lp3874
S'956951'
p3875
asS'Montepuez'
p3876
(lp3877
S'1551816'
p3878
asS'Minsk'
p3879
(lp3880
S'834463'
p3881
asS'Monteros'
p3882
(lp3883
S'467012'
p3884
asS'Markdorf'
p3885
(lp3886
S'673963'
p3887
asS'Masterton'
p3888
(lp3889
S'2349441'
p3890
asS'Mandagua\xc3\xa7u'
p3891
(lp3892
S'460037'
p3893
asS'Morshansk'
p3894
(lp3895
S'2047953'
p3896
asS'Musan'
p3897
(lp3898
S'1093910'
p3899
asS'Maldegem'
p3900
(lp3901
S'973882'
p3902
asS'Matane'
p3903
(lp3904
S'3597'
p3905
asS'Magalia'
p3906
(lp3907
S'2444077'
p3908
asS'Mehdawal'
p3909
(lp3910
S'2288674'
p3911
asS'M\xc3\xb3stoles'
p3912
(lp3913
S'767893'
p3914
asS'Markkleeberg West'
p3915
(lp3916
S'674000'
p3917
asS'Mez\xc5\x91t\xc3\xbar'
p3918
(lp3919
S'811938'
p3920
asS'Maesteg'
p3921
(lp3922
S'28139'
p3923
asS'Menongue'
p3924
(lp3925
S'1468968'
p3926
asS'Moorhead'
p3927
(lp3928
S'2453839'
p3929
asS'Malvinas Argentinas'
p3930
(lp3931
S'22529961'
p3932
asS'Musile di Piave'
p3933
(lp3934
S'719242'
p3935
asS'M\xc3\xa9kh\xc3\xa9'
p3936
(lp3937
S'1415596'
p3938
asS'Miacatl\xc3\xa1n'
p3939
(lp3940
S'133566'
p3941
asS'Membrilla'
p3942
(lp3943
S'767034'
p3944
asS'Manassas Park'
p3945
(lp3946
S'2444628'
p3947
asS'Meadville'
p3948
(lp3949
S'2448787'
p3950
asS'Matozinhos'
p3951
(lp3952
S'440042'
p3953
asS'Mettupalaiyam'
p3954
(lp3955
S'29077207'
p3956
asS'Montellano'
p3957
(lp3958
S'767601'
p3959
asS'Montalban'
p3960
(lp3961
S'1183632'
p3962
asS'Montataire'
p3963
(lp3964
S'612303'
p3965
asS'Minot'
p3966
(lp3967
S'2452189'
p3968
asS'Montella'
p3969
(lp3970
S'718880'
p3971
asS'Mpigi'
p3972
(lp3973
S'1453858'
p3974
asS'Machhlishahr'
p3975
(lp3976
S'2288809'
p3977
asS'Matrei in Osttirol'
p3978
(lp3979
S'550897'
p3980
asS'Maulvi Bazar'
p3981
(lp3982
S'1915147'
p3983
asS'Marmolejo'
p3984
(lp3985
S'766606'
p3986
asS'Me\xc3\x9fkirch'
p3987
(lp3988
S'674994'
p3989
asS'Mahabaleshwar'
p3990
(lp3991
S'2292826'
p3992
asS'Mostovskoy'
p3993
(lp3994
S'2122269'
p3995
asS'Moncarapacho'
p3996
(lp3997
S'743705'
p3998
asS'Metepec'
p3999
(lp4000
S'133453'
p4001
asS'Mian Channu'
p4002
(lp4003
S'2211239'
p4004
asS'Micco'
p4005
(lp4006
S'2450112'
p4007
asS'Mantes-la-Ville'
p4008
(lp4009
S'23691258'
p4010
asS'Marcos Ju\xc3\xa1rez'
p4011
(lp4012
S'467002'
p4013
asS'Martinengo'
p4014
(lp4015
S'717989'
p4016
asS'Mak\xc3\xb3'
p4017
(lp4018
S'811437'
p4019
asS'Mineral Wells'
p4020
(lp4021
S'2452003'
p4022
asS'Mauldin'
p4023
(lp4024
S'2446970'
p4025
asS'Marly-le-Roi'
p4026
(lp4027
S'610108'
p4028
asS'Macas'
p4029
(lp4030
S'375800'
p4031
asS'Mannheim'
p4032
(lp4033
S'673711'
p4034
asS"Melitopol'"
p4035
(lp4036
S'926840'
p4037
asS'Macau'
p4038
(lp4039
S'456312'
p4040
aS'1887901'
p4041
asS'Montereau-Fault-Yonne'
p4042
(lp4043
S'612550'
p4044
asS'Mettmann'
p4045
(lp4046
S'675048'
p4047
asS'Mazatecochco'
p4048
(lp4049
S'133228'
p4050
asS'Mlalo'
p4051
(lp4052
S'1518471'
p4053
asS'Marly-la-Ville'
p4054
(lp4055
S'610107'
p4056
asS'Mahbubnagar'
p4057
(lp4058
S'2281586'
p4059
asS'Mahilyow'
p4060
(lp4061
S'828064'
p4062
asS'Massakori'
p4063
(lp4064
S'1276809'
p4065
asS'Meyandoab'
p4066
(lp4067
S'2239897'
p4068
asS'Michigan City'
p4069
(lp4070
S'2450145'
p4071
asS'Mishkino'
p4072
(lp4073
S'2122215'
p4074
aS'2122215'
p4075
asS'Marktredwitz'
p4076
(lp4077
S'674038'
p4078
asS'Monteiro'
p4079
(lp4080
S'460176'
p4081
asS'Milaor'
p4082
(lp4083
S'1183337'
p4084
asS'Mutxamel'
p4085
(lp4086
S'767947'
p4087
asS'Maple Heights'
p4088
(lp4089
S'28338157'
p4090
asS'Monterenzio'
p4091
(lp4092
S'718944'
p4093
asS'Mairang'
p4094
(lp4095
S'2281645'
p4096
asS'Moringen'
p4097
(lp4098
S'676191'
p4099
asS'Mamuras'
p4100
(lp4101
S'470903'
p4102
asS'Mehran'
p4103
(lp4104
S'2254929'
p4105
asS'Montebello Vicentino'
p4106
(lp4107
S'718765'
p4108
asS'Montes Claros'
p4109
(lp4110
S'455886'
p4111
asS'Marblehead'
p4112
(lp4113
S'2445484'
p4114
asS'Moine\xc5\x9fti'
p4115
(lp4116
S'876055'
p4117
asS'Marondera'
p4118
(lp4119
S'1467242'
p4120
asS'Masvingo'
p4121
(lp4122
S'1467255'
p4123
asS'Muggia'
p4124
(lp4125
S'719193'
p4126
asS'Marac\xc3\xa1s'
p4127
(lp4128
S'457536'
p4129
asS'Myrtle Grove'
p4130
(lp4131
S'2456754'
p4132
aS'2456754'
p4133
asS'Madagali'
p4134
(lp4135
S'1399376'
p4136
asS'Monguno'
p4137
(lp4138
S'1400671'
p4139
asS'Magny-en-Vexin'
p4140
(lp4141
S'609243'
p4142
asS'Mbeya'
p4143
(lp4144
S'1446819'
p4145
asS'Maquoketa'
p4146
(lp4147
S'2445424'
p4148
asS'Marquette'
p4149
(lp4150
S'2446015'
p4151
asS'Milledgeville'
p4152
(lp4153
S'2451257'
p4154
asS'Mettet'
p4155
(lp4156
S'974250'
p4157
asS'Mubarakpur'
p4158
(lp4159
S'29027501'
p4160
asS'Manziana'
p4161
(lp4162
S'717807'
p4163
asS'Mauban'
p4164
(lp4165
S'1199512'
p4166
asS'Mazag\xc3\xa3o'
p4167
(lp4168
S'456327'
p4169
asS'Mably'
p4170
(lp4171
S'609134'
p4172
asS'Mali'
p4173
(lp4174
S'1337384'
p4175
asS'Maca\xc3\xa9'
p4176
(lp4177
S'456309'
p4178
asS'Motru'
p4179
(lp4180
S'876180'
p4181
asS'Marchwood'
p4182
(lp4183
S'28306'
p4184
asS'Magdalena Tlaltelulco'
p4185
(lp4186
S'132686'
p4187
asS'Mae Sai'
p4188
(lp4189
S'1226036'
p4190
asS'Monte Alegre de Sergipe'
p4191
(lp4192
S'456342'
p4193
asS'Melissia'
p4194
(lp4195
S'956734'
p4196
asS'Meko'
p4197
(lp4198
S'1400457'
p4199
asS'Middelfart'
p4200
(lp4201
S'555561'
p4202
asS'Mauren'
p4203
(lp4204
S'856450'
p4205
asS'Mestre'
p4206
(lp4207
S'718269'
p4208
asS'Mozhga'
p4209
(lp4210
S'2122275'
p4211
asS'Mengerskirchen'
p4212
(lp4213
S'674770'
p4214
asS'Manda'
p4215
(lp4216
S'1446459'
p4217
asS'Marawi City'
p4218
(lp4219
S'1182406'
p4220
asS'Mahgawan'
p4221
(lp4222
S'29028683'
p4223
asS'Memari'
p4224
(lp4225
S'2289925'
p4226
asS'Marsberg'
p4227
(lp4228
S'674078'
p4229
asS'Monze'
p4230
(lp4231
S'1577821'
p4232
asS'Manfredonia'
p4233
(lp4234
S'717789'
p4235
asS'Monza'
p4236
(lp4237
S'719063'
p4238
asS'Mandamarri'
p4239
(lp4240
S'2295182'
p4241
asS'Market Deeping'
p4242
(lp4243
S'28344'
p4244
asS'Manaoag'
p4245
(lp4246
S'1199464'
p4247
asS'Manly'
p4248
(lp4249
S'1103662'
p4250
asS'Maidstone'
p4251
(lp4252
S'28168'
p4253
asS'Mithi'
p4254
(lp4255
S'2211258'
p4256
asS'Morlaix'
p4257
(lp4258
S'613266'
p4259
asS'Metallostroy'
p4260
(lp4261
S'2045177'
p4262
asS'Mikhaylovskoye'
p4263
(lp4264
S'2046004'
p4265
aS'2046004'
p4266
aS'2046004'
p4267
aS'2046004'
p4268
asS'Madhyamgram'
p4269
(lp4270
S'2294924'
p4271
asS'Munger'
p4272
(lp4273
S'2294834'
p4274
asS'Martinsburg'
p4275
(lp4276
S'2446383'
p4277
asS'Motihari'
p4278
(lp4279
S'2294798'
p4280
asS'M\xc3\xbchlebach'
p4281
(lp4282
S'20103206'
p4283
asS'Mantova'
p4284
(lp4285
S'717803'
p4286
asS'Morsbach'
p4287
(lp4288
S'20169051'
p4289
asS'Mbarara'
p4290
(lp4291
S'1453747'
p4292
asS'Monzuno'
p4293
(lp4294
S'719066'
p4295
asS'Merelbeke'
p4296
(lp4297
S'974214'
p4298
asS'Mwanga'
p4299
(lp4300
S'1448128'
p4301
asS'Malavalli'
p4302
(lp4303
S'29203723'
p4304
asS'Morro do Chap\xc3\xa9u'
p4305
(lp4306
S'440927'
p4307
asS'Monsef\xc3\xba'
p4308
(lp4309
S'419034'
p4310
asS'Matamata'
p4311
(lp4312
S'2349457'
p4313
asS'Mor\xc4\x85g'
p4314
(lp4315
S'508165'
p4316
asS'Mondolfo'
p4317
(lp4318
S'718571'
p4319
asS'Mascali'
p4320
(lp4321
S'718020'
p4322
asS'Mahuta'
p4323
(lp4324
S'1509251'
p4325
aS'1446269'
p4326
asS'Medfield'
p4327
(lp4328
S'2448916'
p4329
asS'Monte San Pietro'
p4330
(lp4331
S'718744'
p4332
asS'Massa e Cozzile'
p4333
(lp4334
S'718047'
p4335
asS'Madzhalis'
p4336
(lp4337
S'2039621'
p4338
asS'Miribel'
p4339
(lp4340
S'611636'
p4341
asS'Marienberg'
p4342
(lp4343
S'673855'
p4344
asS'Muan\xc3\xa1'
p4345
(lp4346
S'457634'
p4347
asS'Mexico'
p4348
(lp4349
S'1183278'
p4350
aS'2449973'
p4351
asS'Manitou Springs'
p4352
(lp4353
S'2444824'
p4354
asS'Mainister na Corann'
p4355
(lp4356
S'561640'
p4357
asS'Medesano'
p4358
(lp4359
S'718158'
p4360
asS'Mar\xc3\xadlia'
p4361
(lp4362
S'455882'
p4363
asS'Mariestad'
p4364
(lp4365
S'898232'
p4366
asS'Mursan'
p4367
(lp4368
S'2282736'
p4369
asS'Marathon'
p4370
(lp4371
S'2445440'
p4372
asS'Manavgat'
p4373
(lp4374
S'2344249'
p4375
asS'Molfetta'
p4376
(lp4377
S'718467'
p4378
asS'Maindargi'
p4379
(lp4380
S'2293361'
p4381
asS'Manat\xc3\xad'
p4382
(lp4383
S'368339'
p4384
aS'65237'
p4385
asS'Manduel'
p4386
(lp4387
S'609657'
p4388
asS'Mattapoisett'
p4389
(lp4390
S'2446878'
p4391
asS'Marco'
p4392
(lp4393
S'457546'
p4394
aS'2445533'
p4395
asS'March'
p4396
(lp4397
S'28297'
p4398
asS'Miranda do Corvo'
p4399
(lp4400
S'743559'
p4401
asS'Marck'
p4402
(lp4403
S'609884'
p4404
asS'Madhoganj'
p4405
(lp4406
S'29069942'
p4407
asS'Mucuri'
p4408
(lp4409
S'441055'
p4410
asS'Monticello'
p4411
(lp4412
S'2453427'
p4413
aS'2453427'
p4414
aS'2453427'
p4415
aS'2453427'
p4416
aS'2453427'
p4417
aS'2453427'
p4418
aS'2453427'
p4419
asS'Malgrat de Mar'
p4420
(lp4421
S'766369'
p4422
asS'Marau'
p4423
(lp4424
S'457541'
p4425
asS'Montecito'
p4426
(lp4427
S'2453230'
p4428
asS'Moody'
p4429
(lp4430
S'2453619'
p4431
asS'Molave'
p4432
(lp4433
S'1199540'
p4434
asS'Monschau'
p4435
(lp4436
S'675985'
p4437
asS'Mi\xc4\x99dzyrzecz'
p4438
(lp4439
S'507291'
p4440
asS'Mangualde'
p4441
(lp4442
S'743108'
p4443
asS'Muyuka'
p4444
(lp4445
S'1303778'
p4446
asS'Muscle Shoals'
p4447
(lp4448
S'2456572'
p4449
asS'Mu\xc3\xb1oz'
p4450
(lp4451
S'1199549'
p4452
aS'1199549'
p4453
asS'Matino'
p4454
(lp4455
S'718118'
p4456
asS'Macomb'
p4457
(lp4458
S'2443821'
p4459
asS'Meinerzhagen'
p4460
(lp4461
S'674616'
p4462
asS'Mogadishu'
p4463
(lp4464
S'1428499'
p4465
asS'Maladzyechna'
p4466
(lp4467
S'828110'
p4468
asS'Midhurst'
p4469
(lp4470
S'28931'
p4471
asS'Murtajapur'
p4472
(lp4473
S'29087444'
p4474
asS'Monte Estoril'
p4475
(lp4476
S'744077'
p4477
asS'Menen'
p4478
(lp4479
S'974197'
p4480
asS'Mengen'
p4481
(lp4482
S'674761'
p4483
asS'Mut'
p4484
(lp4485
S'2344278'
p4486
asS'My\xc5\x9blib\xc3\xb3rz'
p4487
(lp4488
S'508527'
p4489
asS'Mondeville'
p4490
(lp4491
S'611920'
p4492
asS'Moerbeke'
p4493
(lp4494
S'974338'
p4495
asS'Muswellbrook'
p4496
(lp4497
S'1104409'
p4498
asS'Mori'
p4499
(lp4500
S'719099'
p4501
asS'Moro'
p4502
(lp4503
S'2211265'
p4504
asS'Morales'
p4505
(lp4506
S'368349'
p4507
aS'368349'
p4508
aS'84542'
p4509
asS'Mindelo'
p4510
(lp4511
S'1310805'
p4512
asS'Mount Barker'
p4513
(lp4514
S'1104145'
p4515
asS'Mora'
p4516
(lp4517
S'1303671'
p4518
aS'767714'
p4519
aS'898677'
p4520
asS'Machesney Park'
p4521
(lp4522
S'2443737'
p4523
asS'Montelabbate'
p4524
(lp4525
S'718867'
p4526
asS'Moncada'
p4527
(lp4528
S'767420'
p4529
asS'Mondov\xc3\xac'
p4530
(lp4531
S'718572'
p4532
asS'Miri'
p4533
(lp4534
S'1154932'
p4535
asS'Mundgod'
p4536
(lp4537
S'2293965'
p4538
asS'Maring\xc3\xa1'
p4539
(lp4540
S'455883'
p4541
asS'Mira'
p4542
(lp4543
S'718380'
p4544
aS'743548'
p4545
asS'Morondava'
p4546
(lp4547
S'1499012'
p4548
asS'Meerbusch'
p4549
(lp4550
S'674463'
p4551
asS'M\xc3\xa9ricourt'
p4552
(lp4553
S'611103'
p4554
asS'Miahuatl\xc3\xa1n de Porfirio D\xc3\xadaz'
p4555
(lp4556
S'133573'
p4557
asS'Middle Island'
p4558
(lp4559
S'2450225'
p4560
asS'Mszczon\xc3\xb3w'
p4561
(lp4562
S'508429'
p4563
asS'Melipilla'
p4564
(lp4565
S'349930'
p4566
asS'Montesano sulla Marcellana'
p4567
(lp4568
S'718964'
p4569
asS'Mableton'
p4570
(lp4571
S'2443629'
p4572
asS'Medway'
p4573
(lp4574
S'2448999'
p4575
asS'Mount Hagen'
p4576
(lp4577
S'1061721'
p4578
asS'Muzo'
p4579
(lp4580
S'368350'
p4581
asS'Malo'
p4582
(lp4583
S'717751'
p4584
asS'Mudigere'
p4585
(lp4586
S'29209447'
p4587
asS'Mykonos'
p4588
(lp4589
S'957831'
p4590
asS'Mertoyudan'
p4591
(lp4592
S'1038451'
p4593
asS'Male'
p4594
(lp4595
S'2268295'
p4596
asS'Mala'
p4597
(lp4598
S'418998'
p4599
asS'Manaure'
p4600
(lp4601
S'362036'
p4602
asS'Myanaung'
p4603
(lp4604
S'1017667'
p4605
asS'Montivilliers'
p4606
(lp4607
S'612821'
p4608
asS'Miko\xc5\x82\xc3\xb3w'
p4609
(lp4610
S'507493'
p4611
asS'Melenki'
p4612
(lp4613
S'2122158'
p4614
asS'Maluso'
p4615
(lp4616
S'1199456'
p4617
asS'Montecorvino Rovella'
p4618
(lp4619
S'718816'
p4620
asS'Markovo'
p4621
(lp4622
S'2122109'
p4623
asS'Magallanes'
p4624
(lp4625
S'1199422'
p4626
asS'Martano'
p4627
(lp4628
S'717979'
p4629
asS'Marab\xc3\xa1'
p4630
(lp4631
S'455881'
p4632
asS'Mendoza'
p4633
(lp4634
S'332471'
p4635
asS'Mahendragarh'
p4636
(lp4637
S'2289407'
p4638
asS'Marghilon'
p4639
(lp4640
S'2271213'
p4641
asS'Mign\xc3\xa9-Auxances'
p4642
(lp4643
S'611493'
p4644
asS'Melegnano'
p4645
(lp4646
S'718181'
p4647
asS'Mi\xc4\x99dzyrzec Podlaski'
p4648
(lp4649
S'507290'
p4650
asS'Musaiyib'
p4651
(lp4652
S'1979411'
p4653
asS'Muslyumovo'
p4654
(lp4655
S'2122301'
p4656
asS'Muang Xay'
p4657
(lp4658
S'1139839'
p4659
asS'Mospino'
p4660
(lp4661
S'927462'
p4662
asS'Maiolati Spontini'
p4663
(lp4664
S'717688'
p4665
asS'Magdagachi'
p4666
(lp4667
S'2122041'
p4668
asS'Mocorito'
p4669
(lp4670
S'133841'
p4671
asS'Madingou'
p4672
(lp4673
S'1280927'
p4674
asS'Mingoyo'
p4675
(lp4676
S'1447198'
p4677
asS'Myingyan'
p4678
(lp4679
S'1017672'
p4680
asS'Mozelos'
p4681
(lp4682
S'24900171'
p4683
asS'Malaybalay'
p4684
(lp4685
S'1199442'
p4686
asS'Mbouda'
p4687
(lp4688
S'1303179'
p4689
asS'Moncton'
p4690
(lp4691
S'3796'
p4692
asS'Maurepas'
p4693
(lp4694
S'610601'
p4695
asS'Matthews'
p4696
(lp4697
S'2446900'
p4698
asS'M\xc4\x83r\xc4\x83\xc5\x9fe\xc5\x9fti'
p4699
(lp4700
S'875359'
p4701
asS'Majayjay'
p4702
(lp4703
S'1180660'
p4704
asS'Mokshan'
p4705
(lp4706
S'2122233'
p4707
asS'Machilipatnam'
p4708
(lp4709
S'2295246'
p4710
asS'Mikumi'
p4711
(lp4712
S'1447161'
p4713
asS'Manching'
p4714
(lp4715
S'673651'
p4716
asS'Melgar'
p4717
(lp4718
S'369129'
p4719
asS'Milano'
p4720
(lp4721
S'718345'
p4722
asS'Mpwapwa'
p4723
(lp4724
S'1447648'
p4725
asS'Meleuz'
p4726
(lp4727
S'2122161'
p4728
asS'Mokameh'
p4729
(lp4730
S'2294833'
p4731
asS'Meldorf'
p4732
(lp4733
S'674681'
p4734
asS'Mi\xc5\x84sk Mazowiecki'
p4735
(lp4736
S'507678'
p4737
asS'Matip\xc3\xb3'
p4738
(lp4739
S'439994'
p4740
asS'Michalovce'
p4741
(lp4742
S'821011'
p4743
asS'Madurai'
p4744
(lp4745
S'2295425'
p4746
asS'Mayville'
p4747
(lp4748
S'2447385'
p4749
asS'Meyrin'
p4750
(lp4751
S'783334'
p4752
asS'Maple Valley'
p4753
(lp4754
S'2445298'
p4755
asS'Mae Chan'
p4756
(lp4757
S'1225473'
p4758
asS'Morgan Hill'
p4759
(lp4760
S'2454052'
p4761
asS'Marsillargues'
p4762
(lp4763
S'610269'
p4764
asS'Mamadysh'
p4765
(lp4766
S'2122090'
p4767
asS'Maba'
p4768
(lp4769
S'2137149'
p4770
asS'Milpa Alta'
p4771
(lp4772
S'133622'
p4773
asS'Macusani'
p4774
(lp4775
S'418550'
p4776
asS'Montichiari'
p4777
(lp4778
S'719024'
p4779
asS'Mbinga'
p4780
(lp4781
S'1446825'
p4782
asS'Murshidabad'
p4783
(lp4784
S'2282737'
p4785
asS'Mkokotoni'
p4786
(lp4787
S'1447345'
p4788
asS'Mumbai'
p4789
(lp4790
S'2295411'
p4791
asS'Mesagne'
p4792
(lp4793
S'718261'
p4794
asS'Morciano di Romagna'
p4795
(lp4796
S'719081'
p4797
asS'Madang'
p4798
(lp4799
S'1062032'
p4800
asS'Montr\xc3\xa9al'
p4801
(lp4802
S'3534'
p4803
asS'Markham'
p4804
(lp4805
S'2445838'
p4806
asS'Muzaffarabad'
p4807
(lp4808
S'2211278'
p4809
asS'Mendeleyevskiy'
p4810
(lp4811
S'2044964'
p4812
asS'Malaya Vishera'
p4813
(lp4814
S'2122067'
p4815
asS'Minervino Murge'
p4816
(lp4817
S'718367'
p4818
asS'Marolambo'
p4819
(lp4820
S'1362950'
p4821
asS'Market Drayton'
p4822
(lp4823
S'28345'
p4824
asS'Makedonski Brod'
p4825
(lp4826
S'481793'
p4827
asS'Murud'
p4828
(lp4829
S'2282741'
p4830
asS'Melito di Napoli'
p4831
(lp4832
S'718201'
p4833
asS'Mamer'
p4834
(lp4835
S'979735'
p4836
asS'Muang Pakxan'
p4837
(lp4838
S'1139790'
p4839
asS'Morrisville'
p4840
(lp4841
S'2454348'
p4842
aS'2454348'
p4843
aS'2454348'
p4844
asS'Muktagacha'
p4845
(lp4846
S'1915157'
p4847
asS'Mechanicsville'
p4848
(lp4849
S'2448848'
p4850
asS'Madanpur'
p4851
(lp4852
S'29004682'
p4853
asS'Manassas'
p4854
(lp4855
S'2444625'
p4856
asS'Marktoberdorf'
p4857
(lp4858
S'674036'
p4859
asS'Mari-Turek'
p4860
(lp4861
S'2122104'
p4862
asS'Maiyema'
p4863
(lp4864
S'1399687'
p4865
asS'Mpika'
p4866
(lp4867
S'1570467'
p4868
asS'Mukerian'
p4869
(lp4870
S'2290697'
p4871
asS'Malin'
p4872
(lp4873
S'926160'
p4874
asS'Mitsamiouli'
p4875
(lp4876
S'1306102'
p4877
asS'Maglie'
p4878
(lp4879
S'717658'
p4880
asS'Meymaneh'
p4881
(lp4882
S'1926416'
p4883
asS'Moulmein'
p4884
(lp4885
S'1017661'
p4886
asS'Masinloc'
p4887
(lp4888
S'1199500'
p4889
asS'Me\xc3\x9fstetten'
p4890
(lp4891
S'675000'
p4892
asS'Milton-Freewater'
p4893
(lp4894
S'2451813'
p4895
asS'Miguel Esteban'
p4896
(lp4897
S'767162'
p4898
asS'M\xc3\xa8ze'
p4899
(lp4900
S'611407'
p4901
asS'Matara'
p4902
(lp4903
S'2189735'
p4904
asS'Maca\xc3\xbabas'
p4905
(lp4906
S'457498'
p4907
asS"Monteforte d'Alpone"
p4908
(lp4909
S'718840'
p4910
asS'Matari'
p4911
(lp4912
S'2211231'
p4913
asS'Mat\xc3\xadas Romero'
p4914
(lp4915
S'133175'
p4916
asS'Magwe'
p4917
(lp4918
S'1017567'
p4919
asS'Melfi'
p4920
(lp4921
S'718192'
p4922
aS'1276984'
p4923
asS'Malvan'
p4924
(lp4925
S'29030542'
p4926
asS'Maigo'
p4927
(lp4928
S'1180575'
p4929
asS'Miercurea-Ciuc'
p4930
(lp4931
S'875680'
p4932
asS'Myrina'
p4933
(lp4934
S'56023041'
p4935
asS'Montpon-M\xc3\xa9nest\xc3\xa9rol'
p4936
(lp4937
S'613003'
p4938
asS'Menfi'
p4939
(lp4940
S'718217'
p4941
asS'Malvar'
p4942
(lp4943
S'1181392'
p4944
asS'Morgantown'
p4945
(lp4946
S'2454098'
p4947
asS'Mosina'
p4948
(lp4949
S'508260'
p4950
asS'Madhubani'
p4951
(lp4952
S'29118910'
p4953
asS'Monahans'
p4954
(lp4955
S'2452830'
p4956
asS'Misantla'
p4957
(lp4958
S'133794'
p4959
asS'Memmelsdorf'
p4960
(lp4961
S'674735'
p4962
asS'Magna'
p4963
(lp4964
S'2444115'
p4965
asS'Millinocket'
p4966
(lp4967
S'2451515'
p4968
asS'Middelkerke'
p4969
(lp4970
S'974293'
p4971
asS'Musabani'
p4972
(lp4973
S'2282749'
p4974
asS'Mawab'
p4975
(lp4976
S'1199514'
p4977
asS'Mata de S\xc3\xa3o Jo\xc3\xa3o'
p4978
(lp4979
S'460087'
p4980
asS'Mendicino'
p4981
(lp4982
S'718215'
p4983
asS'Milharado'
p4984
(lp4985
S'743520'
p4986
asS'Monaca'
p4987
(lp4988
S'2452822'
p4989
asS'Mola di Bari'
p4990
(lp4991
S'718457'
p4992
asS'Macaparana'
p4993
(lp4994
S'438934'
p4995
asS'Ma\xc3\xa7ka'
p4996
(lp4997
S'2331834'
p4998
asS'Moshkovo'
p4999
(lp5000
S'2048074'
p5001
asS'Mirandola'
p5002
(lp5003
S'718395'
p5004
asS'Monte San Savino'
p5005
(lp5006
S'718745'
p5007
asS'Minneapolis'
p5008
(lp5009
S'2452077'
p5010
asS'Mardan'
p5011
(lp5012
S'2211223'
p5013
asS'Macael'
p5014
(lp5015
S'766246'
p5016
asS'Malpica'
p5017
(lp5018
S'29371761'
p5019
asS'Maple Ridge'
p5020
(lp5021
S'9813'
p5022
asS'Malpura'
p5023
(lp5024
S'29025230'
p5025
asS'Mangochi'
p5026
(lp5027
S'1367744'
p5028
asS'Morteau'
p5029
(lp5030
S'613320'
p5031
asS'Muang Khong'
p5032
(lp5033
S'1140556'
p5034
asS'Marieville'
p5035
(lp5036
S'3544'
p5037
asS'Mangaldan'
p5038
(lp5039
S'1199471'
p5040
asS'Mufulira'
p5041
(lp5042
S'1570718'
p5043
asS'Masonboro'
p5044
(lp5045
S'2446682'
p5046
asS'Murliganj'
p5047
(lp5048
S'2288949'
p5049
asS'Mityana'
p5050
(lp5051
S'1453815'
p5052
asS'M\xc3\xb6lndal'
p5053
(lp5054
S'898653'
p5055
asS'Mhasla'
p5056
(lp5057
S'2282361'
p5058
asS'Medeiros Neto'
p5059
(lp5060
S'440103'
p5061
asS'Mooresville'
p5062
(lp5063
S'2453815'
p5064
aS'2453815'
p5065
asS'Manistee'
p5066
(lp5067
S'2444804'
p5068
asS'Mocuba'
p5069
(lp5070
S'1558317'
p5071
asS'Markgr\xc3\xb6ningen'
p5072
(lp5073
S'673991'
p5074
asS'Medulla'
p5075
(lp5076
S'2448993'
p5077
asS'Meckenheim'
p5078
(lp5079
S'674420'
p5080
asS'Merthyr Tydfil'
p5081
(lp5082
S'28757'
p5083
asS'Mazamari'
p5084
(lp5085
S'419022'
p5086
asS'Murmansk'
p5087
(lp5088
S'2122296'
p5089
asS'Mandaue City'
p5090
(lp5091
S'1181771'
p5092
asS'Mettur'
p5093
(lp5094
S'2295303'
p5095
asS'Morro da Fuma\xc3\xa7a'
p5096
(lp5097
S'460187'
p5098
asS'Manjacaze'
p5099
(lp5100
S'1558013'
p5101
asS'Midfield'
p5102
(lp5103
S'2450432'
p5104
asS'Monopoli'
p5105
(lp5106
S'718598'
p5107
asS'Moralillo'
p5108
(lp5109
S'134083'
p5110
asS'Mondelange'
p5111
(lp5112
S'611912'
p5113
asS'Mardakyan'
p5114
(lp5115
S'1951965'
p5116
asS'Madinat Hamad'
p5117
(lp5118
S'1967029'
p5119
asS'Maasbree'
p5120
(lp5121
S'731482'
p5122
asS'Monson'
p5123
(lp5124
S'2453087'
p5125
asS'Marcallo con Casone'
p5126
(lp5127
S'717836'
p5128
asS'Mega'
p5129
(lp5130
S'1318689'
p5131
asS'Morez'
p5132
(lp5133
S'613229'
p5134
asS'Moree'
p5135
(lp5136
S'1104099'
p5137
asS'Mariara'
p5138
(lp5139
S'395280'
p5140
asS'Mosul'
p5141
(lp5142
S'1979409'
p5143
asS'Muro Lucano'
p5144
(lp5145
S'719230'
p5146
asS'Mittenwalde'
p5147
(lp5148
S'675602'
p5149
asS'Mainleus'
p5150
(lp5151
S'673506'
p5152
asS'Madisonville'
p5153
(lp5154
S'2444019'
p5155
asS'Malangwa'
p5156
(lp5157
S'2269140'
p5158
asS'Manzano'
p5159
(lp5160
S'717806'
p5161
asS'Maurawan'
p5162
(lp5163
S'2288733'
p5164
asS'Menemen'
p5165
(lp5166
S'2344258'
p5167
asS'Mikkeli'
p5168
(lp5169
S'569806'
p5170
asS'Malinalco'
p5171
(lp5172
S'132786'
p5173
asS'Murano'
p5174
(lp5175
S'719216'
p5176
asS'M\xc3\xb6ckern'
p5177
(lp5178
S'675717'
p5179
asS'Manciano'
p5180
(lp5181
S'717770'
p5182
asS'Mariana'
p5183
(lp5184
S'439651'
p5185
asS'Muang Ph\xc3\xb4n-H\xc3\xb4ng'
p5186
(lp5187
S'1139798'
p5188
asS'Mariani'
p5189
(lp5190
S'2289101'
p5191
asS'Most'
p5192
(lp5193
S'794257'
p5194
asS'Muurame'
p5195
(lp5196
S'570047'
p5197
asS'Moss'
p5198
(lp5199
S'861956'
p5200
asS'Madhugiri'
p5201
(lp5202
S'2294118'
p5203
asS'Maco'
p5204
(lp5205
S'1199416'
p5206
asS'Mosj\xc3\xb8en'
p5207
(lp5208
S'861953'
p5209
asS'Maudaha'
p5210
(lp5211
S'29108727'
p5212
asS'Mechra Belqsiri'
p5213
(lp5214
S'1537815'
p5215
asS'Miches'
p5216
(lp5217
S'75288'
p5218
asS'Miech\xc3\xb3w'
p5219
(lp5220
S'507184'
p5221
asS'Mogoytuy'
p5222
(lp5223
S'2047066'
p5224
asS'Mayya'
p5225
(lp5226
S'2122135'
p5227
asS'Maitland'
p5228
(lp5229
S'2444341'
p5230
asS'Malvern'
p5231
(lp5232
S'2444565'
p5233
asS'Mayfield'
p5234
(lp5235
S'2447203'
p5236
asS'Mamallapuram'
p5237
(lp5238
S'2281815'
p5239
asS'Moundsville'
p5240
(lp5241
S'2454715'
p5242
asS"Medvezh'yegorsk"
p5243
(lp5244
S'2044589'
p5245
asS'Mponela'
p5246
(lp5247
S'1368236'
p5248
asS'Mazamitla'
p5249
(lp5250
S'133217'
p5251
asS'Moreno Valley'
p5252
(lp5253
S'2453984'
p5254
asS'Mornington'
p5255
(lp5256
S'28586264'
p5257
asS'Meycauayan'
p5258
(lp5259
S'1199527'
p5260
asS'Montecosaro'
p5261
(lp5262
S'718817'
p5263
asS'Mountainside'
p5264
(lp5265
S'2455987'
p5266
asS'Maasin'
p5267
(lp5268
S'1199409'
p5269
aS'1199409'
p5270
asS'Motta di Livenza'
p5271
(lp5272
S'719171'
p5273
asS'Mahajanga'
p5274
(lp5275
S'1361960'
p5276
asS'Muniz Freire'
p5277
(lp5278
S'457642'
p5279
asS'Middlesex'
p5280
(lp5281
S'2450336'
p5282
asS'Mpanda'
p5283
(lp5284
S'1518485'
p5285
asS'Montaigu'
p5286
(lp5287
S'612230'
p5288
asS'Marsh Harbour'
p5289
(lp5290
S'56994'
p5291
asS'Makarska'
p5292
(lp5293
S'848956'
p5294
asS'Mayo Belwa'
p5295
(lp5296
S'1400210'
p5297
asS'Mwene-Ditu'
p5298
(lp5299
S'1476791'
p5300
asS'Mastung'
p5301
(lp5302
S'2211230'
p5303
asS'Masku'
p5304
(lp5305
S'569617'
p5306
asS'Mariquita'
p5307
(lp5308
S'368341'
p5309
asS'Masindi'
p5310
(lp5311
S'1453696'
p5312
asS'Mandalgov\xc4\xad'
p5313
(lp5314
S'2266553'
p5315
asS'Margherita'
p5316
(lp5317
S'2290333'
p5318
asS'Mamanguape'
p5319
(lp5320
S'457513'
p5321
asS'Meckenbeuren'
p5322
(lp5323
S'674417'
p5324
asS'Mendarda'
p5325
(lp5326
S'2291916'
p5327
asS'Mildura'
p5328
(lp5329
S'1103898'
p5330
asS'My\xc5\x9blenice'
p5331
(lp5332
S'508524'
p5333
asS'Mapleton'
p5334
(lp5335
S'2445341'
p5336
asS'Mountain Home'
p5337
(lp5338
S'2455767'
p5339
aS'2455767'
p5340
asS'Mau\xc3\xa9s'
p5341
(lp5342
S'457574'
p5343
asS'Medvedevo'
p5344
(lp5345
S'2044452'
p5346
asS'Manzini'
p5347
(lp5348
S'1563424'
p5349
asS'Murwara'
p5350
(lp5351
S'29064671'
p5352
asS'Mar\xc3\xadn'
p5353
(lp5354
S'766591'
p5355
asS'Mangalia'
p5356
(lp5357
S'875327'
p5358
asS'Magny-les-Hameaux'
p5359
(lp5360
S'609255'
p5361
asS'Marabella'
p5362
(lp5363
S'380133'
p5364
asS'M\xc3\xb3r'
p5365
(lp5366
S'812130'
p5367
asS'Monkayo'
p5368
(lp5369
S'1183613'
p5370
asS'Makedonska Kamenica'
p5371
(lp5372
S'482257'
p5373
asS'Minneola'
p5374
(lp5375
S'2452129'
p5376
asS'Mchinji'
p5377
(lp5378
S'1501191'
p5379
asS'M\xc3\xa4nts\xc3\xa4l\xc3\xa4'
p5380
(lp5381
S'569541'
p5382
asS'Mburucuy\xc3\xa1'
p5383
(lp5384
S'467316'
p5385
asS'Maria Aurora'
p5386
(lp5387
S'1182443'
p5388
asS'Mandalgarh'
p5389
(lp5390
S'29195206'
p5391
asS'Mount Sterling'
p5392
(lp5393
S'2455449'
p5394
asS'Malaunay'
p5395
(lp5396
S'609466'
p5397
asS'Marche-en-Famenne'
p5398
(lp5399
S'973955'
p5400
asS'Melito di Porto Salvo'
p5401
(lp5402
S'718202'
p5403
asS'Mtama'
p5404
(lp5405
S'1447778'
p5406
asS'Mon\xc3\xa7\xc3\xa3o'
p5407
(lp5408
S'457607'
p5409
aS'743704'
p5410
asS'Mak\xc3\xb3w Mazowiecki'
p5411
(lp5412
S'506219'
p5413
asS'Murovanyye Kurilovtsy'
p5414
(lp5415
S'927551'
p5416
asS'M\xc3\xb6ckm\xc3\xbchl'
p5417
(lp5418
S'675725'
p5419
asS'Marsa'
p5420
(lp5421
S'483427'
p5422
asS'Margosatubig'
p5423
(lp5424
S'1199491'
p5425
asS'M\xc3\xb6hnesee'
p5426
(lp5427
S'15002714'
p5428
asS'Merville'
p5429
(lp5430
S'611188'
p5431
asS'Mandeure'
p5432
(lp5433
S'609642'
p5434
asS'Miami Shores'
p5435
(lp5436
S'2450091'
p5437
asS'Mabalacat'
p5438
(lp5439
S'1179677'
p5440
asS'Moh\xc3\xa1cs'
p5441
(lp5442
S'812076'
p5443
asS'Marino'
p5444
(lp5445
S'717939'
p5446
asS'Mirabella Imbaccari'
p5447
(lp5448
S'718383'
p5449
asS'Marina'
p5450
(lp5451
S'2445712'
p5452
asS'Magnolia'
p5453
(lp5454
S'2444133'
p5455
asS'Monserrato'
p5456
(lp5457
S'718606'
p5458
asS'Marburg'
p5459
(lp5460
S'673788'
p5461
asS'Milton Keynes'
p5462
(lp5463
S'29062'
p5464
asS'M\xc3\xa9rignac'
p5465
(lp5466
S'611111'
p5467
asS'Ma\xc5\xbeeikiai'
p5468
(lp5469
S'476340'
p5470
asS'Matinha'
p5471
(lp5472
S'439974'
p5473
asS'Massa Marittima'
p5474
(lp5475
S'718057'
p5476
asS'Malalbergo'
p5477
(lp5478
S'717699'
p5479
asS'Minusinsk'
p5480
(lp5481
S'2122208'
p5482
asS'Mehun-sur-Y\xc3\xa8vre'
p5483
(lp5484
S'610831'
p5485
asS'Musafirkhana'
p5486
(lp5487
S'2288753'
p5488
asS'Mataquescuintla'
p5489
(lp5490
S'84455'
p5491
asS'Maracay'
p5492
(lp5493
S'395271'
p5494
asS'M\xc3\xb6lln'
p5495
(lp5496
S'675870'
p5497
asS'Malters'
p5498
(lp5499
S'783244'
p5500
asS'Mog\xc3\xa1n'
p5501
(lp5502
S'767319'
p5503
asS'M\xc3\xb3rrope'
p5504
(lp5505
S'419039'
p5506
asS'Montegrotto Terme'
p5507
(lp5508
S'718864'
p5509
asS'Mathis'
p5510
(lp5511
S'2446843'
p5512
asS'Mentana'
p5513
(lp5514
S'718224'
p5515
asS'Melun'
p5516
(lp5517
S'610907'
p5518
asS'M\xc3\xb6mlingen'
p5519
(lp5520
S'675908'
p5521
asS'M\xc3\xa1laga'
p5522
(lp5523
S'368527'
p5524
aS'766356'
p5525
asS'Melrose'
p5526
(lp5527
S'2449181'
p5528
asS'Massena'
p5529
(lp5530
S'2446735'
p5531
asS'Melur'
p5532
(lp5533
S'29077538'
p5534
asS'Muromtsevo'
p5535
(lp5536
S'2048850'
p5537
asS'Murfreesboro'
p5538
(lp5539
S'2456415'
p5540
asS'Morlupo'
p5541
(lp5542
S'719112'
p5543
asS'Merritt'
p5544
(lp5545
S'9652'
p5546
asS'Myn\xc3\xa4m\xc3\xa4ki'
p5547
(lp5548
S'570117'
p5549
asS'Moscow'
p5550
(lp5551
S'2122265'
p5552
aS'2454467'
p5553
asS'Marchtrenk'
p5554
(lp5555
S'545853'
p5556
asS'Muszyna'
p5557
(lp5558
S'508486'
p5559
asS'Majdanpek'
p5560
(lp5561
S'535192'
p5562
asS'Mosta'
p5563
(lp5564
S'483443'
p5565
asS'Maddur'
p5566
(lp5567
S'29137014'
p5568
asS'Majuro'
p5569
(lp5570
S'1064287'
p5571
asS'Malahide'
p5572
(lp5573
S'561643'
p5574
asS'Montchanin'
p5575
(lp5576
S'612434'
p5577
asS'Mentone'
p5578
(lp5579
S'2449462'
p5580
asS'Mantes-la-Jolie'
p5581
(lp5582
S'609725'
p5583
asS'Magdeburg'
p5584
(lp5585
S'673361'
p5586
asS'Markapur'
p5587
(lp5588
S'2293505'
p5589
asS'Manolo Fortich'
p5590
(lp5591
S'1199480'
p5592
asS'Marovoay'
p5593
(lp5594
S'1363129'
p5595
asS'Minerbio'
p5596
(lp5597
S'718365'
p5598
asS'Mansalay'
p5599
(lp5600
S'1199481'
p5601
asS'Makawao'
p5602
(lp5603
S'2444391'
p5604
asS'Malkara'
p5605
(lp5606
S'2344248'
p5607
asS'Masyaf'
p5608
(lp5609
S'1947175'
p5610
asS'Misratah'
p5611
(lp5612
S'1352997'
p5613
asS'Mukilteo'
p5614
(lp5615
S'2456177'
p5616
asS'Massamagrell'
p5617
(lp5618
S'766710'
p5619
asS'Manjakandriana'
p5620
(lp5621
S'1362645'
p5622
asS'Mart\xc3\xadnez de La Torre'
p5623
(lp5624
S'133068'
p5625
asS'Murphysboro'
p5626
(lp5627
S'2456471'
p5628
asS'Mukdahan'
p5629
(lp5630
S'1226048'
p5631
asS'Midland'
p5632
(lp5633
S'23392770'
p5634
aS'2450444'
p5635
aS'2450444'
p5636
aS'2450444'
p5637
asS'Munroe Falls'
p5638
(lp5639
S'2456355'
p5640
asS'Moranbah'
p5641
(lp5642
S'1104091'
p5643
asS'Manama'
p5644
(lp5645
S'1967057'
p5646
asS'Madukkarai'
p5647
(lp5648
S'2294447'
p5649
asS'Marcellina'
p5650
(lp5651
S'717842'
p5652
asS'Mossendjo'
p5653
(lp5654
S'1281476'
p5655
asS'Marakkanam'
p5656
(lp5657
S'2294280'
p5658
asS'Marstons Mills'
p5659
(lp5660
S'2446216'
p5661
asS'Makeni'
p5662
(lp5663
S'1421551'
p5664
asS'Marsico Nuovo'
p5665
(lp5666
S'717975'
p5667
asS'Morden'
p5668
(lp5669
S'3033'
p5670
asS'Moncalieri'
p5671
(lp5672
S'718557'
p5673
asS'Mankayan'
p5674
(lp5675
S'1200073'
p5676
asS'Macuspana'
p5677
(lp5678
S'132630'
p5679
asS'Maracaju'
p5680
(lp5681
S'456322'
p5682
asS'Malaya Viska'
p5683
(lp5684
S'926136'
p5685
asS'Mateus Leme'
p5686
(lp5687
S'460094'
p5688
asS'Mari'
p5689
(lp5690
S'457549'
p5691
asS'Mezhdurechenskiy'
p5692
(lp5693
S'2045274'
p5694
asS'Milngavie'
p5695
(lp5696
S'29021'
p5697
asS'Mallanville'
p5698
(lp5699
S'1268004'
p5700
asS'Miguelturra'
p5701
(lp5702
S'767166'
p5703
asS'Malmesbury'
p5704
(lp5705
S'28196'
p5706
aS'1584402'
p5707
asS'Murray'
p5708
(lp5709
S'2456476'
p5710
aS'2456476'
p5711
asS'Musiri'
p5712
(lp5713
S'29075222'
p5714
asS'Martigny-Ville'
p5715
(lp5716
S'783266'
p5717
asS'Millom'
p5718
(lp5719
S'29005'
p5720
asS'Mwadui'
p5721
(lp5722
S'1448060'
p5723
asS'Mountain Top'
p5724
(lp5725
S'2455853'
p5726
aS'2455853'
p5727
asS'Matoury'
p5728
(lp5729
S'379834'
p5730
asS'Morehead City'
p5731
(lp5732
S'2453947'
p5733
asS'Muntafik'
p5734
(lp5735
S'1979424'
p5736
asS'Mount Clemens'
p5737
(lp5738
S'2454876'
p5739
asS'Margarita Bel\xc3\xa9n'
p5740
(lp5741
S'465785'
p5742
asS'Mlimba'
p5743
(lp5744
S'1447479'
p5745
asS'Montorn\xc3\xa8s del Vall\xc3\xa8s'
p5746
(lp5747
S'767681'
p5748
asS'Mau Aima'
p5749
(lp5750
S'2288806'
p5751
asS'Marechal Floriano'
p5752
(lp5753
S'460074'
p5754
asS'Mae Ramat'
p5755
(lp5756
S'1226035'
p5757
asS'Manmad'
p5758
(lp5759
S'29134353'
p5760
asS'Manhattan'
p5761
(lp5762
S'2444759'
p5763
aS'2444759'
p5764
asS'Mau'
p5765
(lp5766
S'29019812'
p5767
aS'29019812'
p5768
asS'Manor'
p5769
(lp5770
S'2292703'
p5771
asS'Montel\xc3\xadbano'
p5772
(lp5773
S'369150'
p5774
asS'Montgomeryville'
p5775
(lp5776
S'2453422'
p5777
asS'Morrovalle'
p5778
(lp5779
S'719126'
p5780
asS'Macherio'
p5781
(lp5782
S'20129840'
p5783
asS'Matli'
p5784
(lp5785
S'2211232'
p5786
asS'Masty'
p5787
(lp5788
S'828364'
p5789
asS'Medak'
p5790
(lp5791
S'29205739'
p5792
asS'Medan'
p5793
(lp5794
S'1047908'
p5795
asS'Man'
p5796
(lp5797
S'1344455'
p5798
asS'Monteriggioni'
p5799
(lp5800
S'718945'
p5801
asS'Metro'
p5802
(lp5803
S'1038480'
p5804
asS'Mei\xc3\x9fen'
p5805
(lp5806
S'674651'
p5807
asS'Murcia'
p5808
(lp5809
S'768026'
p5810
aS'1199550'
p5811
aS'1199550'
p5812
asS'Mexicaltzingo'
p5813
(lp5814
S'133476'
p5815
asS'Mission Bend'
p5816
(lp5817
S'22664114'
p5818
asS'Macclenny'
p5819
(lp5820
S'2443648'
p5821
asS'M\xc3\xa9rida'
p5822
(lp5823
S'767100'
p5824
aS'133327'
p5825
aS'468385'
p5826
asS'Madera Acres'
p5827
(lp5828
S'23417134'
p5829
asS'Moth'
p5830
(lp5831
S'2291380'
p5832
asS'Madona'
p5833
(lp5834
S'853818'
p5835
asS'Mvurwi'
p5836
(lp5837
S'1467369'
p5838
asS'Moss Bluff'
p5839
(lp5840
S'2454571'
p5841
asS'Manbij'
p5842
(lp5843
S'1947170'
p5844
asS'Mj\xc3\xb6lby'
p5845
(lp5846
S'898538'
p5847
asS'Moorslede'
p5848
(lp5849
S'974569'
p5850
asS'Mullingar'
p5851
(lp5852
S'561809'
p5853
asS'Manoharpur'
p5854
(lp5855
S'29003066'
p5856
aS'29003066'
p5857
asS'Meckesheim'
p5858
(lp5859
S'674422'
p5860
asS'Mede'
p5861
(lp5862
S'718155'
p5863
asS'Man\xc3\xad'
p5864
(lp5865
S'369113'
p5866
asS'Medea'
p5867
(lp5868
S'1256350'
p5869
asS'Maloyaroslavets'
p5870
(lp5871
S'2041317'
p5872
asS'Marapanim'
p5873
(lp5874
S'457540'
p5875
asS'Mendig'
p5876
(lp5877
S'674749'
p5878
asS'Morrinhos'
p5879
(lp5880
S'440864'
p5881
asS'Malverne'
p5882
(lp5883
S'2444576'
p5884
asS'Monterey Park'
p5885
(lp5886
S'2453299'
p5887
asS'Markala'
p5888
(lp5889
S'1502669'
p5890
asS'Mae Hong Son'
p5891
(lp5892
S'1226033'
p5893
asS'Morlanwelz-Mariemont'
p5894
(lp5895
S'974587'
p5896
asS'Milhaud'
p5897
(lp5898
S'611515'
p5899
asS'Mathura'
p5900
(lp5901
S'29008354'
p5902
asS'Mundemba'
p5903
(lp5904
S'1303771'
p5905
asS'Mykolayiv'
p5906
(lp5907
S'927588'
p5908
aS'927588'
p5909
asS'Muktsar'
p5910
(lp5911
S'2294959'
p5912
asS'Mueang Nonthaburi'
p5913
(lp5914
S'56043512'
p5915
asS'Mittweida'
p5916
(lp5917
S'675689'
p5918
asS'Montmel\xc3\xb3'
p5919
(lp5920
S'767669'
p5921
asS'Monroeville'
p5922
(lp5923
S'2453068'
p5924
aS'2453068'
p5925
asS'Monor'
p5926
(lp5927
S'812111'
p5928
asS'Mileto'
p5929
(lp5930
S'718351'
p5931
asS'Medford'
p5932
(lp5933
S'2448919'
p5934
aS'2448919'
p5935
aS'2448919'
p5936
asS'Mor\xc3\xb3n de la Frontera'
p5937
(lp5938
S'767849'
p5939
asS'Miamisburg'
p5940
(lp5941
S'2450097'
p5942
asS'Maydolong'
p5943
(lp5944
S'1199519'
p5945
asS'Mez\xc5\x91hegyes'
p5946
(lp5947
S'811911'
p5948
asS'Mutum'
p5949
(lp5950
S'460218'
p5951
asS'Murzuq'
p5952
(lp5953
S'1353001'
p5954
asS'Milwaukee'
p5955
(lp5956
S'2451823'
p5957
asS'Morki'
p5958
(lp5959
S'2122251'
p5960
asS"Monte Sant'Angelo"
p5961
(lp5962
S'718748'
p5963
asS'Metuchen'
p5964
(lp5965
S'2449939'
p5966
asS'Midwest City'
p5967
(lp5968
S'2450802'
p5969
asS'Mbak\xc3\xa9'
p5970
(lp5971
S'1415370'
p5972
asS'Mesola'
p5973
(lp5974
S'718263'
p5975
asS'Mount Rainier'
p5976
(lp5977
S'2456097'
p5978
asS'Montoro Inferiore'
p5979
(lp5980
S'15000207'
p5981
asS'Montesarchio'
p5982
(lp5983
S'718968'
p5984
asS'Maasbracht'
p5985
(lp5986
S'731481'
p5987
asS'Makum'
p5988
(lp5989
S'2289319'
p5990
asS'Mochudi'
p5991
(lp5992
S'1265754'
p5993
asS'Marktheidenfeld'
p5994
(lp5995
S'674031'
p5996
asS'Mays Chapel'
p5997
(lp5998
S'23417565'
p5999
asS'Mo\xc3\xa7ambique'
p6000
(lp6001
S'1558311'
p6002
asS'Modri\xc4\x8da'
p6003
(lp6004
S'942974'
p6005
asS'Mafeteng'
p6006
(lp6007
S'1352362'
p6008
asS'Margasari'
p6009
(lp6010
S'1047889'
p6011
asS'Meldola'
p6012
(lp6013
S'718178'
p6014
asS'Maltrata'
p6015
(lp6016
S'132804'
p6017
asS'Montehermoso'
p6018
(lp6019
S'767589'
p6020
asS'Missoula'
p6021
(lp6022
S'2452373'
p6023
asS'Meltham Mills'
p6024
(lp6025
S'28683'
p6026
asS'Mascalucia'
p6027
(lp6028
S'718021'
p6029
asS'Matnog'
p6030
(lp6031
S'1199511'
p6032
asS'Morbach'
p6033
(lp6034
S'676175'
p6035
asS'Marte'
p6036
(lp6037
S'1400070'
p6038
asS'Marquetalia'
p6039
(lp6040
S'368342'
p6041
asS'Mahtomedi'
p6042
(lp6043
S'2444293'
p6044
asS'Marilao'
p6045
(lp6046
S'1182491'
p6047
asS'Moultrie'
p6048
(lp6049
S'2454676'
p6050
asS'Montijo'
p6051
(lp6052
S'767654'
p6053
aS'744217'
p6054
asS'Mango'
p6055
(lp6056
S'1440152'
p6057
aS'2444745'
p6058
asS'Matanzas'
p6059
(lp6060
S'65405'
p6061
asS'Methuen'
p6062
(lp6063
S'2449917'
p6064
asS'Monte Cristo'
p6065
(lp6066
S'465868'
p6067
asS'Marostica'
p6068
(lp6069
S'717963'
p6070
asS'Mellie\xc4\xa7a'
p6071
(lp6072
S'483432'
p6073
asS'Middlebury'
p6074
(lp6075
S'2450303'
p6076
asS'M\xc3\xa9ru'
p6077
(lp6078
S'611180'
p6079
asS'Monteroni di Lecce'
p6080
(lp6081
S'718951'
p6082
asS'Marsala'
p6083
(lp6084
S'717971'
p6085
asS'Munster'
p6086
(lp6087
S'676866'
p6088
aS'613691'
p6089
aS'2456375'
p6090
asS'Mlandizi'
p6091
(lp6092
S'1447462'
p6093
asS'Macei\xc3\xb3'
p6094
(lp6095
S'438969'
p6096
asS'Moca'
p6097
(lp6098
S'75306'
p6099
asS'Manila'
p6100
(lp6101
S'1199477'
p6102
asS'Monte San Giovanni Campano'
p6103
(lp6104
S'718738'
p6105
asS'Middleburg'
p6106
(lp6107
S'2450283'
p6108
asS'Minglanilla'
p6109
(lp6110
S'1183425'
p6111
asS'Milford Haven'
p6112
(lp6113
S'28968'
p6114
asS'Monduli'
p6115
(lp6116
S'1447564'
p6117
asS'Misrikh'
p6118
(lp6119
S'29100232'
p6120
asS'Mountain View'
p6121
(lp6122
S'2455872'
p6123
asS'Memmingen'
p6124
(lp6125
S'674739'
p6126
asS'Moulins'
p6127
(lp6128
S'613476'
p6129
asS'Media'
p6130
(lp6131
S'2448940'
p6132
asS'Manavalakurichi'
p6133
(lp6134
S'2281851'
p6135
asS'Memphis'
p6136
(lp6137
S'2449316'
p6138
aS'2449316'
p6139
asS'Millbury'
p6140
(lp6141
S'2451243'
p6142
asS'Meschede'
p6143
(lp6144
S'674954'
p6145
asS'Middlesboro'
p6146
(lp6147
S'2450329'
p6148
asS'Moratuwa'
p6149
(lp6150
S'2189778'
p6151
asS'Maceira'
p6152
(lp6153
S'742937'
p6154
asS'Morsang-sur-Orge'
p6155
(lp6156
S'613305'
p6157
asS'Matamoros'
p6158
(lp6159
S'133136'
p6160
aS'133136'
p6161
asS'Madan'
p6162
(lp6163
S'837842'
p6164
asS'Mugango'
p6165
(lp6166
S'1447925'
p6167
asS'Mazzarino'
p6168
(lp6169
S'718138'
p6170
asS'Miguel Hidalgo'
p6171
(lp6172
S'55889710'
p6173
asS'Muchkapskiy'
p6174
(lp6175
S'2122280'
p6176
asS'Malampaka'
p6177
(lp6178
S'1446386'
p6179
asS'Medolla'
p6180
(lp6181
S'718165'
p6182
asS'Maastricht'
p6183
(lp6184
S'731497'
p6185
asS'Mayantoc'
p6186
(lp6187
S'1183111'
p6188
asS'Msida'
p6189
(lp6190
S'483446'
p6191
asS'Maryborough'
p6192
(lp6193
S'1103750'
p6194
aS'1103750'
p6195
asS'Marialva'
p6196
(lp6197
S'439648'
p6198
asS'Montelepre'
p6199
(lp6200
S'718878'
p6201
asS'Manicaragua'
p6202
(lp6203
S'65269'
p6204
asS'Maynard'
p6205
(lp6206
S'2447277'
p6207
asS'Malkapur'
p6208
(lp6209
S'29134726'
p6210
aS'29134726'
p6211
asS'Malag\xc3\xb3n'
p6212
(lp6213
S'766358'
p6214
asS'M\xc3\xa1t\xc3\xa9szalka'
p6215
(lp6216
S'811693'
p6217
asS'Minatitl\xc3\xa1n'
p6218
(lp6219
S'133708'
p6220
asS'Mouscron'
p6221
(lp6222
S'974642'
p6223
asS'Marratx\xc3\xad'
p6224
(lp6225
S'766624'
p6226
asS'Mossor\xc3\xb3'
p6227
(lp6228
S'455887'
p6229
asS'Maraca\xc3\xad'
p6230
(lp6231
S'456321'
p6232
asS'Mtsensk'
p6233
(lp6234
S'2048453'
p6235
asS'Marquette-lez-Lille'
p6236
(lp6237
S'55863530'
p6238
asS'Monte Si\xc3\xa3o'
p6239
(lp6240
S'440735'
p6241
asS'Mitterteich'
p6242
(lp6243
S'675676'
p6244
asS'Millicent'
p6245
(lp6246
S'1103914'
p6247
asS'Mareno di Piave'
p6248
(lp6249
S'20130609'
p6250
asS'Missouri City'
p6251
(lp6252
S'2452375'
p6253
asS'Magnanville'
p6254
(lp6255
S'609214'
p6256
asS'Macatuba'
p6257
(lp6258
S'438947'
p6259
asS'Mouy'
p6260
(lp6261
S'613614'
p6262
asS'Massa Lombarda'
p6263
(lp6264
S'718055'
p6265
asS'Montero'
p6266
(lp6267
S'346081'
p6268
asS'Mushie'
p6269
(lp6270
S'1476690'
p6271
asS'Makeyevka'
p6272
(lp6273
S'925974'
p6274
asS'Machachi'
p6275
(lp6276
S'375801'
p6277
asS'Montorio al Vomano'
p6278
(lp6279
S'719048'
p6280
asS'Muleba'
p6281
(lp6282
S'1447983'
p6283
asS'Manali'
p6284
(lp6285
S'2290630'
p6286
aS'2290630'
p6287
asS"Mohyliv-Podil's'kyy"
p6288
(lp6289
S'927285'
p6290
asS'Montefiascone'
p6291
(lp6292
S'718833'
p6293
asS'Mashtaga'
p6294
(lp6295
S'1951969'
p6296
asS'Mill Creek'
p6297
(lp6298
S'2451034'
p6299
asS'M\xc3\xbcnzenberg'
p6300
(lp6301
S'676887'
p6302
asS"Mukhor-Shibir'"
p6303
(lp6304
S'2048555'
p6305
asS'Miandrivazo'
p6306
(lp6307
S'1363342'
p6308
asS'Mez\xc5\x91k\xc3\xb6vesd'
p6309
(lp6310
S'811919'
p6311
asS'Manten\xc3\xb3polis'
p6312
(lp6313
S'439436'
p6314
asS'Mangalagiri'
p6315
(lp6316
S'2295240'
p6317
asS'Marinilla'
p6318
(lp6319
S'368531'
p6320
asS'Mijas'
p6321
(lp6322
S'767174'
p6323
asS'Molteno'
p6324
(lp6325
S'1585275'
p6326
asS'Marignane'
p6327
(lp6328
S'610024'
p6329
asS'Muradnagar'
p6330
(lp6331
S'29090820'
p6332
asS'Manwath'
p6333
(lp6334
S'2293214'
p6335
asS'Manzanares'
p6336
(lp6337
S'368340'
p6338
aS'766489'
p6339
asS'Makkah'
p6340
(lp6341
S'1939897'
p6342
asS'M\xc3\xb3rahalom'
p6343
(lp6344
S'812132'
p6345
asS'Matca'
p6346
(lp6347
S'875497'
p6348
asS'Manga'
p6349
(lp6350
S'1460103'
p6351
aS'439319'
p6352
asS'Mila Doce'
p6353
(lp6354
S'23418114'
p6355
asS'Maplewood'
p6356
(lp6357
S'2445373'
p6358
aS'2445373'
p6359
aS'2445373'
p6360
asS'Masis'
p6361
(lp6362
S'2214636'
p6363
asS'Montale'
p6364
(lp6365
S'718638'
p6366
asS"Mar'ina Gorka"
p6367
(lp6368
S'828317'
p6369
asS'Molbergen'
p6370
(lp6371
S'675825'
p6372
asS'Mans\xc3\xb4a'
p6373
(lp6374
S'1561319'
p6375
asS'Mandello del Lario'
p6376
(lp6377
S'717779'
p6378
asS'Marquard'
p6379
(lp6380
S'1584610'
p6381
asS'Montagnana'
p6382
(lp6383
S'718622'
p6384
asS'Montclair'
p6385
(lp6386
S'2453161'
p6387
aS'2453161'
p6388
aS'2453161'
p6389
asS'Mazan'
p6390
(lp6391
S'610716'
p6392
asS'Mangatarem'
p6393
(lp6394
S'1199473'
p6395
asS'Megion'
p6396
(lp6397
S'2122153'
p6398
asS'Muskegon Heights'
p6399
(lp6400
S'2456615'
p6401
asS'Montpelier'
p6402
(lp6403
S'2453504'
p6404
asS'Martins Ferry'
p6405
(lp6406
S'2446364'
p6407
asS'Myitkyina'
p6408
(lp6409
S'1017678'
p6410
asS'Morong'
p6411
(lp6412
S'1199544'
p6413
aS'1199544'
p6414
asS'Mochum\xc3\xad'
p6415
(lp6416
S'419029'
p6417
asS'Moroni'
p6418
(lp6419
S'1306106'
p6420
asS'Mariglianella'
p6421
(lp6422
S'717884'
p6423
asS'Mymensingh'
p6424
(lp6425
S'1915160'
p6426
asS'Mecit\xc3\xb6z\xc3\xbc'
p6427
(lp6428
S'2344256'
p6429
asS'Msanga'
p6430
(lp6431
S'1447681'
p6432
asS'Moosburg'
p6433
(lp6434
S'676124'
p6435
asS'Mbabane'
p6436
(lp6437
S'1563426'
p6438
asS'Marmirolo'
p6439
(lp6440
S'717954'
p6441
asS'Monett'
p6442
(lp6443
S'2452890'
p6444
asS'Mamontovo'
p6445
(lp6446
S'2042572'
p6447
asS'Mengkofen'
p6448
(lp6449
S'674773'
p6450
asS'Mixquiahuala'
p6451
(lp6452
S'133819'
p6453
asS'Muzhappilangad'
p6454
(lp6455
S'2282659'
p6456
asS'Moussoro'
p6457
(lp6458
S'1277383'
p6459
asS'Manta'
p6460
(lp6461
S'375741'
p6462
asS'Manilva'
p6463
(lp6464
S'766451'
p6465
asS'Mit\xc3\xba'
p6466
(lp6467
S'368534'
p6468
asS'Mikachevo'
p6469
(lp6470
S'926934'
p6471
asS'Mazaricos'
p6472
(lp6473
S'766899'
p6474
asS'Makushino'
p6475
(lp6476
S'2122061'
p6477
asS'Mori\xc3\xa8res-l\xc3\xa8s-Avignon'
p6478
(lp6479
S'613243'
p6480
asS'Mayang Imphal'
p6481
(lp6482
S'2290247'
p6483
asS'Mohpa'
p6484
(lp6485
S'29029033'
p6486
asS'Messias'
p6487
(lp6488
S'440215'
p6489
asS'Matawan'
p6490
(lp6491
S'2446796'
p6492
asS'Malacky'
p6493
(lp6494
S'820840'
p6495
asS'Magdalena Cuayucatepec'
p6496
(lp6497
S'132669'
p6498
asS'M\xc3\xa4ntt\xc3\xa4'
p6499
(lp6500
S'569542'
p6501
asS'Marsciano'
p6502
(lp6503
S'717972'
p6504
asS'Matosinhos'
p6505
(lp6506
S'743333'
p6507
asS'Mastic Beach'
p6508
(lp6509
S'2446775'
p6510
asS'Mondragone'
p6511
(lp6512
S'718573'
p6513
asS'M\xc3\xbcnsingen'
p6514
(lp6515
S'783441'
p6516
aS'676848'
p6517
asS'Meer'
p6518
(lp6519
S'731592'
p6520
asS'Mwinilunga'
p6521
(lp6522
S'1572415'
p6523
asS'Madrid'
p6524
(lp6525
S'361938'
p6526
aS'766273'
p6527
asS'Maumelle'
p6528
(lp6529
S'2446978'
p6530
asS'Montdidier'
p6531
(lp6532
S'612481'
p6533
asS'Mamfe'
p6534
(lp6535
S'1302735'
p6536
asS'Miranpur'
p6537
(lp6538
S'29106926'
p6539
asS'Middleton'
p6540
(lp6541
S'28887'
p6542
aS'2450342'
p6543
aS'2450342'
p6544
asS'Malaya Purga'
p6545
(lp6546
S'2040687'
p6547
asS'Megara'
p6548
(lp6549
S'956663'
p6550
asS'Molina de Segura'
p6551
(lp6552
S'767361'
p6553
asS'Murray Bridge'
p6554
(lp6555
S'1104390'
p6556
asS'Machern'
p6557
(lp6558
S'673311'
p6559
asS'Mys\xc5\x82owice'
p6560
(lp6561
S'508552'
p6562
asS'Martin'
p6563
(lp6564
S'820941'
p6565
aS'2446250'
p6566
asS'Moirans'
p6567
(lp6568
S'611715'
p6569
asS'Manteca'
p6570
(lp6571
S'2445039'
p6572
asS'Massapequa Park'
p6573
(lp6574
S'2446727'
p6575
asS'Marpingen'
p6576
(lp6577
S'674070'
p6578
asS'Milazzo'
p6579
(lp6580
S'718348'
p6581
asS'Maseru'
p6582
(lp6583
S'1352389'
p6584
asS'M\xc3\xbclheim-K\xc3\xa4rlich'
p6585
(lp6586
S'20162881'
p6587
asS'Moirang'
p6588
(lp6589
S'2290255'
p6590
asS'Miramar'
p6591
(lp6592
S'58796'
p6593
aS'133767'
p6594
aS'2452269'
p6595
asS'Miramas'
p6596
(lp6597
S'611593'
p6598
asS'Mtwara'
p6599
(lp6600
S'1447909'
p6601
asS'Machalpur'
p6602
(lp6603
S'29025750'
p6604
asS'Malalag'
p6605
(lp6606
S'1180854'
p6607
asS'Moriki'
p6608
(lp6609
S'1400691'
p6610
asS'Mbandaka'
p6611
(lp6612
S'1292953'
p6613
asS'Manjeshwar'
p6614
(lp6615
S'2294250'
p6616
asS'Mol\xc4\x97tai'
p6617
(lp6618
S'476612'
p6619
asS'Mirante do Paranapanema'
p6620
(lp6621
S'440350'
p6622
asS'Medina del Campo'
p6623
(lp6624
S'766961'
p6625
asS'Mainhardt'
p6626
(lp6627
S'673502'
p6628
asS'Mooirivier'
p6629
(lp6630
S'1585313'
p6631
asS'Meaux'
p6632
(lp6633
S'610798'
p6634
asS'Mount Isa'
p6635
(lp6636
S'1104192'
p6637
asS'Montefr\xc3\xado'
p6638
(lp6639
S'767586'
p6640
asS'Meredith'
p6641
(lp6642
S'2449540'
p6643
asS'Mallur'
p6644
(lp6645
S'29079369'
p6646
asS"Mosciano Sant'Angelo"
p6647
(lp6648
S'719149'
p6649
asS'Motilla del Palancar'
p6650
(lp6651
S'767898'
p6652
asS'Margate City'
p6653
(lp6654
S'2445605'
p6655
asS'Margaritas'
p6656
(lp6657
S'132980'
p6658
asS'Makanya'
p6659
(lp6660
S'1446314'
p6661
asS'Monteiasi'
p6662
(lp6663
S'718866'
p6664
asS'Monchegorsk'
p6665
(lp6666
S'2047630'
p6667
asS'Metelen'
p6668
(lp6669
S'675007'
p6670
asS'Maraial'
p6671
(lp6672
S'460063'
p6673
asS'Marcq-en-Bar\xc5\x93ul'
p6674
(lp6675
S'609908'
p6676
asS'M\xc3\xb6lnlycke'
p6677
(lp6678
S'898659'
p6679
asS'Mehlville'
p6680
(lp6681
S'2449051'
p6682
asS'Mosonmagyar\xc3\xb3v\xc3\xa1r'
p6683
(lp6684
S'812157'
p6685
asS'Millerovo'
p6686
(lp6687
S'2122201'
p6688
asS'Monticello Conte Otto'
p6689
(lp6690
S'719023'
p6691
asS'M\xc3\xb6mbris'
p6692
(lp6693
S'675906'
p6694
asS'Marechal Deodoro'
p6695
(lp6696
S'457548'
p6697
asS'Montreux'
p6698
(lp6699
S'783393'
p6700
asS'M\xc3\xbclheim an der Ruhr'
p6701
(lp6702
S'676694'
p6703
asS'Meulebeke'
p6704
(lp6705
S'974253'
p6706
asS'Meadow Lakes'
p6707
(lp6708
S'2448545'
p6709
asS'Marano Vicentino'
p6710
(lp6711
S'717829'
p6712
asS'Myshkin'
p6713
(lp6714
S'2049264'
p6715
asS'Makhu'
p6716
(lp6717
S'2290416'
p6718
asS'Marquelia'
p6719
(lp6720
S'133025'
p6721
asS'Marbella'
p6722
(lp6723
S'766537'
p6724
asS'Monte Santo'
p6725
(lp6726
S'440724'
p6727
asS'Morley'
p6728
(lp6729
S'29353'
p6730
asS'Monte Apraz\xc3\xadvel'
p6731
(lp6732
S'457612'
p6733
asS'Mozhaysk'
p6734
(lp6735
S'2048400'
p6736
asS'Mirgorod'
p6737
(lp6738
S'927131'
p6739
asS'Moshi'
p6740
(lp6741
S'1447577'
p6742
asS'Mercedes'
p6743
(lp6744
S'467004'
p6745
aS'467004'
p6746
aS'58772'
p6747
aS'58772'
p6748
aS'1183256'
p6749
aS'1183256'
p6750
aS'2449496'
p6751
aS'468067'
p6752
asS'Mehnagar'
p6753
(lp6754
S'2282293'
p6755
asS'Mabini'
p6756
(lp6757
S'1179771'
p6758
aS'1179771'
p6759
aS'1179771'
p6760
asS'Matteson'
p6761
(lp6762
S'2446893'
p6763
asS'Martignacco'
p6764
(lp6765
S'717985'
p6766
asS'Munhall'
p6767
(lp6768
S'2456335'
p6769
asS'Montpellier'
p6770
(lp6771
S'612977'
p6772
asS'Muvattupuzha'
p6773
(lp6774
S'2294636'
p6775
asS'Morcone'
p6776
(lp6777
S'719083'
p6778
asS'Mi\xc3\xb1o'
p6779
(lp6780
S'767225'
p6781
asS'Mouanda'
p6782
(lp6783
S'1324848'
p6784
asS'Maysville'
p6785
(lp6786
S'2447342'
p6787
asS'Mallasamudram'
p6788
(lp6789
S'2294382'
p6790
asS'Mukono'
p6791
(lp6792
S'1453938'
p6793
asS'Mechelen'
p6794
(lp6795
S'973897'
p6796
asS'Meximieux'
p6797
(lp6798
S'611365'
p6799
asS'Mount Joy'
p6800
(lp6801
S'2455062'
p6802
asS'Morristown'
p6803
(lp6804
S'2454324'
p6805
aS'2454324'
p6806
aS'2454324'
p6807
asS'Monywa'
p6808
(lp6809
S'1017659'
p6810
asS'Marshalltown'
p6811
(lp6812
S'2446161'
p6813
asS'Mar\xc3\xada la Baja'
p6814
(lp6815
S'362156'
p6816
asS'Mati'
p6817
(lp6818
S'1199507'
p6819
asS'Mangotsfield'
p6820
(lp6821
S'28229'
p6822
asS'Mostaganem'
p6823
(lp6824
S'1256487'
p6825
asS'Mos'
p6826
(lp6827
S'20228168'
p6828
asS'M\xc3\xa5l\xc3\xb8v'
p6829
(lp6830
S'555479'
p6831
asS'Mudbidri'
p6832
(lp6833
S'2293961'
p6834
asS'M\xc3\xa2con'
p6835
(lp6836
S'609166'
p6837
asS'Mon'
p6838
(lp6839
S'29103691'
p6840
asS'Mol'
p6841
(lp6842
S'974368'
p6843
aS'535507'
p6844
asS'Moa'
p6845
(lp6846
S'65544'
p6847
asS'Moe'
p6848
(lp6849
S'1104005'
p6850
asS'Marion'
p6851
(lp6852
S'2445739'
p6853
aS'2445739'
p6854
aS'2445739'
p6855
aS'2445739'
p6856
aS'2445739'
p6857
aS'2445739'
p6858
aS'2445739'
p6859
aS'2445739'
p6860
asS'Mesoraca'
p6861
(lp6862
S'718264'
p6863
asS'Mersin'
p6864
(lp6865
S'2344262'
p6866
asS'Messaad'
p6867
(lp6868
S'1256425'
p6869
asS'Mendrisio'
p6870
(lp6871
S'783314'
p6872
asS'Manturovo'
p6873
(lp6874
S'2122096'
p6875
asS'Mulbagal'
p6876
(lp6877
S'2294167'
p6878
asS'Mirano'
p6879
(lp6880
S'718396'
p6881
asS'M\xc3\xbclsen'
p6882
(lp6883
S'676732'
p6884
asS'Mayenne'
p6885
(lp6886
S'610687'
p6887
asS'Matacalagonis'
p6888
(lp6889
S'718111'
p6890
asS'Maardu'
p6891
(lp6892
S'843833'
p6893
asS'Monter\xc3\xada'
p6894
(lp6895
S'368164'
p6896
asS'Mahenge'
p6897
(lp6898
S'1446252'
p6899
asS'Mataram'
p6900
(lp6901
S'1047902'
p6902
asS'Moncks Corner'
p6903
(lp6904
S'2452860'
p6905
asS'Mazingarbe'
p6906
(lp6907
S'610772'
p6908
asS'Mons-en-Bar\xc5\x93ul'
p6909
(lp6910
S'55863532'
p6911
asS'Majene'
p6912
(lp6913
S'1037712'
p6914
asS'Mlangali'
p6915
(lp6916
S'1447463'
p6917
asS'Mancherial'
p6918
(lp6919
S'2281852'
p6920
asS'Mahudha'
p6921
(lp6922
S'2291768'
p6923
asS'Masatepe'
p6924
(lp6925
S'153532'
p6926
asS'Moralzarzal'
p6927
(lp6928
S'767754'
p6929
asS'Montepulciano'
p6930
(lp6931
S'718935'
p6932
asS'Monte-Carlo'
p6933
(lp6934
S'483302'
p6935
asS'Mainvilliers'
p6936
(lp6937
S'609344'
p6938
asS'Makrana'
p6939
(lp6940
S'2290941'
p6941
asS'Mont-de-Marsan'
p6942
(lp6943
S'612114'
p6944
asS'Malente'
p6945
(lp6946
S'673567'
p6947
asS'Millbrook'
p6948
(lp6949
S'2451211'
p6950
asS'Masila'
p6951
(lp6952
S'29007281'
p6953
asS'Malkerns'
p6954
(lp6955
S'1563421'
p6956
asS'Mellrichstadt'
p6957
(lp6958
S'674710'
p6959
asS'Mechernich'
p6960
(lp6961
S'674398'
p6962
asS'Malpur'
p6963
(lp6964
S'29011187'
p6965
asS'Mercato San Severino'
p6966
(lp6967
S'718241'
p6968
asS'Mikulov'
p6969
(lp6970
S'793871'
p6971
asS'M\xc3\xb6ssingen'
p6972
(lp6973
S'676327'
p6974
asS'Milwaukie'
p6975
(lp6976
S'2451864'
p6977
asS'Masantol'
p6978
(lp6979
S'1182600'
p6980
asS'Maneadero'
p6981
(lp6982
S'132850'
p6983
asS'Miastko'
p6984
(lp6985
S'507058'
p6986
asS'Montbrison'
p6987
(lp6988
S'612393'
p6989
asS'Mashi'
p6990
(lp6991
S'1400114'
p6992
asS'Mulhouse'
p6993
(lp6994
S'613673'
p6995
asS'Moreno'
p6996
(lp6997
S'457623'
p6998
asS'Massapequa'
p6999
(lp7000
S'2446726'
p7001
asS'Merksplas'
p7002
(lp7003
S'974225'
p7004
asS'Mednogorsk'
p7005
(lp7006
S'2122142'
p7007
asS'Morena'
p7008
(lp7009
S'2295040'
p7010
asS'Mea\xc3\xb1o'
p7011
(lp7012
S'766928'
p7013
asS'Malayer'
p7014
(lp7015
S'2254891'
p7016
asS'Mahur'
p7017
(lp7018
S'29019162'
p7019
asS'Melfort'
p7020
(lp7021
S'2359'
p7022
asS'Metu'
p7023
(lp7024
S'1318918'
p7025
asS'Montlouis-sur-Loire'
p7026
(lp7027
S'612874'
p7028
asS'Malmberget'
p7029
(lp7030
S'898084'
p7031
asS'Mandawar'
p7032
(lp7033
S'29024116'
p7034
aS'29024116'
p7035
asS'M\xc3\xb6nchengladbach'
p7036
(lp7037
S'675922'
p7038
asS'Max\xc3\xa9ville'
p7039
(lp7040
S'610676'
p7041
asS'Middlesbrough'
p7042
(lp7043
S'28869'
p7044
asS'Meta'
p7045
(lp7046
S'718271'
p7047
asS'Modesto'
p7048
(lp7049
S'2452628'
p7050
asS'Montoro'
p7051
(lp7052
S'767682'
p7053
asS'Mennecy'
p7054
(lp7055
S'611002'
p7056
asS'Middle River'
p7057
(lp7058
S'2450238'
p7059
asS'Mokolo'
p7060
(lp7061
S'1303622'
p7062
asS'Monte Argentario'
p7063
(lp7064
S'22745724'
p7065
asS'Mszana Dolna'
p7066
(lp7067
S'508421'
p7068
asS'Mandelieu-la-Napoule'
p7069
(lp7070
S'609638'
p7071
asS'Manville'
p7072
(lp7073
S'2445087'
p7074
asS'Mez\xc5\x91kov\xc3\xa1csh\xc3\xa1za'
p7075
(lp7076
S'811917'
p7077
asS'Malang'
p7078
(lp7079
S'1047846'
p7080
asS'Mandsaur'
p7081
(lp7082
S'2295154'
p7083
asS'Malmsl\xc3\xa4tt'
p7084
(lp7085
S'898094'
p7086
asS'Meliana'
p7087
(lp7088
S'767016'
p7089
asS'Mendes'
p7090
(lp7091
S'440168'
p7092
asS'Monmouth'
p7093
(lp7094
S'29243'
p7095
aS'2452948'
p7096
aS'2452948'
p7097
asS'Mattinata'
p7098
(lp7099
S'718126'
p7100
asS'Mumbwa'
p7101
(lp7102
S'1571323'
p7103
asS'Maroua'
p7104
(lp7105
S'1302869'
p7106
asS'Matehuala'
p7107
(lp7108
S'133169'
p7109
asS'Mansfield'
p7110
(lp7111
S'28262'
p7112
aS'2444976'
p7113
aS'2444976'
p7114
aS'2444976'
p7115
aS'2444976'
p7116
asS'Malinao'
p7117
(lp7118
S'1181167'
p7119
asS'Mohelnice'
p7120
(lp7121
S'794157'
p7122
asS'Menden'
p7123
(lp7124
S'674746'
p7125
asS'Macerata'
p7126
(lp7127
S'717572'
p7128
asS'Mandleshwar'
p7129
(lp7130
S'2292494'
p7131
asS'Moses Lake'
p7132
(lp7133
S'2454523'
p7134
asS'Monte Alto'
p7135
(lp7136
S'457611'
p7137
asS'Mokrous'
p7138
(lp7139
S'2122231'
p7140
asS'Mato Verde'
p7141
(lp7142
S'440041'
p7143
asS'Marlow'
p7144
(lp7145
S'28379'
p7146
asS'Marcali'
p7147
(lp7148
S'811529'
p7149
asS'Mocoret\xc3\xa1'
p7150
(lp7151
S'465848'
p7152
asS'Mercer Island'
p7153
(lp7154
S'2449514'
p7155
asS'Marcala'
p7156
(lp7157
S'105108'
p7158
asS'Montenero di Bisaccia'
p7159
(lp7160
S'718916'
p7161
asS'Mulanur'
p7162
(lp7163
S'2294521'
p7164
asS'Murska Sobota'
p7165
(lp7166
S'530879'
p7167
asS'Melilla'
p7168
(lp7169
S'767022'
p7170
asS'Medowie'
p7171
(lp7172
S'1103800'
p7173
asS'Madaba'
p7174
(lp7175
S'1968935'
p7176
asS'Manjhanpur'
p7177
(lp7178
S'29109956'
p7179
asS'Melilli'
p7180
(lp7181
S'718197'
p7182
asS'Mo\xc3\xablan-sur-Mer'
p7183
(lp7184
S'611689'
p7185
asS'Martinez'
p7186
(lp7187
S'2446327'
p7188
aS'2446327'
p7189
asS'Malmedy'
p7190
(lp7191
S'973899'
p7192
asS'Markneukirchen'
p7193
(lp7194
S'674004'
p7195
asS'Muang Khammouan'
p7196
(lp7197
S'1139744'
p7198
asS'Muritiba'
p7199
(lp7200
S'456352'
p7201
asS'Matadi'
p7202
(lp7203
S'1292749'
p7204
asS'Melton'
p7205
(lp7206
S'1103824'
p7207
asS'Mpumalanga'
p7208
(lp7209
S'1590735'
p7210
asS'Mirabella Eclano'
p7211
(lp7212
S'718382'
p7213
asS"Motta Sant'Anastasia"
p7214
(lp7215
S'719175'
p7216
asS'Missaglia'
p7217
(lp7218
S'718412'
p7219
asS'Mineo'
p7220
(lp7221
S'718363'
p7222
asS'Motta San Giovanni'
p7223
(lp7224
S'719174'
p7225
asS'Marina di Gioiosa Ionica'
p7226
(lp7227
S'717911'
p7228
asS'Mediglia'
p7229
(lp7230
S'20131444'
p7231
asS'Meadow Woods'
p7232
(lp7233
S'23417304'
p7234
asS'Masaka'
p7235
(lp7236
S'1453691'
p7237
asS'Mooloolaba'
p7238
(lp7239
S'1097366'
p7240
asS'Monchique'
p7241
(lp7242
S'743708'
p7243
asS'Madikeri'
p7244
(lp7245
S'2281505'
p7246
asS'Mettingen'
p7247
(lp7248
S'675045'
p7249
asS'Mak\xc3\xb3w Podhala\xc5\x84ski'
p7250
(lp7251
S'506220'
p7252
asS'Miami'
p7253
(lp7254
S'2450015'
p7255
aS'2450015'
p7256
asS'Mourenx'
p7257
(lp7258
S'613506'
p7259
asS'Multai'
p7260
(lp7261
S'2292214'
p7262
asS'Multan'
p7263
(lp7264
S'2211269'
p7265
asS'Monastyrishche'
p7266
(lp7267
S'927377'
p7268
asS'Mezapa'
p7269
(lp7270
S'105200'
p7271
asS'Markranst\xc3\xa4dt'
p7272
(lp7273
S'674009'
p7274
asS'Malone'
p7275
(lp7276
S'2444511'
p7277
asS'Mahadday Weyne'
p7278
(lp7279
S'1428297'
p7280
asS'Malyye Derbety'
p7281
(lp7282
S'2122086'
p7283
asS'Manuel'
p7284
(lp7285
S'132903'
p7286
asS'Moalboal'
p7287
(lp7288
S'1199535'
p7289
asS'Mamers'
p7290
(lp7291
S'609610'
p7292
asS'Mitchell'
p7293
(lp7294
S'2452405'
p7295
asS'Malhador'
p7296
(lp7297
S'460009'
p7298
asS'Mocajuba'
p7299
(lp7300
S'457601'
p7301
asS'Mackay'
p7302
(lp7303
S'1103588'
p7304
asS'Masindi Port'
p7305
(lp7306
S'1453697'
p7307
asS'Mindarie'
p7308
(lp7309
S'1103938'
p7310
asS'Malz\xc3\xa9ville'
p7311
(lp7312
S'609604'
p7313
asS'Moram'
p7314
(lp7315
S'29133811'
p7316
asS'Moran'
p7317
(lp7318
S'29072958'
p7319
asS'M\xc3\xbcnchberg'
p7320
(lp7321
S'676748'
p7322
asS'Maywood'
p7323
(lp7324
S'2447395'
p7325
aS'2447395'
p7326
aS'2447395'
p7327
asS'Mamaroneck'
p7328
(lp7329
S'2444579'
p7330
asS'Moss Vale'
p7331
(lp7332
S'1104131'
p7333
asS'Macomer'
p7334
(lp7335
S'717582'
p7336
asS'Mangrol'
p7337
(lp7338
S'2281961'
p7339
aS'2281961'
p7340
asS'Magarao'
p7341
(lp7342
S'1180237'
p7343
asS'Mascote'
p7344
(lp7345
S'439814'
p7346
asS'Mascota'
p7347
(lp7348
S'133078'
p7349
asS'Migennes'
p7350
(lp7351
S'611485'
p7352
asS'Malynivka'
p7353
(lp7354
S'926238'
p7355
asS'Mayakonda'
p7356
(lp7357
S'2294054'
p7358
asS'Mankapur'
p7359
(lp7360
S'29027741'
p7361
asS'Mier'
p7362
(lp7363
S'133593'
p7364
asS'Mudgal'
p7365
(lp7366
S'29036609'
p7367
asS'Manasquan'
p7368
(lp7369
S'2444622'
p7370
asS'Moneragala'
p7371
(lp7372
S'2189695'
p7373
asS'Masasi'
p7374
(lp7375
S'1446599'
p7376
asS'Milford'
p7377
(lp7378
S'28964'
p7379
aS'2450952'
p7380
aS'2450952'
p7381
aS'2450952'
p7382
aS'2450952'
p7383
aS'2450952'
p7384
aS'2450952'
p7385
asS'Marsella'
p7386
(lp7387
S'368343'
p7388
asS'Musselburgh'
p7389
(lp7390
S'29591'
p7391
asS'Meoqui'
p7392
(lp7393
S'133318'
p7394
asS'Mez\xc5\x91ber\xc3\xa9ny'
p7395
(lp7396
S'811899'
p7397
asS'Mazat\xc3\xa1n'
p7398
(lp7399
S'133224'
p7400
asS'Monte di Procida'
p7401
(lp7402
S'718698'
p7403
asS'Milicz'
p7404
(lp7405
S'507578'
p7406
asS'Mohgaon'
p7407
(lp7408
S'29017054'
p7409
asS'Moulmeingyun'
p7410
(lp7411
S'1017662'
p7412
asS'Maizi\xc3\xa8res-l\xc3\xa8s-Metz'
p7413
(lp7414
S'609429'
p7415
asS'Myjava'
p7416
(lp7417
S'821135'
p7418
asS'Malanday'
p7419
(lp7420
S'1180900'
p7421
asS'Mendi'
p7422
(lp7423
S'1318783'
p7424
aS'1061757'
p7425
asS'Muria\xc3\xa9'
p7426
(lp7427
S'455971'
p7428
asS'Malatya'
p7429
(lp7430
S'2344246'
p7431
asS'May Pen'
p7432
(lp7433
S'109418'
p7434
asS'Mittelsch\xc3\xb6ntal'
p7435
(lp7436
S'675550'
p7437
asS'Maumee'
p7438
(lp7439
S'2446975'
p7440
asS'Menasha'
p7441
(lp7442
S'2449378'
p7443
asS'Miraflores de la Sierra'
p7444
(lp7445
S'767243'
p7446
asS'Monkey Bay'
p7447
(lp7448
S'1368161'
p7449
asS'Mettupalayam'
p7450
(lp7451
S'2295314'
p7452
asS'Maulbronn'
p7453
(lp7454
S'674318'
p7455
asS'Marawi'
p7456
(lp7457
S'1199490'
p7458
asS'Marlton'
p7459
(lp7460
S'2445967'
p7461
aS'2445967'
p7462
asS'Monte San Vito'
p7463
(lp7464
S'718747'
p7465
asS'Mont\xc3\xa9limar'
p7466
(lp7467
S'612522'
p7468
asS'Manzanillo'
p7469
(lp7470
S'65296'
p7471
aS'132925'
p7472
asS'Muddebihal'
p7473
(lp7474
S'2293439'
p7475
asS'Messeni'
p7476
(lp7477
S'957008'
p7478
asS'Mason'
p7479
(lp7480
S'2446631'
p7481
aS'2446631'
p7482
asS'Madiun'
p7483
(lp7484
S'1047822'
p7485
asS'Matai'
p7486
(lp7487
S'1525139'
p7488
aS'1446645'
p7489
asS'Malilipot'
p7490
(lp7491
S'1199447'
p7492
asS'Morrilton'
p7493
(lp7494
S'2454243'
p7495
asS'Mandi'
p7496
(lp7497
S'29029971'
p7498
asS'Meridian'
p7499
(lp7500
S'2449579'
p7501
aS'2449579'
p7502
asS'Maci\xc3\xa1'
p7503
(lp7504
S'465739'
p7505
asS'Meltham'
p7506
(lp7507
S'28682'
p7508
asS'Moglia'
p7509
(lp7510
S'718444'
p7511
asS'Market Harborough'
p7512
(lp7513
S'28346'
p7514
asS'Marechal C\xc3\xa2ndido Rondon'
p7515
(lp7516
S'439610'
p7517
asS'Malangas'
p7518
(lp7519
S'1199439'
p7520
asS'Maple Glen'
p7521
(lp7522
S'2445155'
p7523
aS'2445155'
p7524
asS'Middelburg'
p7525
(lp7526
S'731664'
p7527
aS'1590560'
p7528
aS'1590560'
p7529
asS'Malpe'
p7530
(lp7531
S'2294203'
p7532
asS'Maur'
p7533
(lp7534
S'29060719'
p7535
asS'Medianeira'
p7536
(lp7537
S'456329'
p7538
asS'Moya'
p7539
(lp7540
S'767928'
p7541
aS'1306109'
p7542
asS'Moyo'
p7543
(lp7544
S'1453837'
p7545
asS'Malungon'
p7546
(lp7547
S'1181371'
p7548
asS'Mailani'
p7549
(lp7550
S'29120074'
p7551
asS'Massenya'
p7552
(lp7553
S'1276820'
p7554
asS'Mingora'
p7555
(lp7556
S'2203528'
p7557
asS'Mananjary'
p7558
(lp7559
S'1362354'
p7560
asS'Malacacheta'
p7561
(lp7562
S'457509'
p7563
asS'Mount Washington'
p7564
(lp7565
S'2455619'
p7566
asS'Miss\xc3\xa3o Velha'
p7567
(lp7568
S'440392'
p7569
asS'Margate'
p7570
(lp7571
S'1097120'
p7572
aS'28326'
p7573
aS'2445602'
p7574
aS'1584571'
p7575
asS'M\xc4\x9bln\xc3\xadk'
p7576
(lp7577
S'793739'
p7578
asS'Maple Grove'
p7579
(lp7580
S'2445159'
p7581
asS'Maun'
p7582
(lp7583
S'1265736'
p7584
asS'Massawa'
p7585
(lp7586
S'1312462'
p7587
asS'Manjo'
p7588
(lp7589
S'1302805'
p7590
asS'Mpophomeni'
p7591
(lp7592
S'1585481'
p7593
asS"Monteroni d'Arbia"
p7594
(lp7595
S'718950'
p7596
asS'Marple'
p7597
(lp7598
S'28387'
p7599
asS'Margaret River'
p7600
(lp7601
S'1103696'
p7602
asS'Macherla'
p7603
(lp7604
S'29134584'
p7605
asS'Molins de Rei'
p7606
(lp7607
S'767386'
p7608
asS'Malakoff'
p7609
(lp7610
S'20175628'
p7611
asS'Maribo'
p7612
(lp7613
S'555495'
p7614
asS'Mittagong'
p7615
(lp7616
S'1103996'
p7617
asS'Michelau'
p7618
(lp7619
S'675144'
p7620
asS'Montelupo Fiorentino'
p7621
(lp7622
S'718885'
p7623
asS'Monte Mor'
p7624
(lp7625
S'440712'
p7626
asS'Murwillumbah'
p7627
(lp7628
S'1104404'
p7629
asS'Mozdok'
p7630
(lp7631
S'2122273'
p7632
asS'Mihona'
p7633
(lp7634
S'2291343'
p7635
asS"M'banza Congo"
p7636
(lp7637
S'1262109'
p7638
asS'Matagalpa'
p7639
(lp7640
S'153537'
p7641
asS'Moniquir\xc3\xa1'
p7642
(lp7643
S'368347'
p7644
asS'Manvi'
p7645
(lp7646
S'29061486'
p7647
asS'Monselice'
p7648
(lp7649
S'718605'
p7650
asS'Mustasaari'
p7651
(lp7652
S'570004'
p7653
asS'Morinville'
p7654
(lp7655
S'8664'
p7656
asS'Mandaguari'
p7657
(lp7658
S'457519'
p7659
asS'Meadow Lake'
p7660
(lp7661
S'2448541'
p7662
asS'Mount Dora'
p7663
(lp7664
S'2454895'
p7665
asS'Mahomet'
p7666
(lp7667
S'2444273'
p7668
asS'Maykain'
p7669
(lp7670
S'2264680'
p7671
asS'Muggensturm'
p7672
(lp7673
S'676448'
p7674
asS'Mazara del Vallo'
p7675
(lp7676
S'718131'
p7677
asS'Meco'
p7678
(lp7679
S'766938'
p7680
asS'Mittersill'
p7681
(lp7682
S'547718'
p7683
asS'Moravsk\xc3\xa9 Bud\xc4\x9bjovice'
p7684
(lp7685
S'794228'
p7686
asS'Mortsel'
p7687
(lp7688
S'969214'
p7689
asS'Mentok'
p7690
(lp7691
S'1047969'
p7692
asS'Mira Monte'
p7693
(lp7694
S'2452250'
p7695
asS'Mo\xc3\xafssala'
p7696
(lp7697
S'1277158'
p7698
asS'Morgan City'
p7699
(lp7700
S'2454035'
p7701
asS'Milliken'
p7702
(lp7703
S'2451496'
p7704
asS'Mahiari'
p7705
(lp7706
S'28999006'
p7707
asS'Morada Nova'
p7708
(lp7709
S'440776'
p7710
asS'Michendorf'
p7711
(lp7712
S'675193'
p7713
asS'Manningtree'
p7714
(lp7715
S'28247'
p7716
asS'Moratalla'
p7717
(lp7718
S'767773'
p7719
asS'Magnago'
p7720
(lp7721
S'717661'
p7722
asS'Mecayapan'
p7723
(lp7724
S'133252'
p7725
asS'Monte Porzio Catone'
p7726
(lp7727
S'718728'
p7728
asS'Moi\xc3\xa0'
p7729
(lp7730
S'767930'
p7731
asS'Matammah'
p7732
(lp7733
S'1430517'
p7734
asS'Moberly'
p7735
(lp7736
S'2452534'
p7737
asS"Mek'ele"
p7738
(lp7739
S'1318717'
p7740
asS'Montecarlo'
p7741
(lp7742
S'467324'
p7743
asS'Mount Vista'
p7744
(lp7745
S'2455616'
p7746
asS'Morro Bay'
p7747
(lp7748
S'2454363'
p7749
asS'Murfatlar'
p7750
(lp7751
S'876281'
p7752
asS'Madipakkam'
p7753
(lp7754
S'29076229'
p7755
asS'Mirnyy'
p7756
(lp7757
S'2046493'
p7758
aS'2046493'
p7759
aS'2046493'
p7760
aS'2046493'
p7761
asS'Melksham'
p7762
(lp7763
S'28662'
p7764
asS'Mar de Espanha'
p7765
(lp7766
S'457531'
p7767
asS'Merrimac'
p7768
(lp7769
S'2449702'
p7770
asS'Mainit'
p7771
(lp7772
S'1199432'
p7773
aS'1199432'
p7774
asS'Mulch\xc3\xa9n'
p7775
(lp7776
S'349933'
p7777
asS'Meiktila'
p7778
(lp7779
S'1017603'
p7780
asS'Milton'
p7781
(lp7782
S'2451760'
p7783
aS'2451760'
p7784
aS'2451760'
p7785
aS'2451760'
p7786
aS'2451760'
p7787
asS'Macar\xc3\xa1'
p7788
(lp7789
S'375799'
p7790
asS'Montesson'
p7791
(lp7792
S'612571'
p7793
asS'Malkajgiri'
p7794
(lp7795
S'29000475'
p7796
asS'Monte Urano'
p7797
(lp7798
S'718751'
p7799
asS'Masuguru'
p7800
(lp7801
S'1446637'
p7802
asS'Maintal'
p7803
(lp7804
S'673513'
p7805
asS'Moita'
p7806
(lp7807
S'743648'
p7808
asS'Margny-l\xc3\xa8s-Compi\xc3\xa8gne'
p7809
(lp7810
S'609995'
p7811
asS'Magsaysay'
p7812
(lp7813
S'1180401'
p7814
aS'1180401'
p7815
asS'Marnate'
p7816
(lp7817
S'717956'
p7818
asS'Melville'
p7819
(lp7820
S'2449272'
p7821
asS'Muyinga'
p7822
(lp7823
S'1270544'
p7824
asS'Mungaoli'
p7825
(lp7826
S'29027412'
p7827
asS'Molepolole'
p7828
(lp7829
S'1265776'
p7830
asS'Mulgund'
p7831
(lp7832
S'2293566'
p7833
asS'Madalena'
p7834
(lp7835
S'742985'
p7836
aS'742985'
p7837
asS'Murashi'
p7838
(lp7839
S'2122294'
p7840
asS'Mimoso do Sul'
p7841
(lp7842
S'460128'
p7843
asS'Mierlo'
p7844
(lp7845
S'731699'
p7846
asS'Montebello'
p7847
(lp7848
S'2453225'
p7849
asS'Mudersbach'
p7850
(lp7851
S'676416'
p7852
as.