(dp1
S'Pryor'
p2
(lp3
S'2477113'
p4
asS'Pupri'
p5
(lp6
S'29163077'
p7
asS'Periyapatti'
p8
(lp9
S'29000424'
p10
asS'Pinellas Park'
p11
(lp12
S'2472637'
p13
asS'Pleasant Hill'
p14
(lp15
S'2473789'
p16
aS'2473789'
p17
aS'2473789'
p18
asS'Pinson'
p19
(lp20
S'2472971'
p21
asS'Palm City'
p22
(lp23
S'2467670'
p24
asS'Papenburg'
p25
(lp26
S'684187'
p27
asS'Pomona'
p28
(lp29
S'2474866'
p30
asS'Plato'
p31
(lp32
S'368229'
p33
asS'Panagyurishte'
p34
(lp35
S'838607'
p36
asS'Privolzhskiy'
p37
(lp38
S'2123036'
p39
asS'Peh\xc4\x8devo'
p40
(lp41
S'482712'
p42
asS'Petrinja'
p43
(lp44
S'849592'
p45
asS'Perungudi'
p46
(lp47
S'29080449'
p48
asS'Piatra Neam\xc5\xa3'
p49
(lp50
S'877543'
p51
asS'Por\xc4\x99ba'
p52
(lp53
S'513827'
p54
asS'Po\xc5\xbearevac'
p55
(lp56
S'536085'
p57
asS'Piaseczno'
p58
(lp59
S'512058'
p60
asS'Pea Ridge'
p61
(lp62
S'2469528'
p63
asS'Phagwara'
p64
(lp65
S'2294978'
p66
asS'Palembang'
p67
(lp68
S'1048059'
p69
asS'Peschiera Borromeo'
p70
(lp71
S'20135631'
p72
asS'Pilar de la Horadada'
p73
(lp74
S'770128'
p75
asS'Pastavy'
p76
(lp77
S'829777'
p78
asS'Psikhikon'
p79
(lp80
S'960888'
p81
asS'Pando'
p82
(lp83
S'468069'
p84
asS'Pandi'
p85
(lp86
S'1186442'
p87
asS'Panambi'
p88
(lp89
S'442598'
p90
asS'Portugalete'
p91
(lp92
S'770580'
p93
asS'Pithoragarh'
p94
(lp95
S'2288569'
p96
asS'Padula'
p97
(lp98
S'719757'
p99
asS'Perwez'
p100
(lp101
S'975524'
p102
asS'Petersaurach'
p103
(lp104
S'684618'
p105
asS'Pu\xc3\xa7ol'
p106
(lp107
S'771079'
p108
asS'Pampa'
p109
(lp110
S'2467907'
p111
asS'Patern\xc3\xb2'
p112
(lp113
S'720040'
p114
asS'Perry Hall'
p115
(lp116
S'2470720'
p117
asS'Pliezhausen'
p118
(lp119
S'685351'
p120
asS'Palmeira das Miss\xc3\xb5es'
p121
(lp122
S'442496'
p123
asS'Powell River'
p124
(lp125
S'9758'
p126
asS'Poltava'
p127
(lp128
S'931366'
p129
asS'Pomerode'
p130
(lp131
S'460532'
p132
asS'Pompton Lakes'
p133
(lp134
S'2474908'
p135
asS'Palladam'
p136
(lp137
S'2294487'
p138
asS'Padra'
p139
(lp140
S'29019037'
p141
asS'Pesqueira'
p142
(lp143
S'457793'
p144
asS'P\xc3\xb6lten'
p145
(lp146
S'549543'
p147
asS'Ponta Delgada'
p148
(lp149
S'746008'
p150
asS'Postbauer-Heng'
p151
(lp152
S'20158078'
p153
asS'Paternion'
p154
(lp155
S'540160'
p156
asS'Pasiano di Pordenone'
p157
(lp158
S'20135096'
p159
asS'Paj\xc4\x99czno'
p160
(lp161
S'511479'
p162
asS'Parys'
p163
(lp164
S'1586432'
p165
asS'Pandharpur'
p166
(lp167
S'2295203'
p168
asS'Parelhas'
p169
(lp170
S'460388'
p171
asS'Puerto Montt'
p172
(lp173
S'349883'
p174
asS'Pembroke Pines'
p175
(lp176
S'2470103'
p177
asS'Puerto Tejada'
p178
(lp179
S'368230'
p180
asS'Peine'
p181
(lp182
S'684440'
p183
asS'Parral'
p184
(lp185
S'349938'
p186
asS'Po\xc3\xa7\xc3\xa3o de Pedras'
p187
(lp188
S'460510'
p189
asS'Palmyra'
p190
(lp191
S'2467826'
p192
aS'2467826'
p193
asS'Partille'
p194
(lp195
S'901742'
p196
asS'Po\xc3\xa7o Branco'
p197
(lp198
S'444625'
p199
asS'Puget-sur-Argens'
p200
(lp201
S'618254'
p202
asS'Pitkyaranta'
p203
(lp204
S'2122889'
p205
asS'Palencia'
p206
(lp207
S'769278'
p208
aS'84767'
p209
asS'Poliny\xc3\xa0'
p210
(lp211
S'770431'
p212
asS'Prijedor'
p213
(lp214
S'943557'
p215
asS'Punta Santiago'
p216
(lp217
S'161592'
p218
asS'Pyrzyce'
p219
(lp220
S'514958'
p221
asS'Picture Rocks'
p222
(lp223
S'23417096'
p224
asS'Pa\xc3\xa7o de Arcos'
p225
(lp226
S'744899'
p227
asS'P\xc5\x99\xc3\xadbor'
p228
(lp229
S'796734'
p230
asS'Poughkeepsie'
p231
(lp232
S'2476013'
p233
asS'Pontarlier'
p234
(lp235
S'617416'
p236
asS'Phon'
p237
(lp238
S'1226100'
p239
asS'Pisticci'
p240
(lp241
S'720643'
p242
asS'Putzbrunn'
p243
(lp244
S'686300'
p245
asS'Puerto Barrios'
p246
(lp247
S'85209'
p248
asS'Portim\xc3\xa3o'
p249
(lp250
S'746194'
p251
asS'Pushkino'
p252
(lp253
S'2123075'
p254
asS'Priozersk'
p255
(lp256
S'2123030'
p257
asS'Potters Bar'
p258
(lp259
S'32485'
p260
asS"Podporozh'ye"
p261
(lp262
S'2067878'
p263
asS'Piombino Dese'
p264
(lp265
S'720606'
p266
asS'Port-Etienne'
p267
(lp268
S'1504734'
p269
asS'Pulaski'
p270
(lp271
S'2477186'
p272
aS'2477186'
p273
asS'Pratola Peligna'
p274
(lp275
S'721260'
p276
asS'Purwa'
p277
(lp278
S'29019856'
p279
asS'Port Macquarie'
p280
(lp281
S'1105133'
p282
asS'Parol'
p283
(lp284
S'29108121'
p285
asS'Pelton'
p286
(lp287
S'31595'
p288
asS'Pelham Manor'
p289
(lp290
S'2470026'
p291
asS'Paros'
p292
(lp293
S'959347'
p294
asS'Pehowa'
p295
(lp296
S'2291428'
p297
asS'Palau'
p298
(lp299
S'135534'
p300
asS'Perib\xc3\xa1n de Ramos'
p301
(lp302
S'136484'
p303
asS'Piazza Armerina'
p304
(lp305
S'720413'
p306
asS'Posse'
p307
(lp308
S'445651'
p309
asS'Perni\xc3\xb6'
p310
(lp311
S'571272'
p312
asS'Pforzheim'
p313
(lp314
S'684946'
p315
asS'Panposh'
p316
(lp317
S'2289512'
p318
asS'Passau'
p319
(lp320
S'684294'
p321
asS'Point Fortin'
p322
(lp323
S'380322'
p324
asS'Paddock Wood'
p325
(lp326
S'31312'
p327
asS'Phoenix'
p328
(lp329
S'2471375'
p330
asS'Paide'
p331
(lp332
S'844516'
p333
asS'Pollena Trocchia'
p334
(lp335
S'20137240'
p336
asS'Palwal'
p337
(lp338
S'29190660'
p339
asS'Pekan'
p340
(lp341
S'1155006'
p342
asS'Paterna'
p343
(lp344
S'23701217'
p345
asS'Puranpur'
p346
(lp347
S'29058449'
p348
asS'Port Orange'
p349
(lp350
S'2475456'
p351
asS'Petushki'
p352
(lp353
S'2066086'
p354
asS'Phangnga'
p355
(lp356
S'1226085'
p357
asS'P\xc5\x99elou\xc4\x8d'
p358
(lp359
S'796687'
p360
asS'Puerto Berr\xc3\xado'
p361
(lp362
S'364331'
p363
asS'Pedana'
p364
(lp365
S'2284178'
p366
asS'Puerto Santander'
p367
(lp368
S'369305'
p369
asS'Potgietersrus'
p370
(lp371
S'1586629'
p372
asS'Pola de Laviana'
p373
(lp374
S'770411'
p375
asS'Port Angeles'
p376
(lp377
S'2475316'
p378
asS'Pujali'
p379
(lp380
S'28998990'
p381
asS'Pskov'
p382
(lp383
S'2123063'
p384
asS'Peoria Heights'
p385
(lp386
S'2470485'
p387
asS'Pyapon'
p388
(lp389
S'1017790'
p390
asS'Pont-\xc3\x89v\xc3\xaaque'
p391
(lp392
S'617371'
p393
asS'Pinehurst'
p394
(lp395
S'2472577'
p396
aS'2472577'
p397
asS'Pedara'
p398
(lp399
S'720081'
p400
asS'Popovo'
p401
(lp402
S'838897'
p403
asS'Perth Amboy'
p404
(lp405
S'2470835'
p406
asS'Peristerion'
p407
(lp408
S'959615'
p409
asS'Parbatipur'
p410
(lp411
S'1915188'
p412
aS'29005503'
p413
asS'Pont-Audemer'
p414
(lp415
S'617322'
p416
asS'Pensacola'
p417
(lp418
S'2470405'
p419
asS'Pitogo'
p420
(lp421
S'1188074'
p422
aS'1188074'
p423
asS'Porthcawl'
p424
(lp425
S'32404'
p426
asS'Piranhas'
p427
(lp428
S'460500'
p429
asS'Palm Beach Gardens'
p430
(lp431
S'2467666'
p432
asS'Patu'
p433
(lp434
S'457768'
p435
asS'Perundurai'
p436
(lp437
S'29079822'
p438
asS'Palmas'
p439
(lp440
S'442454'
p441
aS'442454'
p442
asS'Perumbavoor'
p443
(lp444
S'2284254'
p445
asS'Pratt'
p446
(lp447
S'2476335'
p448
asS'Parczew'
p449
(lp450
S'511645'
p451
asS'P\xc3\xa9cel'
p452
(lp453
S'813646'
p454
asS'Pindamonhangaba'
p455
(lp456
S'444148'
p457
asS'Pati'
p458
(lp459
S'1048118'
p460
asS'Pribrezhnyy'
p461
(lp462
S'2070913'
p463
asS'Pochinok'
p464
(lp465
S'2122919'
p466
asS'Padre Bernardo'
p467
(lp468
S'457714'
p469
asS'Palmerston North'
p470
(lp471
S'2350025'
p472
asS'Pirmasens'
p473
(lp474
S'685176'
p475
asS'Popasnaya'
p476
(lp477
S'931434'
p478
asS'Poselok Slatino'
p479
(lp480
S'931548'
p481
asS'Pathum Thani'
p482
(lp483
S'1225557'
p484
asS'Palpa'
p485
(lp486
S'418565'
p487
asS'P\xc3\xb3voa de Lanhoso'
p488
(lp489
S'746379'
p490
asS'Pedreira'
p491
(lp492
S'443631'
p493
asS'Plat\xc3\xb3n S\xc3\xa1nchez'
p494
(lp495
S'136962'
p496
asS'Port Glasgow'
p497
(lp498
S'32364'
p499
asS"Pallazzolo sull'Oglio"
p500
(lp501
S'719864'
p502
asS'Palpal\xc3\xa1'
p503
(lp504
S'467021'
p505
asS'Piracuruca'
p506
(lp507
S'457819'
p508
asS'Poulton le Fylde'
p509
(lp510
S'32503'
p511
asS'Progreso Industrial'
p512
(lp513
S'55900536'
p514
asS'Pedro Mu\xc3\xb1oz'
p515
(lp516
S'769686'
p517
asS'Pestovo'
p518
(lp519
S'2122848'
p520
asS'Petilia Policastro'
p521
(lp522
S'720229'
p523
asS'Pharr'
p524
(lp525
S'2471139'
p526
asS'Piano di Sorrento'
p527
(lp528
S'720375'
p529
asS'Piraju'
p530
(lp531
S'456418'
p532
asS'Pinoso'
p533
(lp534
S'20225270'
p535
asS'Perico'
p536
(lp537
S'66076'
p538
asS'Penang'
p539
(lp540
S'1141153'
p541
asS'Paravur'
p542
(lp543
S'2294600'
p544
asS'Pocking'
p545
(lp546
S'685424'
p547
asS'Papagaios'
p548
(lp549
S'460368'
p550
asS'Porto Tolle'
p551
(lp552
S'721106'
p553
asS'Pe\xc3\xb1\xc3\xb3n Blanco'
p554
(lp555
S'136445'
p556
asS'Parkwood'
p557
(lp558
S'2468773'
p559
asS'Para\xc3\xbana'
p560
(lp561
S'457753'
p562
asS'Pennsville'
p563
(lp564
S'2470325'
p565
asS'Pazardzhik'
p566
(lp567
S'838661'
p568
asS'Paray-Vieille-Poste'
p569
(lp570
S'615631'
p571
asS'Pont-\xc3\xa0-Mousson'
p572
(lp573
S'617318'
p574
asS'Praia'
p575
(lp576
S'1310855'
p577
asS'Punasa'
p578
(lp579
S'2292491'
p580
asS'Premnitz'
p581
(lp582
S'685908'
p583
asS'Psebay'
p584
(lp585
S'2123060'
p586
asS'Pinneberg'
p587
(lp588
S'15002743'
p589
asS'Pruszk\xc3\xb3w'
p590
(lp591
S'514263'
p592
asS'Plankstadt'
p593
(lp594
S'685256'
p595
asS'Puentes de Garc\xc3\xada Rodr\xc3\xadguez'
p596
(lp597
S'770944'
p598
asS'Parang'
p599
(lp600
S'1186958'
p601
aS'1186958'
p602
asS'Pavilly'
p603
(lp604
S'615853'
p605
asS'Ph\xe1\xbb\xa7 L\xc3\xbd'
p606
(lp607
S'1252552'
p608
asS'Ploskoye'
p609
(lp610
S'2122906'
p611
asS'Pulupandan'
p612
(lp613
S'1199678'
p614
asS'Plast'
p615
(lp616
S'2122894'
p617
asS'Papparapatti'
p618
(lp619
S'29075907'
p620
asS'Paradip'
p621
(lp622
S'2290129'
p623
asS'Periyakulam'
p624
(lp625
S'2294602'
p626
asS'Ponte Nova'
p627
(lp628
S'460559'
p629
asS'Port-Cartier'
p630
(lp631
S'2709'
p632
asS'Pregradnaya'
p633
(lp634
S'2123017'
p635
asS'Petro\xc5\x9fani'
p636
(lp637
S'877504'
p638
asS'Prescott Valley'
p639
(lp640
S'2476448'
p641
asS'Pulilan'
p642
(lp643
S'1199677'
p644
asS'Pauls Valley'
p645
(lp646
S'2469343'
p647
asS'Presidente Epit\xc3\xa1cio'
p648
(lp649
S'456451'
p650
asS'Pleasant View'
p651
(lp652
S'2474143'
p653
asS'Portage Lakes'
p654
(lp655
S'2475555'
p656
asS'Princes Risborough'
p657
(lp658
S'32623'
p659
asS'Portsmouth Heights'
p660
(lp661
S'2475761'
p662
asS'Pail\xc3\xb3n'
p663
(lp664
S'341843'
p665
asS'Padada'
p666
(lp667
S'1185510'
p668
asS'Penzance'
p669
(lp670
S'31889'
p671
asS'Phrae'
p672
(lp673
S'1226108'
p674
asS'Pitangueiras'
p675
(lp676
S'444453'
p677
asS'Poperinge'
p678
(lp679
S'975819'
p680
asS'Pandino'
p681
(lp682
S'719906'
p683
asS'Payette'
p684
(lp685
S'2469449'
p686
asS'Plze\xc5\x88'
p687
(lp688
S'796166'
p689
asS'Pho Thong'
p690
(lp691
S'1225580'
p692
asS'Protiv\xc3\xadn'
p693
(lp694
S'796874'
p695
asS'Portoscuso'
p696
(lp697
S'721120'
p698
asS'Passa Quatro'
p699
(lp700
S'443014'
p701
asS'Puerto Armuelles'
p702
(lp703
S'159683'
p704
asS'Placerville'
p705
(lp706
S'2473310'
p707
asS'Parakou'
p708
(lp709
S'1268389'
p710
asS'P\xc3\xa9ronnas'
p711
(lp712
S'616098'
p713
asS'Paraparaumu'
p714
(lp715
S'2350063'
p716
asS'Pisco'
p717
(lp718
S'418458'
p719
asS'Pokotilovka'
p720
(lp721
S'931277'
p722
asS'Pickering'
p723
(lp724
S'31982'
p725
asS'Privolzhsk'
p726
(lp727
S'2123035'
p728
asS'Przeworsk'
p729
(lp730
S'514450'
p731
asS'Phalodi'
p732
(lp733
S'2284281'
p734
asS'Pego'
p735
(lp736
S'22661374'
p737
asS'Puchezh'
p738
(lp739
S'2123064'
p740
asS'Piribebuy'
p741
(lp742
S'378633'
p743
asS'Preobrazheniye'
p744
(lp745
S'2070799'
p746
asS'Piraziz'
p747
(lp748
S'2334910'
p749
asS'Picos'
p750
(lp751
S'460477'
p752
asS'Pavia di Udine'
p753
(lp754
S'20107649'
p755
asS'Porbandar'
p756
(lp757
S'2295066'
p758
asS'Pegu'
p759
(lp760
S'1017780'
p761
asS'Pasian di Prato'
p762
(lp763
S'719998'
p764
asS"P'yongsong"
p765
(lp766
S'1093926'
p767
asS'P\xc4\xb1narba\xc5\x9f\xc4\xb1'
p768
(lp769
S'2334817'
p770
asS'Pigeon Forge'
p771
(lp772
S'2471697'
p773
asS'Paranapanema'
p774
(lp775
S'442817'
p776
asS'Parbatsar'
p777
(lp778
S'2284034'
p779
asS'Port Louis'
p780
(lp781
S'1377436'
p782
asS'Pleasant Grove'
p783
(lp784
S'2473693'
p785
aS'2473693'
p786
asS'Pontevico'
p787
(lp788
S'720997'
p789
asS'Puerto L\xc3\xb3pez'
p790
(lp791
S'369280'
p792
asS'Pontecorvo'
p793
(lp794
S'720978'
p795
asS'Prost\xc4\x9bjov'
p796
(lp797
S'796849'
p798
asS'Poronaysk'
p799
(lp800
S'2070032'
p801
asS'Planegg'
p802
(lp803
S'685243'
p804
asS'Pangody'
p805
(lp806
S'2062521'
p807
asS'Pozzallo'
p808
(lp809
S'721167'
p810
asS'Panagar'
p811
(lp812
S'2283794'
p813
asS'P\xc3\xabrmet'
p814
(lp815
S'471323'
p816
asS'P\xc3\xb3voa de Varzim'
p817
(lp818
S'746400'
p819
asS'Presque Isle'
p820
(lp821
S'2476465'
p822
asS'Paradise'
p823
(lp824
S'1098015'
p825
aS'2468109'
p826
aS'2468109'
p827
asS'Palacole'
p828
(lp829
S'2295236'
p830
asS'Pa-an'
p831
(lp832
S'1017749'
p833
asS'Pelago'
p834
(lp835
S'720101'
p836
asS'Plo\xc3\xabrmel'
p837
(lp838
S'616944'
p839
asS'Palera'
p840
(lp841
S'29066630'
p842
asS'Pulp\xc3\xad'
p843
(lp844
S'771031'
p845
asS'Pusad'
p846
(lp847
S'2295190'
p848
asS'Pappinisseri'
p849
(lp850
S'2293914'
p851
asS'Planaltina'
p852
(lp853
S'456425'
p854
asS'Pi\xc3\xb1as'
p855
(lp856
S'375810'
p857
asS'Pembroke'
p858
(lp859
S'3316'
p860
aS'31602'
p861
aS'2470083'
p862
asS'Pemangkat'
p863
(lp864
S'1048135'
p865
asS'Porlamar'
p866
(lp867
S'468425'
p868
asS'Port Lavaca'
p869
(lp870
S'2475421'
p871
asS'Pakil'
p872
(lp873
S'1185819'
p874
asS'Piombino'
p875
(lp876
S'720605'
p877
asS'Puerto Piray'
p878
(lp879
S'466268'
p880
asS'Presidencia de la Plaza'
p881
(lp882
S'466191'
p883
asS'Parnamirim'
p884
(lp885
S'442895'
p886
aS'442895'
p887
asS'Prata di Pordenone'
p888
(lp889
S'721236'
p890
asS'Patacamaya'
p891
(lp892
S'346201'
p893
asS'Povorino'
p894
(lp895
S'2123007'
p896
asS'Petrovskoye'
p897
(lp898
S'2122862'
p899
asS'Puerto El Triunfo'
p900
(lp901
S'79332'
p902
asS"Pereslavl'-Zalesskiy"
p903
(lp904
S'2064116'
p905
asS'Pescara'
p906
(lp907
S'720194'
p908
asS'Pyh\xc3\xa4j\xc3\xa4rvi'
p909
(lp910
S'571806'
p911
aS'571806'
p912
asS'Pantelleria'
p913
(lp914
S'719929'
p915
asS'Portishead'
p916
(lp917
S'32424'
p918
asS'Pen'
p919
(lp920
S'2292775'
p921
asS'Palma Soriano'
p922
(lp923
S'65871'
p924
asS'Pinxton'
p925
(lp926
S'32063'
p927
asS'Pec'
p928
(lp929
S'535891'
p930
asS'Palotina'
p931
(lp932
S'457730'
p933
asS'Pratteln'
p934
(lp935
S'783776'
p936
asS'Patnos'
p937
(lp938
S'2344320'
p939
asS'Puntarenas'
p940
(lp941
S'59157'
p942
asS'Pl\xc3\xb6n'
p943
(lp944
S'685370'
p945
asS'Payakumbuh'
p946
(lp947
S'1040691'
p948
asS'Port Laoise'
p949
(lp950
S'561964'
p951
asS'Palia Kalan'
p952
(lp953
S'2288579'
p954
asS'Pizarra'
p955
(lp956
S'770307'
p957
asS'Palo del Colle'
p958
(lp959
S'719881'
p960
asS'Pontecagnano Faiano'
p961
(lp962
S'20137620'
p963
asS'Purong-dong'
p964
(lp965
S'1080752'
p966
asS'President Roxas'
p967
(lp968
S'1188499'
p969
aS'1188499'
p970
asS'Pupiales'
p971
(lp972
S'369316'
p973
asS'Panitan'
p974
(lp975
S'1199623'
p976
aS'1199623'
p977
asS'Pula'
p978
(lp979
S'849901'
p980
aS'721365'
p981
asS'Pilas'
p982
(lp983
S'770129'
p984
asS'Pilar'
p985
(lp986
S'466881'
p987
aS'444093'
p988
aS'444093'
p989
aS'1187692'
p990
aS'1187692'
p991
aS'1187692'
p992
aS'379189'
p993
asS'Palazzolo Acreide'
p994
(lp995
S'719837'
p996
asS'Petroupolis'
p997
(lp998
S'959811'
p999
asS"Podol'sk"
p1000
(lp1001
S'2122929'
p1002
asS'Par\xc3\xa1 de Minas'
p1003
(lp1004
S'457737'
p1005
asS'Padmanabhapuram'
p1006
(lp1007
S'2294753'
p1008
asS'Pinhal Novo'
p1009
(lp1010
S'745789'
p1011
asS'Puerto Escondido'
p1012
(lp1013
S'137853'
p1014
asS'Port Shepstone'
p1015
(lp1016
S'1586618'
p1017
asS'Pantao'
p1018
(lp1019
S'1200082'
p1020
asS'Pataudi'
p1021
(lp1022
S'2291489'
p1023
asS'Priyutovo'
p1024
(lp1025
S'2123039'
p1026
asS'Palam\xc3\xb3s'
p1027
(lp1028
S'769243'
p1029
asS'Pazin'
p1030
(lp1031
S'849557'
p1032
asS'Palm Springs'
p1033
(lp1034
S'2467696'
p1035
aS'2467696'
p1036
asS'Piovene Rocchette'
p1037
(lp1038
S'720618'
p1039
asS'Pamukova'
p1040
(lp1041
S'2344318'
p1042
asS'Papar'
p1043
(lp1044
S'1154988'
p1045
asS'P\xc3\xa9gomas'
p1046
(lp1047
S'615916'
p1048
asS'Pokrovka'
p1049
(lp1050
S'2068399'
p1051
aS'2068399'
p1052
asS'Porsa'
p1053
(lp1054
S'29018650'
p1055
asS'Playa Vicente'
p1056
(lp1057
S'136985'
p1058
asS"Pristen'"
p1059
(lp1060
S'2071254'
p1061
asS'Piazzola sul Brenta'
p1062
(lp1063
S'720423'
p1064
asS'Pre\xc5\xa1ov'
p1065
(lp1066
S'821782'
p1067
asS'Primorsko-Akhtarsk'
p1068
(lp1069
S'2123029'
p1070
asS'Po\xc3\xa1'
p1071
(lp1072
S'444566'
p1073
asS'Poland'
p1074
(lp1075
S'2474712'
p1076
asS'Provins'
p1077
(lp1078
S'618162'
p1079
asS'Puk\xc3\xab'
p1080
(lp1081
S'471491'
p1082
asS'Pinewood'
p1083
(lp1084
S'2472734'
p1085
asS'Porto Recanati'
p1086
(lp1087
S'721099'
p1088
asS'Puerto Serrano'
p1089
(lp1090
S'770992'
p1091
asS'Picanya'
p1092
(lp1093
S'770065'
p1094
asS'Puck'
p1095
(lp1096
S'514844'
p1097
asS'Preu\xc3\x9fisch Oldendorf'
p1098
(lp1099
S'685960'
p1100
asS'Praha'
p1101
(lp1102
S'796597'
p1103
asS'Pozna\xc5\x84'
p1104
(lp1105
S'514048'
p1106
asS'Pembroke Dock'
p1107
(lp1108
S'31603'
p1109
asS'Pamplemousses'
p1110
(lp1111
S'1377416'
p1112
asS'Pasir Mas'
p1113
(lp1114
S'1154997'
p1115
asS'Paracatu'
p1116
(lp1117
S'456385'
p1118
asS'Prescot'
p1119
(lp1120
S'32546'
p1121
asS'Piedade'
p1122
(lp1123
S'457799'
p1124
aS'538208'
p1125
asS'Philippeville'
p1126
(lp1127
S'975621'
p1128
asS'Povoletto'
p1129
(lp1130
S'721160'
p1131
asS'Palmeira'
p1132
(lp1133
S'442459'
p1134
asS'Pedro Leopoldo'
p1135
(lp1136
S'460443'
p1137
asS'Peal de Becerro'
p1138
(lp1139
S'769629'
p1140
asS'Poggibonsi'
p1141
(lp1142
S'720728'
p1143
asS'P\xc3\xbcttlingen'
p1144
(lp1145
S'686295'
p1146
asS'Pfungstadt'
p1147
(lp1148
S'684970'
p1149
asS'Prata'
p1150
(lp1151
S'445792'
p1152
asS'Prato'
p1153
(lp1154
S'15000195'
p1155
asS'Prestwick'
p1156
(lp1157
S'32600'
p1158
asS'Putatan'
p1159
(lp1160
S'1152699'
p1161
asS'Planeta Rica'
p1162
(lp1163
S'368228'
p1164
asS'Paddhari'
p1165
(lp1166
S'2291806'
p1167
asS'Portet-sur-Garonne'
p1168
(lp1169
S'617591'
p1170
asS'Pe\xc3\xb1arroya-Pueblonuevo'
p1171
(lp1172
S'769846'
p1173
asS'Pian di Sco'
p1174
(lp1175
S'720308'
p1176
asS'Pontypridd'
p1177
(lp1178
S'32317'
p1179
asS"Pomigliano d'Arco"
p1180
(lp1181
S'720876'
p1182
asS'Pangkalpinang'
p1183
(lp1184
S'1048086'
p1185
asS'Papillion'
p1186
(lp1187
S'2468097'
p1188
asS'Prichard'
p1189
(lp1190
S'2476619'
p1191
asS'Pebble Creek'
p1192
(lp1193
S'2469806'
p1194
asS'Punta Card\xc3\xb3n'
p1195
(lp1196
S'468652'
p1197
asS'Prigrevica'
p1198
(lp1199
S'536144'
p1200
asS'Parma'
p1201
(lp1202
S'719975'
p1203
aS'2468826'
p1204
asS'Panaji'
p1205
(lp1206
S'2295173'
p1207
asS'Para\xc3\xadso'
p1208
(lp1209
S'58955'
p1210
aS'136001'
p1211
asS'Portland'
p1212
(lp1213
S'1105149'
p1214
aS'2475664'
p1215
aS'2475664'
p1216
aS'2475664'
p1217
aS'2475664'
p1218
aS'2475664'
p1219
aS'2475664'
p1220
asS'Piura'
p1221
(lp1222
S'418446'
p1223
asS'Pozoblanco'
p1224
(lp1225
S'770673'
p1226
asS'Port Washington'
p1227
(lp1228
S'2475521'
p1229
aS'2475521'
p1230
asS'Ponnur'
p1231
(lp1232
S'29080011'
p1233
asS'Parkland'
p1234
(lp1235
S'2468624'
p1236
aS'2468624'
p1237
asS'Peto'
p1238
(lp1239
S'136547'
p1240
asS'Peterlee'
p1241
(lp1242
S'31935'
p1243
asS'Pescia'
p1244
(lp1245
S'720204'
p1246
asS'Plant City'
p1247
(lp1248
S'2473483'
p1249
asS'Planadas'
p1250
(lp1251
S'363927'
p1252
asS'Placetas'
p1253
(lp1254
S'66170'
p1255
asS'Parkano'
p1256
(lp1257
S'571056'
p1258
asS'P\xc3\xa1jara'
p1259
(lp1260
S'769183'
p1261
asS'Patnagarh'
p1262
(lp1263
S'2289670'
p1264
asS'P\xc3\xa9ronne'
p1265
(lp1266
S'616100'
p1267
asS'Paete'
p1268
(lp1269
S'1199588'
p1270
asS'Penarth'
p1271
(lp1272
S'31623'
p1273
asS'Pur\xc3\xadsima'
p1274
(lp1275
S'364608'
p1276
asS'Piera'
p1277
(lp1278
S'770119'
p1279
asS'Prachatice'
p1280
(lp1281
S'796584'
p1282
asS'Perechin'
p1283
(lp1284
S'930333'
p1285
asS'Prien'
p1286
(lp1287
S'2476641'
p1288
asS'Partapur'
p1289
(lp1290
S'29063595'
p1291
asS'Patulul'
p1292
(lp1293
S'84934'
p1294
asS'Perama'
p1295
(lp1296
S'959554'
p1297
asS'Piacenza'
p1298
(lp1299
S'720279'
p1300
asS'Portstewart'
p1301
(lp1302
S'45087'
p1303
asS'Phalauda'
p1304
(lp1305
S'2291143'
p1306
asS'Poirino'
p1307
(lp1308
S'720815'
p1309
asS'Pakxe'
p1310
(lp1311
S'1140589'
p1312
asS'Pasadena'
p1313
(lp1314
S'2468997'
p1315
aS'2468997'
p1316
aS'2468997'
p1317
asS'Pul-i-Alam'
p1318
(lp1319
S'1935370'
p1320
asS'Pyt-Yakh'
p1321
(lp1322
S'24505182'
p1323
asS'Pirapora'
p1324
(lp1325
S'455982'
p1326
asS'Progreso de Obreg\xc3\xb3n'
p1327
(lp1328
S'137544'
p1329
asS'Palma Sola'
p1330
(lp1331
S'466019'
p1332
asS'Passirano'
p1333
(lp1334
S'720011'
p1335
asS'Pilani'
p1336
(lp1337
S'2291488'
p1338
asS'Piedmont'
p1339
(lp1340
S'2471554'
p1341
asS'Portlethen'
p1342
(lp1343
S'32427'
p1344
asS'Pahokee'
p1345
(lp1346
S'2467482'
p1347
asS'Pianiga'
p1348
(lp1349
S'720355'
p1350
asS'Piove di Sacco'
p1351
(lp1352
S'720617'
p1353
asS'Pasewalk'
p1354
(lp1355
S'684288'
p1356
asS'Passaic'
p1357
(lp1358
S'2469036'
p1359
asS'Pativilca'
p1360
(lp1361
S'411116'
p1362
asS'Peoria'
p1363
(lp1364
S'2470443'
p1365
aS'2470443'
p1366
asS'P\xc3\xa1pa'
p1367
(lp1368
S'813482'
p1369
asS'Pattan'
p1370
(lp1371
S'29186816'
p1372
asS'Perchtoldsdorf'
p1373
(lp1374
S'543249'
p1375
asS'Perryton'
p1376
(lp1377
S'2470765'
p1378
asS'Pantukan'
p1379
(lp1380
S'1199625'
p1381
asS'Palombara Sabina'
p1382
(lp1383
S'719884'
p1384
asS'Pernes-les-Fontaines'
p1385
(lp1386
S'616088'
p1387
asS'Palmi'
p1388
(lp1389
S'719877'
p1390
asS'Poissy'
p1391
(lp1392
S'617146'
p1393
asS'Pordenone'
p1394
(lp1395
S'721045'
p1396
asS'Palamas'
p1397
(lp1398
S'958889'
p1399
asS'Paiporta'
p1400
(lp1401
S'769181'
p1402
asS'Pernem'
p1403
(lp1404
S'2292921'
p1405
asS'Pilisv\xc3\xb6r\xc3\xb6sv\xc3\xa1r'
p1406
(lp1407
S'813845'
p1408
asS'Pooler'
p1409
(lp1410
S'2475088'
p1411
asS'Point Pleasant'
p1412
(lp1413
S'2474633'
p1414
asS'Parati'
p1415
(lp1416
S'460383'
p1417
asS'Pemalang'
p1418
(lp1419
S'1048134'
p1420
asS'Pandhurna'
p1421
(lp1422
S'29035072'
p1423
asS'Pullampadi'
p1424
(lp1425
S'2294457'
p1426
asS'Picerno'
p1427
(lp1428
S'720433'
p1429
asS'Parete'
p1430
(lp1431
S'20134992'
p1432
asS'Pervomaysk'
p1433
(lp1434
S'2122819'
p1435
asS'Pedras de Fogo'
p1436
(lp1437
S'443610'
p1438
asS'Pedro Velho'
p1439
(lp1440
S'460445'
p1441
asS'Pedley'
p1442
(lp1443
S'2469922'
p1444
asS'Payyannur'
p1445
(lp1446
S'2294293'
p1447
asS'Plaistow'
p1448
(lp1449
S'2473450'
p1450
asS"Petrovsk-Zabaykal'skiy"
p1451
(lp1452
S'2065754'
p1453
asS'Poprad'
p1454
(lp1455
S'821722'
p1456
asS'Puteaux'
p1457
(lp1458
S'55863561'
p1459
asS'Ponte San Pietro'
p1460
(lp1461
S'720962'
p1462
asS'Piren\xc3\xb3polis'
p1463
(lp1464
S'457825'
p1465
asS'Paullo'
p1466
(lp1467
S'720057'
p1468
asS'Petatl\xc3\xa1n'
p1469
(lp1470
S'136535'
p1471
asS'Paithan'
p1472
(lp1473
S'29040606'
p1474
asS'Palanas'
p1475
(lp1476
S'1199596'
p1477
asS'Pasighat'
p1478
(lp1479
S'2289310'
p1480
asS'Pyrgos'
p1481
(lp1482
S'960955'
p1483
aS'960955'
p1484
asS'Pervomayskoye'
p1485
(lp1486
S'2064758'
p1487
aS'2064758'
p1488
aS'2064758'
p1489
aS'2064758'
p1490
aS'2064758'
p1491
asS'Patroc\xc3\xadnio'
p1492
(lp1493
S'443149'
p1494
asS'Pietersburg'
p1495
(lp1496
S'1586550'
p1497
asS'Peekskill'
p1498
(lp1499
S'2469949'
p1500
asS'Porterville'
p1501
(lp1502
S'2475648'
p1503
asS'Pauillac'
p1504
(lp1505
S'615813'
p1506
asS'Petersberg'
p1507
(lp1508
S'684623'
p1509
asS'Pinckneyville'
p1510
(lp1511
S'2471890'
p1512
asS'Pak Chong'
p1513
(lp1514
S'1225548'
p1515
asS'Parbhani'
p1516
(lp1517
S'29041659'
p1518
asS'Ponta Por\xc3\xa3'
p1519
(lp1520
S'455985'
p1521
asS'Pleasanton'
p1522
(lp1523
S'2474206'
p1524
aS'2474206'
p1525
asS'Polygyros'
p1526
(lp1527
S'966140'
p1528
asS'Pfastatt'
p1529
(lp1530
S'616450'
p1531
asS'Parchim'
p1532
(lp1533
S'684229'
p1534
asS'Pinto'
p1535
(lp1536
S'770266'
p1537
asS'Pimonte'
p1538
(lp1539
S'720586'
p1540
asS'Prachuap Khiri Khan'
p1541
(lp1542
S'1226118'
p1543
asS'Paliseul'
p1544
(lp1545
S'975402'
p1546
asS'Pematangsiantar'
p1547
(lp1548
S'1048136'
p1549
asS'Pergola'
p1550
(lp1551
S'720158'
p1552
asS'Plasencia'
p1553
(lp1554
S'770324'
p1555
asS'Podd\xc4\x99bice'
p1556
(lp1557
S'512987'
p1558
asS"Privol'ye"
p1559
(lp1560
S'931752'
p1561
asS'Port Clinton'
p1562
(lp1563
S'2475354'
p1564
asS'Plattling'
p1565
(lp1566
S'685290'
p1567
asS'Porto Alegre'
p1568
(lp1569
S'455823'
p1570
asS'Ponferrada'
p1571
(lp1572
S'770455'
p1573
asS'Predeal'
p1574
(lp1575
S'878488'
p1576
asS'Papantla de Olarte'
p1577
(lp1578
S'135965'
p1579
asS'Parli'
p1580
(lp1581
S'29065866'
p1582
asS'Palazzo San Gervasio'
p1583
(lp1584
S'719832'
p1585
asS'Parla'
p1586
(lp1587
S'769528'
p1588
asS'Pokrov'
p1589
(lp1590
S'2122946'
p1591
asS"Pil'na"
p1592
(lp1593
S'2066215'
p1594
asS'Pachora'
p1595
(lp1596
S'29018488'
p1597
asS'Pankshin'
p1598
(lp1599
S'1404249'
p1600
asS'Pran Buri'
p1601
(lp1602
S'1226120'
p1603
asS'Puerto Maldonado'
p1604
(lp1605
S'418459'
p1606
asS'Portalegre'
p1607
(lp1608
S'746100'
p1609
asS'Petukhovo'
p1610
(lp1611
S'2122869'
p1612
asS'Pindoba\xc3\xa7u'
p1613
(lp1614
S'444160'
p1615
asS'Park Ridge'
p1616
(lp1617
S'2468422'
p1618
aS'2468422'
p1619
asS'Palo Alto'
p1620
(lp1621
S'2467856'
p1622
asS'Pol-e Zahab'
p1623
(lp1624
S'2243293'
p1625
asS'Pimenta Bueno'
p1626
(lp1627
S'456413'
p1628
asS'Papeete'
p1629
(lp1630
S'1062847'
p1631
asS'Pampas'
p1632
(lp1633
S'418566'
p1634
asS'Pat\xc3\xada'
p1635
(lp1636
S'368360'
p1637
asS'P\xc3\xb4'
p1638
(lp1639
S'1461607'
p1640
asS'Piravom'
p1641
(lp1642
S'2284476'
p1643
asS'Pyrbaum'
p1644
(lp1645
S'686314'
p1646
asS'Playas'
p1647
(lp1648
S'375759'
p1649
asS'Pallipattu'
p1650
(lp1651
S'2283754'
p1652
asS'P\xc3\xa4rnu'
p1653
(lp1654
S'844634'
p1655
asS'Parempuyre'
p1656
(lp1657
S'615665'
p1658
asS'Polatsk'
p1659
(lp1660
S'830186'
p1661
asS'Payerne'
p1662
(lp1663
S'783690'
p1664
asS'Pijijiapan'
p1665
(lp1666
S'136729'
p1667
asS'Pedro II'
p1668
(lp1669
S'443696'
p1670
asS'Pederneiras'
p1671
(lp1672
S'443393'
p1673
asS'Perrysburg'
p1674
(lp1675
S'2470759'
p1676
asS'Parkville'
p1677
(lp1678
S'2468734'
p1679
aS'2468734'
p1680
aS'2468734'
p1681
asS'Piding'
p1682
(lp1683
S'685003'
p1684
asS'Phek'
p1685
(lp1686
S'2289230'
p1687
asS'Puerto Colombia'
p1688
(lp1689
S'368551'
p1690
asS'Potiskum'
p1691
(lp1692
S'1404451'
p1693
asS'Pathalgaon'
p1694
(lp1695
S'2289479'
p1696
asS'Peer'
p1697
(lp1698
S'975475'
p1699
asS'Prior Lake'
p1700
(lp1701
S'2476777'
p1702
asS'Plottier'
p1703
(lp1704
S'466136'
p1705
asS'Pac\xc3\xa9'
p1706
(lp1707
S'615464'
p1708
asS'Perur'
p1709
(lp1710
S'2284258'
p1711
asS'Parnarama'
p1712
(lp1713
S'442896'
p1714
asS'Pak Phanang'
p1715
(lp1716
S'1226076'
p1717
asS'Poppi'
p1718
(lp1719
S'721027'
p1720
asS'Plum'
p1721
(lp1722
S'2474293'
p1723
asS'Petrich'
p1724
(lp1725
S'838731'
p1726
asS'Pantai Remis'
p1727
(lp1728
S'1154986'
p1729
asS'Parkes'
p1730
(lp1731
S'1104910'
p1732
asS'Pi\xc5\x82awa G\xc3\xb3rna'
p1733
(lp1734
S'512446'
p1735
asS'Palagianello'
p1736
(lp1737
S'719793'
p1738
asS'Pocahontas'
p1739
(lp1740
S'2474444'
p1741
asS'Plattsmouth'
p1742
(lp1743
S'2473610'
p1744
asS'Pottsville'
p1745
(lp1746
S'2476000'
p1747
asS'Pulwama'
p1748
(lp1749
S'2290369'
p1750
asS'Plouay'
p1751
(lp1752
S'616972'
p1753
asS'Pushchino'
p1754
(lp1755
S'2072464'
p1756
asS'Port Jervis'
p1757
(lp1758
S'2475415'
p1759
asS'Phatthalung'
p1760
(lp1761
S'1226088'
p1762
asS'Pryluky'
p1763
(lp1764
S'931864'
p1765
asS'Piran\xc3\xa9'
p1766
(lp1767
S'467028'
p1768
asS'Phenix City'
p1769
(lp1770
S'2471191'
p1771
asS'Presidente Dutra'
p1772
(lp1773
S'445864'
p1774
asS'Pe\xc3\xb1aranda'
p1775
(lp1776
S'1199639'
p1777
asS'Port Townsend'
p1778
(lp1779
S'2475511'
p1780
asS'Perote'
p1781
(lp1782
S'136506'
p1783
asS'Paramonga'
p1784
(lp1785
S'410800'
p1786
asS'Pommelsbrunn'
p1787
(lp1788
S'685593'
p1789
asS'Pujehun'
p1790
(lp1791
S'1423364'
p1792
asS'Paka'
p1793
(lp1794
S'1154973'
p1795
asS'Pragal'
p1796
(lp1797
S'746457'
p1798
asS'Pyshma'
p1799
(lp1800
S'2123097'
p1801
asS'Pueblo West'
p1802
(lp1803
S'22664124'
p1804
asS'Pelaya'
p1805
(lp1806
S'363681'
p1807
asS'Pepinster'
p1808
(lp1809
S'975501'
p1810
asS'Pio XII'
p1811
(lp1812
S'444281'
p1813
asS'Pessano con Bornago'
p1814
(lp1815
S'20135673'
p1816
asS'Paks'
p1817
(lp1818
S'813391'
p1819
asS'Petrolina de Goi\xc3\xa1s'
p1820
(lp1821
S'457794'
p1822
asS'Paderborn'
p1823
(lp1824
S'684090'
p1825
asS'Picsi'
p1826
(lp1827
S'411392'
p1828
asS'Plettenberg'
p1829
(lp1830
S'685340'
p1831
asS'Paracambi'
p1832
(lp1833
S'457738'
p1834
asS'Punta del Este'
p1835
(lp1836
S'468108'
p1837
asS'Peranamallur'
p1838
(lp1839
S'2284235'
p1840
asS'Pusztaszabolcs'
p1841
(lp1842
S'814117'
p1843
asS'Pite\xc5\x9fti'
p1844
(lp1845
S'877765'
p1846
asS'Paciran'
p1847
(lp1848
S'1048037'
p1849
asS'Perevoz'
p1850
(lp1851
S'2122809'
p1852
asS'Piploda'
p1853
(lp1854
S'2284452'
p1855
asS'Paragominas'
p1856
(lp1857
S'456387'
p1858
asS'Pite\xc3\xa5'
p1859
(lp1860
S'901854'
p1861
asS'Po\xc5\x82aniec'
p1862
(lp1863
S'513452'
p1864
asS'Pazar'
p1865
(lp1866
S'2334646'
p1867
asS'Pennathur'
p1868
(lp1869
S'28999522'
p1870
asS'Plaidt'
p1871
(lp1872
S'685239'
p1873
asS'Podgorenskiy'
p1874
(lp1875
S'2122922'
p1876
asS'Plan-de-Cuques'
p1877
(lp1878
S'616803'
p1879
asS'Pampa del Infierno'
p1880
(lp1881
S'467348'
p1882
asS'Pinsk'
p1883
(lp1884
S'829969'
p1885
asS'Peachtree City'
p1886
(lp1887
S'2469614'
p1888
asS'Puszczykowo'
p1889
(lp1890
S'514928'
p1891
asS'Pasacao'
p1892
(lp1893
S'1199630'
p1894
asS'Prado del Rey'
p1895
(lp1896
S'770743'
p1897
asS'Polyarnyye Zori'
p1898
(lp1899
S'2069456'
p1900
asS'Pokhara'
p1901
(lp1902
S'2269173'
p1903
asS'Prineville'
p1904
(lp1905
S'2476761'
p1906
asS'Puerto del Rosario'
p1907
(lp1908
S'770981'
p1909
asS'Pita'
p1910
(lp1911
S'1486847'
p1912
asS'Pirawa'
p1913
(lp1914
S'29033690'
p1915
asS'Penn Wynne'
p1916
(lp1917
S'2470263'
p1918
asS'Pickerington'
p1919
(lp1920
S'2471500'
p1921
asS'Pawai'
p1922
(lp1923
S'29018025'
p1924
asS'Pacific'
p1925
(lp1926
S'2467319'
p1927
aS'2467319'
p1928
asS'Po\xc5\xbeega'
p1929
(lp1930
S'849794'
p1931
asS'Pimpri'
p1932
(lp1933
S'29030395'
p1934
asS'Prudhoe'
p1935
(lp1936
S'32649'
p1937
asS'Pu\xc5\x82awy'
p1938
(lp1939
S'514869'
p1940
asS'Punxsutawney'
p1941
(lp1942
S'2477304'
p1943
asS'Pedreguer'
p1944
(lp1945
S'769659'
p1946
asS'Polessk'
p1947
(lp1948
S'2126081'
p1949
asS'Pizzo'
p1950
(lp1951
S'720660'
p1952
asS'Plainfield'
p1953
(lp1954
S'2473343'
p1955
aS'2473343'
p1956
aS'2473343'
p1957
aS'2473343'
p1958
asS'Poggio di Chiesanuova'
p1959
(lp1960
S'532372'
p1961
asS'P\xc3\xa1cora'
p1962
(lp1963
S'368222'
p1964
asS'Prado'
p1965
(lp1966
S'456448'
p1967
asS'Poykovskiy'
p1968
(lp1969
S'2070562'
p1970
asS'Pobiedziska'
p1971
(lp1972
S'512906'
p1973
asS'Pattaya'
p1974
(lp1975
S'1226081'
p1976
asS'Porto Salvo'
p1977
(lp1978
S'746259'
p1979
asS'Panj\xc4\x81b'
p1980
(lp1981
S'1928031'
p1982
asS'Pontoglio'
p1983
(lp1984
S'15000295'
p1985
asS'Pesquer\xc3\xada'
p1986
(lp1987
S'136523'
p1988
asS'Pecan Grove'
p1989
(lp1990
S'2469842'
p1991
asS'Parsabad'
p1992
(lp1993
S'2255028'
p1994
asS'Pulheim'
p1995
(lp1996
S'686194'
p1997
asS'Pye'
p1998
(lp1999
S'1004364'
p2000
asS'Phulabani'
p2001
(lp2002
S'2289688'
p2003
asS'Pradera'
p2004
(lp2005
S'368364'
p2006
asS'Phuthaditjhaba'
p2007
(lp2008
S'1586536'
p2009
asS'Piracanjuba'
p2010
(lp2011
S'444308'
p2012
asS'P\xc5\x82o\xc5\x84sk'
p2013
(lp2014
S'512812'
p2015
asS'Prospect Heights'
p2016
(lp2017
S'2476928'
p2018
asS'Pochep'
p2019
(lp2020
S'2067157'
p2021
asS'Pedregal'
p2022
(lp2023
S'159441'
p2024
asS'Pong'
p2025
(lp2026
S'1226115'
p2027
asS'Panama City Beach'
p2028
(lp2029
S'2467938'
p2030
asS'Pi\xc5\x84cz\xc3\xb3w'
p2031
(lp2032
S'512485'
p2033
asS'Pandegelang'
p2034
(lp2035
S'1040058'
p2036
asS'Poplar Bluff'
p2037
(lp2038
S'2475160'
p2039
asS'Pineda de Mar'
p2040
(lp2041
S'770157'
p2042
asS'Puduvayal'
p2043
(lp2044
S'28999201'
p2045
asS'Peterborough'
p2046
(lp2047
S'4100'
p2048
aS'31931'
p2049
aS'2470890'
p2050
asS'Picu\xc3\xad'
p2051
(lp2052
S'457798'
p2053
asS'Puerto Princesa'
p2054
(lp2055
S'1188567'
p2056
asS'Perth'
p2057
(lp2058
S'1104983'
p2059
aS'4131'
p2060
aS'31927'
p2061
asS'Pine Hill'
p2062
(lp2063
S'2472165'
p2064
asS'Puc\xc3\xb3n'
p2065
(lp2066
S'350097'
p2067
asS'Pinerolo'
p2068
(lp2069
S'720590'
p2070
asS'Pokhvistnevo'
p2071
(lp2072
S'2122945'
p2073
asS'Parambu'
p2074
(lp2075
S'457747'
p2076
asS'Purnia'
p2077
(lp2078
S'29203282'
p2079
asS'Puente de Ixtla'
p2080
(lp2081
S'137683'
p2082
asS'Paita'
p2083
(lp2084
S'418564'
p2085
asS'Peralta'
p2086
(lp2087
S'769924'
p2088
asS'Phnom Penh'
p2089
(lp2090
S'1020985'
p2091
asS'Piikki\xc3\xb6'
p2092
(lp2093
S'571402'
p2094
asS'Phillipsburg'
p2095
(lp2096
S'2471317'
p2097
asS'Puig'
p2098
(lp2099
S'771007'
p2100
asS'Paracuru'
p2101
(lp2102
S'456386'
p2103
asS'Palm Coast'
p2104
(lp2105
S'2467673'
p2106
asS'Peschiera del Garda'
p2107
(lp2108
S'720202'
p2109
asS'Petauke'
p2110
(lp2111
S'1573706'
p2112
asS'Phaltan'
p2113
(lp2114
S'2292823'
p2115
asS'Port Salerno'
p2116
(lp2117
S'2475493'
p2118
asS'Pontevedra'
p2119
(lp2120
S'770472'
p2121
aS'1199662'
p2122
asS'Pieks\xc3\xa4m\xc3\xa4ki'
p2123
(lp2124
S'571351'
p2125
asS'Perg'
p2126
(lp2127
S'546336'
p2128
asS'Pacasmayo'
p2129
(lp2130
S'419085'
p2131
asS'Poiares'
p2132
(lp2133
S'745950'
p2134
asS'Pero'
p2135
(lp2136
S'720172'
p2137
asS'Pont-du-Ch\xc3\xa2teau'
p2138
(lp2139
S'617362'
p2140
asS'Pomp\xc3\xa9ia'
p2141
(lp2142
S'457844'
p2143
asS'Port Allen'
p2144
(lp2145
S'2475309'
p2146
asS'Pazarc\xc4\xb1k'
p2147
(lp2148
S'2344321'
p2149
asS'Petersburg'
p2150
(lp2151
S'2470919'
p2152
asS'Purwakarta'
p2153
(lp2154
S'1048186'
p2155
asS'Port St. Lucie'
p2156
(lp2157
S'2475492'
p2158
asS'Pianc\xc3\xb3'
p2159
(lp2160
S'457796'
p2161
asS'Pruszcz Gda\xc5\x84ski'
p2162
(lp2163
S'514254'
p2164
asS'Pajapita'
p2165
(lp2166
S'84744'
p2167
asS'Prievidza'
p2168
(lp2169
S'821801'
p2170
asS'Parede'
p2171
(lp2172
S'745211'
p2173
asS'Peebles'
p2174
(lp2175
S'31574'
p2176
asS'Puquio'
p2177
(lp2178
S'418573'
p2179
asS'Pozzuoli'
p2180
(lp2181
S'721192'
p2182
asS'Parlier'
p2183
(lp2184
S'2468823'
p2185
asS'Pedernales'
p2186
(lp2187
S'75687'
p2188
aS'375881'
p2189
aS'136318'
p2190
asS'Pfaffenhofen an der Ilm'
p2191
(lp2192
S'684792'
p2193
asS'Panarukan'
p2194
(lp2195
S'1048072'
p2196
asS'Paralia'
p2197
(lp2198
S'959269'
p2199
asS'Pietra Ligure'
p2200
(lp2201
S'720473'
p2202
asS'Placer'
p2203
(lp2204
S'1199654'
p2205
aS'1199654'
p2206
asS'Piekary \xc5\x9al\xc4\x85skie'
p2207
(lp2208
S'512249'
p2209
asS'Puerto Quijarro'
p2210
(lp2211
S'342729'
p2212
asS'Pathanamthitta'
p2213
(lp2214
S'2294690'
p2215
asS'Palestrina'
p2216
(lp2217
S'719848'
p2218
asS'Pampierstad'
p2219
(lp2220
S'1586409'
p2221
asS'Peshawar'
p2222
(lp2223
S'2211344'
p2224
asS'Pacho'
p2225
(lp2226
S'368221'
p2227
asS'Pedrera'
p2228
(lp2229
S'769667'
p2230
asS'Portslade'
p2231
(lp2232
S'32449'
p2233
asS'Peders\xc3\xb6re'
p2234
(lp2235
S'571141'
p2236
asS'Phu Kradung'
p2237
(lp2238
S'1225597'
p2239
asS'Pollen\xc3\xa7a'
p2240
(lp2241
S'770434'
p2242
asS'Pontch\xc3\xa2teau'
p2243
(lp2244
S'617432'
p2245
asS'Poteau'
p2246
(lp2247
S'2475878'
p2248
asS'Pasuruan'
p2249
(lp2250
S'1048114'
p2251
asS'Port Augusta'
p2252
(lp2253
S'1105113'
p2254
asS'Puebla de Vallbona'
p2255
(lp2256
S'770865'
p2257
asS'Portoferraio'
p2258
(lp2259
S'721113'
p2260
asS'Pessac'
p2261
(lp2262
S'55863556'
p2263
asS'Paignton'
p2264
(lp2265
S'31333'
p2266
asS'Pura'
p2267
(lp2268
S'1188796'
p2269
asS'Peshkopi'
p2270
(lp2271
S'471338'
p2272
asS'Patna'
p2273
(lp2274
S'29002058'
p2275
asS'Pameungpeuk'
p2276
(lp2277
S'1048068'
p2278
asS'Puri'
p2279
(lp2280
S'29169950'
p2281
asS'P\xc3\xa9rigny'
p2282
(lp2283
S'616070'
p2284
asS'Palmer'
p2285
(lp2286
S'2467726'
p2287
aS'2467726'
p2288
asS'Piana degli Albanesi'
p2289
(lp2290
S'720313'
p2291
asS"Pervomays'k"
p2292
(lp2293
S'930480'
p2294
asS'Poynton'
p2295
(lp2296
S'32526'
p2297
asS'Pu\xc5\x82tusk'
p2298
(lp2299
S'514876'
p2300
asS'Puerto Esperanza'
p2301
(lp2302
S'466248'
p2303
asS'Puerto Tirol'
p2304
(lp2305
S'466278'
p2306
asS'Pelplin'
p2307
(lp2308
S'511966'
p2309
asS'Podgorica'
p2310
(lp2311
S'536010'
p2312
asS'Panyutino'
p2313
(lp2314
S'930094'
p2315
asS'Pentling'
p2316
(lp2317
S'684505'
p2318
asS'Policoro'
p2319
(lp2320
S'720834'
p2321
asS'Piji\xc3\xb1o'
p2322
(lp2323
S'369230'
p2324
asS'Presidente Franco'
p2325
(lp2326
S'378658'
p2327
asS'Pittem'
p2328
(lp2329
S'975681'
p2330
asS'Port Isabel'
p2331
(lp2332
S'2475407'
p2333
asS'Pallavaram'
p2334
(lp2335
S'29076196'
p2336
asS'Penugonda'
p2337
(lp2338
S'29139455'
p2339
asS'Pabna'
p2340
(lp2341
S'1915182'
p2342
asS'Partinico'
p2343
(lp2344
S'719991'
p2345
asS'Palmar de Varela'
p2346
(lp2347
S'368359'
p2348
asS'Port\xc3\xa3o'
p2349
(lp2350
S'445057'
p2351
asS'Ponte de Lima'
p2352
(lp2353
S'746057'
p2354
asS'Pelotas'
p2355
(lp2356
S'460449'
p2357
asS'Pano Akil'
p2358
(lp2359
S'2211331'
p2360
asS'Pangil'
p2361
(lp2362
S'1186574'
p2363
asS'Pishva'
p2364
(lp2365
S'2243247'
p2366
asS'Palm Valley'
p2367
(lp2368
S'2467705'
p2369
asS'Panama City'
p2370
(lp2371
S'2467937'
p2372
asS'Puertollano'
p2373
(lp2374
S'770998'
p2375
asS'Parsippany'
p2376
(lp2377
S'2468907'
p2378
asS'Philadelphia'
p2379
(lp2380
S'2471202'
p2381
aS'2471202'
p2382
asS'Presicce'
p2383
(lp2384
S'721310'
p2385
asS'Pl\xc3\xbcderhausen'
p2386
(lp2387
S'685399'
p2388
asS'Potsdam'
p2389
(lp2390
S'685783'
p2391
aS'2475939'
p2392
asS'Plan\xc3\xa1'
p2393
(lp2394
S'796098'
p2395
asS'Piwniczna-Zdr\xc3\xb3j'
p2396
(lp2397
S'512649'
p2398
asS'Pinahat'
p2399
(lp2400
S'2291306'
p2401
asS'Panchagarh'
p2402
(lp2403
S'1908545'
p2404
asS'Penafiel'
p2405
(lp2406
S'745478'
p2407
asS'Phulpur'
p2408
(lp2409
S'29058464'
p2410
aS'29058464'
p2411
asS'Pasaje'
p2412
(lp2413
S'375758'
p2414
asS'Pontremoli'
p2415
(lp2416
S'721012'
p2417
asS'Peace River'
p2418
(lp2419
S'8256'
p2420
asS'Pathardi'
p2421
(lp2422
S'29032214'
p2423
asS'Pudozh'
p2424
(lp2425
S'2072276'
p2426
asS'Padova'
p2427
(lp2428
S'719751'
p2429
asS'Pontoon Beach'
p2430
(lp2431
S'2475058'
p2432
asS'Pedra Azul'
p2433
(lp2434
S'457773'
p2435
asS'Potos'
p2436
(lp2437
S'960619'
p2438
asS'Pietrasanta'
p2439
(lp2440
S'720515'
p2441
asS'Pombal'
p2442
(lp2443
S'460529'
p2444
aS'745987'
p2445
asS'Prescott'
p2446
(lp2447
S'2476427'
p2448
asS'Pindiga'
p2449
(lp2450
S'1404399'
p2451
asS'Padre Para\xc3\xadso'
p2452
(lp2453
S'456377'
p2454
asS'Plaisir'
p2455
(lp2456
S'616791'
p2457
asS'Praia a Mare'
p2458
(lp2459
S'721220'
p2460
asS'Polangui'
p2461
(lp2462
S'1188212'
p2463
asS'Pflugerville'
p2464
(lp2465
S'2471130'
p2466
asS'Pallini'
p2467
(lp2468
S'959035'
p2469
asS'Pachperwa'
p2470
(lp2471
S'29099749'
p2472
asS'Pyatigorsk'
p2473
(lp2474
S'2072941'
p2475
asS'P\xc3\xa3o de A\xc3\xa7\xc3\xbacar'
p2476
(lp2477
S'442642'
p2478
asS'Pernik'
p2479
(lp2480
S'838699'
p2481
asS'Plombi\xc3\xa8res'
p2482
(lp2483
S'975736'
p2484
asS'Priverno'
p2485
(lp2486
S'721334'
p2487
asS'Poulsbo'
p2488
(lp2489
S'2476016'
p2490
asS'Port of Spain'
p2491
(lp2492
S'380213'
p2493
asS'Peresechnoye'
p2494
(lp2495
S'930398'
p2496
asS'Paphos'
p2497
(lp2498
S'841589'
p2499
asS'Paderno Dugnano'
p2500
(lp2501
S'719746'
p2502
asS'Pernambut'
p2503
(lp2504
S'55807195'
p2505
asS'Pleszew'
p2506
(lp2507
S'512746'
p2508
asS'Pola de Siero'
p2509
(lp2510
S'770414'
p2511
asS'Polignano a Mare'
p2512
(lp2513
S'720836'
p2514
asS'Pollenza'
p2515
(lp2516
S'720848'
p2517
asS'Popay\xc3\xa1n'
p2518
(lp2519
S'368169'
p2520
asS'Panghyon-nodongjagu'
p2521
(lp2522
S'1093928'
p2523
asS'Pira\xc3\xad'
p2524
(lp2525
S'444321'
p2526
asS'Pirot'
p2527
(lp2528
S'535953'
p2529
asS'Pune'
p2530
(lp2531
S'2295412'
p2532
asS'Pregnana Milanese'
p2533
(lp2534
S'20138369'
p2535
asS'Phumi Thbeng Meanchey'
p2536
(lp2537
S'1020986'
p2538
asS'Polkowice'
p2539
(lp2540
S'513564'
p2541
asS'Paducah'
p2542
(lp2543
S'2467420'
p2544
asS'Petite-Rosselle'
p2545
(lp2546
S'616316'
p2547
asS'Panz\xc3\xb3s'
p2548
(lp2549
S'84863'
p2550
asS'P\xc3\xb5lva'
p2551
(lp2552
S'844831'
p2553
asS'Pavlogradka'
p2554
(lp2555
S'2122769'
p2556
asS'Pirojpur'
p2557
(lp2558
S'1915200'
p2559
asS'Pieszyce'
p2560
(lp2561
S'512369'
p2562
asS'Purral'
p2563
(lp2564
S'59162'
p2565
asS'Pizhou'
p2566
(lp2567
S'2135688'
p2568
asS"Provaglio d'Iseo"
p2569
(lp2570
S'20138546'
p2571
asS'Psakhna'
p2572
(lp2573
S'960850'
p2574
asS'Pom\xc3\xa1z'
p2575
(lp2576
S'813959'
p2577
asS'Penonom\xc3\xa9'
p2578
(lp2579
S'159476'
p2580
asS'Prien am Chiemsee'
p2581
(lp2582
S'685989'
p2583
asS'Pawtucket'
p2584
(lp2585
S'2469411'
p2586
asS'Paty do Alferas'
p2587
(lp2588
S'443159'
p2589
asS'Porri\xc3\xb1o'
p2590
(lp2591
S'770517'
p2592
asS'Palma del R\xc3\xado'
p2593
(lp2594
S'769294'
p2595
asS'Penalva'
p2596
(lp2597
S'457790'
p2598
asS'Pachino'
p2599
(lp2600
S'719734'
p2601
asS'Pol-e Khomri'
p2602
(lp2603
S'1928470'
p2604
asS'Petawawa'
p2605
(lp2606
S'3314'
p2607
asS'Pouso Alegre'
p2608
(lp2609
S'460616'
p2610
asS'Ponte de Sor'
p2611
(lp2612
S'746047'
p2613
asS'Pecq'
p2614
(lp2615
S'975472'
p2616
asS'Padalarang'
p2617
(lp2618
S'1039665'
p2619
asS'Puebloviejo'
p2620
(lp2621
S'369260'
p2622
asS'Portmarnock'
p2623
(lp2624
S'561971'
p2625
asS'Palmetto Estates'
p2626
(lp2627
S'23417411'
p2628
asS'Pucallpa'
p2629
(lp2630
S'418447'
p2631
asS'Pakaur'
p2632
(lp2633
S'2290176'
p2634
asS'Palenque'
p2635
(lp2636
S'375878'
p2637
aS'135536'
p2638
asS'Petoskey'
p2639
(lp2640
S'2471020'
p2641
asS'Perugorr\xc3\xada'
p2642
(lp2643
S'467360'
p2644
asS'Paysand\xc3\xba'
p2645
(lp2646
S'468055'
p2647
asS'P\xc5\x99erov'
p2648
(lp2649
S'796700'
p2650
asS'Pechory'
p2651
(lp2652
S'2122787'
p2653
asS'Piripiri'
p2654
(lp2655
S'457827'
p2656
asS'Pindi Battian'
p2657
(lp2658
S'2205675'
p2659
asS'Pinecrest'
p2660
(lp2661
S'2472504'
p2662
asS'Pechora'
p2663
(lp2664
S'2063748'
p2665
asS'Paidha'
p2666
(lp2667
S'1455038'
p2668
asS'Piliscsaba'
p2669
(lp2670
S'813835'
p2671
asS'Pocr\xc3\xad'
p2672
(lp2673
S'159602'
p2674
asS"Pervoural'sk"
p2675
(lp2676
S'2122832'
p2677
asS'Phichit'
p2678
(lp2679
S'1226096'
p2680
asS'Princeton'
p2681
(lp2682
S'2476699'
p2683
aS'2476699'
p2684
aS'2476699'
p2685
aS'2476699'
p2686
aS'2476699'
p2687
aS'2476699'
p2688
asS'Pe\xc3\xb1afiel'
p2689
(lp2690
S'769801'
p2691
asS'Pirapemas'
p2692
(lp2693
S'456421'
p2694
asS'Puebla del R\xc3\xado'
p2695
(lp2696
S'763912'
p2697
asS'Pearl'
p2698
(lp2699
S'2469689'
p2700
asS'Patchogue'
p2701
(lp2702
S'2469072'
p2703
asS'Pulau Sebang'
p2704
(lp2705
S'1152686'
p2706
asS'Pekalongan'
p2707
(lp2708
S'1048126'
p2709
asS'Privas'
p2710
(lp2711
S'618112'
p2712
asS'Point Pleasant Beach'
p2713
(lp2714
S'2474654'
p2715
asS'Pretoria'
p2716
(lp2717
S'1586638'
p2718
asS'Pirpirituba'
p2719
(lp2720
S'444439'
p2721
asS'Presidente M\xc3\xa9dici'
p2722
(lp2723
S'445868'
p2724
asS'Przemy\xc5\x9bl'
p2725
(lp2726
S'514387'
p2727
asS'Paombong'
p2728
(lp2729
S'1186887'
p2730
asS'Pelh\xc5\x99imov'
p2731
(lp2732
S'795919'
p2733
asS'Ploudalm\xc3\xa9zeau'
p2734
(lp2735
S'616976'
p2736
asS'Port Arthur'
p2737
(lp2738
S'2475320'
p2739
asS'Ptuj'
p2740
(lp2741
S'531279'
p2742
asS'Pacific Grove'
p2743
(lp2744
S'2467327'
p2745
asS'Puyallup'
p2746
(lp2747
S'2477450'
p2748
asS'Pirkkala'
p2749
(lp2750
S'571450'
p2751
asS'Pottenstein'
p2752
(lp2753
S'685790'
p2754
asS"Porto Sant'Elpidio"
p2755
(lp2756
S'721104'
p2757
asS'Palma di Montechiaro'
p2758
(lp2759
S'719870'
p2760
asS'Ploie\xc5\x9fti'
p2761
(lp2762
S'877873'
p2763
asS'Ploemeur'
p2764
(lp2765
S'616941'
p2766
asS'Predappio'
p2767
(lp2768
S'20138348'
p2769
asS'Pamekasan'
p2770
(lp2771
S'1048067'
p2772
asS'Petershagen'
p2773
(lp2774
S'684658'
p2775
aS'684658'
p2776
asS'Pallisa'
p2777
(lp2778
S'1455061'
p2779
asS'Park City'
p2780
(lp2781
S'2468330'
p2782
aS'2468330'
p2783
aS'2468330'
p2784
asS'Perai'
p2785
(lp2786
S'1152579'
p2787
asS'Ponnani'
p2788
(lp2789
S'2295330'
p2790
asS'Pedrengo'
p2791
(lp2792
S'726718'
p2793
asS'Pataias'
p2794
(lp2795
S'745288'
p2796
asS'Paj\xc3\xa1n'
p2797
(lp2798
S'375806'
p2799
asS'Palomino'
p2800
(lp2801
S'363381'
p2802
asS'Pattani'
p2803
(lp2804
S'1226080'
p2805
asS'Pei\xc3\x9fenberg'
p2806
(lp2807
S'684449'
p2808
asS'Piquete'
p2809
(lp2810
S'456415'
p2811
asS'Pellezzano'
p2812
(lp2813
S'720113'
p2814
asS'Philiatra'
p2815
(lp2816
S'949520'
p2817
asS'Pocklington'
p2818
(lp2819
S'32192'
p2820
asS'P\xc3\xa9cs'
p2821
(lp2822
S'813653'
p2823
asS'Poggio Rusco'
p2824
(lp2825
S'720774'
p2826
asS"Prokop'yevsk"
p2827
(lp2828
S'2071585'
p2829
asS'Puerto Pil\xc3\xb3n'
p2830
(lp2831
S'159711'
p2832
asS'Pleven'
p2833
(lp2834
S'838798'
p2835
asS'Plano'
p2836
(lp2837
S'2473466'
p2838
aS'2473466'
p2839
asS'Panchgani'
p2840
(lp2841
S'2292827'
p2842
asS'Paharpur'
p2843
(lp2844
S'2211317'
p2845
asS'Parabiago'
p2846
(lp2847
S'719950'
p2848
asS'Park Hills'
p2849
(lp2850
S'2468373'
p2851
asS'Palmerton'
p2852
(lp2853
S'2467778'
p2854
asS'Prestea'
p2855
(lp2856
S'1332511'
p2857
asS'Panna'
p2858
(lp2859
S'29012581'
p2860
asS'Pergine Valsugana'
p2861
(lp2862
S'720156'
p2863
asS'Palanpur'
p2864
(lp2865
S'29028353'
p2866
asS'Polazna'
p2867
(lp2868
S'2122956'
p2869
asS'Pionerskiy'
p2870
(lp2871
S'2125547'
p2872
aS'2125547'
p2873
asS'Parnera'
p2874
(lp2875
S'2283996'
p2876
asS'Pori'
p2877
(lp2878
S'571609'
p2879
asS'Ponte San Nicol\xc3\xb2'
p2880
(lp2881
S'720960'
p2882
asS'Pudsey'
p2883
(lp2884
S'32661'
p2885
asS'Poggio Mirteto'
p2886
(lp2887
S'720766'
p2888
asS'Palni'
p2889
(lp2890
S'29169625'
p2891
asS'Potchefstroom'
p2892
(lp2893
S'1586625'
p2894
asS'Pasvalys'
p2895
(lp2896
S'477347'
p2897
asS'Podgornoye'
p2898
(lp2899
S'2067510'
p2900
aS'2067510'
p2901
aS'2067510'
p2902
asS'Pozant\xc4\xb1'
p2903
(lp2904
S'2344331'
p2905
asS'Pavlovskiy Posad'
p2906
(lp2907
S'2063543'
p2908
asS'Puma'
p2909
(lp2910
S'1449089'
p2911
asS'Perozinho'
p2912
(lp2913
S'745668'
p2914
asS'Presidente Bernardes'
p2915
(lp2916
S'445862'
p2917
asS'Pinos Puente'
p2918
(lp2919
S'770261'
p2920
asS'Puerto Libertad'
p2921
(lp2922
S'466257'
p2923
asS'Poyarkovo'
p2924
(lp2925
S'2123008'
p2926
asS'Provo'
p2927
(lp2928
S'2477079'
p2929
asS'Piraquara'
p2930
(lp2931
S'457824'
p2932
asS'Pavia'
p2933
(lp2934
S'720060'
p2935
aS'1199637'
p2936
asS'Patur'
p2937
(lp2938
S'29145380'
p2939
asS'Puttaparthi'
p2940
(lp2941
S'2294060'
p2942
asS'Priolo Gargallo'
p2943
(lp2944
S'721332'
p2945
asS'Porangatu'
p2946
(lp2947
S'457853'
p2948
asS'P\xc5\x99\xc3\xadbram'
p2949
(lp2950
S'796735'
p2951
asS'Phai Sali'
p2952
(lp2953
S'1225561'
p2954
asS'Paghman Palace'
p2955
(lp2956
S'1927932'
p2957
asS'Prades'
p2958
(lp2959
S'617837'
p2960
asS'Pontedera'
p2961
(lp2962
S'720982'
p2963
asS'Putnok'
p2964
(lp2965
S'814138'
p2966
asS'Palmdale'
p2967
(lp2968
S'2467719'
p2969
asS'Petare'
p2970
(lp2971
S'392358'
p2972
asS'Plouguerneau'
p2973
(lp2974
S'617002'
p2975
asS'Pieve di Cento'
p2976
(lp2977
S'720537'
p2978
asS'Pibrac'
p2979
(lp2980
S'616480'
p2981
asS'Plainview'
p2982
(lp2983
S'2473386'
p2984
aS'2473386'
p2985
asS'Pathankot'
p2986
(lp2987
S'2294966'
p2988
asS'Phayao'
p2989
(lp2990
S'1226090'
p2991
asS'Parola'
p2992
(lp2993
S'2292570'
p2994
asS'Phanom Thuan'
p2995
(lp2996
S'1225568'
p2997
asS'Pruzhany'
p2998
(lp2999
S'830482'
p3000
asS'Pikit'
p3001
(lp3002
S'1187668'
p3003
asS'Pavagada'
p3004
(lp3005
S'2294072'
p3006
asS'Pomorie'
p3007
(lp3008
S'838878'
p3009
asS'Pacaembu'
p3010
(lp3011
S'457712'
p3012
asS'Petal'
p3013
(lp3014
S'2470873'
p3015
asS'Pasaia'
p3016
(lp3017
S'769554'
p3018
asS'Pfullendorf'
p3019
(lp3020
S'684966'
p3021
asS'Palo Negro'
p3022
(lp3023
S'392041'
p3024
asS'Perry'
p3025
(lp3026
S'2470689'
p3027
aS'2470689'
p3028
aS'2470689'
p3029
aS'2470689'
p3030
asS'Pavlovo'
p3031
(lp3032
S'2122772'
p3033
asS'Poquoson'
p3034
(lp3035
S'2475288'
p3036
asS'Pir Goth'
p3037
(lp3038
S'2205811'
p3039
asS'Piedras Negras'
p3040
(lp3041
S'136719'
p3042
aS'136719'
p3043
asS'Plattsburgh'
p3044
(lp3045
S'2473609'
p3046
asS'Peso da R\xc3\xa9gua'
p3047
(lp3048
S'745685'
p3049
asS'Pompei'
p3050
(lp3051
S'55867336'
p3052
asS'Pompey'
p3053
(lp3054
S'617236'
p3055
asS'Prizzi'
p3056
(lp3057
S'721335'
p3058
asS'Pomezia'
p3059
(lp3060
S'720875'
p3061
asS'Purwodadi'
p3062
(lp3063
S'1041267'
p3064
asS'Przemk\xc3\xb3w'
p3065
(lp3066
S'514384'
p3067
asS'Pompeu'
p3068
(lp3069
S'460533'
p3070
asS'Peddapalli'
p3071
(lp3072
S'29211322'
p3073
asS'Poli\xc4\x8dka'
p3074
(lp3075
S'796426'
p3076
asS'Poviglio'
p3077
(lp3078
S'721159'
p3079
asS'Plougastel-Daoulas'
p3080
(lp3081
S'616992'
p3082
asS'Podravska Slatina'
p3083
(lp3084
S'849700'
p3085
asS'Parry Sound'
p3086
(lp3087
S'3237'
p3088
asS'Pikeville'
p3089
(lp3090
S'2471760'
p3091
asS'Paradise Valley'
p3092
(lp3093
S'2468190'
p3094
asS'Pandaria'
p3095
(lp3096
S'29198010'
p3097
asS'Palos Hills'
p3098
(lp3099
S'2467895'
p3100
asS'Pirna'
p3101
(lp3102
S'685177'
p3103
asS'Phan Rang'
p3104
(lp3105
S'1252536'
p3106
asS'Pendembu'
p3107
(lp3108
S'1423179'
p3109
asS'Pallasovka'
p3110
(lp3111
S'2122740'
p3112
asS'Paine'
p3113
(lp3114
S'348802'
p3115
asS'Pinh\xc3\xa3o'
p3116
(lp3117
S'457808'
p3118
asS'Plabennec'
p3119
(lp3120
S'616741'
p3121
asS'Pazaryeri'
p3122
(lp3123
S'2334676'
p3124
asS'Poggiomarino'
p3125
(lp3126
S'720794'
p3127
asS"Ponte nell'Alpi"
p3128
(lp3129
S'720946'
p3130
asS'Puente Nacional'
p3131
(lp3132
S'364287'
p3133
asS'Pressbaum'
p3134
(lp3135
S'543365'
p3136
asS'Puerto Gait\xc3\xa1n'
p3137
(lp3138
S'369275'
p3139
asS'P\xc3\xa9rigueux'
p3140
(lp3141
S'616074'
p3142
asS'Peschanokopskoye'
p3143
(lp3144
S'2122836'
p3145
asS'Pointe-Noire'
p3146
(lp3147
S'1282253'
p3148
aS'80821'
p3149
asS'Psz\xc3\xb3w'
p3150
(lp3151
S'514821'
p3152
asS'Portoviejo'
p3153
(lp3154
S'374173'
p3155
asS'Prakhon Chai'
p3156
(lp3157
S'1225607'
p3158
asS'Pulivendla'
p3159
(lp3160
S'2294031'
p3161
asS'Puduppatti'
p3162
(lp3163
S'29084233'
p3164
asS'Pob\xc3\xa9'
p3165
(lp3166
S'1268450'
p3167
asS'Phayakkhaphum Phisai'
p3168
(lp3169
S'1226089'
p3170
asS'Po\xc3\xa7\xc3\xb5es'
p3171
(lp3172
S'457840'
p3173
asS'Purushottampur'
p3174
(lp3175
S'29004308'
p3176
asS'Pekan Nanas'
p3177
(lp3178
S'1152509'
p3179
asS'Porci\xc3\xbancula'
p3180
(lp3181
S'445037'
p3182
asS'Perushtitsa'
p3183
(lp3184
S'838702'
p3185
asS'Pithapuram'
p3186
(lp3187
S'2293831'
p3188
asS'Pas\xc5\x82\xc4\x99k'
p3189
(lp3190
S'511748'
p3191
asS'Pihuamo'
p3192
(lp3193
S'136728'
p3194
asS'Pancas'
p3195
(lp3196
S'442607'
p3197
asS'Pizzighettone'
p3198
(lp3199
S'720659'
p3200
asS'Port Jefferson Station'
p3201
(lp3202
S'2475413'
p3203
asS'Potenza Picena'
p3204
(lp3205
S'721154'
p3206
asS'Pa\xc5\x9fcani'
p3207
(lp3208
S'877243'
p3209
asS'Popoli'
p3210
(lp3211
S'721025'
p3212
asS'Penuelas'
p3213
(lp3214
S'161534'
p3215
asS'Paulo Afonso'
p3216
(lp3217
S'455979'
p3218
asS'Phetchaburi'
p3219
(lp3220
S'1226093'
p3221
asS'Pignon'
p3222
(lp3223
S'95818'
p3224
asS'Plung\xc4\x97'
p3225
(lp3226
S'477605'
p3227
asS'Plainedge'
p3228
(lp3229
S'2473342'
p3230
asS'Pires do Rio'
p3231
(lp3232
S'457826'
p3233
asS'Pabbi'
p3234
(lp3235
S'2211315'
p3236
asS'Pearsall'
p3237
(lp3238
S'2469737'
p3239
asS'P\xc3\xa1ty'
p3240
(lp3241
S'813627'
p3242
asS'Palmares'
p3243
(lp3244
S'442450'
p3245
asS'Peru\xc3\xadbe'
p3246
(lp3247
S'456409'
p3248
asS'Podbo\xc5\x99any'
p3249
(lp3250
S'796206'
p3251
asS'Plymouth Meeting'
p3252
(lp3253
S'2474421'
p3254
asS'Panchla'
p3255
(lp3256
S'29068896'
p3257
asS'Padampur'
p3258
(lp3259
S'29013330'
p3260
aS'29013330'
p3261
asS'Phillaur'
p3262
(lp3263
S'2290765'
p3264
asS'Pytalovo'
p3265
(lp3266
S'2123099'
p3267
asS'Porecatu'
p3268
(lp3269
S'456436'
p3270
asS'Plymouth'
p3271
(lp3272
S'32185'
p3273
aS'110875'
p3274
aS'2474385'
p3275
aS'2474385'
p3276
aS'2474385'
p3277
aS'2474385'
p3278
aS'2474385'
p3279
aS'2474385'
p3280
aS'2474385'
p3281
aS'2474385'
p3282
asS'Pekin'
p3283
(lp3284
S'2469992'
p3285
asS'Perbaungan'
p3286
(lp3287
S'1048145'
p3288
asS'Pantelimon'
p3289
(lp3290
S'877187'
p3291
asS'Puerto Natales'
p3292
(lp3293
S'349945'
p3294
asS'Palmview South'
p3295
(lp3296
S'23418116'
p3297
asS'Prilep'
p3298
(lp3299
S'482783'
p3300
asS'Powderville'
p3301
(lp3302
S'2476060'
p3303
asS'Pignan'
p3304
(lp3305
S'616619'
p3306
asS'Pedro Escobedo'
p3307
(lp3308
S'136343'
p3309
asS'Pepperell'
p3310
(lp3311
S'2470512'
p3312
asS'Paradas'
p3313
(lp3314
S'769428'
p3315
asS'Palakonda'
p3316
(lp3317
S'29137457'
p3318
asS'Pal\xc3\xadn'
p3319
(lp3320
S'84775'
p3321
asS'Purwokerto'
p3322
(lp3323
S'1048188'
p3324
asS'Piotrk\xc3\xb3w Trybunalski'
p3325
(lp3326
S'512511'
p3327
asS'Peseux'
p3328
(lp3329
S'783706'
p3330
asS'Polasara'
p3331
(lp3332
S'29051735'
p3333
asS'Puerto Boyac\xc3\xa1'
p3334
(lp3335
S'368366'
p3336
asS'Preslav'
p3337
(lp3338
S'838966'
p3339
asS'Pasni'
p3340
(lp3341
S'2211338'
p3342
asS'Palekh'
p3343
(lp3344
S'2122735'
p3345
asS'Pecos'
p3346
(lp3347
S'2469901'
p3348
asS'Pachelma'
p3349
(lp3350
S'2122726'
p3351
asS'Pacatuba'
p3352
(lp3353
S'442264'
p3354
asS'Propri\xc3\xa1'
p3355
(lp3356
S'457894'
p3357
asS'Palagiano'
p3358
(lp3359
S'719794'
p3360
asS'Palm Bay'
p3361
(lp3362
S'2467662'
p3363
asS'P\xc3\xb3voa de Santa Iria'
p3364
(lp3365
S'15001286'
p3366
asS'Prei\xc4\xbci'
p3367
(lp3368
S'854604'
p3369
asS'Portovelo'
p3370
(lp3371
S'374172'
p3372
asS'Pskent'
p3373
(lp3374
S'2272625'
p3375
asS'P\xc5\x82ock'
p3376
(lp3377
S'512781'
p3378
asS'Pikalevo'
p3379
(lp3380
S'2122875'
p3381
asS'Post Falls'
p3382
(lp3383
S'2475813'
p3384
asS'Penticton'
p3385
(lp3386
S'9889'
p3387
asS'Pontault-Combault'
p3388
(lp3389
S'55863560'
p3390
asS'Pombos'
p3391
(lp3392
S'444842'
p3393
asS'Pushkar'
p3394
(lp3395
S'2284692'
p3396
asS'Pacifica'
p3397
(lp3398
S'2467340'
p3399
asS'Pendzhikent'
p3400
(lp3401
S'2213366'
p3402
asS'Puerto Salgar'
p3403
(lp3404
S'368368'
p3405
asS'Pastos Bons'
p3406
(lp3407
S'457763'
p3408
asS'Plainville'
p3409
(lp3410
S'2473439'
p3411
aS'2473439'
p3412
asS'Penukonda'
p3413
(lp3414
S'2294075'
p3415
asS'Porvoo'
p3416
(lp3417
S'564449'
p3418
asS'Pl\xc3\xa1cido de Castro'
p3419
(lp3420
S'457832'
p3421
asS'Pyoksong'
p3422
(lp3423
S'1093931'
p3424
asS'Palaio Faliro'
p3425
(lp3426
S'965854'
p3427
asS'Pineville'
p3428
(lp3429
S'2472713'
p3430
asS'Perstorp'
p3431
(lp3432
S'901817'
p3433
asS'Putla de Guerrero'
p3434
(lp3435
S'137995'
p3436
asS'Panfilov'
p3437
(lp3438
S'2264766'
p3439
asS'Pisogne'
p3440
(lp3441
S'720638'
p3442
asS'Palmares do Sul'
p3443
(lp3444
S'460346'
p3445
asS'Pauni'
p3446
(lp3447
S'29017338'
p3448
asS'Portachuelo'
p3449
(lp3450
S'346084'
p3451
asS'Pianella'
p3452
(lp3453
S'720335'
p3454
asS'Palos Heights'
p3455
(lp3456
S'2467894'
p3457
asS'Paripiranga'
p3458
(lp3459
S'457756'
p3460
asS'Pinheiro Machado'
p3461
(lp3462
S'457809'
p3463
asS'Pazarlar'
p3464
(lp3465
S'2334668'
p3466
asS'Porteirinha'
p3467
(lp3468
S'457854'
p3469
asS'Pithampur'
p3470
(lp3471
S'29177280'
p3472
asS'Pionki'
p3473
(lp3474
S'512492'
p3475
asS'Padul'
p3476
(lp3477
S'769174'
p3478
asS'Paranagu\xc3\xa1'
p3479
(lp3480
S'455895'
p3481
asS'Phanom Sarakham'
p3482
(lp3483
S'1226087'
p3484
asS'Petalcingo'
p3485
(lp3486
S'136531'
p3487
asS'Polg\xc3\xa1rdi'
p3488
(lp3489
S'813938'
p3490
asS'Partur'
p3491
(lp3492
S'2293173'
p3493
asS'Puerto Varas'
p3494
(lp3495
S'349946'
p3496
asS'Purkersdorf'
p3497
(lp3498
S'543392'
p3499
asS'Patti'
p3500
(lp3501
S'29058757'
p3502
aS'29058757'
p3503
aS'720050'
p3504
asS'Pueblo Nuevo Tiquisate'
p3505
(lp3506
S'85185'
p3507
asS'Parais\xc3\xb3polis'
p3508
(lp3509
S'442789'
p3510
asS'Platnirovskaya'
p3511
(lp3512
S'2066622'
p3513
asS'Photharam'
p3514
(lp3515
S'1226103'
p3516
asS'Parmain'
p3517
(lp3518
S'615713'
p3519
asS'Palangkaraya'
p3520
(lp3521
S'1039880'
p3522
asS'Piet Retief'
p3523
(lp3524
S'1586547'
p3525
asS'Puebla de Montalb\xc3\xa1n'
p3526
(lp3527
S'763908'
p3528
asS'Pomarance'
p3529
(lp3530
S'720864'
p3531
asS"Pereyaslav-Khmel'nitskiy"
p3532
(lp3533
S'930438'
p3534
asS'Pocora'
p3535
(lp3536
S'59083'
p3537
asS'Pengkalan Kundang'
p3538
(lp3539
S'1152565'
p3540
asS'Pendleton'
p3541
(lp3542
S'2470162'
p3543
asS'Pordic'
p3544
(lp3545
S'617499'
p3546
asS'Phibun Mangsahan'
p3547
(lp3548
S'1226094'
p3549
asS'Providence'
p3550
(lp3551
S'2477004'
p3552
aS'2477004'
p3553
asS'Pindare Mirim'
p3554
(lp3555
S'460484'
p3556
asS'Puente-Genil'
p3557
(lp3558
S'770929'
p3559
asS'Piechowice'
p3560
(lp3561
S'512197'
p3562
asS'Polomolok'
p3563
(lp3564
S'1188254'
p3565
asS'Peravurani'
p3566
(lp3567
S'2294635'
p3568
asS'Panorama'
p3569
(lp3570
S'460363'
p3571
aS'959163'
p3572
asS'Petershausen'
p3573
(lp3574
S'684665'
p3575
asS'Pontes e Lacerda'
p3576
(lp3577
S'457852'
p3578
asS'Pomoshnaya'
p3579
(lp3580
S'931423'
p3581
asS'Petrovec'
p3582
(lp3583
S'482728'
p3584
asS'Pucioasa'
p3585
(lp3586
S'878633'
p3587
asS'Polatl\xc4\xb1'
p3588
(lp3589
S'2344330'
p3590
asS'Poanas'
p3591
(lp3592
S'137018'
p3593
asS'Pottendorf'
p3594
(lp3595
S'543342'
p3596
asS'Pineto'
p3597
(lp3598
S'720593'
p3599
asS'P\xc3\xa1tzcuaro'
p3600
(lp3601
S'136289'
p3602
asS'Purcell'
p3603
(lp3604
S'2477309'
p3605
asS'Pfalzgrafenweiler'
p3606
(lp3607
S'684846'
p3608
asS'Phetchabun'
p3609
(lp3610
S'1226092'
p3611
asS'Poza Rica de Hidalgo'
p3612
(lp3613
S'137337'
p3614
asS'Ploufragan'
p3615
(lp3616
S'616989'
p3617
asS'Poiana Mare'
p3618
(lp3619
S'878203'
p3620
asS'Pacanga'
p3621
(lp3622
S'419082'
p3623
asS'Perkasie'
p3624
(lp3625
S'2470599'
p3626
asS'Parana\xc3\xadba'
p3627
(lp3628
S'456390'
p3629
asS'Palapye'
p3630
(lp3631
S'1265829'
p3632
asS'Pozo del Molle'
p3633
(lp3634
S'467030'
p3635
asS'Polevskoy'
p3636
(lp3637
S'2068881'
p3638
asS'Pomuch'
p3639
(lp3640
S'137087'
p3641
asS'Pewaukee'
p3642
(lp3643
S'2471102'
p3644
asS'Promyshlennaya'
p3645
(lp3646
S'2071754'
p3647
asS'Paterson'
p3648
(lp3649
S'2469081'
p3650
asS'Puerto Real'
p3651
(lp3652
S'770989'
p3653
asS'Puerto Wilches'
p3654
(lp3655
S'364552'
p3656
asS'Paisley'
p3657
(lp3658
S'31342'
p3659
asS'Paramount'
p3660
(lp3661
S'2468222'
p3662
asS'Polonnaruwa'
p3663
(lp3664
S'2189645'
p3665
asS'Pamiers'
p3666
(lp3667
S'615578'
p3668
asS'Puerto Carre\xc3\xb1o'
p3669
(lp3670
S'368550'
p3671
asS'Pocatello'
p3672
(lp3673
S'2474465'
p3674
asS'Pitanga'
p3675
(lp3676
S'444443'
p3677
asS'Pioltello'
p3678
(lp3679
S'720604'
p3680
asS'Putnam'
p3681
(lp3682
S'2477403'
p3683
asS'Passignano sul Trasimeno'
p3684
(lp3685
S'720010'
p3686
asS'Petaluma'
p3687
(lp3688
S'2470878'
p3689
asS'Port Dickson'
p3690
(lp3691
S'1155034'
p3692
asS'Pahasu'
p3693
(lp3694
S'2291217'
p3695
asS'Plover'
p3696
(lp3697
S'2474281'
p3698
asS'Penzberg'
p3699
(lp3700
S'684508'
p3701
asS'Pullman'
p3702
(lp3703
S'2477225'
p3704
asS'Palghat'
p3705
(lp3706
S'29015624'
p3707
asS'Palghar'
p3708
(lp3709
S'2292707'
p3710
asS'Pignataro Maggiore'
p3711
(lp3712
S'720570'
p3713
asS'Phak Hai'
p3714
(lp3715
S'1225562'
p3716
asS'Pau Brasil'
p3717
(lp3718
S'460408'
p3719
asS'Patnongon'
p3720
(lp3721
S'1199636'
p3722
asS'Pavlovsk'
p3723
(lp3724
S'2063495'
p3725
aS'2063495'
p3726
aS'2063495'
p3727
asS'Pattukkottai'
p3728
(lp3729
S'2284147'
p3730
asS'Pitalito'
p3731
(lp3732
S'368226'
p3733
asS'Pagani'
p3734
(lp3735
S'719764'
p3736
asS'Padiham'
p3737
(lp3738
S'31318'
p3739
asS'Paimpol'
p3740
(lp3741
S'615506'
p3742
asS'Powder Springs'
p3743
(lp3744
S'2476046'
p3745
asS'Palora'
p3746
(lp3747
S'373934'
p3748
asS'Piedimonte Matese'
p3749
(lp3750
S'20136455'
p3751
asS'Port Maria'
p3752
(lp3753
S'109715'
p3754
asS'Putina'
p3755
(lp3756
S'418574'
p3757
asS'Puerto Lleras'
p3758
(lp3759
S'369278'
p3760
asS'Pichucalco'
p3761
(lp3762
S'136586'
p3763
asS'Penn Yan'
p3764
(lp3765
S'2470264'
p3766
asS'Porto Mantovano'
p3767
(lp3768
S'20137848'
p3769
asS'Pinole'
p3770
(lp3771
S'2472959'
p3772
asS'Puerto Madryn'
p3773
(lp3774
S'467032'
p3775
asS'Palmas de Monte Alto'
p3776
(lp3777
S'457722'
p3778
asS'Panadura'
p3779
(lp3780
S'2189634'
p3781
asS'Peraiyur'
p3782
(lp3783
S'2294658'
p3784
asS'Port Harcourt'
p3785
(lp3786
S'1404447'
p3787
asS'Piu\xc3\xad'
p3788
(lp3789
S'444525'
p3790
asS'Polistena'
p3791
(lp3792
S'720841'
p3793
asS'Pecquencourt'
p3794
(lp3795
S'615903'
p3796
asS'Perelyub'
p3797
(lp3798
S'2122804'
p3799
asS'Porcia'
p3800
(lp3801
S'721041'
p3802
asS'Parker'
p3803
(lp3804
S'2468487'
p3805
aS'2468487'
p3806
asS'Poinciana'
p3807
(lp3808
S'23417307'
p3809
asS'Pilibanga'
p3810
(lp3811
S'2284365'
p3812
asS'Preganziol'
p3813
(lp3814
S'721291'
p3815
asS'Papanasam'
p3816
(lp3817
S'2294501'
p3818
asS'Pushkinskiye Gory'
p3819
(lp3820
S'2123079'
p3821
asS'Puerto Madero'
p3822
(lp3823
S'137863'
p3824
asS'Palayan'
p3825
(lp3826
S'1185980'
p3827
asS'Pe\xc3\xb1aflor'
p3828
(lp3829
S'348896'
p3830
asS'Prevalle'
p3831
(lp3832
S'20138444'
p3833
asS'Pueblo'
p3834
(lp3835
S'2477145'
p3836
asS'Puerto Pe\xc3\xb1asco'
p3837
(lp3838
S'137872'
p3839
asS'Pasan'
p3840
(lp3841
S'2289445'
p3842
asS'Purbolinggo'
p3843
(lp3844
S'1048185'
p3845
asS'Pila'
p3846
(lp3847
S'1199642'
p3848
asS'Petrozavodsk'
p3849
(lp3850
S'2122867'
p3851
asS'Plon\xc3\xa9our-Lanvern'
p3852
(lp3853
S'616962'
p3854
asS'Po\xc5\x82czyn-Zdr\xc3\xb3j'
p3855
(lp3856
S'513489'
p3857
asS'Poolesville'
p3858
(lp3859
S'2475092'
p3860
asS'Perd\xc3\xb5es'
p3861
(lp3862
S'457792'
p3863
asS'Pili'
p3864
(lp3865
S'1187711'
p3866
asS'Proddatur'
p3867
(lp3868
S'2295258'
p3869
asS'Pleasant Run'
p3870
(lp3871
S'2474015'
p3872
asS'Paimio'
p3873
(lp3874
S'570874'
p3875
asS'Pleasure Ridge Park'
p3876
(lp3877
S'2474246'
p3878
asS'Penkridge'
p3879
(lp3880
S'31686'
p3881
asS'Paterna de Rivera'
p3882
(lp3883
S'769582'
p3884
asS'Paul\xc3\xadnia'
p3885
(lp3886
S'443286'
p3887
asS'Panruti'
p3888
(lp3889
S'2294331'
p3890
asS'Paranava\xc3\xad'
p3891
(lp3892
S'455974'
p3893
asS'Phan Thong'
p3894
(lp3895
S'1225563'
p3896
asS'Parsons'
p3897
(lp3898
S'2468918'
p3899
asS'Parabita'
p3900
(lp3901
S'719951'
p3902
asS'Pravdinskiy'
p3903
(lp3904
S'2070731'
p3905
asS'Polillo'
p3906
(lp3907
S'1199660'
p3908
asS'Petaling Jaya'
p3909
(lp3910
S'1155026'
p3911
asS'Pelham'
p3912
(lp3913
S'2470018'
p3914
aS'2470018'
p3915
aS'2470018'
p3916
asS'Parainen'
p3917
(lp3918
S'571048'
p3919
asS'Portrush'
p3920
(lp3921
S'45086'
p3922
asS'Peterhead'
p3923
(lp3924
S'31934'
p3925
asS'Pantin'
p3926
(lp3927
S'55863554'
p3928
asS'Palmhurst'
p3929
(lp3930
S'2467819'
p3931
asS'Paso'
p3932
(lp3933
S'759512'
p3934
asS'Pajacuar\xc3\xa1n'
p3935
(lp3936
S'135506'
p3937
asS'Penrith'
p3938
(lp3939
S'1104963'
p3940
aS'31772'
p3941
asS'Pindi Dadan Khan'
p3942
(lp3943
S'2205644'
p3944
asS'Pai\xc3\xa7andu'
p3945
(lp3946
S'442344'
p3947
asS'Pikine'
p3948
(lp3949
S'1416845'
p3950
asS'P\xc3\xb3voa de Santo Adri\xc3\xa3o'
p3951
(lp3952
S'746393'
p3953
asS'Prattville'
p3954
(lp3955
S'2476373'
p3956
asS'Puerto Cabezas'
p3957
(lp3958
S'153722'
p3959
asS'Pershore'
p3960
(lp3961
S'31924'
p3962
asS'Par\xc3\xa1dsasv\xc3\xa1r'
p3963
(lp3964
S'813551'
p3965
asS'Phra Phutthabat'
p3966
(lp3967
S'1225589'
p3968
asS'Puerto Vallarta'
p3969
(lp3970
S'137895'
p3971
asS'Puigcerd\xc3\xa0'
p3972
(lp3973
S'771009'
p3974
asS'Punto Fijo'
p3975
(lp3976
S'468428'
p3977
asS'Petapa'
p3978
(lp3979
S'85007'
p3980
asS'Puerto Ayacucho'
p3981
(lp3982
S'468426'
p3983
asS'Parthenay'
p3984
(lp3985
S'615744'
p3986
asS'Polch'
p3987
(lp3988
S'685512'
p3989
asS'Presidente Venceslau'
p3990
(lp3991
S'457888'
p3992
asS'Patos de Minas'
p3993
(lp3994
S'455978'
p3995
asS'Petropavlovka'
p3996
(lp3997
S'2122855'
p3998
asS'Paola'
p3999
(lp4000
S'719934'
p4001
aS'483454'
p4002
aS'2468056'
p4003
asS'Polonnoye'
p4004
(lp4005
S'931352'
p4006
asS'Paniqui'
p4007
(lp4008
S'1199622'
p4009
asS'Paulista'
p4010
(lp4011
S'443291'
p4012
asS'Prosser'
p4013
(lp4014
S'2476985'
p4015
asS'Pensilvania'
p4016
(lp4017
S'368224'
p4018
asS'Paipa'
p4019
(lp4020
S'368543'
p4021
asS'Port-au-Prince'
p4022
(lp4023
S'96110'
p4024
asS'Praia da Vit\xc3\xb3ria'
p4025
(lp4026
S'538233'
p4027
asS'Pavlikeni'
p4028
(lp4029
S'838656'
p4030
asS'Plaza Huincul'
p4031
(lp4032
S'467370'
p4033
asS'Pyatikhatki'
p4034
(lp4035
S'931994'
p4036
asS'Petrolina'
p4037
(lp4038
S'460470'
p4039
asS'Pakruojis'
p4040
(lp4041
S'477122'
p4042
asS'Protvino'
p4043
(lp4044
S'2071971'
p4045
asS'Pallej\xc3\xa0'
p4046
(lp4047
S'769289'
p4048
asS'Prairie du Chien'
p4049
(lp4050
S'2476253'
p4051
asS'Pierre'
p4052
(lp4053
S'2471666'
p4054
asS'Perleberg'
p4055
(lp4056
S'684558'
p4057
asS'Peno'
p4058
(lp4059
S'2122795'
p4060
asS'Paoli'
p4061
(lp4062
S'2468064'
p4063
asS'Pogar'
p4064
(lp4065
S'2122935'
p4066
asS'Pyh\xc3\xa4selk\xc3\xa4'
p4067
(lp4068
S'571825'
p4069
asS'Parna\xc3\xadba'
p4070
(lp4071
S'455975'
p4072
asS'Panind\xc3\xadcuaro de la Reforma'
p4073
(lp4074
S'135917'
p4075
asS'Price'
p4076
(lp4077
S'2476562'
p4078
asS'Potrerillos'
p4079
(lp4080
S'106043'
p4081
asS'Poisy'
p4082
(lp4083
S'617148'
p4084
asS'Pereiro de Aguiar'
p4085
(lp4086
S'769975'
p4087
asS'Porto Empedocle'
p4088
(lp4089
S'721088'
p4090
asS'Puerto Lim\xc3\xb3n'
p4091
(lp4092
S'59143'
p4093
asS'Puerto Padre'
p4094
(lp4095
S'66375'
p4096
asS'Petropavlovsk-Kamchatskiy'
p4097
(lp4098
S'2065482'
p4099
asS'Pierrelaye'
p4100
(lp4101
S'616571'
p4102
asS'Pategi'
p4103
(lp4104
S'1404326'
p4105
asS'Pasuquin'
p4106
(lp4107
S'1199633'
p4108
asS'Parramos'
p4109
(lp4110
S'84884'
p4111
asS'Po\xc3\xa7o Verde'
p4112
(lp4113
S'457839'
p4114
asS'Panaba'
p4115
(lp4116
S'135892'
p4117
asS'Panabo'
p4118
(lp4119
S'1186237'
p4120
asS'Pijao'
p4121
(lp4122
S'368547'
p4123
asS'Pahalgam'
p4124
(lp4125
S'2283645'
p4126
asS'Palagonia'
p4127
(lp4128
S'719796'
p4129
asS'Perevolotskiy'
p4130
(lp4131
S'2064198'
p4132
asS'Pho Chai'
p4133
(lp4134
S'1225574'
p4135
asS'Petrodvorets'
p4136
(lp4137
S'2065386'
p4138
asS'Primo Tapia'
p4139
(lp4140
S'55897568'
p4141
asS'Pestravka'
p4142
(lp4143
S'2122849'
p4144
asS'Porto de M\xc3\xb3s'
p4145
(lp4146
S'746233'
p4147
asS'Pitoa'
p4148
(lp4149
S'1305196'
p4150
asS'Port Charlotte'
p4151
(lp4152
S'2475348'
p4153
asS'Palestine'
p4154
(lp4155
S'2467600'
p4156
asS'Pedrou\xc3\xa7os'
p4157
(lp4158
S'745428'
p4159
asS'Pandavapura'
p4160
(lp4161
S'2294254'
p4162
asS'Pottstown'
p4163
(lp4164
S'2475997'
p4165
asS'Palestina'
p4166
(lp4167
S'363243'
p4168
aS'375807'
p4169
asS'Pieve Emanuele'
p4170
(lp4171
S'20136596'
p4172
asS'Pandua'
p4173
(lp4174
S'2290153'
p4175
asS'Povegliano Veronese'
p4176
(lp4177
S'721157'
p4178
asS'Padr\xc3\xb3n'
p4179
(lp4180
S'769170'
p4181
asS'Pr\xc3\xbcm'
p4182
(lp4183
S'686142'
p4184
asS'Palasa'
p4185
(lp4186
S'29050460'
p4187
asS'Pilkhuwa'
p4188
(lp4189
S'29125123'
p4190
asS'Patani'
p4191
(lp4192
S'1404324'
p4193
asS'Palmela'
p4194
(lp4195
S'745056'
p4196
asS'Pontardulais'
p4197
(lp4198
S'32278'
p4199
asS'Pascagoula'
p4200
(lp4201
S'2469007'
p4202
asS'Pembury'
p4203
(lp4204
S'31604'
p4205
asS'Pinjaur'
p4206
(lp4207
S'29173157'
p4208
asS'Pola de Lena'
p4209
(lp4210
S'765085'
p4211
asS'Pereira'
p4212
(lp4213
S'368168'
p4214
asS'Pozuelo de Alarc\xc3\xb3n'
p4215
(lp4216
S'770688'
p4217
asS'Pe\xc3\xb1al'
p4218
(lp4219
S'380193'
p4220
asS'Portales'
p4221
(lp4222
S'2475566'
p4223
asS'Poncitl\xc3\xa1n'
p4224
(lp4225
S'137090'
p4226
asS'Pekanbaru'
p4227
(lp4228
S'1040779'
p4229
asS'Pana'
p4230
(lp4231
S'2467915'
p4232
asS'Pishin'
p4233
(lp4234
S'2211354'
p4235
asS'Pereira Barreto'
p4236
(lp4237
S'456407'
p4238
asS'Prospect Park'
p4239
(lp4240
S'2476945'
p4241
aS'2476945'
p4242
aS'2476945'
p4243
asS'Pova\xc5\xbesk\xc3\xa1 Bystrica'
p4244
(lp4245
S'821748'
p4246
asS'Pitimbu'
p4247
(lp4248
S'444458'
p4249
asS'Prokhorovka'
p4250
(lp4251
S'2123041'
p4252
asS"P'ot'i"
p4253
(lp4254
S'1965201'
p4255
asS'Pedregulho'
p4256
(lp4257
S'456400'
p4258
asS'Prairie Ridge'
p4259
(lp4260
S'2476287'
p4261
asS'Pipar'
p4262
(lp4263
S'29184683'
p4264
asS'Phulera'
p4265
(lp4266
S'29061741'
p4267
asS'Pend\xc3\xaancias'
p4268
(lp4269
S'460451'
p4270
asS'Pologi'
p4271
(lp4272
S'931341'
p4273
asS'Pitman'
p4274
(lp4275
S'2473162'
p4276
asS'Petersfield'
p4277
(lp4278
S'31939'
p4279
asS'Prestonpans'
p4280
(lp4281
S'32596'
p4282
asS'Piracicaba'
p4283
(lp4284
S'455899'
p4285
asS'Paramirim'
p4286
(lp4287
S'442799'
p4288
asS'Pare'
p4289
(lp4290
S'1048094'
p4291
asS'Paulo Ramos'
p4292
(lp4293
S'457772'
p4294
asS'Pamplona'
p4295
(lp4296
S'363412'
p4297
aS'769330'
p4298
aS'1186216'
p4299
asS'Paraguar\xc3\xad'
p4300
(lp4301
S'379187'
p4302
asS'Pontian'
p4303
(lp4304
S'56015665'
p4305
asS'Pindorama'
p4306
(lp4307
S'460487'
p4308
asS'Punch'
p4309
(lp4310
S'2290371'
p4311
asS'Partington'
p4312
(lp4313
S'31477'
p4314
asS'Pierrefitte-sur-Seine'
p4315
(lp4316
S'55863558'
p4317
asS'Pridonskoy'
p4318
(lp4319
S'2070953'
p4320
asS'Pencoed'
p4321
(lp4322
S'31637'
p4323
asS'Pontal'
p4324
(lp4325
S'460546'
p4326
asS'Panazol'
p4327
(lp4328
S'615584'
p4329
asS'Penn Hills'
p4330
(lp4331
S'2470243'
p4332
asS'Palmira'
p4333
(lp4334
S'368166'
p4335
aS'65921'
p4336
asS'Pampa del Indio'
p4337
(lp4338
S'467347'
p4339
asS'Punta de Bomb\xc3\xb3n'
p4340
(lp4341
S'419178'
p4342
asS'Pinocchio di Ancona'
p4343
(lp4344
S'720596'
p4345
asS'Pignola'
p4346
(lp4347
S'720571'
p4348
asS'Pelican Bay'
p4349
(lp4350
S'23417354'
p4351
asS'Paranhos'
p4352
(lp4353
S'442826'
p4354
asS'Pl\xc3\xa9rin'
p4355
(lp4356
S'616885'
p4357
asS'Punalur'
p4358
(lp4359
S'2295365'
p4360
asS'Pabrad\xc4\x97'
p4361
(lp4362
S'476925'
p4363
asS'Penshurst'
p4364
(lp4365
S'1104966'
p4366
asS'Pfronten'
p4367
(lp4368
S'684960'
p4369
asS'Plaridel'
p4370
(lp4371
S'1188119'
p4372
aS'1188119'
p4373
asS'Penig'
p4374
(lp4375
S'684477'
p4376
asS'Plau'
p4377
(lp4378
S'685296'
p4379
asS'Pavlogi'
p4380
(lp4381
S'930205'
p4382
asS'Pontenure'
p4383
(lp4384
S'720992'
p4385
asS'Plavsk'
p4386
(lp4387
S'2122897'
p4388
asS'Porto Torres'
p4389
(lp4390
S'721107'
p4391
asS'Plopeni'
p4392
(lp4393
S'877879'
p4394
asS'Pinillos'
p4395
(lp4396
S'368363'
p4397
asS'Pailitas'
p4398
(lp4399
S'369194'
p4400
asS'Puru\xc3\xa1ndiro'
p4401
(lp4402
S'137985'
p4403
asS'Punta Umbr\xc3\xada'
p4404
(lp4405
S'771059'
p4406
asS'Paragua\xc3\xa7u'
p4407
(lp4408
S'442709'
p4409
asS'Polla'
p4410
(lp4411
S'720845'
p4412
asS'Puruliya'
p4413
(lp4414
S'2294904'
p4415
asS'Palm Beach'
p4416
(lp4417
S'2467664'
p4418
asS'Patiala'
p4419
(lp4420
S'29154573'
p4421
asS'Pithora'
p4422
(lp4423
S'2289620'
p4424
asS'Prince Albert'
p4425
(lp4426
S'2100'
p4427
asS'P\xc3\xa9zenas'
p4428
(lp4429
S'616439'
p4430
asS'Popt\xc3\xban'
p4431
(lp4432
S'85133'
p4433
asS'Pachuca de Soto'
p4434
(lp4435
S'135484'
p4436
asS'Polanica-Zdr\xc3\xb3j'
p4437
(lp4438
S'513451'
p4439
asS'Pulsano'
p4440
(lp4441
S'721373'
p4442
asS'Piney Green'
p4443
(lp4444
S'2472799'
p4445
asS'Port Elizabeth'
p4446
(lp4447
S'1586614'
p4448
asS'Port Moresby'
p4449
(lp4450
S'1062005'
p4451
asS'Portage la Prairie'
p4452
(lp4453
S'1237'
p4454
asS'Palma de Mallorca'
p4455
(lp4456
S'769293'
p4457
asS'Padangsidempuan'
p4458
(lp4459
S'1048045'
p4460
asS'Plaquemine'
p4461
(lp4462
S'2473546'
p4463
asS'Peringat'
p4464
(lp4465
S'1155023'
p4466
asS'Peypin'
p4467
(lp4468
S'616352'
p4469
asS'Pali'
p4470
(lp4471
S'29017663'
p4472
aS'29017663'
p4473
aS'29017663'
p4474
asS'Padang'
p4475
(lp4476
S'1048040'
p4477
asS'Piast\xc3\xb3w'
p4478
(lp4479
S'512148'
p4480
asS'Parsberg'
p4481
(lp4482
S'684259'
p4483
asS'Ph\xc3\xb4ngsali'
p4484
(lp4485
S'1140043'
p4486
asS'Port Jefferson'
p4487
(lp4488
S'2475411'
p4489
asS'Pine Bluff'
p4490
(lp4491
S'2471938'
p4492
asS'Pleasant Hills'
p4493
(lp4494
S'2473913'
p4495
asS'Primorsk'
p4496
(lp4497
S'2123027'
p4498
asS'Pelabuhanratu'
p4499
(lp4500
S'1048129'
p4501
asS'Pacajus'
p4502
(lp4503
S'456376'
p4504
asS'Pak Kret'
p4505
(lp4506
S'1226075'
p4507
asS'Pala'
p4508
(lp4509
S'1277976'
p4510
asS'Pardi'
p4511
(lp4512
S'29017330'
p4513
asS'Patzic\xc3\xada'
p4514
(lp4515
S'84949'
p4516
asS'Praszka'
p4517
(lp4518
S'514095'
p4519
asS'Publier'
p4520
(lp4521
S'618236'
p4522
asS'Pearl City'
p4523
(lp4524
S'2469710'
p4525
asS'Pitrufqu\xc3\xa9n'
p4526
(lp4527
S'349941'
p4528
asS'Poitiers'
p4529
(lp4530
S'617150'
p4531
asS'Pamanukan'
p4532
(lp4533
S'1048065'
p4534
asS'Paxtonia'
p4535
(lp4536
S'2469444'
p4537
asS'Palisades Park'
p4538
(lp4539
S'2467647'
p4540
asS'Piqua'
p4541
(lp4542
S'2473074'
p4543
asS'Papendrecht'
p4544
(lp4545
S'732671'
p4546
asS'Plauen'
p4547
(lp4548
S'685300'
p4549
asS'Port-de-Bouc'
p4550
(lp4551
S'617539'
p4552
asS'Pallikonda'
p4553
(lp4554
S'29134663'
p4555
asS'Pikesville'
p4556
(lp4557
S'2471754'
p4558
asS'Paliyad'
p4559
(lp4560
S'29183353'
p4561
asS'Pihani'
p4562
(lp4563
S'2288613'
p4564
asS'Pfreimd'
p4565
(lp4566
S'684952'
p4567
asS'Partiz\xc3\xa1nske'
p4568
(lp4569
S'821508'
p4570
asS'Pl\xc3\xa2y Cu'
p4571
(lp4572
S'1252568'
p4573
asS'Pangani'
p4574
(lp4575
S'1449004'
p4576
asS'Pundri'
p4577
(lp4578
S'2291438'
p4579
asS'Pozzuolo Martesana'
p4580
(lp4581
S'20138045'
p4582
asS'Pieve a Nievole'
p4583
(lp4584
S'726642'
p4585
asS'Pe\xc3\xb1\xc3\xadscola'
p4586
(lp4587
S'769882'
p4588
asS'Pieve di Soligo'
p4589
(lp4590
S'720545'
p4591
asS'Perpignan'
p4592
(lp4593
S'616113'
p4594
asS"Perm'"
p4595
(lp4596
S'2122814'
p4597
asS'Pama'
p4598
(lp4599
S'1461362'
p4600
asS'Palm Desert'
p4601
(lp4602
S'2467675'
p4603
asS'Port-Vila'
p4604
(lp4605
S'1050907'
p4606
asS'Palmeiras de Goi\xc3\xa1s'
p4607
(lp4608
S'457727'
p4609
asS'Prunedale'
p4610
(lp4611
S'2477107'
p4612
asS'Prokhladnyy'
p4613
(lp4614
S'2123040'
p4615
asS'Paso Robles'
p4616
(lp4617
S'2469027'
p4618
asS'Postojna'
p4619
(lp4620
S'531197'
p4621
asS'Phon Thong'
p4622
(lp4623
S'1225586'
p4624
asS'Pako\xc5\x9b\xc4\x87'
p4625
(lp4626
S'511485'
p4627
asS'Peabiru'
p4628
(lp4629
S'460420'
p4630
asS'Pianoro'
p4631
(lp4632
S'720384'
p4633
asS'Pinotepa de Don Luis'
p4634
(lp4635
S'136820'
p4636
asS'Pia'
p4637
(lp4638
S'616464'
p4639
asS'Petrolia'
p4640
(lp4641
S'4067'
p4642
asS'P\xc3\xbachov'
p4643
(lp4644
S'821834'
p4645
asS'Palaiseau'
p4646
(lp4647
S'615525'
p4648
asS'Posoltega'
p4649
(lp4650
S'153702'
p4651
asS'Pallapatti'
p4652
(lp4653
S'28999858'
p4654
asS'Ponte Buggianese'
p4655
(lp4656
S'720913'
p4657
asS'Palmerston'
p4658
(lp4659
S'1104879'
p4660
asS'Pilis'
p4661
(lp4662
S'813833'
p4663
asS'Paiania'
p4664
(lp4665
S'958662'
p4666
asS'Paliano'
p4667
(lp4668
S'719850'
p4669
asS'Pittsburgh'
p4670
(lp4671
S'2473223'
p4672
asS'Pontoise'
p4673
(lp4674
S'617468'
p4675
asS'Pezinok'
p4676
(lp4677
S'821577'
p4678
asS'Pousat'
p4679
(lp4680
S'1028597'
p4681
asS'Prenzlau'
p4682
(lp4683
S'685915'
p4684
asS'Pozo Alc\xc3\xb3n'
p4685
(lp4686
S'770647'
p4687
asS'Pietarsaari'
p4688
(lp4689
S'566126'
p4690
asS'Puebla de Almoradiel'
p4691
(lp4692
S'763900'
p4693
asS'Pulgaon'
p4694
(lp4695
S'2292279'
p4696
asS'Parkhar'
p4697
(lp4698
S'2213363'
p4699
asS'Phayuha Khiri'
p4700
(lp4701
S'1225572'
p4702
asS'Pace'
p4703
(lp4704
S'2467295'
p4705
asS'Panino'
p4706
(lp4707
S'2122743'
p4708
asS'Pimampiro'
p4709
(lp4710
S'374088'
p4711
asS'Pueblo Nuevo'
p4712
(lp4713
S'364237'
p4714
aS'137633'
p4715
aS'419163'
p4716
aS'419163'
p4717
asS'P\xc3\xb4sto Fiscal Rolim de Moura'
p4718
(lp4719
S'457876'
p4720
asS'Potam'
p4721
(lp4722
S'137165'
p4723
asS'Pont'
p4724
(lp4725
S'29330335'
p4726
aS'29330335'
p4727
asS'Port Said'
p4728
(lp4729
S'1525969'
p4730
asS'Pons'
p4731
(lp4732
S'617275'
p4733
asS'Prestatyn'
p4734
(lp4735
S'32550'
p4736
asS'Pangkalanbuun'
p4737
(lp4738
S'1048081'
p4739
asS'Palamedu'
p4740
(lp4741
S'2283702'
p4742
asS'Predappio Alta'
p4743
(lp4744
S'721284'
p4745
asS'Poln\xc3\xa1'
p4746
(lp4747
S'796437'
p4748
asS'Phrai Bung'
p4749
(lp4750
S'1225593'
p4751
asS'Phaphund'
p4752
(lp4753
S'2284287'
p4754
asS'Pasco'
p4755
(lp4756
S'2469015'
p4757
asS'Poggio a Caiano'
p4758
(lp4759
S'20137074'
p4760
asS'Playa del Ingl\xc3\xa9s'
p4761
(lp4762
S'20225307'
p4763
asS'Ponce'
p4764
(lp4765
S'161567'
p4766
asS'Pipraich'
p4767
(lp4768
S'29123245'
p4769
asS'P\xc3\xa9rols'
p4770
(lp4771
S'616095'
p4772
asS'Paveh'
p4773
(lp4774
S'2255032'
p4775
asS'P\xc3\xa9renchies'
p4776
(lp4777
S'616046'
p4778
asS'Pella'
p4779
(lp4780
S'2470041'
p4781
asS'Ponte di Piave'
p4782
(lp4783
S'720932'
p4784
asS'Ponthierry'
p4785
(lp4786
S'617453'
p4787
asS'Puliyur'
p4788
(lp4789
S'29074614'
p4790
asS'Pennsauken'
p4791
(lp4792
S'2470311'
p4793
asS'Port Chester'
p4794
(lp4795
S'2475350'
p4796
asS'Piritiba'
p4797
(lp4798
S'457828'
p4799
asS'Pogrebishchenskiy'
p4800
(lp4801
S'931249'
p4802
asS"Poshekhon'ye"
p4803
(lp4804
S'2070252'
p4805
asS'Puerto Rico'
p4806
(lp4807
S'364497'
p4808
aS'364497'
p4809
aS'779199'
p4810
asS'Playa del Carmen'
p4811
(lp4812
S'136973'
p4813
asS'Puerto Cabello'
p4814
(lp4815
S'468427'
p4816
asS'Pregassona'
p4817
(lp4818
S'783781'
p4819
asS'Patharia'
p4820
(lp4821
S'29013217'
p4822
asS'Pipili'
p4823
(lp4824
S'29055486'
p4825
asS'Planken'
p4826
(lp4827
S'856447'
p4828
asS'Pacy-sur-Eure'
p4829
(lp4830
S'615469'
p4831
asS'Potomac'
p4832
(lp4833
S'2475890'
p4834
asS'Profondeville'
p4835
(lp4836
S'975911'
p4837
asS'Peitz'
p4838
(lp4839
S'684453'
p4840
asS'Padina'
p4841
(lp4842
S'535818'
p4843
asS'Pl\xc3\xa9dran'
p4844
(lp4845
S'616863'
p4846
asS'Peligros'
p4847
(lp4848
S'769755'
p4849
asS'Ponto Novo'
p4850
(lp4851
S'460563'
p4852
asS'Preston'
p4853
(lp4854
S'32566'
p4855
asS'Porirua'
p4856
(lp4857
S'2350182'
p4858
asS'Proszowice'
p4859
(lp4860
S'514197'
p4861
asS'Ponneri'
p4862
(lp4863
S'29076001'
p4864
asS'Pavlovskaya'
p4865
(lp4866
S'2122775'
p4867
asS'Pazaryolu'
p4868
(lp4869
S'2344323'
p4870
asS'Pine Ridge'
p4871
(lp4872
S'2472350'
p4873
asS'Paczk\xc3\xb3w'
p4874
(lp4875
S'511453'
p4876
asS'Pollock Pines'
p4877
(lp4878
S'2474809'
p4879
asS'Pozzuolo del Friuli'
p4880
(lp4881
S'721194'
p4882
asS'Palmarito Tochap\xc3\xa1n'
p4883
(lp4884
S'135629'
p4885
asS'Phirangipuram'
p4886
(lp4887
S'2293902'
p4888
asS'Pau Ferro'
p4889
(lp4890
S'443260'
p4891
asS'Porus'
p4892
(lp4893
S'109721'
p4894
asS'Porur'
p4895
(lp4896
S'29075039'
p4897
asS'Phuket'
p4898
(lp4899
S'1226113'
p4900
asS'Panev\xc4\x97\xc5\xbeys'
p4901
(lp4902
S'477231'
p4903
asS'Piterka'
p4904
(lp4905
S'2122888'
p4906
asS'Pato Branco'
p4907
(lp4908
S'457765'
p4909
asS'Pivijay'
p4910
(lp4911
S'368227'
p4912
asS'Peniche'
p4913
(lp4914
S'745528'
p4915
asS'Platte City'
p4916
(lp4917
S'2473590'
p4918
asS'Palakkodu'
p4919
(lp4920
S'2283699'
p4921
asS'Purificaci\xc3\xb3n'
p4922
(lp4923
S'368370'
p4924
asS'Prince Rupert'
p4925
(lp4926
S'9395'
p4927
asS'Par\xc3\xa1cuaro'
p4928
(lp4929
S'135975'
p4930
asS'Persan'
p4931
(lp4932
S'616167'
p4933
asS'Pyinmana'
p4934
(lp4935
S'1017797'
p4936
asS'Porto-Novo'
p4937
(lp4938
S'1268465'
p4939
asS'Pismo Beach'
p4940
(lp4941
S'2473135'
p4942
asS'Panglao'
p4943
(lp4944
S'1199619'
p4945
asS'Puno'
p4946
(lp4947
S'418460'
p4948
asS'Puerto Supe'
p4949
(lp4950
S'419174'
p4951
asS'Pescantina'
p4952
(lp4953
S'720193'
p4954
asS'Pipri'
p4955
(lp4956
S'29018029'
p4957
asS'Pertuis'
p4958
(lp4959
S'616176'
p4960
asS'Penha'
p4961
(lp4962
S'443783'
p4963
asS'Painesville'
p4964
(lp4965
S'2467505'
p4966
asS'Phalombe'
p4967
(lp4968
S'1368989'
p4969
asS'Pospelikha'
p4970
(lp4971
S'2123003'
p4972
asS'P\xc3\xadllaro'
p4973
(lp4974
S'374082'
p4975
asS'Progreso'
p4976
(lp4977
S'137539'
p4978
aS'137539'
p4979
aS'2476839'
p4980
asS'Pinheiro'
p4981
(lp4982
S'444225'
p4983
asS'Peymeinade'
p4984
(lp4985
S'616349'
p4986
asS'Patos'
p4987
(lp4988
S'443106'
p4989
asS'Pilsting'
p4990
(lp4991
S'685102'
p4992
asS'Poysdorf'
p4993
(lp4994
S'543353'
p4995
asS'Palma Campania'
p4996
(lp4997
S'719869'
p4998
asS'Pavullo nel Frignano'
p4999
(lp5000
S'720068'
p5001
asS'Po\xc3\xa7os de Caldas'
p5002
(lp5003
S'455984'
p5004
asS'Progress'
p5005
(lp5006
S'2476841'
p5007
asS'Phu Khieo'
p5008
(lp5009
S'1226111'
p5010
asS'Pervari'
p5011
(lp5012
S'2334777'
p5013
asS'Pacora'
p5014
(lp5015
S'159303'
p5016
asS'Platteville'
p5017
(lp5018
S'2473600'
p5019
asS'Pakala'
p5020
(lp5021
S'2294139'
p5022
asS'Paraibano'
p5023
(lp5024
S'442727'
p5025
asS'Pueblo Yaqui'
p5026
(lp5027
S'55894252'
p5028
asS'Putignano'
p5029
(lp5030
S'721390'
p5031
asS'Penrose'
p5032
(lp5033
S'2470368'
p5034
asS'Passagem Franca'
p5035
(lp5036
S'457760'
p5037
asS'Port Blair'
p5038
(lp5039
S'2295345'
p5040
asS'Portes-l\xc3\xa8s-Valence'
p5041
(lp5042
S'617587'
p5043
asS'Petrovaradin'
p5044
(lp5045
S'535938'
p5046
asS'Pornic'
p5047
(lp5048
S'617503'
p5049
asS'Przysucha'
p5050
(lp5051
S'514704'
p5052
asS'Piriyapatna'
p5053
(lp5054
S'2284479'
p5055
asS'Petrov Val'
p5056
(lp5057
S'2122858'
p5058
asS'Pie\xc5\x84sk'
p5059
(lp5060
S'512314'
p5061
asS'Paracuellos de Jarama'
p5062
(lp5063
S'769397'
p5064
asS'Para\xc4\x87in'
p5065
(lp5066
S'535855'
p5067
asS'Puchheim'
p5068
(lp5069
S'686175'
p5070
asS'Polyarnyy'
p5071
(lp5072
S'2122978'
p5073
asS'Pyle'
p5074
(lp5075
S'32723'
p5076
asS'Pa Daet'
p5077
(lp5078
S'1225544'
p5079
asS'Puerto Vilelas'
p5080
(lp5081
S'466282'
p5082
asS'Purranque'
p5083
(lp5084
S'349949'
p5085
asS'P\xc3\xadsek'
p5086
(lp5087
S'796059'
p5088
asS'Provadiya'
p5089
(lp5090
S'839026'
p5091
asS'Pritzwalk'
p5092
(lp5093
S'686067'
p5094
asS'Parasia'
p5095
(lp5096
S'29119851'
p5097
asS'Pontinia'
p5098
(lp5099
S'721008'
p5100
asS'Palho\xc3\xa7a'
p5101
(lp5102
S'460341'
p5103
asS'Ponsacco'
p5104
(lp5105
S'720890'
p5106
asS'Powell'
p5107
(lp5108
S'2476065'
p5109
aS'2476065'
p5110
asS'Pan\xc4\x8devo'
p5111
(lp5112
S'535844'
p5113
asS'Pauini'
p5114
(lp5115
S'457769'
p5116
asS'Palle'
p5117
(lp5118
S'29135563'
p5119
asS'Palos Verdes Estates'
p5120
(lp5121
S'2467898'
p5122
asS'Poio'
p5123
(lp5124
S'770633'
p5125
asS'Peveragno'
p5126
(lp5127
S'720264'
p5128
asS'Piossasco'
p5129
(lp5130
S'720615'
p5131
asS'Pennagaram'
p5132
(lp5133
S'2294283'
p5134
asS'Polg\xc3\xa1r'
p5135
(lp5136
S'813937'
p5137
asS'Pendra'
p5138
(lp5139
S'29092381'
p5140
asS'Plettenbergbaai'
p5141
(lp5142
S'1586589'
p5143
asS'Ponteranica'
p5144
(lp5145
S'20137652'
p5146
asS'Penryn'
p5147
(lp5148
S'31778'
p5149
asS'Polanco'
p5150
(lp5151
S'55899091'
p5152
asS'Ponedera'
p5153
(lp5154
S'364013'
p5155
asS'Perambalur'
p5156
(lp5157
S'2294426'
p5158
asS'Paonta Sahib'
p5159
(lp5160
S'2283908'
p5161
asS'Patz\xc3\xban'
p5162
(lp5163
S'84957'
p5164
asS'Pfedelbach'
p5165
(lp5166
S'684870'
p5167
asS'Penza'
p5168
(lp5169
S'2122796'
p5170
asS'Perugia'
p5171
(lp5172
S'720187'
p5173
asS'Palu'
p5174
(lp5175
S'1048063'
p5176
aS'2344317'
p5177
asS'P\xc3\xa9ruwelz'
p5178
(lp5179
S'975522'
p5180
asS'Palo'
p5181
(lp5182
S'1199599'
p5183
asS'Paso del Macho'
p5184
(lp5185
S'136180'
p5186
asS'Paramus'
p5187
(lp5188
S'2468229'
p5189
asS'Porsgrunn'
p5190
(lp5191
S'862752'
p5192
asS'Pisa'
p5193
(lp5194
S'720627'
p5195
asS'Peddapuram'
p5196
(lp5197
S'29137675'
p5198
asS'Pisz'
p5199
(lp5200
S'512633'
p5201
asS'Panguipulli'
p5202
(lp5203
S'349936'
p5204
asS'Puttur'
p5205
(lp5206
S'2294219'
p5207
aS'2294219'
p5208
asS'P\xc3\xbcsp\xc3\xb6klad\xc3\xa1ny'
p5209
(lp5210
S'814055'
p5211
asS'Petrosino'
p5212
(lp5213
S'720254'
p5214
asS'Petit-Bourg'
p5215
(lp5216
S'80806'
p5217
asS'Puttalam'
p5218
(lp5219
S'2185993'
p5220
asS'P\xc3\xa1nuco'
p5221
(lp5222
S'135941'
p5223
asS'Pukhrayan'
p5224
(lp5225
S'2284628'
p5226
asS'Pleshchenitsy'
p5227
(lp5228
S'830000'
p5229
asS'P\xc3\xa1szt\xc3\xb3'
p5230
(lp5231
S'813589'
p5232
asS'Polikhni'
p5233
(lp5234
S'960439'
p5235
asS'Pine Castle'
p5236
(lp5237
S'2471963'
p5238
asS'Pervomayskiy'
p5239
(lp5240
S'2064657'
p5241
aS'2064657'
p5242
aS'2064657'
p5243
aS'2064657'
p5244
aS'2064657'
p5245
asS'Picota'
p5246
(lp5247
S'418570'
p5248
asS'Poltavka'
p5249
(lp5250
S'2122974'
p5251
asS'Polewali'
p5252
(lp5253
S'1048162'
p5254
asS'Pawcatuck'
p5255
(lp5256
S'2469383'
p5257
asS'Pauri'
p5258
(lp5259
S'29093638'
p5260
asS'Peshtera'
p5261
(lp5262
S'838705'
p5263
asS'Podenzano'
p5264
(lp5265
S'720699'
p5266
asS'Potenza'
p5267
(lp5268
S'721153'
p5269
asS'Pilar do Sul'
p5270
(lp5271
S'444097'
p5272
asS'Paungde'
p5273
(lp5274
S'1017777'
p5275
asS'Pochinki'
p5276
(lp5277
S'2122918'
p5278
asS'Pfarrkirchen'
p5279
(lp5280
S'684860'
p5281
asS'Pegognaga'
p5282
(lp5283
S'720096'
p5284
asS'Port Hedland'
p5285
(lp5286
S'1105126'
p5287
asS'Polmont'
p5288
(lp5289
S'32231'
p5290
asS'Pinhais'
p5291
(lp5292
S'23424709'
p5293
asS'Police'
p5294
(lp5295
S'513516'
p5296
asS'Passo Fundo'
p5297
(lp5298
S'455896'
p5299
asS"Popel'nya"
p5300
(lp5301
S'931439'
p5302
asS'Piraju\xc3\xad'
p5303
(lp5304
S'456419'
p5305
asS'Port-Gentil'
p5306
(lp5307
S'1325594'
p5308
asS'Penedo'
p5309
(lp5310
S'456406'
p5311
asS'Pathri'
p5312
(lp5313
S'29012804'
p5314
asS'Panicale'
p5315
(lp5316
S'719911'
p5317
asS'Phanat Nikhom'
p5318
(lp5319
S'1226084'
p5320
asS'Petit-Couronne'
p5321
(lp5322
S'603982'
p5323
asS'Purulh\xc3\xa1'
p5324
(lp5325
S'85228'
p5326
asS'Patong'
p5327
(lp5328
S'55947150'
p5329
asS'Pietermaritzburg'
p5330
(lp5331
S'1586549'
p5332
asS'Prieska'
p5333
(lp5334
S'1586643'
p5335
asS'Palacios'
p5336
(lp5337
S'2467567'
p5338
asS'Pabianice'
p5339
(lp5340
S'511428'
p5341
asS'Popondetta'
p5342
(lp5343
S'1061974'
p5344
asS'Pirganj'
p5345
(lp5346
S'1915199'
p5347
asS'Palmanova'
p5348
(lp5349
S'719872'
p5350
asS'Pataskala'
p5351
(lp5352
S'2469065'
p5353
asS'Punta Alta'
p5354
(lp5355
S'466884'
p5356
asS'Palanga'
p5357
(lp5358
S'477139'
p5359
asS'Potos\xc3\xad'
p5360
(lp5361
S'346061'
p5362
aS'153704'
p5363
asS'Port Alberni'
p5364
(lp5365
S'9800'
p5366
asS'Purna'
p5367
(lp5368
S'2293222'
p5369
asS'Paso de Ovejas'
p5370
(lp5371
S'136160'
p5372
asS'Port Sudan'
p5373
(lp5374
S'1435509'
p5375
asS'Pur\xc3\xa9pero'
p5376
(lp5377
S'137955'
p5378
asS'Pandan'
p5379
(lp5380
S'1199610'
p5381
asS'Palitana'
p5382
(lp5383
S'2291891'
p5384
asS'Pirassununga'
p5385
(lp5386
S'444403'
p5387
asS'Porrentruy'
p5388
(lp5389
S'783754'
p5390
asS'Port Antonio'
p5391
(lp5392
S'109710'
p5393
asS'Pyu'
p5394
(lp5395
S'1017800'
p5396
asS'Putten'
p5397
(lp5398
S'732831'
p5399
asS'Pico Rivera'
p5400
(lp5401
S'2471542'
p5402
asS'Pinheiral'
p5403
(lp5404
S'444213'
p5405
asS'Pleasant Prairie'
p5406
(lp5407
S'2473971'
p5408
asS'Parets del Vall\xc3\xa8s'
p5409
(lp5410
S'769519'
p5411
asS"Parabel'"
p5412
(lp5413
S'2062775'
p5414
asS'Polovinnoye'
p5415
(lp5416
S'2122971'
p5417
asS'Pacov'
p5418
(lp5419
S'795739'
p5420
asS'Pio Duran'
p5421
(lp5422
S'1188016'
p5423
asS'Parob\xc3\xa9'
p5424
(lp5425
S'442899'
p5426
asS'Pathardih'
p5427
(lp5428
S'2284086'
p5429
asS'Perabumulih'
p5430
(lp5431
S'1048143'
p5432
asS'Petlawad'
p5433
(lp5434
S'29023655'
p5435
asS'Pfullingen'
p5436
(lp5437
S'684968'
p5438
asS'Port Huron'
p5439
(lp5440
S'2475403'
p5441
asS'Parksville'
p5442
(lp5443
S'9797'
p5444
asS'Payao'
p5445
(lp5446
S'1187428'
p5447
asS'Pine Hills'
p5448
(lp5449
S'2472215'
p5450
asS'Pecica'
p5451
(lp5452
S'877326'
p5453
asS'Pontianak'
p5454
(lp5455
S'1048167'
p5456
asS'Ponte'
p5457
(lp5458
S'746016'
p5459
asS'Pira\xc3\xad do Sul'
p5460
(lp5461
S'456416'
p5462
asS'Pithiviers'
p5463
(lp5464
S'616732'
p5465
asS'Pesca'
p5466
(lp5467
S'368362'
p5468
asS'Pet\xc5\x99vald'
p5469
(lp5470
S'796028'
p5471
asS'P\xc3\xa9lissanne'
p5472
(lp5473
S'615935'
p5474
asS'Port Hueneme'
p5475
(lp5476
S'2475402'
p5477
asS'Pinkafeld'
p5478
(lp5479
S'538998'
p5480
asS'Pilibhit'
p5481
(lp5482
S'2295017'
p5483
asS'Pell City'
p5484
(lp5485
S'2470039'
p5486
asS'Padre Las Casas'
p5487
(lp5488
S'75489'
p5489
asS'Palavas-les-Flots'
p5490
(lp5491
S'615535'
p5492
asS'Paese'
p5493
(lp5494
S'719762'
p5495
asS'Phan Thi\xe1\xba\xbft'
p5496
(lp5497
S'1252537'
p5498
asS'Pianezza'
p5499
(lp5500
S'720344'
p5501
asS'Palwancha'
p5502
(lp5503
S'29134917'
p5504
asS'Ponchatoula'
p5505
(lp5506
S'2474923'
p5507
asS'Przasnysz'
p5508
(lp5509
S'514275'
p5510
asS'Pfaffenhofen an der Roth'
p5511
(lp5512
S'684793'
p5513
asS'Parit Buntar'
p5514
(lp5515
S'1152465'
p5516
asS'Palikir'
p5517
(lp5518
S'1062825'
p5519
asS'Presidente Oleg\xc3\xa1rio'
p5520
(lp5521
S'456453'
p5522
asS'Piat'
p5523
(lp5524
S'1199641'
p5525
asS'Parfino'
p5526
(lp5527
S'2122753'
p5528
asS'Penicuik'
p5529
(lp5530
S'31676'
p5531
asS'Pope\xc5\x9fti-Leordeni'
p5532
(lp5533
S'878365'
p5534
asS'Pakokku'
p5535
(lp5536
S'1017758'
p5537
asS'P\xc3\xb6ttmes'
p5538
(lp5539
S'685795'
p5540
asS'Plesetsk'
p5541
(lp5542
S'2122902'
p5543
asS'Puerto de la Cruz'
p5544
(lp5545
S'770966'
p5546
asS'Partizansk'
p5547
(lp5548
S'2122757'
p5549
asS'Petrovsk'
p5550
(lp5551
S'2122860'
p5552
asS'Petlad'
p5553
(lp5554
S'2295084'
p5555
asS'Pleasantville'
p5556
(lp5557
S'2474221'
p5558
aS'2474221'
p5559
asS'Poing'
p5560
(lp5561
S'685497'
p5562
asS'Panajachel'
p5563
(lp5564
S'84819'
p5565
asS'Pontassieve'
p5566
(lp5567
S'720895'
p5568
asS'Paceco'
p5569
(lp5570
S'719731'
p5571
asS'Passira'
p5572
(lp5573
S'457761'
p5574
asS'Pluvigner'
p5575
(lp5576
S'617068'
p5577
asS'Pegnitz'
p5578
(lp5579
S'684429'
p5580
asS'Pergamino'
p5581
(lp5582
S'466880'
p5583
asS'Pasinler'
p5584
(lp5585
S'2344319'
p5586
asS'Presidente Prudente'
p5587
(lp5588
S'455902'
p5589
asS'Placentia'
p5590
(lp5591
S'2473307'
p5592
asS'Putrajaya'
p5593
(lp5594
S'22664158'
p5595
asS'Pratapgarh'
p5596
(lp5597
S'2284600'
p5598
aS'2284600'
p5599
asS'Picassent'
p5600
(lp5601
S'770067'
p5602
asS'Puerto Ayora'
p5603
(lp5604
S'376193'
p5605
asS'Parkersburg'
p5606
(lp5607
S'2468573'
p5608
asS'Pirapora do Bom Jesus'
p5609
(lp5610
S'444391'
p5611
asS'Pinar del R\xc3\xado'
p5612
(lp5613
S'66142'
p5614
asS'Pavlovka'
p5615
(lp5616
S'2063359'
p5617
aS'2063359'
p5618
asS'Palermo'
p5619
(lp5620
S'363231'
p5621
aS'719846'
p5622
aS'2467590'
p5623
asS'Pagbilao'
p5624
(lp5625
S'1199591'
p5626
asS'Polysayevo'
p5627
(lp5628
S'2069471'
p5629
asS'Pontivy'
p5630
(lp5631
S'617464'
p5632
asS'Pontalina'
p5633
(lp5634
S'456434'
p5635
asS'Picayune'
p5636
(lp5637
S'2471465'
p5638
asS'Pesaro'
p5639
(lp5640
S'720190'
p5641
asS'Pudukkottai'
p5642
(lp5643
S'29084538'
p5644
asS'Porkhov'
p5645
(lp5646
S'2070002'
p5647
asS'Pyskowice'
p5648
(lp5649
S'514960'
p5650
asS'Pudasj\xc3\xa4rvi'
p5651
(lp5652
S'571679'
p5653
asS'Parintins'
p5654
(lp5655
S'456393'
p5656
asS'Pembroke Park'
p5657
(lp5658
S'2470099'
p5659
asS'Par'
p5660
(lp5661
S'31418'
p5662
asS'Pau'
p5663
(lp5664
S'615808'
p5665
asS'Parwanoo'
p5666
(lp5667
S'28999772'
p5668
asS'Pantigliate'
p5669
(lp5670
S'719931'
p5671
asS'Phun Phin'
p5672
(lp5673
S'1226114'
p5674
asS'Prabuty'
p5675
(lp5676
S'514059'
p5677
asS'Pastores'
p5678
(lp5679
S'84914'
p5680
asS'Pankrushikha'
p5681
(lp5682
S'2062617'
p5683
asS'Pahrump'
p5684
(lp5685
S'2467485'
p5686
asS'Phoenixville'
p5687
(lp5688
S'2471435'
p5689
asS'Patterson'
p5690
(lp5691
S'2469176'
p5692
aS'2469176'
p5693
asS'Pederobba'
p5694
(lp5695
S'720085'
p5696
asS'Piracaia'
p5697
(lp5698
S'457818'
p5699
asS'Phra Nakhon Si Ayutthaya'
p5700
(lp5701
S'1226105'
p5702
asS'Pedra Branca'
p5703
(lp5704
S'443453'
p5705
asS'P\xc3\xa9rez'
p5706
(lp5707
S'467025'
p5708
asS'Pindwara'
p5709
(lp5710
S'2292030'
p5711
asS'Phultala'
p5712
(lp5713
S'1915196'
p5714
asS'Prince George'
p5715
(lp5716
S'9537'
p5717
asS'Piro'
p5718
(lp5719
S'2288853'
p5720
asS'Perryville'
p5721
(lp5722
S'2470771'
p5723
asS'Pago Pago'
p5724
(lp5725
S'1062841'
p5726
asS'Port Alfred'
p5727
(lp5728
S'1586610'
p5729
asS'Pike Creek'
p5730
(lp5731
S'2471735'
p5732
asS'Puyo'
p5733
(lp5734
S'375760'
p5735
asS'Pogliano Milanese'
p5736
(lp5737
S'720805'
p5738
asS'Plochingen'
p5739
(lp5740
S'685361'
p5741
asS'Priyutnoye'
p5742
(lp5743
S'2123038'
p5744
asS'Puebla'
p5745
(lp5746
S'137612'
p5747
aS'137612'
p5748
asS'Poole'
p5749
(lp5750
S'32326'
p5751
asS'Port Pirie'
p5752
(lp5753
S'1105137'
p5754
asS'Pontiac'
p5755
(lp5756
S'2475044'
p5757
aS'2475044'
p5758
asS'Purmerend'
p5759
(lp5760
S'732819'
p5761
asS'Passy'
p5762
(lp5763
S'615784'
p5764
asS"Paran'ga"
p5765
(lp5766
S'2122752'
p5767
asS'Passi'
p5768
(lp5769
S'1199631'
p5770
aS'1416782'
p5771
asS'Patan'
p5772
(lp5773
S'29002665'
p5774
aS'29002665'
p5775
aS'29002665'
p5776
aS'29002665'
p5777
asS'Pelileo'
p5778
(lp5779
S'374022'
p5780
asS'Pailin'
p5781
(lp5782
S'1028493'
p5783
asS'Paris'
p5784
(lp5785
S'4352'
p5786
aS'615702'
p5787
aS'2468259'
p5788
aS'2468259'
p5789
aS'2468259'
p5790
aS'2468259'
p5791
aS'2468259'
p5792
asS'Prudnik'
p5793
(lp5794
S'514207'
p5795
asS'Porto-Vecchio'
p5796
(lp5797
S'617601'
p5798
asS'Porto Civitanova'
p5799
(lp5800
S'721081'
p5801
asS'Pierrelatte'
p5802
(lp5803
S'616570'
p5804
asS'Peren\xc3\xa9'
p5805
(lp5806
S'419128'
p5807
asS"Putivl'"
p5808
(lp5809
S'931958'
p5810
asS'Phra Pradaeng'
p5811
(lp5812
S'1226107'
p5813
asS'Princesa Isabel'
p5814
(lp5815
S'457892'
p5816
asS'Pearl River'
p5817
(lp5818
S'2469722'
p5819
asS'Phalaborwa'
p5820
(lp5821
S'1586494'
p5822
asS'Pizarro'
p5823
(lp5824
S'419938'
p5825
aS'419938'
p5826
asS'Palm Harbor'
p5827
(lp5828
S'2467682'
p5829
asS'Pal\xc3\xa9'
p5830
(lp5831
S'1311836'
p5832
asS'Pa Sang'
p5833
(lp5834
S'1225545'
p5835
asS'P\xc5\x99e\xc5\xa1tice'
p5836
(lp5837
S'796725'
p5838
asS'Poniatowa'
p5839
(lp5840
S'513676'
p5841
asS'Pollachi'
p5842
(lp5843
S'2295332'
p5844
asS'Perros-Guirec'
p5845
(lp5846
S'616152'
p5847
asS'Pattensen'
p5848
(lp5849
S'684331'
p5850
asS'Presidencia Roque S\xc3\xa1enz Pe\xc3\xb1a'
p5851
(lp5852
S'466883'
p5853
asS'Promiss\xc3\xa3o'
p5854
(lp5855
S'460653'
p5856
asS'Polonuevo'
p5857
(lp5858
S'369239'
p5859
asS'Pi\xc5\x82a'
p5860
(lp5861
S'512432'
p5862
asS'Pitiquito'
p5863
(lp5864
S'136871'
p5865
asS'Punahana'
p5866
(lp5867
S'2284645'
p5868
asS'Permatang Kuching'
p5869
(lp5870
S'1152610'
p5871
asS'Pniewy'
p5872
(lp5873
S'512887'
p5874
asS'Penne'
p5875
(lp5876
S'720130'
p5877
asS'Paramaribo'
p5878
(lp5879
S'377227'
p5880
asS'Ponteland'
p5881
(lp5882
S'32283'
p5883
asS'Pedro Betancourt'
p5884
(lp5885
S'66028'
p5886
asS'Port Orchard'
p5887
(lp5888
S'2475458'
p5889
asS'Pujil\xc3\xad'
p5890
(lp5891
S'375889'
p5892
asS'Petropavlovsk'
p5893
(lp5894
S'2264778'
p5895
asS'Piryatin'
p5896
(lp5897
S'930871'
p5898
asS'Ponca City'
p5899
(lp5900
S'2474917'
p5901
asS'Puruar\xc3\xa1n'
p5902
(lp5903
S'137986'
p5904
asS'Pontypool'
p5905
(lp5906
S'32316'
p5907
asS'Paulsboro'
p5908
(lp5909
S'2469344'
p5910
asS'Posadas'
p5911
(lp5912
S'466882'
p5913
aS'770594'
p5914
asS'Poway'
p5915
(lp5916
S'2476032'
p5917
asS'Porac'
p5918
(lp5919
S'1188396'
p5920
asS'Punta Arenas'
p5921
(lp5922
S'349884'
p5923
asS'Perafita'
p5924
(lp5925
S'745561'
p5926
asS'Piotrk\xc3\xb3w Kujawski'
p5927
(lp5928
S'512510'
p5929
asS'Partanna'
p5930
(lp5931
S'719990'
p5932
asS'Pullach im Isartal'
p5933
(lp5934
S'686199'
p5935
asS'Pimentel'
p5936
(lp5937
S'75776'
p5938
asS'Pocon\xc3\xa9'
p5939
(lp5940
S'456429'
p5941
asS'Portici'
p5942
(lp5943
S'721067'
p5944
asS'Pitt Meadows'
p5945
(lp5946
S'9222'
p5947
asS'Polur'
p5948
(lp5949
S'29146478'
p5950
asS'Pokaran'
p5951
(lp5952
S'2290947'
p5953
asS'Pompano Beach'
p5954
(lp5955
S'2474897'
p5956
asS'Porto San Giorgio'
p5957
(lp5958
S'721102'
p5959
asS'Portsmouth'
p5960
(lp5961
S'32452'
p5962
aS'2475744'
p5963
aS'2475744'
p5964
aS'2475744'
p5965
aS'2475744'
p5966
asS'Plaisance-du-Touch'
p5967
(lp5968
S'616788'
p5969
asS'Pitangui'
p5970
(lp5971
S'457830'
p5972
asS'Petrila'
p5973
(lp5974
S'877480'
p5975
asS'Port-la-Nouvelle'
p5976
(lp5977
S'617550'
p5978
asS'P\xc4\xb1narhisar'
p5979
(lp5980
S'2344329'
p5981
asS'Prad\xc3\xb3polis'
p5982
(lp5983
S'457879'
p5984
asS'Pietraperzia'
p5985
(lp5986
S'720511'
p5987
asS'Prienai'
p5988
(lp5989
S'477680'
p5990
asS'Pajapan'
p5991
(lp5992
S'135508'
p5993
asS'Per\xc5\x9fembe'
p5994
(lp5995
S'2334763'
p5996
asS'Pototan'
p5997
(lp5998
S'1199667'
p5999
asS'Puerto San Jos\xc3\xa9'
p6000
(lp6001
S'85210'
p6002
asS'Port Neches'
p6003
(lp6004
S'2475441'
p6005
asS'Passos'
p6006
(lp6007
S'455976'
p6008
asS'Port Lincoln'
p6009
(lp6010
S'1105131'
p6011
asS'Point Pedro'
p6012
(lp6013
S'2189736'
p6014
asS'Pansemal'
p6015
(lp6016
S'2283890'
p6017
asS'Proletarsk'
p6018
(lp6019
S'2123046'
p6020
asS'Perris'
p6021
(lp6022
S'2470680'
p6023
asS'Pertek'
p6024
(lp6025
S'2344327'
p6026
asS'Piggs Peak'
p6027
(lp6028
S'1563445'
p6029
asS'Pocinhos'
p6030
(lp6031
S'444596'
p6032
asS'Pszczyna'
p6033
(lp6034
S'514819'
p6035
asS'Ponte Vedra Beach'
p6036
(lp6037
S'2475042'
p6038
asS'Ponta Grossa'
p6039
(lp6040
S'460545'
p6041
asS'Paragould'
p6042
(lp6043
S'2468214'
p6044
asS'Peraia'
p6045
(lp6046
S'959545'
p6047
asS'Puerto Legu\xc3\xadzamo'
p6048
(lp6049
S'364411'
p6050
asS'Pashkovskiy'
p6051
(lp6052
S'2122761'
p6053
asS'Pittsfield'
p6054
(lp6055
S'2473262'
p6056
asS'Palafrugell'
p6057
(lp6058
S'769242'
p6059
asS'Pudur'
p6060
(lp6061
S'2284620'
p6062
aS'2284620'
p6063
asS'Pumphrey'
p6064
(lp6065
S'2477239'
p6066
asS'Portomaggiore'
p6067
(lp6068
S'721118'
p6069
asS'Premi\xc3\xa0 de Mar'
p6070
(lp6071
S'770783'
p6072
asS'Puerto Ais\xc3\xa9n'
p6073
(lp6074
S'349944'
p6075
asS'Pia\xc3\xa7abu\xc3\xa7u'
p6076
(lp6077
S'443986'
p6078
asS'Porto'
p6079
(lp6080
S'746203'
p6081
asS'Prudent\xc3\xb3polis'
p6082
(lp6083
S'460658'
p6084
asS'Phimai'
p6085
(lp6086
S'1226098'
p6087
asS'Plantation'
p6088
(lp6089
S'2473486'
p6090
asS'Pass Christian'
p6091
(lp6092
S'2469031'
p6093
asS'Pushkin'
p6094
(lp6095
S'2123074'
p6096
asS'Paray-le-Monial'
p6097
(lp6098
S'615629'
p6099
asS'Porcuna'
p6100
(lp6101
S'770496'
p6102
asS'Park Forest'
p6103
(lp6104
S'2468346'
p6105
asS'Pambujan'
p6106
(lp6107
S'1199603'
p6108
asS'Podgorodnoye'
p6109
(lp6110
S'931094'
p6111
asS'Poeldijk'
p6112
(lp6113
S'732767'
p6114
asS'Panciu'
p6115
(lp6116
S'877174'
p6117
asS'Puerto del Carmen'
p6118
(lp6119
S'779198'
p6120
asS'Prainha'
p6121
(lp6122
S'457882'
p6123
asS'Pasto'
p6124
(lp6125
S'368167'
p6126
asS'Palmetto'
p6127
(lp6128
S'2467786'
p6129
asS'Ponorogo'
p6130
(lp6131
S'1048165'
p6132
asS'P\xc3\xa9njamo'
p6133
(lp6134
S'136437'
p6135
asS'Pout'
p6136
(lp6137
S'1416902'
p6138
asS'Panchimalco'
p6139
(lp6140
S'79219'
p6141
asS'Plovdiv'
p6142
(lp6143
S'838804'
p6144
asS'Puurs'
p6145
(lp6146
S'975950'
p6147
asS'Pierre-B\xc3\xa9nite'
p6148
(lp6149
S'616523'
p6150
asS'Probolinggo'
p6151
(lp6152
S'1048176'
p6153
asS'Pedro Carbo'
p6154
(lp6155
S'375809'
p6156
asS'Pivdenne'
p6157
(lp6158
S'930914'
p6159
asS'Patarr\xc3\xa1'
p6160
(lp6161
S'58980'
p6162
asS'Portogruaro'
p6163
(lp6164
S'721116'
p6165
asS'Pokrovskoye'
p6166
(lp6167
S'2068675'
p6168
asS'Portel'
p6169
(lp6170
S'457855'
p6171
asS'Pondicherry'
p6172
(lp6173
S'2295300'
p6174
asS'Pittston'
p6175
(lp6176
S'2473276'
p6177
asS'Palmital'
p6178
(lp6179
S'442566'
p6180
asS'Pijnacker'
p6181
(lp6182
S'732740'
p6183
asS'Porter'
p6184
(lp6185
S'2475567'
p6186
asS'Plan-les-Ouates'
p6187
(lp6188
S'783737'
p6189
asS'P\xc3\xb6\xc3\x9fneck'
p6190
(lp6191
S'685757'
p6192
asS'Prokuplje'
p6193
(lp6194
S'536165'
p6195
asS'Pueblo Nuevo Solistahuac\xc3\xa1n'
p6196
(lp6197
S'137651'
p6198
asS'Pontcharra'
p6199
(lp6200
S'617428'
p6201
asS'Pepper Pike'
p6202
(lp6203
S'2470502'
p6204
asS'Purgstall'
p6205
(lp6206
S'543387'
p6207
asS'Paddington'
p6208
(lp6209
S'1104869'
p6210
asS'Panihati'
p6211
(lp6212
S'2289993'
p6213
asS'Philippsburg'
p6214
(lp6215
S'684979'
p6216
asS'Ponoka'
p6217
(lp6218
S'8710'
p6219
asS'Poggiardo'
p6220
(lp6221
S'720727'
p6222
asS'Peiting'
p6223
(lp6224
S'684452'
p6225
asS'Poggio Renatico'
p6226
(lp6227
S'720773'
p6228
asS'Pod\xc4\x9bbrady'
p6229
(lp6230
S'796218'
p6231
asS'Patra'
p6232
(lp6233
S'959401'
p6234
asS'Ponda'
p6235
(lp6236
S'29028744'
p6237
asS'Parres'
p6238
(lp6239
S'769537'
p6240
asS'Pielavesi'
p6241
(lp6242
S'571353'
p6243
asS'Pantabangan'
p6244
(lp6245
S'1186791'
p6246
asS'Pittsburg'
p6247
(lp6248
S'2473202'
p6249
aS'2473202'
p6250
asS'Puerto Palomas'
p6251
(lp6252
S'137871'
p6253
asS'Pavlodar'
p6254
(lp6255
S'2264769'
p6256
asS'Primero de Enero'
p6257
(lp6258
S'66317'
p6259
asS'Pouzauges'
p6260
(lp6261
S'617779'
p6262
asS'Palatine'
p6263
(lp6264
S'2467571'
p6265
asS'Puebla de la Calzada'
p6266
(lp6267
S'770850'
p6268
asS'Pleidelsheim'
p6269
(lp6270
S'685312'
p6271
asS'Puliyangudi'
p6272
(lp6273
S'29079716'
p6274
asS'Panyam'
p6275
(lp6276
S'1404273'
p6277
asS'Pukalani'
p6278
(lp6279
S'2477182'
p6280
asS'Portico di Caserta'
p6281
(lp6282
S'721068'
p6283
asS'Putte'
p6284
(lp6285
S'975940'
p6286
asS'Pared\xc3\xb3n'
p6287
(lp6288
S'136040'
p6289
asS'Pentecoste'
p6290
(lp6291
S'443819'
p6292
asS'Praya'
p6293
(lp6294
S'1048173'
p6295
asS'Pandhana'
p6296
(lp6297
S'2292526'
p6298
asS'Puerto As\xc3\xads'
p6299
(lp6300
S'369266'
p6301
asS'Panotla'
p6302
(lp6303
S'135921'
p6304
asS'Priego de C\xc3\xb3rdoba'
p6305
(lp6306
S'770808'
p6307
asS'Petite-For\xc3\xaat'
p6308
(lp6309
S'616309'
p6310
asS'Parichha'
p6311
(lp6312
S'2283972'
p6313
asS'Penco'
p6314
(lp6315
S'348903'
p6316
asS'Pasching'
p6317
(lp6318
S'546321'
p6319
asS'Pico Truncado'
p6320
(lp6321
S'466108'
p6322
asS'Peqin'
p6323
(lp6324
S'471311'
p6325
asS'Pilo\xc3\xb1a'
p6326
(lp6327
S'762605'
p6328
asS'Porta Westfalica'
p6329
(lp6330
S'685716'
p6331
asS'Peabody'
p6332
(lp6333
S'2469542'
p6334
asS'Parras de la Fuente'
p6335
(lp6336
S'136077'
p6337
asS'Pindi Gheb'
p6338
(lp6339
S'2211351'
p6340
asS'Priargunsk'
p6341
(lp6342
S'2123020'
p6343
asS'Pf\xc3\xa4ffikon'
p6344
(lp6345
S'783712'
p6346
asS'Pustoshka'
p6347
(lp6348
S'2072648'
p6349
asS'Prairie Village'
p6350
(lp6351
S'28338533'
p6352
asS'Phon Charoen'
p6353
(lp6354
S'1225582'
p6355
asS'Preetz'
p6356
(lp6357
S'685879'
p6358
asS'Pedra'
p6359
(lp6360
S'443421'
p6361
asS'Pornichet'
p6362
(lp6363
S'617504'
p6364
asS'Pontotoc'
p6365
(lp6366
S'2475065'
p6367
asS'Palos de la Frontera'
p6368
(lp6369
S'769323'
p6370
asS'Pleinfeld'
p6371
(lp6372
S'685318'
p6373
asS'Piedecuesta'
p6374
(lp6375
S'368225'
p6376
asS'Palana'
p6377
(lp6378
S'2124800'
p6379
asS'Pearland'
p6380
(lp6381
S'2469725'
p6382
asS'Pontefract'
p6383
(lp6384
S'32282'
p6385
asS'Pistoia'
p6386
(lp6387
S'720644'
p6388
asS'Porcari'
p6389
(lp6390
S'721034'
p6391
asS'Pinamalayan'
p6392
(lp6393
S'1199650'
p6394
asS'Paracale'
p6395
(lp6396
S'1199627'
p6397
asS'Petit Go\xc3\xa2ve'
p6398
(lp6399
S'95706'
p6400
asS'Plouzan\xc3\xa9'
p6401
(lp6402
S'617039'
p6403
asS'Pedroso'
p6404
(lp6405
S'745426'
p6406
asS'Paoua'
p6407
(lp6408
S'1309918'
p6409
asS'Parit Raja'
p6410
(lp6411
S'1154990'
p6412
asS'Papalotla'
p6413
(lp6414
S'135961'
p6415
asS'Panipat'
p6416
(lp6417
S'2295049'
p6418
asS'Paratinga'
p6419
(lp6420
S'460386'
p6421
asS'Pa\xc3\xa7os de Ferreira'
p6422
(lp6423
S'744921'
p6424
asS'P\xc3\xa9tange'
p6425
(lp6426
S'979831'
p6427
asS'Ponzano Veneto'
p6428
(lp6429
S'20137731'
p6430
asS'Punta Gorda'
p6431
(lp6432
S'57424'
p6433
aS'2477300'
p6434
asS'Palapag'
p6435
(lp6436
S'1199597'
p6437
asS'Panthersville'
p6438
(lp6439
S'2468053'
p6440
asS'Procida'
p6441
(lp6442
S'721338'
p6443
asS'Prachin Buri'
p6444
(lp6445
S'1226117'
p6446
asS'Paragua\xc3\xa7u Paulista'
p6447
(lp6448
S'457739'
p6449
asS'Pennadam'
p6450
(lp6451
S'2294400'
p6452
asS'P\xc3\xb6cking'
p6453
(lp6454
S'685425'
p6455
asS'Peru'
p6456
(lp6457
S'2470841'
p6458
aS'2470841'
p6459
asS'Portage'
p6460
(lp6461
S'2475538'
p6462
aS'2475538'
p6463
aS'2475538'
p6464
asS'Para\xc3\xadba do Sul'
p6465
(lp6466
S'442726'
p6467
asS'Praia Grande'
p6468
(lp6469
S'457880'
p6470
asS'Papayal'
p6471
(lp6472
S'419110'
p6473
asS'Pemba'
p6474
(lp6475
S'1558779'
p6476
asS'Puerto Cortez'
p6477
(lp6478
S'106176'
p6479
asS'Paracho de Verduzco'
p6480
(lp6481
S'135974'
p6482
asS'Phitsanulok'
p6483
(lp6484
S'1226099'
p6485
asS'Padrauna'
p6486
(lp6487
S'29117496'
p6488
asS'Pe\xc3\xa7anha'
p6489
(lp6490
S'456399'
p6491
asS'Pililla'
p6492
(lp6493
S'1187735'
p6494
asS'Pe\xc3\xb1aranda de Bracamonte'
p6495
(lp6496
S'769839'
p6497
asS'Pa Pae'
p6498
(lp6499
S'55945975'
p6500
asS'Penistone'
p6501
(lp6502
S'31684'
p6503
asS'Pardubice'
p6504
(lp6505
S'795793'
p6506
asS'Paran\xc3\xa1'
p6507
(lp6508
S'466059'
p6509
asS'Pojo'
p6510
(lp6511
S'571559'
p6512
asS'Payson'
p6513
(lp6514
S'2469506'
p6515
aS'2469506'
p6516
asS'Page'
p6517
(lp6518
S'2467429'
p6519
asS'Prospect'
p6520
(lp6521
S'28586942'
p6522
aS'2476887'
p6523
asS'Palompon'
p6524
(lp6525
S'1199600'
p6526
asS'Palatka'
p6527
(lp6528
S'2467581'
p6529
asS'Paraipaba'
p6530
(lp6531
S'442730'
p6532
asS'Pigkawayan'
p6533
(lp6534
S'1187645'
p6535
asS'Pyongyang'
p6536
(lp6537
S'1079132'
p6538
asS'Puerto Bol\xc3\xadvar'
p6539
(lp6540
S'374272'
p6541
as.