(dp1
S'Denmark'
p2
(lp3
S'23424796'
p4
asS"Democratic People's Republic Of Korea"
p5
(lp6
S'23424865'
p7
asS'Djibouti'
p8
(lp9
S'23424797'
p10
asS'Deutschland'
p11
(lp12
S'23424829'
p13
asS'Dominican Republic'
p14
(lp15
S'23424800'
p16
asS'Dominica'
p17
(lp18
S'23424798'
p19
as.