(dp1
S'Honduras'
p2
(lp3
S'23424841'
p4
asS'Holy See (Vatican City State)'
p5
(lp6
S'23424986'
p7
asS'Hungary'
p8
(lp9
S'23424844'
p10
asS'Haiti'
p11
(lp12
S'23424839'
p13
asS'Hong Kong'
p14
(lp15
S'24865698'
p16
asS'Holy See'
p17
(lp18
S'23424986'
p19
as.