(dp1
S'Israel'
p2
(lp3
S'23424852'
p4
asS'Iran'
p5
(lp6
S'23424851'
p7
asS'Ivory Coast'
p8
(lp9
S'23424854'
p10
asS'Iran, Islamic Republic Of'
p11
(lp12
S'23424851'
p13
asS'Indonesia'
p14
(lp15
S'23424846'
p16
asS'India'
p17
(lp18
S'23424848'
p19
asS'Islamic Republic Of Iran'
p20
(lp21
S'23424851'
p22
asS'Ireland'
p23
(lp24
S'23424803'
p25
asS'Iceland'
p26
(lp27
S'23424845'
p28
asS'Italy'
p29
(lp30
S'23424853'
p31
asS'Iraq'
p32
(lp33
S'23424855'
p34
as.