(dp1
S'Romania'
p2
(lp3
S'23424933'
p4
asS'R\xc3\xa9union'
p5
(lp6
S'23424931'
p7
asS'Republic Of Moldova'
p8
(lp9
S'23424885'
p10
asS'Rwanda'
p11
(lp12
S'23424937'
p13
asS'Republic Of Korea'
p14
(lp15
S'23424868'
p16
asS'Reunion'
p17
(lp18
S'23424931'
p19
asS'Russian Federation'
p20
(lp21
S'23424936'
p22
asS'Russia'
p23
(lp24
S'23424936'
p25
as.