(dp1
S'Quirenz'
p2
(lp3
S'0.0001'
p4
asS'Quisek'
p5
(lp6
S'0.0002'
p7
asS'Queisner'
p8
(lp9
S'0.0002'
p10
asS'Quis'
p11
(lp12
S'0.0008'
p13
asS'Quarda'
p14
(lp15
S'0.0004'
p16
asS'Quinn'
p17
(lp18
S'0.0001'
p19
asS'Quast'
p20
(lp21
S'0.0002'
p22
asS'Quittek'
p23
(lp24
S'0.0004'
p25
asS'Quaiser'
p26
(lp27
S'0.0009'
p28
asS'Quadr\xc3\x81t'
p29
(lp30
S'0.0002'
p31
asS'Quitta'
p32
(lp33
S'0.0002'
p34
asS'Quirenc'
p35
(lp36
S'0.0002'
p37
asS'Quirsfeld'
p38
(lp39
S'0.0003'
p40
asS'Quitt'
p41
(lp42
S'0.0008'
p43
asS'Qualizza'
p44
(lp45
S'0.0002'
p46
as.