(dp1
S'BIFE'
p2
S'Business Intelligence and Financial Engineering'
p3
sS'BIOSIG'
p4
S'Biometrics and Electronic Signatures'
p5
sS'BIBM'
p6
S'IEEE International Conference on Bioinformatics and Biomedicine'
p7
sS'BIBE'
p8
S'IEEE International Conference on Bioinformatics and Bioengineering'
p9
sS'BCC'
p10
S'British Combinatorial Conference'
p11
sS'BLISS'
p12
S'Bio-inspired, Learning, and Intelligent Systems for Security'
p13
sS'BNCOD'
p14
S'British National Conference on Databases'
p15
sS'BMEI'
p16
S'International Conference on BioMedical Engineering and Informatics'
p17
sS'BMVC'
p18
S'British Machine Vision Conference'
p19
sS'BIWIT'
p20
S'Basque International Workshop on Information Technology'
p21
sS'BIOSTEC'
p22
S'International Joint Conference on Biomedical Engineering Systems and Technologies'
p23
sS'BroadCom'
p24
S'International Conference on Broadband Communications, Information Technology & Biomedical Applications'
p25
sS'BSN'
p26
S'Wearable and Implantable Body Sensor Networks'
p27
sS'BMCV'
p28
S'Biologically Motivated Computer Vision'
p29
sS'BMAS'
p30
S'IEEE International Behavioral Modeling and Simulation Conference'
p31
sS'BPSC'
p32
S'Business Process and Services Computing'
p33
sS'BIS'
p34
S'Business Information Systems'
p35
sS'BSB'
p36
S'Brazilian Symposium on Bioinformatics'
p37
sS'BNAIC'
p38
S'Belgium-Netherlands Conference on Artificial Intelligence'
p39
sS'BDA'
p40
S'Journ\xc3\xa9es Bases de Donn\xc3\xa9es Avanc\xc3\xa9es'
p41
sS'BCGBC'
p42
S'Bioinformatics, Computational Biology, Genomics and Chemoinformatics'
p43
sS'BPM'
p44
S'Business Process Management'
p45
sS'BioMED'
p46
S'Biomedical Engineering'
p47
sS'BERTINORO'
p48
S'Bertinoro Workshops'
p49
sS'BIOCOMP'
p50
S'Bioinformatics & Computational Biology'
p51
sS'BCEC'
p52
S'Biocomputing and Emergent Computation'
p53
sS'BNT'
p54
S'Broadband Networking Technologies'
p55
sS'BIOADIT'
p56
S'Biologically Inspired Approaches to Advanced Information Technology'
p57
sS'BVAI'
p58
S'Brain, Vision, and Artificial Intelligence'
p59
sS'BTW'
p60
S'Datenbanksysteme in B\xc3\xbcro, Technik und Wissenschaft(German Database Conference)'
p61
sS'BDIM'
p62
S'International Workshop on Business-Driven IT Management'
p63
sS'BSDIA'
p64
S'Brazilian Symposium on Document Image Analysis'
p65
sS'BIRD'
p66
S'Bioinformatics Research and Development'
p67
sS'BROADNETS'
p68
S'International Conference on Broadband Networks'
p69
sS'BASYS'
p70
S'IFIP / SOCOLNET Working Conference on Information Technology Balanced Automation'
p71
sS'BIRTE'
p72
S'Business Intelligence for the Real-Time Enterprises'
p73
s.