(dp1
S'HotOS(WWOS)'
p2
S'Workshop on Workstation Operating Systems (now HotOS)/Workshop on Hot Topics in Operating Systems'
p3
sS'HAID'
p4
S'Haptic and Audio Interaction Design'
p5
sS'HIPEAC'
p6
S'High Performance Embedded Architectures and Compilers'
p7
sS'HiPC'
p8
S'International Conference on High Performance Computing'
p9
sS'HAIS'
p10
S'Hybrid Artificial Intelligence Systems'
p11
sS'HPCA'
p12
S'International Symposium on High-Performance Computer Architecture'
p13
sS'HPCC'
p14
S'High Performance Computing and Communications'
p15
sS'HM'
p16
S'Hybrid Metaheuristics'
p17
sS'HIP'
p18
S'Human Interactive Proofs'
p19
sS'HSNC'
p20
S'History of Scientific and Numeric Computation'
p21
sS'HIS'
p22
S'Hybrid Intelligent Systems'
p23
sS'HPCS'
p24
S'International Symposium on High Performance Computing Systems'
p25
sS'HINC'
p26
S'History of Nordic Computing'
p27
sS'HotNets'
p28
S'ACM Workshop on Hot Topics in Networks'
p29
sS'HPTS'
p30
S'High Performance Transaction Systems'
p31
sS'HMI'
p32
S'History of Medical Informatics'
p33
sS'HIM'
p34
S'Hypertext, Information Retrieval, Multimedia'
p35
sS'Hypertext(UK)'
p36
S'UK Conference on Hypertext'
p37
sS'HSNMC'
p38
S'High Speed Networks and Multimedia Communications'
p39
sS'HOA'
p40
S'Higher-Order Algebra, Logic and Term Rewriting'
p41
sS'HASE'
p42
S'High-Assurance Systems'
p43
sS'HPW'
p44
S'History of Personal Workstations'
p45
sS'Hot Interconnects'
p46
S'IEEE Symposium on High Performance Interconnects'
p47
sS'HPCNCS'
p48
S'High Performance Computing, Networking and Communication Systems'
p49
sS'HCC'
p50
S'Human Choice and Computers'
p51
sS'HPDC'
p52
S'International Symposium on High Performance Distributed Computing'
p53
sS'HRI'
p54
S'Human-Robot Interaction'
p55
sS'HCC(VL)'
p56
S'Visual Languages/Human-Centric Computing Languages and Environments'
p57
sS'HCI'
p58
S'Human-Computer Interaction'
p59
sS'HDMS'
p60
S'Hellenic Data Management Symposium'
p61
sS'HICSS'
p62
S'Hawaii International Conference on System Sciences'
p63
sS'HIKM'
p64
S'Healthcare Information and Knowledge Management'
p65
sS'HotOS'
p66
S'Workshop on Hot Topics in Operating Systems'
p67
sS'HVC'
p68
S'Haifa Verification Conference'
p69
sS'HLT'
p70
S'Human Language Technology'
p71
sS'HotMobile'
p72
S'International Workshop on Mobile Computing Systems and Applications'
p73
sS'HPCN Europe'
p74
S'High-Performance Computing and Networking'
p75
sS'Haskell'
p76
S'Haskell'
p77
sS'HLK'
p78
S'Higher-Level Knowledge in 3D Modeling and Motion Analysis'
p79
sS'HIPS'
p80
S'High-Level Parallel Programming Models and Supportive Environments'
p81
sS'HOPL'
p82
S'History of Programming Languages Conference'
p83
sS'HWWS'
p84
S'SIGGRAPH/EUROGRAPHICS Workshop On Graphics Hardware'
p85
sS'Hypercube'
p86
S'Hypercube Concurrent Computers and Applications'
p87
sS'Hypertext'
p88
S'ACM Conference on Hypertext'
p89
sS'HOTI'
p90
S'IEEE Hot Interconnects'
p91
s.