(dp1
sS'XP Universe'
p2
S'Extreme Programming'
p3
sS'XMLSEC'
p4
S'Workshop On XML Security'
p5
sS'XSW'
p6
S'XML Technologien f\xc3\xbcr das Semantic Web'
p7
sS'XSym'
p8
S'International XML Database Symposium'
p9
sS'XML Security'
p10
S'XML Security'
p11
sS'XIME-P'
p12
S'International Workshop on XQuery Implementation, Experience and Perspectives'
p13
sS'XPS'
p14
S'Knowledge-Based Systems'
p15
sS'XP'
p16
S'Workshops on Database Theory'
p17
sS'XMIDX'
p18
S'XMIDX'
p19
s.
