(dp1
S'3DPVT'
p2
S'3D Data Processing Visualization and Transmission'
p3
sS'3D-GIS'
p4
S'3D Geo Information Systems'
p5
sS'3DIM'
p6
S'International Conference on 3-D Imaging and Modeling'
p7
sS'3DICA'
p8
S'Three-Dimensional Image Capture and Applications'
p9
s.