(dp1
S'Xes\xc3\x9as'
p2
(lp3
S'1'
asS'Xuan'
p4
(lp5
S'1'
aS'1'
asS'Xo\xc3\x81n'
p6
(lp7
S'1'
asS'Xue'
p8
(lp9
S'1'
asS'Xander'
p10
(lp11
S'1'
aS'1'
asS'Xzavier'
p12
(lp13
S'1'
asS'Xanti'
p14
(lp15
S'1'
asS'Xurxo'
p16
(lp17
S'1'
asS'Xun'
p18
(lp19
S'1'
asS'Xaver'
p20
(lp21
S'1'
asS'Xos\xc3\x89'
p22
(lp23
S'1'
asS'Ximun'
p24
(lp25
S'1'
asS'Xavier'
p26
(lp27
S'1'
aS'1'
aS'1'
aS'1'
asS'Xiang'
p28
(lp29
S'1'
asS'Xavior'
p30
(lp31
S'1'
asS'Xabier'
p32
(lp33
S'1'
aS'1'
asS'Xolani'
p34
(lp35
S'1'
as.