(dp1
S'BETASAND'
p2
(lp3
S'Low-cost, fluidised tube, flash microwave thermal oxidisation for recycling of used foundry sand into high quality beta phase core sand for use by sme casters'
p4
asS'BLOODSIM'
p5
(lp6
S'HPCN-enabled simulation of cardiovascular and other biomedical flow problems'
p7
asS'BALCARD'
p8
(lp9
S'BALkan CARD'
p10
a(lp11
S'BALkan CARD'
p12
aasS'BAKERY TRAINING XXI'
p13
(lp14
S'Changes and training needs self-detection in the bakery to face the XXI century'
p15
asS'BIBDEL'
p16
(lp17
S'Libraries without Walls: the Delivery of Library Services to Distant Users'
p18
asS'BIOTEC-MED'
p19
(lp20
S'Biological and medical knowledge: technobiological and socio-economic change'
p21
asS'BIOFEAT'
p22
(lp23
S'Biodiesel fuel processor for a fuel cell auxiliary power unit for a vehicle'
p24
asS'BAKE'
p25
(lp26
S'Bayesian knowledge extractor'
p27
asS'BIOWATSYST'
p28
(lp29
S'A system approach to wastewater biotreatment for the protection of Mediterranean coastal areas'
p30
asS'BALTICTIME'
p31
(lp32
S'Reinforcing eGovernment services in Baltic States through legal and accountable digital Time stamp'
p33
a(lp34
S'Reinforcing eGovernment services in Baltic States through legal and accountable digital Time stamp'
p35
aasS'BUILD-NOVA'
p36
(lp37
S'Building innovation in the European Construction Sector'
p38
asS'BLUE SEED'
p39
(lp40
S'Technology development for a reliable supply of high quality seed in blue mussel farming'
p41
asS'BTG2008'
p42
(lp43
S'Bridging the gap conference'
p44
asS'BASELINE'
p45
(lp46
S'Natural baseline quality in european aquifers: a basis for aquifer management'
p47
a(lp48
S'Selection and improving of fit-for-purpose sampling procedures for specific foods and risks'
p49
aa(lp50
S'BASELINE DATA FOR USER VALIDATION IN INFORMATION ENGINEERING'
p51
aasS'BAT-SUPPORT'
p52
(lp53
S'Best available techniques for European intensive livestock Farming - Support for the implementation of the IPPC-Directive'
p54
asS'BACTERIA IBD'
p55
(lp56
S'Identification of the mechanisms by which Helicobacter induces intestinal inflammation'
p57
asS'BASACT'
p58
(lp59
S'Building and sharing a culture of complexity through training'
p60
asS'BWN'
p61
(lp62
S'Broad-Site Local Wideband Communication System'
p63
asS'BENWOOD'
p64
(lp65
S'Coordination actions in support of sustainable and eco-efficient short rotation forestry in CDM countries'
p66
asS'BIOGEOMORPHESII'
p67
(lp68
S'Biogeomorphodynamic modelling of Estuaries for Management purposes'
p69
asS'BOOST'
p70
(lp71
S'Broadband Object-Oriented Service Technology'
p72
asS'BELTLESS ENGINE'
p73
(lp74
S'Validation of fully electrical controlled 14v/42v power components for internal combustion engine including the total thermal management'
p75
asS'BINDING GASTRIN'
p76
(lp77
S'Therapeutic synthetic antibodies -binding bodies- against gastrin to treat pancreatic cancer'
p78
asS'BASAL BREAST CANCER'
p79
(lp80
S'Characterization of myoepithelial differentiation in basal-like breast cancer cells'
p81
asS'BIOTEST'
p82
(lp83
S'Biometrics test services'
p84
asS'BIO-STIRLING'
p85
(lp86
S'Small-Scale Chp Plant Based on a Hermetic Four-Cylinder Stirling Engine for Biomass Fuels'
p87
asS'BED'
p88
(lp89
S'AN INNOVATIVE DIAGNOSE TOOL FOR EUROPEAN FARM MACHINERY REPAIRERS'
p90
asS'BEE'
p91
(lp92
S'Biomass energy Europe'
p93
a(lp94
S'Business Environment of Biometrics involved in electronic commerce'
p95
aa(lp96
S'Business Environment of Biometrics involved in electronic commerce'
p97
aasS'BIOMOFS'
p98
(lp99
S'Bioapplications of metal organic frameworks'
p100
asS'BIONANO-SWITCH'
p101
(lp102
S'A biological nanoactuator as a molecular switch for biosensing'
p103
asS'BIOSCALE'
p104
(lp105
S'Upscaling and modelling the influences of BIOturbation activities on sediment erosion at the SCALE of the Westerschelde estuary'
p106
asS'BONDING OF BE TO CUC'
p107
(lp108
S'Further Optimisation of the Bonding of Be to CuCrZr'
p109
asS'BIOTIC'
p110
(lp111
S'Biotechnical functionalization of (bio)polymeric textile surfaces'
p112
asS'BIOREP'
p113
(lp114
S'Permanent inventory of biotechnology research projects in the European Communities'
p115
asS'BIORES'
p116
(lp117
S'Meeting a Biodiversity Researcher'
p118
asS'BORATEC'
p119
(lp120
S'Development and Utilization of a Complete Directional Borehole Radar System with a Maximum Operating Depth of 2500 Meters'
p121
asS'BIOFLEX RENEW'
p122
(lp123
S'Biocompatible flexible polymer alloys based on polyesters from renewable resources for mass- consumer applications involving contact with human fluids and tissues'
p124
asS'BRAIN BIOENERGETICS'
p125
(lp126
S'Brain Bioenergetics'
p127
asS'BIOLAC'
p128
(lp129
S'Toward Biodiversity Conservation, Sustainable Use and Benefit-Sharing in Latin America and the Caribbean.'
p130
asS'BIOLAB'
p131
(lp132
S'An Integrated Biomedical Laboratory'
p133
asS'BIRD'
p134
(lp135
S'Better infrastructures for rural development'
p136
asS'BETTI'
p137
(lp138
S'BENCHMARK TOOL TO IMPROVE PRODUCTION PERFORMANCE'
p139
asS'BIO-H2'
p140
(lp141
S"Production of clean hydrogen for fuel cells by reformation of bioethanol ('BIO-H2')"
p142
asS'BINOCULARS'
p143
(lp144
S'Biogeochemical nutrients cycling in large rivers systems'
p145
asS'BENSC'
p146
(lp147
S'Berlin neutron scattering center (BENSC)'
p148
a(lp149
S'Berlin neutron scattering center (BENSC)'
p150
aasS'BLUMERIA EFFECTORS'
p151
(lp152
S'FUNCTIONAL ANALYSIS OF THE BLUMERIA HAUSTORIA - BARLEY INTERACTOME'
p153
asS'BINASP'
p154
(lp155
S'Bio-Nano European Infrastructure in AREA Science Park'
p156
asS'BUGDEATH'
p157
(lp158
S'Predicting microbial death during heat treatments on foods'
p159
asS'BICEPS'
p160
(lp161
S'Building an information capacity for environmental protection and security'
p162
a(lp163
S'Biogas integrated concept a European Program for sustainability'
p164
aa(lp165
S'Building Industry Co-ordinated Education Packages'
p166
aasS'BIO CIRCLE'
p167
(lp168
S'Creating a circle by extending the BIO NCP network to Third Country NIPs'
p169
asS'BRAINSYNC'
p170
(lp171
S'Large scale interactions in brain networks and their breakdown in brain diseases'
p172
asS'BIOSAP'
p173
(lp174
S'Biotreatment of alternating recalcitrant pollutants in wastewaters'
p175
asS'BIOCORE'
p176
(lp177
S'Biocommodity refinery'
p178
asS'BIUSEM'
p179
(lp180
S'Benefits of Integrating Usability and Software Engineering Methods'
p181
asS'BOEMIE'
p182
(lp183
S'Bootstrapping ontology evolution with multimedia information extraction'
p184
a(lp185
S'Bootstrapping ontology evolution with multimedia information extraction'
p186
aasS'BELIEF-II'
p187
(lp188
S"Bringing Europe's electronic infrastructures to expanding frontiers II"
p189
asS'BIOPOLITICS'
p190
(lp191
S'The epistemology of biopolitics'
p192
asS'BEATRIX FAHNERT'
p193
(lp194
S'Native production of wnts as an example for cystine-rich proteins'
p195
asS'BRAINHEALTHFOOD'
p196
(lp197
S'Bioactive compounds from blackcurrant processing waste for brain health'
p198
a(lp199
S'Bioactive compounds from blackcurrant processing waste for brain health'
p200
aasS'BETACELLTREAT'
p201
(lp202
S'Control of beta-cell propagation for diabetes treatment'
p203
asS'BARBACANNE MARIE-ALI'
p204
(lp205
S'Studies on the uptake of flavonoids in humans and their metabolic fate'
p206
asS'BIOREF-INTEG'
p207
(lp208
S'Development of advanced biorefinery schemes to be integrated into existing industrial fuel producing complexes'
p209
asS'BILAT SILK'
p210
(lp211
S'Bilateral support for the international linkage with Kina'
p212
asS'BITES'
p213
(lp214
S'Biofuels technologies european showcase'
p215
a(lp216
S'Biomechanical interactions in tissue engineering and surgical repair'
p217
aasS'BITER'
p218
(lp219
S'Benchmarking in training in the field of European rolling mills - benchmarking in training'
p220
asS'BASNET'
p221
(lp222
S'BALTIC STATES NETWORK "WOMEN IN SCIENCES AND HIGH TECHNOLOGY"'
p223
asS'BHLFLS'
p224
(lp225
S'BIOPHOTONICS 2000 - Harnessing light for life sciences'
p226
asS'BECKSDIMA2003'
p227
(lp228
S'MEMS/Porous-Silicon to MCM-D Technology Matching'
p229
asS'BUSYSHOES'
p230
(lp231
S'Business process improvement for the shoe industry by the utilisation of object oriented software engineering methods'
p232
asS'BIOCET'
p233
(lp234
S'Bioaccumulation of persistent organic pollutants in small cetaceans in european waters : transport pathways and impact on reproduction (BIOCET)'
p235
asS'BODYBUILT'
p236
(lp237
S'Building The Vertebrate Body'
p238
asS'BIOSOLENUTI'
p239
(lp240
S'Bio-inspired solar energy utilization'
p241
asS'BIOFILM DISPERSAL'
p242
(lp243
S'Microbial persuasion: cross-species triggering of biofilm dispersal as a competitive strategy in marine Bacilli'
p244
asS'BIO VENTURE EAST'
p245
(lp246
S'Biotech venture academy coaching programme for NAS biotech companies seeking to raise investment'
p247
asS'BIOPATTERN'
p248
(lp249
S'Computational intelligence for Bio-pattern analysis in support of eHealthcare'
p250
a(lp251
S'Computational intelligence for Bio-pattern analysis in support of eHealthcare'
p252
aasS'BIO_MGT'
p253
(lp254
S'Innovative small scale polygeneration system combining biomass and natural gas in a micro gas turbine'
p255
asS'BRAINABLE'
p256
(lp257
S'Autonomy and social inclusion through mixed reality Brain-Computer Interfaces: Connecting the disabled to their physical and social world'
p258
a(lp259
S'Autonomy and social inclusion through mixed reality Brain-Computer Interfaces: Connecting the disabled to their physical and social world'
p260
aasS'BEST-PM'
p261
(lp262
S'Beyond the Standards : Process Modelling'
p263
asS'BIDPREP'
p264
(lp265
S'An Integrated System for Simultaneous Bid Preparation'
p266
asS'BCHI FOR AD THERAPY'
p267
(lp268
S"Discovery and evaluation of novel butyrylcholinesterase inhibitors for the treatment of Alzheimer's disease"
p269
asS'BENTE MADSEN'
p270
(lp271
S'Functional studies of a novel gene specifically up-regulated in breast cancer'
p272
asS'BIO-SHELTER'
p273
(lp274
S'A novel, innovative and sustainable technique for the manufacture of biodegradable tree shelters with a know life'
p275
asS'BEYONDSMFROMDATA'
p276
(lp277
S'Physics beyond the Standard Model: establishing footprints in the light of data'
p278
asS'BRAIN DEVELOPMENT'
p279
(lp280
S'Brain development'
p281
asS'BIOWOOD'
p282
(lp283
S'Extraction of natural biocides from wine, manufacture wastes for use in wood preservatives'
p284
asS'BESHA'
p285
(lp286
S'Genomics and Benefit Sharing with Developing Countries'
p287
asS'BIOWOOL'
p288
(lp289
S'Enzymatic modification of wool (BIOWOOL)'
p290
asS'BIOBEARING'
p291
(lp292
S'Bio and slide bearings, their lubrication by non-newtonian oils and application in non-conventional systems'
p293
asS'BIND'
p294
(lp295
S'Biology of Neuro-degenerative Diseases Research'
p296
a(lp297
S'Bayesian inference in neural dynamics: linking biophysical and computational approaches to neuroscience'
p298
aa(lp299
S'Biaxial nematic devices'
p300
aa(lp301
S'Biaxial nematic devices'
p302
aasS'BALTPORTS-IT'
p303
(lp304
S'Simulation and IT-Solutions: Applications in the Baltic Ports  Areas of the Newly Associated States'
p305
a(lp306
S'Simulation and IT-Solutions: Applications in the Baltic Ports  Areas of the Newly Associated States'
p307
aasS'BIOALGAESORB'
p308
(lp309
S'Enabling European SMEs to remediate wastes, reduce GHG emissions and produce biofuels via microalgae cultivation'
p310
asS'BIOSOD'
p311
(lp312
S'Development of an autonomous biomass-solar thermally driven distillation system'
p313
a(lp314
S'Development of an autonomous Biomass-Solar Thermally Driven Distillation System'
p315
aasS'BIOTETHED'
p316
(lp317
S'Biotechnology Ethics: deepening by research, broadening to future applications and new EU members, permeating education to young scientists.'
p318
asS'BIOSIGNAL2000'
p319
(lp320
S'Biosignal2000'
p321
a(lp322
S'Biosignal2000'
p323
aasS'BLACK HOLES'
p324
(lp325
S'Numerical models of black hole systems as sources of gravitational radiation'
p326
asS'BRIDGE-IT'
p327
(lp328
S'BRinging Innovative Developments for GEographic Information Technology'
p329
a(lp330
S'BRinging Innovative Developments for GEographic Information Technology'
p331
aasS'BACFUN'
p332
(lp333
S'Bacterial functional genomics: dissemination of cutting-edge technology'
p334
asS'BABEL'
p335
(lp336
S'BABEL: A MULTI - LANGUAGE DATABASE'
p337
a(lp338
S'INTEGRATING CULTURAL DIFFERENCES IN TELEMATICS ENGINEERING'
p339
aasS'BIOJETH'
p340
(lp341
S'Biology and the justification of ethics'
p342
asS'BRAINPOWER'
p343
(lp344
S'Brain energy supply and the consequences of its failure'
p345
asS'BIOPOLTRONIC'
p346
(lp347
S'Development and characterisation of new semi-conducting polymers soluble in environmental-friendly solvents for self-assembled nanostructures and application in advanced electronic devices'
p348
asS'BIOSAFE'
p349
(lp350
S'BIOlogical agents: Strengthening the Adequate response to deliberate releases by the establishment of a Framework European-wide.'
p351
asS'BULAIR'
p352
(lp353
S'Development of an up-to date research infrastructure for air pollution studies in bulgaria'
p354
asS'B-SCATTO'
p355
(lp356
S'SCATter computed TOmography of the Breast: "in vitro" tests and assessment of clinical feasibility'
p357
asS'BIOFUSIN'
p358
(lp359
S'Biocatalytic modification of functionalised surfaces and interfaces'
p360
asS'BIO FE-CLAY BARRIER'
p361
(lp362
S'Bacterial reduction of iron in clay barriers: a new technology for the remediation of organic groundwater contaminants'
p363
asS'BIOTOOL'
p364
(lp365
S'Biological procedures for diagnosing the status and predicting evolution of polluted environments'
p366
asS'BONNEFONT'
p367
(lp368
S'Use of spatial forcing to increase the yield of fuel cells.'
p369
asS'BIOMONAR'
p370
(lp371
S'Biosensor nanoarrays for environmental monitoring'
p372
asS'BRITE'
p373
(lp374
S'Business register interoperability throughout Europe'
p375
a(lp376
S'Business register interoperability throughout Europe'
p377
aasS'B-MAN'
p378
(lp379
S'Business Mobile Agent Networks'
p380
a(lp381
S'Business Mobile Agent Networks'
p382
aasS'BONUS+'
p383
(lp384
S'Multilateral call for research projects within the Joint Baltic Sea Research Programme BONUS+'
p385
asS'BEINGRID'
p386
(lp387
S'Business experiments in GRID'
p388
asS'BICEP'
p389
(lp390
S'Benchmarking complex event processing systems'
p391
asS'BRAIN2BRAIN'
p392
(lp393
S'Towards two-person neuroscience'
p394
asS'BIOFERM'
p395
(lp396
S'Advanced manufacture of industrial bio-products by activated fermentation process (BIOFERM)'
p397
asS'BIOFRESH'
p398
(lp399
S'Biodiversity of freshwater ecosystems: Status, trends, pressures, and conservation priorities'
p400
asS'BOVINOSE'
p401
(lp402
S'Pheromone-based sensor system for detecting estrus in dairy cows'
p403
asS'BUGS-EVOGENOMICS'
p404
(lp405
S'Beetle comparative Genomics and Speciation (BUGS): Genomic tools for the analysis of chromosome changes in the evolution of Coleoptera'
p406
asS'BALRIC-LING'
p407
(lp408
S'BALkan Regional Information Centers for Awareness and Standardisation of LINGuistic Resources and Tools for Advanced HLT Applications'
p409
a(lp410
S'BALkan Regional Information Centers for Awareness and Standardisation of LINGuistic Resources and Tools for Advanced HLT Applications'
p411
aasS'BETSY'
p412
(lp413
S'Being on time saves energy continuous multimedia experiences on networked handheld devices'
p414
a(lp415
S'Being on time saves energy continuous multimedia experiences on networked handheld devices'
p416
aasS'BEC COHERENCE'
p417
(lp418
S'ONSET OF COHERENCE IN BOSE-EINSTEIN CONDENSATES'
p419
asS'BEATRICE-SME'
p420
(lp421
S'Best Enterprise practice using Advanced Technologies in Recycling Industries for e-Commerce and E-business in Small and Medium-sized Enterprises'
p422
a(lp423
S'Best Enterprise practice using Advanced Technologies in Recycling Industries for e-Commerce and E-business in Small and Medium-sized Enterprises'
p424
aasS'BEMUSAC'
p425
(lp426
S'Behaviour of multiphase systems under super-ambient conditions'
p427
asS'BOPA'
p428
(lp429
S'Characterisation and engineering of the biosynthetic pathways of two model pyrrole amide antibiotics, congocidine and distamycin'
p430
asS'BFPS'
p431
(lp432
S'Ensuring the quality of innovative crop growth inputs derived from biological raw materials (biological food for plants) - (BFPs)'
p433
asS'BARBARA APICELLA'
p434
(lp435
S'Structural characterisation of heavy hydrocarbon liquids and of high molecular weight species produced under fuel-rich combustion conditions'
p436
asS'BOPS'
p437
(lp438
S'BACK OFFICE PERFORMANCE SUPPORT'
p439
asS'BHL-Europe'
p440
(lp441
S'Biodiversity Heritage Library for Europe'
p442
asS'B.W.T.G.'
p443
(lp444
S'Bridging the workplace trainer skills gap'
p445
asS'BULRMCNET'
p446
(lp447
S'BULGARIAN NETWORK OF RESEARCH MOBILITY CENTRES'
p448
asS'BENERIS'
p449
(lp450
S'Benefit-risk assessment for food: an iterative value-of-information approach'
p451
asS'BONFIRE'
p452
(lp453
S'Building service testbeds on FIRE'
p454
a(lp455
S'Building service testbeds on FIRE'
p456
aasS'BIOMINTEC'
p457
(lp458
S'Biomineralization: understanding of basic mechanisms for the design of novel strategies in nanobiotechnology'
p459
asS'BORIS'
p460
(lp461
S'Bioavailability of radionuclides in soils: role of biological components and resulting improvement of prediction models'
p462
a(lp463
S'Building confidence in deep disposal : the borehole injection sites at tomsk-7 and krasnoyarsk-26'
p464
aasS'BIONET AGENTS'
p465
(lp466
S'Bioinformatics network for agents researchers'
p467
asS'BRANCHING PLASTICITY'
p468
(lp469
S'Plasticity in the Shoot Branching Regulatory Network'
p470
asS'BASE2'
p471
(lp472
S'BASE2 - Broadband Access Satellite Enabled Education'
p473
asS'BSMLSFMA'
p474
(lp475
S'Beam Stability in Modern Light Sources via Frequency Map Analysis'
p476
asS'BTC'
p477
(lp478
S'Biomass turbine for co-generation (BTC) - Assessment study and pilot project'
p479
asS'BTN'
p480
(lp481
S'Bamboo thematic network'
p482
asS'BTI'
p483
(lp484
S'Broadband trial integration'
p485
asS'BIOFET'
p486
(lp487
S'Portable and disposable biosensor microarray based on FETs with a biofunctional gate to detect VOCs in breath'
p488
asS'BSMOXFORD'
p489
(lp490
S'Physics beyond the standard model at the LHC and with atom interferometers'
p491
asS'BEYOND SOCIAL DIALOG'
p492
(lp493
S'Beyond Social Dialogue'
p494
asS'BALKAN POLIT. CULTUR'
p495
(lp496
S'The peculiarities of the Balkan Political Culture and its Impact upon Interethnic Understanding (The cases of Macedonia, Serbia and Montenegro, and Bulgaria compared with some East-Central European)'
p497
asS'BE LOGIC'
p498
(lp499
S'Benchmarking logistics and co-modality'
p500
asS'BIGTOE'
p501
(lp502
S'Biomass integrated gas turbine operation efficiency'
p503
asS'BELLENCHI FMRP'
p504
(lp505
S'Understanding the molecular mechanisms involved in the fragile X syndrome'
p506
asS'BEANISH'
p507
(lp508
S'Building Europe- Africa collaborative Network for applying IST in health care sector'
p509
a(lp510
S'Building Europe- Africa collaborative Network for applying IST in health care sector'
p511
aasS'B_BICE'
p512
(lp513
S'Brazilian Bureau for enhancing the International cooperation with Europe'
p514
asS'BIOCISE'
p515
(lp516
S'Resource development for a biological collection information service in Europe'
p517
asS'BAVAR 2000'
p518
(lp519
S'Bavar 2000'
p520
a(lp521
S'Bavar 2000'
p522
aasS'BAMFOOD'
p523
(lp524
S'Increasing the productivity of bambara groundnut (vigna subterranea l. verdc) for sustainable food production in semi-arid africa'
p525
asS'BUSILANG'
p526
(lp527
S'Business language workbench: Trans-European assessment and accreditation of vocational language learning'
p528
asS'BRAUN, MATTHIAS'
p529
(lp530
S'Purification. cloning and expression of a 65 kd mdrl-like protein from secretory granules of pancreatic acinar cells and beta-cells'
p531
asS'BBL'
p532
(lp533
S'Broadbandloop'
p534
asS'BIOMEM'
p535
(lp536
S'The Biomembrane: the development of a multifaceted skills base for the new millennium'
p537
a(lp538
S'Interaction between biology and membranes in membrane bioreactors'
p539
aasS'BATMAN'
p540
(lp541
S'EXPERT SYSTEM AS MANAGEMENT TOOL FOR BEST AVAILABLE TECHNIQUES IN TEXTILE WET PROCESSING'
p542
asS'BIOSAFOR'
p543
(lp544
S'Biosaline agroforestry: remediation of saline wastelands through the production of biosaline biomass (for bioenergy, fodder and biomaterials)'
p545
asS'BBC'
p546
(lp547
S'Bi-dimensional bar code'
p548
asS'BSMWLHCB'
p549
(lp550
S'Advanced techniques to Search for Physics Beyond the Standard Model with the LHCb Detector at CERN'
p551
a(lp552
S'Advanced techniques to Search for Physics Beyond the Standard Model with the LHCb Detector at CERN'
p553
aa(lp554
S'Advanced techniques to Search for Physics Beyond the Standard Model with the LHCb Detector at CERN'
p555
aa(lp556
S'Advanced techniques to Search for Physics Beyond the Standard Model with the LHCb Detector at CERN'
p557
aa(lp558
S'Advanced techniques to Search for Physics Beyond the Standard Model with the LHCb Detector at CERN'
p559
aa(lp560
S'Advanced techniques to Search for Physics Beyond the Standard Model with the LHCb Detector at CERN'
p561
aa(lp562
S'Advanced techniques to Search for Physics Beyond the Standard Model with the LHCb Detector at CERN'
p563
aa(lp564
S'Advanced techniques to Search for Physics Beyond the Standard Model with the LHCb Detector at CERN'
p565
aa(lp566
S'Advanced techniques to Search for Physics Beyond the Standard Model with the LHCb Detector at CERN'
p567
aa(lp568
S'Advanced techniques to Search for Physics Beyond the Standard Model with the LHCb Detector at CERN'
p569
aa(lp570
S'Advanced techniques to Search for Physics Beyond the Standard Model with the LHCb Detector at CERN'
p571
aa(lp572
S'Advanced techniques to Search for Physics Beyond the Standard Model with the LHCb Detector at CERN'
p573
aa(lp574
S'Advanced techniques to Search for Physics Beyond the Standard Model with the LHCb Detector at CERN'
p575
aa(lp576
S'Advanced techniques to Search for Physics Beyond the Standard Model with the LHCb Detector at CERN'
p577
aasS'BETA'
p578
(lp579
S'Bipolar epitaxial sige technology for RF-application'
p580
a(lp581
S'Operational Benefit Evaluation by Testing an A-SMGCS'
p582
aa(lp583
S'Operational Benefit Evaluation by Testing an A-SMGCS'
p584
aasS'BRAIN-I-NETS'
p585
(lp586
S'Novel brain-inspired learning paradigms for large-scale neuronal networks'
p587
a(lp588
S'Novel brain-inspired learning paradigms for large-scale neuronal networks'
p589
aasS'BIOBABEL'
p590
(lp591
S'Enhanced interoperability of biological databases by standardisation of biochemical terminology and introduction of a shared ontology (BIOBABEL)'
p592
asS'BABYLON'
p593
(lp594
S'By the Rivers of Babylon: New Perspectives on Second Temple Judaism from Cuneiform Texts'
p595
a(lp596
S'Transnational specialist terminology for innovative vocationally-related methodological research'
p597
aasS'BIOMETSENSOR'
p598
(lp599
S'Development of new multisensing biosensors for the detection of bioavailable heavy metals in solid matrices.'
p600
asS'BBP'
p601
(lp602
S'Broiler breeder production - solving a paradox'
p603
asS'BLOOD-BRAIN BARRIER'
p604
(lp605
S'Mechanisms of blood-brain barrier dysfunction in neurodegenerative disease'
p606
asS'BIOWARM'
p607
(lp608
S'Marine sponges as models for assessing biological effects of the Mediterranean Sea warming'
p609
asS'BASIC COHESION'
p610
(lp611
S'Molecular basis for chromosome cohesion in sporulating cells of Bacillus subtilis'
p612
asS'BIOWARE'
p613
(lp614
S'DEVELOPMENT OF A BIOLOGICAL INTEGRATED PROCESS FOR PURIFYING OLIVE OIL WATER RECOVERING ENERGY AND PRODUCING ALCOHOL'
p615
a(lp616
S'Clean energy recovery from biomass waste & residues (BIOWARE)'
p617
aasS'BRAIN GENES'
p618
(lp619
S'The genetic control of brain development'
p620
asS'BUNYAVIRIDAE ENTRY'
p621
(lp622
S'Cellular factors and pathways in the entry of bunyaviridae'
p623
asS'BONETOX'
p624
(lp625
S'Bone development and homeostasis-critical targets in toxicology. Research to support test-method development and human health risk assessment for dioxins and other endocrine disrupting compounds in the food chain'
p626
asS'BREAD'
p627
(lp628
S'Broadband in Europe for All: a Multi-Disciplinary Approach'
p629
a(lp630
S'Broadband in Europe for All: a Multi-Disciplinary Approach'
p631
aasS'BRIDGE'
p632
(lp633
S'A research initiative on hydrology and soil-vegetation-atmosphere interactions in cutover peatlands'
p634
a(lp635
S'Development of a real-time intelligent diagnosis tool for a large technical applications'
p636
aa(lp637
S'Bilateral research and industrial development enhancing and integrating GRID Enabled Technologies'
p638
aa(lp639
S'EUROPRACTICE - coordination of proactive NAS interaction and an awareness dissemination and exploitation bridge'
p640
aa(lp641
S'EUROPRACTICE - coordination of proactive NAS interaction and an awareness dissemination and exploitation bridge'
p642
aa(lp643
S'Building radio frequency identification solutions for the global environment'
p644
aa(lp645
S'Background cRiteria for the IDentification of Groundwater thrEsholds'
p646
aa(lp647
S'Sustainable urban planning decision support accounting for urban metabolism'
p648
aa(lp649
S'Scoping study of approaches to brokering knowledge and research information to support the development and governance of health systems in Europe'
p650
aa(lp651
S'BROAD INFORMATION DISSEMINATION GATEWAYS FOR ENTERPRISES'
p652
aa(lp653
S'Bilateral research and industrial development enhancing and integrating GRID Enabled Technologies'
p654
aa(lp655
S'EUROPRACTICE - coordination of proactive NAS interaction and an awareness dissemination and exploitation bridge'
p656
aa(lp657
S'Building radio frequency identification solutions for the global environment'
p658
aa(lp659
S'EUROPRACTICE - coordination of proactive NAS interaction and an awareness dissemination and exploitation bridge'
p660
aasS'BIO-LITHO'
p661
(lp662
S'Biomineralization for lithography and microelectronics'
p663
asS'BIMODE'
p664
(lp665
S'Development of bi-functional photovoltaic modules for building integration'
p666
asS'BEETLES AND CAVES'
p667
(lp668
S'Phylogeny and evolution of subterranean European cave beetles (Leptodirinae Cholevidae)'
p669
asS'BIOCEL'
p670
(lp671
S'Biotechnology centre of excellence of lithuania'
p672
asS'BAONPE'
p673
(lp674
S'Biological assessment of natural plant extracts for sustainable agriculture, food, and health through agronomic, nutritional and toxicological trials'
p675
asS'BILLKER, OLIVER'
p676
(lp677
S'Molecular mechanisms regulating gamete formation in malaria parasites'
p678
a(lp679
S'Molecular mechanisms regulating gamete formation in malaria parasites'
p680
aasS'BIOPHYSICS'
p681
(lp682
S'Biophysics'
p683
a(lp684
S'Biophysics'
p685
aa(lp686
S'Biophysics'
p687
aa(lp688
S'Biophysics'
p689
aasS'BIOLYFE'
p690
(lp691
S'Second generation BIOethanol process: demonstration scale for the step of Lignocellulosic hYdrolysis and FErmentation'
p692
asS'BUSIDISS'
p693
(lp694
S'Microsystems Awareness, DISSemination, Coordination & BUSiness Development'
p695
a(lp696
S'Microsystems Awareness, DISSemination, Coordination & BUSiness Development'
p697
aasS'BOOST BIOSYSTEMS'
p698
(lp699
S'BOOST collaboration of SME and academia by initiating RTD consortia in the cross- disciplinary field of BIOSYSTEMS technologies and network the players for a thematic cluster in the ScanBalt BioRegion'
p700
asS'BIOASH'
p701
(lp702
S'Ash and aerosol related problems in biomass combustion and co-firing (BIOASH)'
p703
asS'BLANCHARD DIDIER'
p704
(lp705
S'New complex hydrides for hydrogen storage'
p706
asS'BONEQUAL'
p707
(lp708
S'Assessment of bone quality in metabolic bone diseases'
p709
asS'BIO-PRETREAT'
p710
(lp711
S'Effect of Pre-treatments and/or Additives to the Operational Problems during the Fluidised Bed Gasification of High-Alkali Biomass for the Production of a Hydrogen-rich Gas Stream'
p712
asS'BIO4SURE'
p713
(lp714
S'Biological micro analysis of bacterial pollution for real time analysis of surfaces'
p715
asS'BIOCLAIMS'
p716
(lp717
S'BIOmarkers of Robustness of Metabolic Homeostasis for Nutrigenomics-derived Health CLAIMS Made on Food'
p718
asS'BRAINROBOT'
p719
(lp720
S'Brain computer interface for the control of rehabilitation robots, prostheses and paralysed limbs'
p721
asS'BIOEGOFET'
p722
(lp723
S'Electrolyte-Gated Organic Field-Effect BIOsensors'
p724
asS'BUSINES-LINC'
p725
(lp726
S'Business innovation networks - learning with interractive cases'
p727
asS'BIOACTIVE ANTIBODIES'
p728
(lp729
S'Molecular visualisation of therapeutic antibody activity during recognition and ablation of new-forming blood vessels: an animated 3d explaination.'
p730
asS'BRECOSM'
p731
(lp732
S'Identification of molecular pathways that regulate the organ-specific metastasis of breast cancer'
p733
asS'BUCOGLACER'
p734
(lp735
S'Bubble control in glazes of ceramic products'
p736
asS'BRANCUSI'
p737
(lp738
S'Interactive Multimedia Project: Brancusi'
p739
asS'BALTDYN'
p740
(lp741
S'BALTic DYNamics initiative'
p742
asS'BASICS'
p743
(lp744
S'Bacterial single-cell approaches to the relationship between diversity and fucntion in the sea'
p745
asS'BISON'
p746
(lp747
S'Bisociation networks for creative information discovery'
p748
a(lp749
S'Biology-Inspired techniques for Self-Organization in dynamic Networks'
p750
aa(lp751
S'Biology-Inspired techniques for Self-Organization in dynamic Networks'
p752
aasS'BRACHYTEM'
p753
(lp754
S'Identification of molecular mechanisms involved in temperature perception and signalling in Brachypodium'
p755
asS'BOMOSA'
p756
(lp757
S'Integrating BOMOSA cage fish farming systems in reservoirs, ponds and temporary water bodies in Eastern Africa'
p758
asS'BOBASPIS'
p759
(lp760
S'Integrated approaches to bioprocess optimization of bioactive substances production with plant in vitro systems'
p761
asS'BRAIN REPAIR'
p762
(lp763
S'Molecular and cellular mechanisms of brain repair'
p764
asS'BLIMP1 IN PGCS'
p765
(lp766
S'Molecular mechanism for primordial germ cell specification - the role of Blimp1'
p767
asS'BURNERCAT'
p768
(lp769
S'Catalytic, environmental-friendly, fuel flexible and cost effective burner for domestic boiler'
p770
asS'BPR-FLOW'
p771
(lp772
S'Rapid business process transformation using workflow management techniques'
p773
asS'BERTIE'
p774
(lp775
S'Changes in Driver Behaviour due to the Introduction of RTI Systems'
p776
asS'BIOCELL'
p777
(lp778
S'New Design Methodology For Industrialised, Autonomous And Low-energy Demand Cellular Buildings'
p779
a(lp780
S'New design methodology for industrialised, autonomous and low-energy demand cellular buildings'
p781
aa(lp782
S'Evolutionary model supported design of whole-cell biocatalysts'
p783
aa(lp784
S'Evolutionary model supported design of whole-cell biocatalysts'
p785
aasS'BIOPAL'
p786
(lp787
S'Algae as raw material for production of bioplastics and biocomposites contributing to sustainable development of European coastal regions'
p788
asS'BENT-PAC'
p789
(lp790
S'Build and evaluate a new training path for air traffic controllers'
p791
asS'BONEMIM'
p792
(lp793
S'A Novel Biomimetic Bone-like Material'
p794
asS'BRAIN IMAGING'
p795
(lp796
S'Investigation of auditory plasticity using MEG and f MRI'
p797
asS'BIOFUELTP'
p798
(lp799
S'Biofuels Technology Platform Secretariat'
p800
asS'BUN'
p801
(lp802
S'Bottom-Up Nanomachines'
p803
a(lp804
S'Bottom-Up Nanomachines'
p805
aasS'BEMET'
p806
(lp807
S'Biotechnology in Europe manpower education and training'
p808
asS'B1 INTEGRIN IN SKIN'
p809
(lp810
S'Function of b1 integrin during skin disease (B1 INTEGRIN IN SKIN)'
p811
asS'BIOCOGEN'
p812
(lp813
S'Biomass cogeneration network (BIOCOGEN)'
p814
asS'BACELL FACTORY'
p815
(lp816
S'Engineering of the cellular quality control systems in bacillus subtilis for the production of high value-added proteins'
p817
asS'BUTIES'
p818
(lp819
S'The role of Butyrophilin-like molecule 1 in intestinal epithelial cell-T cell interactions and immune surveillance'
p820
asS'BIOWULF'
p821
(lp822
S'Speeding-up Biocomputing applications using a commodity-based parallel computer'
p823
a(lp824
S'Speeding-up Biocomputing applications using a commodity-based parallel computer'
p825
aasS'BBSBF'
p826
(lp827
S'Baltic biotech science and business forum'
p828
asS'BABBLE@SISSA'
p829
(lp830
S'Bilingualism and brain plasticity: a multidisciplinary adaptive workshop'
p831
asS'BIOPEPCURE'
p832
(lp833
S'Production of hypoallergenic soy products exhibiting bioactive peptides throughout fermentation technology'
p834
asS'BIRTH DEFECTS'
p835
(lp836
S'Study of genetic and environmental factors in the pathogenesis of the most frequent chromosomal anomalies'
p837
asS'BCLYM'
p838
(lp839
S'Molecular mechanisms of mature B cell lymphomagenesis'
p840
asS'BATMARE'
p841
(lp842
S'Bergen advanced training site in marine ecology'
p843
asS'BCI'
p844
(lp845
S'Basic and clinical immunology, new concepts and therapeutic perspectives (BCI)'
p846
asS'BACTERIAL COLONY SIM'
p847
(lp848
S'Multiscale modeling and simulation of bacterial colonies'
p849
asS'BLACK HOLES - BPS'
p850
(lp851
S'Black holes, BPS states and topological string theory'
p852
asS'BETACELLTHERAPY'
p853
(lp854
S'Beta cell programming for treatment of diabetes'
p855
a(lp856
S'Beta cell therapy in Diabetes'
p857
aasS'BEYOND NEUTRINO MASS'
p858
(lp859
S'From neutrino mass phenomenology to the particle physics theory beyond the Standard Model and related signatures in cosmology and colliders'
p860
asS'BIOREGIONS'
p861
(lp862
S'Creation of a biotechnology cluster network across Europe'
p863
asS'BLG'
p864
(lp865
S'Benchlearning - advanced organisational learning'
p866
asS'BCR'
p867
(lp868
S'The Blues of coral Reefs'
p869
asS'BULD'
p870
(lp871
S'II-VI Blue and UV Laser Diodes'
p872
asS'BLAST-CONTROL'
p873
(lp874
S'Productivity improvement in open-pit mining and quarrying by means of an integrated control system for blasting and production-flow optimization'
p875
asS'B PHYSICS'
p876
(lp877
S'Charge conjugation and parity violation in beauty Physics'
p878
asS'BIO-ACE'
p879
(lp880
S'Aegean centre of excellence for bioengineering and biotechnology'
p881
asS'BEEFCHIP'
p882
(lp883
S'Development of a system comprising dna-chips and detection for the individual genetic identification of cattle'
p884
asS'BIOACTIVECPDS'
p885
(lp886
S'Biologically active organic compounds interacting with adenine-binding proteins'
p887
asS'BGA EMC'
p888
(lp889
S'Optimized PCB design of new technologies BGA for board computer of agricultural machines considering EMC aspects and reliability'
p890
asS'BIODISPERSIONSYSTEMS'
p891
(lp892
S'HOCHLASTDISPERSIONSREAKTORSYSTEME ZUR MIKROBIOLOGISCHEN INDUSTRIE-, KOMMUNAL- UN D LANDWIRTSCHAFTLICHEN ABWASSER - UND ABLUFTREINIGUNG'
p893
a(lp894
S'HOCHLASTDISPERSIONSREAKTORSYSTEME ZUR MIKROBIOLOGISCHEN INDUSTRIE-, KOMMUNAL- UN D LANDWIRTSCHAFTLICHEN ABWASSER - UND ABLUFTREINIGUNG'
p895
aasS'BUSINESS FORUM MED G'
p896
(lp897
S'Business and Investment Forums for Renewable Energy in the Mediterranean Region and Gulf States'
p898
asS'BCELL-T2D'
p899
(lp900
S'Role of pancreatic beta-cell regeneration in the pathofisiology and treatment of insulin resistance and type 2 diabetes'
p901
asS'BOWI'
p902
(lp903
S'How benchmarking models of work quality can improve the national health systems'
p904
asS'BUGWORKERS'
p905
(lp906
S'New tailor-made PHB-based nanocomposites for high performance applications produced from environmentally friendly production routes'
p907
asS'BASSI-STOCH'
p908
(lp909
S'Stochastic differentIal equations in Hilbert space: analysis of collapse models'
p910
asS'BRAINBRIDGES'
p911
(lp912
S'Collaborative technologies and environments enhancing the seamless creativity process, leveraging the full European potential'
p913
a(lp914
S'Collaborative technologies and environments enhancing the seamless creativity process, leveraging the full European potential'
p915
aasS'BC3'
p916
(lp917
S'Broadband copper communication components'
p918
a(lp919
S'Broadband copper communication components'
p920
aasS'BROADCAST-WG'
p921
(lp922
S'Basic research on advanced distributed computing: from algorithms to systems WG'
p923
asS'BRAHMS'
p924
(lp925
S'Broadband Access High data rate Multimedia Satellite'
p926
a(lp927
S'Broadband Access High data rate Multimedia Satellite'
p928
aasS'BOHUSLAV JANOUSEK'
p929
(lp930
S'Origin and evolution of sex chromosomes in the silene genus'
p931
asS'BALWOIS'
p932
(lp933
S'Water observation and information system for the balkan countries'
p934
asS'BPZ'
p935
(lp936
S'Bayesian photometric red shifts: Public software and application to Cosmology'
p937
asS'BANCA'
p938
(lp939
S'Biometric Access Control for Networked and e-Commerce Applications'
p940
a(lp941
S'Biometric Access Control for Networked and e-Commerce Applications'
p942
aasS'BIRD SPATIAL ECOLOGY'
p943
(lp944
S'From individual behaviour to population dynamics in the Oystercatcher using spatially and temporally explicit approaches'
p945
asS'BIOCOCOMB'
p946
(lp947
S'PREPARATION OF BIOFUEL FOR CO-COMBUSTION'
p948
asS'BELCAR'
p949
(lp950
S'Bench learning in cluster management for the automotive sector in European regions'
p951
asS'Bridge IT'
p952
(lp953
S'Thematic Network ICT for social integration and cultural diversity'
p954
asS'BIGNSPIN'
p955
(lp956
S'Bismuth and Graphene Nanostructures for Spintronics'
p957
asS'BIOCENSAR'
p958
(lp959
S'Biotechnology, Informatics Oriented Cytochromes Engineering for Novel Structural and Applied Research'
p960
asS'BIOMACH'
p961
(lp962
S'"Molecular Machines - Design and Nano-Scale Handling of Biological Antetypes and Artificial Mimics"'
p963
asS'BRITA IN PUBS'
p964
(lp965
S'Bringing Retrofit Innovation to Application in Public Buildings - BRITA in PuBs'
p966
a(lp967
S'Bringing Retrofit Innovation to Application in Public Buildings - BRITA in PuBs'
p968
aasS'BACT2ALGA'
p969
(lp970
S'Chemical signalling between microbial films and spores of the marine macroalga Ulva'
p971
asS'BIOTEX'
p972
(lp973
S'Bio-sensing textiles to support health management'
p974
a(lp975
S'Bio-sensing textiles to support health management'
p976
aa(lp977
S'Bio-sensing textiles to support health management'
p978
aa(lp979
S'Bio-sensing textiles to support health management'
p980
aasS'BURKJHARD KAISER'
p981
(lp982
S'Development and optimisation of techniques to study the expression of plant genes in yeast'
p983
asS'BIOTER'
p984
(lp985
S'Center of excellence in biodiversity conservation and mammal research in european terrestrial ecosystems'
p986
asS'BIOTIME'
p987
(lp988
S'Biological diversity in an inconstant world: temporal turnover in modified ecosystems'
p989
asS'BIOFACT'
p990
(lp991
S"Assessing factors that affect farmers' willingness and ability to co-operate with biodiversity policies"
p992
asS'BOOKSREADERSSPIT'
p993
(lp994
S'BOOKS AND READERS BETWEEN THE IBERIAN AND ITALIAN PENINSULAS TOWARDS AMERICA (SEVILLE AND FLORENCE)'
p995
asS'BURNQUEST'
p996
(lp997
S'Transfer of knowledge towards a world class combustion chemistry centre'
p998
asS'BIOACTIVE-NET'
p999
(lp1000
S'Assessment and dissemination of strategies for the extraction of BIOACTIVE-NET compounds from tomato, olive and grape processing residues'
p1001
a(lp1002
S'Assessment and dissemination of strategies for the extraction of BIOACTIVE-NET compounds from tomato, olive and grape processing residues'
p1003
aasS'BINDEX'
p1004
(lp1005
S'Bilingual Automatic Parallel Indexing and Classification'
p1006
a(lp1007
S'Bilingual Automatic Parallel Indexing and Classification'
p1008
aasS'BRIDGE-BSR'
p1009
(lp1010
S'Bridging life science research and SMEs in the Baltic Sea region putting cluster policies into practise for the benefit of SMEs'
p1011
asS'BLNT'
p1012
(lp1013
S'Broadband Local Network Technology'
p1014
asS'BIOGAS CHCP'
p1015
(lp1016
S'Biogas based polygeneration for combined heat, cooling and power applications'
p1017
asS'BIO-LING-GBE'
p1018
(lp1019
S'Analysing bio-molecular structures in a linguistic paradigm'
p1020
asS'BILAYER MOLECULAR COATING'
p1021
(lp1022
S'Bilayer molecular coatings for electrical contact improvement (BILAYER MOLECULAR COATING)'
p1023
asS'BLACK MODE'
p1024
(lp1025
S'Trophic controls in the Black Sea ecosystem'
p1026
asS'BACMAG'
p1027
(lp1028
S'Biological and physico-chemical control of intracellular magnetite synthesis in magnetotactic bacteria: an interdisciplinary approach'
p1029
asS'BADEPAS'
p1030
(lp1031
S'Behavior and distribution of emerging pollutants in aquatic systems'
p1032
asS'BEST NETWORK'
p1033
(lp1034
S'Biometric European Stakeholders Network'
p1035
asS'BIOMOBIL'
p1036
(lp1037
S'Centre of excellence in bio-safety and molecular biomedicine (BioMoBil) - integration in education and research towards the knowledge & technology transfer level'
p1038
asS'BALANCE'
p1039
(lp1040
S'Global change vulnerabilities in the barents region: linking arctic natural resources, climate change and economies'
p1041
asS'BENTOWEB'
p1042
(lp1043
S'Benchmarking tools for the Web'
p1044
a(lp1045
S'Benchmarking tools for the Web'
p1046
aa(lp1047
S'Benchmarking tools for the Web'
p1048
aasS'BERTHIER LUDOVIC'
p1049
(lp1050
S'Spin models for slow dynamics'
p1051
a(lp1052
S'Spin models for slow dynamics'
p1053
aasS'BICORER'
p1054
(lp1055
S'BIOLOGY AND INTEGRATED CONTROL OF RED RICE'
p1056
asS'BHMLOEVOFUNC'
p1057
(lp1058
S'Evolution and function of the Blastocytis mitochondrion-like organelle'
p1059
asS'BLUE WATER'
p1060
(lp1061
S'Computerised video camera image analysis for monitoring pollution in water'
p1062
a(lp1063
S'Computerised video camera image analysis for monitoring pollution in water'
p1064
aasS'BIOFOAM'
p1065
(lp1066
S'Bio-source based recyclable poly (ester-co-amide)s and poly (ester-co-urethane)s for industrial foam applications.'
p1067
asS'BIOSMA'
p1068
(lp1069
S'Mathematics for shape memory technologies in biomechanics'
p1070
asS'BIOFINGER'
p1071
(lp1072
S'DIagnosis tOol Based on the measurement of molecular interactions'
p1073
a(lp1074
S'DIagnosis tOol Based on the measurement of molecular interactions'
p1075
aasS'BIOLISME'
p1076
(lp1077
S'Speedy system for sampling and detecting Listeria monocytogenes in agro-food and related European industries'
p1078
asS'BIOFUS'
p1079
(lp1080
S'Biofunctionalized surfaces: a multiscale modeling approach'
p1081
asS'BACTEROMETRICS'
p1082
(lp1083
S'Bioremediation of toxic metals and radionuclides using naturally evolved bacteria capable of intra-cellular reduction without oxidative stress'
p1084
asS'B-LEARN II'
p1085
(lp1086
S'Behaviour Learning: Combining Sensing and Action'
p1087
asS'BEST 2000'
p1088
(lp1089
S'DEMONSTRATION ON 4 BUILDING PROJECT'
p1090
asS'BURULICO'
p1091
(lp1092
S'Buruli ulcer: multidisciplinary research for improvement of control in Africa'
p1093
asS'BIODELI'
p1094
(lp1095
S'Milk proteins as carrier proteins in the delivery of bioactive peptides with blood pressure lowering and satiety inducing effects'
p1096
asS'BUILDENERSAVE'
p1097
(lp1098
S'Improvement on the buildings energy efficiency trough the development of new facades on heat accumulators (BUILDENERSAVE)'
p1099
asS'BIOMEX-01'
p1100
(lp1101
S'Assessment of biomass export from marine protected areas and its impacts on fisheries in the western Mediterranean Sea'
p1102
a(lp1103
S'Assessment of BIOMass EXport from marine protected areas and its impacts on fisheries in the western Mediterranean Sea'
p1104
aasS'BIOACTIVE MOLECULES'
p1105
(lp1106
S'Bioactive molecules'
p1107
a(lp1108
S'Bioactive molecules'
p1109
aasS'BRAKE'
p1110
(lp1111
S'Distributed Automotive Safety System'
p1112
a(lp1113
S'Distributed Automotive Safety System'
p1114
aasS'BREVIE'
p1115
(lp1116
S'BRIDGING REALITY AND VIRTUALITY WITH A GRASPABLE USER INTERFACE'
p1117
asS'BIOMINE'
p1118
(lp1119
S'Biotechnology for Metal bearing materials in Europe'
p1120
asS'BRAINSAFE'
p1121
(lp1122
S'Development of a new, non invasive absolute Intracranial Pressure (aICP) measurement device based on ultrasound and Doppler technologies'
p1123
asS'BIOMINT'
p1124
(lp1125
S'Biological text mining'
p1126
asS'BIG-POWA'
p1127
(lp1128
S'High current bi-2223 conductors with innovative wire geometry for power applications (BIG-POWA)'
p1129
asS'BROCHURES'
p1130
(lp1131
S'ACTIVITE RES 6 "NQTIONAL EEC AND INTERNATIONAL ACTIVITIES FOR THE INVENTORY ASSESSMENT AND CONSERVATION OF BIOLOGICAL DIVERSITY"'
p1132
asS'BRED'
p1133
(lp1134
S'Business driven Requirements Engineering and Design'
p1135
asS'BIOTECTOR+'
p1136
(lp1137
S'Improved pollution monitoring & control through the development of an innovative integrated multi-component continuous on-line analyser'
p1138
asS'BIO-ETOH'
p1139
(lp1140
S'Energy and cost reductions in production of fuel ethanol from biomass through membrane technology'
p1141
a(lp1142
S'Energy and Cost Reductions in Production of Fuel Ethanol from Biomass through Membrane Technology'
p1143
aasS'BPRC'
p1144
(lp1145
S'Biomedical primate research centre: nonhuman primates as models for human biology and disease'
p1146
asS'BREW'
p1147
(lp1148
S'Medium and long-term opportunities and risks of the biotechnological production of bulk chemicals from renewable resources'
p1149
asS'BRET'
p1150
(lp1151
S'Renilla luciferase-yellow fluorescence protein chimerae as indicators for real-time monitoring of camp and camp-induced phosphorylation in living cells based on bioluminescence resonance energy transfer (BRET)'
p1152
asS'BIOMOLECULES'
p1153
(lp1154
S'Biomolecules'
p1155
a(lp1156
S'Biomolecules'
p1157
aasS'BIMOSYN'
p1158
(lp1159
S'DEVELOPMENT OF NEW ECOLOGICAL PESTICIDES BY INCORPORATION OF SYNERGIC BIO MOLECULES'
p1160
asS'BAMOD'
p1161
(lp1162
S'Breath-gas analysis for molecular-oriented detection of minimal diseases'
p1163
asS'BM-SCREW TYPE ENGINE'
p1164
(lp1165
S'Biomass-fired chp plant based on a screw-type engine cycle'
p1166
a(lp1167
S'Biomass-fired Chp Plant Based on a Screw-type Engine Cycle'
p1168
aasS'BACON'
p1169
(lp1170
S'The baryonic and chemical content of disc galaxies: A key to galaxy formation'
p1171
asS'BRAVISSIMO'
p1172
(lp1173
S"BRAssinosteroid venture increasing students' international mobility"
p1174
asS'BIOMARE'
p1175
(lp1176
S'Implementation and networking of large-scale long-term marine biodiversity research in europe (BIOMARE)'
p1177
asS'BIOMARK'
p1178
(lp1179
S'Biomarkers in marine sponges : Molecular Approaches to Assess pollutional risks and ecosystem health in the ocean in order to support management for its sustainable use'
p1180
asS'BODY-OWNERSHIP'
p1181
(lp1182
S'Neural mechanisms of body ownership and the projection of ownership onto artificial bodies'
p1183
asS'BUILDING 2000'
p1184
(lp1185
S'COORDINATION AND ADMINISTRATIVE MANAGEMENT OF PROJECT "BUILDING 2000"'
p1186
asS'BIDSAVER'
p1187
(lp1188
S'Business Integrator Dynamic Support Agents for Virtual Enterprise'
p1189
a(lp1190
S'Business Integrator Dynamic Support Agents for Virtual Enterprise'
p1191
aasS'BEAR.PMI'
p1192
(lp1193
S'Baltic Electromagnetic Array Research - Processing, Modelling and Interpretation'
p1194
asS'BRU'
p1195
(lp1196
S'Bounded Rationality under Uncertainty'
p1197
a(lp1198
S'Bounded Rationality under Uncertainty'
p1199
aa(lp1200
S'Bounded Rationality under Uncertainty'
p1201
aa(lp1202
S'Bounded Rationality under Uncertainty'
p1203
aa(lp1204
S'Bounded Rationality under Uncertainty'
p1205
aa(lp1206
S'Bounded Rationality under Uncertainty'
p1207
aa(lp1208
S'Bounded Rationality under Uncertainty'
p1209
aa(lp1210
S'Bounded Rationality under Uncertainty'
p1211
aa(lp1212
S'Bounded Rationality under Uncertainty'
p1213
aa(lp1214
S'Bounded Rationality under Uncertainty'
p1215
aa(lp1216
S'Bounded Rationality under Uncertainty'
p1217
aa(lp1218
S'Bounded Rationality under Uncertainty'
p1219
aa(lp1220
S'Bounded Rationality under Uncertainty'
p1221
aa(lp1222
S'Bounded Rationality under Uncertainty'
p1223
aasS'BIOREFINERY EUROVIEW'
p1224
(lp1225
S'Current situation and potential of the bio-refinery concept in the EU : strategic framework and guidelines for its development'
p1226
asS'BETAPROTH'
p1227
(lp1228
S'Improved abrasion properties and increased useful life of uhmwpe hip and knee prosthesis, using elecron beam irradiation'
p1229
asS'BRC'
p1230
(lp1231
S'Biological Research Centre, Hungarian Academy of Sciences'
p1232
asS'BIOLOCH'
p1233
(lp1234
S'BIO-mimetic structures for LOComotion in the Human body'
p1235
a(lp1236
S'BIO-mimetic structures for LOComotion in the Human body'
p1237
aasS'BE AWARE'
p1238
(lp1239
S'Boosting energy awareness with adaptive real-time environments'
p1240
a(lp1241
S'Boosting energy awareness with adaptive real-time environments'
p1242
aasS'BIOGEOMORPHES'
p1243
(lp1244
S'Biogeomorphodynamic model of Estuaries for the analysis of effects of human interference'
p1245
asS'BIOMADE'
p1246
(lp1247
S'Biocatalytic Approach to Material Design'
p1248
asS'BETTER-AGEING'
p1249
(lp1250
S'Physical frailty and loss of functional independence in old age : determinants and adaptations to physical activity (BETTER-AGEING)'
p1251
asS'BIOARTIFICIAL LIVER'
p1252
(lp1253
S'Development and clinical study of a bioartificial liver based on reversibly immortalised human hepatocytes'
p1254
asS'BECOTEPS'
p1255
(lp1256
S'The bio-economy technology platforms join forces to address synergies and gaps between their strategic research agendas'
p1257
asS'BIFCINCAT'
p1258
(lp1259
S'Bi-functional Cinchona Alkaloid derived Organocatalysts and their reactions'
p1260
asS'BIOTRAC'
p1261
(lp1262
S'Bioavailability of trace metals in anaerobic granular sludge reactors'
p1263
asS'BOSS4GMES'
p1264
(lp1265
S'Building operational sustainable services for GMES'
p1266
asS'BIOSURF'
p1267
(lp1268
S'Development and implementation of a contact biocide polymer for its application as antimicrobial and anti-deposit surfaces in the food industry'
p1269
asS'BUILD-ON-RES'
p1270
(lp1271
S'Benchmarking energy performance building regulations on incorporation of renewable energy sources (RES) for a framework for RES oriented energy performance policies'
p1272
asS'BIOTRACK'
p1273
(lp1274
S'Professional training and career development in biomedicine'
p1275
asS'BIOTRACS'
p1276
(lp1277
S'Bio-transformation of trace elements in aquatic systems'
p1278
asS'BISANTE'
p1279
(lp1280
S'Broadband integrated satellite network traffic evaluation'
p1281
asS'BONSAI'
p1282
(lp1283
S'Bio-imaging with smart functional nanoparticles'
p1284
asS'BIOINF-MUT-GEN'
p1285
(lp1286
S'A bioinformatic investigation of the mutation process using genomic data'
p1287
asS'BRILLIANCE'
p1288
(lp1289
S'Bright light effect on performance and alertness during daytime'
p1290
asS'BIOFORCE'
p1291
(lp1292
S'Simultaneous multi-pathway engineering in crop plants through combinatorial genetic transformation: creating nutritionally biofortified cereal grains for food security'
p1293
asS'BASYSBIO'
p1294
(lp1295
S'Towards an understanding of dynamic transcriptional regulation at global scale in bacteria: a systems biology approach'
p1296
asS'BILLSAVER'
p1297
(lp1298
S'A project to develop ways of reducing the amount of energy consumed by domestic appliances'
p1299
asS'BCGNSE'
p1300
(lp1301
S'Bcg vaccination and childhood morbidity and mortality : interventions with possible implications for immunisation policy in developing countries'
p1302
asS'BIBLIOTECA'
p1303
(lp1304
S'Bibliographic Texts Compositional Analysis'
p1305
asS'BRIDGSEISMTIME'
p1306
(lp1307
S'Bridging the timescales in fault-slip accumulation: from the earthquake record to the geological record'
p1308
asS'BASYS'
p1309
(lp1310
S'Baltic Sea System Study'
p1311
asS'BIODIVERSA'
p1312
(lp1313
S'An ERA-Net in biodiversity research (BiodivERsA)'
p1314
asS'BIONANOSMART_DDS'
p1315
(lp1316
S'Biopolymer-based nanoparticle smart drug delivery systems and their biopharmaceutical application by oral administration'
p1317
a(lp1318
S'Biopolymer-Based nanoparticle smart drug delivery systems and their biopharmaceutical application by oral administration'
p1319
aasS'BEST-NET'
p1320
(lp1321
S'The Business ExcellenceSupport and Training Network'
p1322
a(lp1323
S'The Business ExcellenceSupport and Training Network'
p1324
aasS'BIOPRO-FUFO'
p1325
(lp1326
S'Biomarker protocols for research on functional foods.'
p1327
asS'BCP-TEF'
p1328
(lp1329
S'Bioclimatology of Canopy Photosynthesis in Temperate European Forests'
p1330
asS'BARBARA'
p1331
(lp1332
S'A Broad Range of Community-Based Applications in Rural Areas'
p1333
asS'BASIC GOODS'
p1334
(lp1335
S'Basic Research Actions for a Geographic Object-Oriented Database System'
p1336
asS'BRAINSPEECHSIGN'
p1337
(lp1338
S'The neural basis of speech and sign language perception in hearing and deaf people: transcranial magnetic stimulation and functional MRI Studies'
p1339
asS'BIOSONAR'
p1340
(lp1341
S'Sonar Technology for Monitoring and Assessment of Benthic Communities'
p1342
asS'BILAPS'
p1343
(lp1344
S'Development of a lead acid power source for hybrid electric vehicles'
p1345
asS'BRACCIA'
p1346
(lp1347
S'Brain, respiration and cardiac causalities in anaesthesia'
p1348
asS'BENCE CSAPO'
p1349
(lp1350
S'Improving the quality of life of mothers by early pre-natal diagnosis of developmental anomalies'
p1351
asS'BIOCOUP'
p1352
(lp1353
S'Co-processing of upgraded bio-liquids in standard refinery units'
p1354
asS'BEN-TEX'
p1355
(lp1356
S'Technology management BENchmarking in the TEXtile industry across europe'
p1357
asS'BIO-NETWORK MODELS'
p1358
(lp1359
S'A new approach to the modelling of biochemical networks'
p1360
asS'BIOSENS'
p1361
(lp1362
S'Vapour dEtEctION - Area reduction in demining'
p1363
a(lp1364
S'Vapour dEtEctION - Area reduction in demining'
p1365
aasS'BLOWDRY'
p1366
(lp1367
S'BLOWLINE BLENDING AND FIBRE DRYING IN THE WOOD FIBRE PROCESSING INDUSTRIES'
p1368
asS'BACWIRE'
p1369
(lp1370
S'Bacterial wiring for energy conversion and remediation'
p1371
asS'BIOMONECS'
p1372
(lp1373
S'Development of analytical methods for biological monitoring of exposure to carcinogenic substances'
p1374
asS'BIONANOTOOLS'
p1375
(lp1376
S'Protein design to generate bio-functional nanostructures'
p1377
asS'BTG2004 CONFERENCE'
p1378
(lp1379
S'Organisation and hosting of the EU presidency conference bridging the gap 2004: information for action'
p1380
asS'BNOX'
p1381
(lp1382
S'The role of reactive oxygen species in B cell tolerization and immune memory'
p1383
asS'BIO-ELECTRICITY'
p1384
(lp1385
S'Efficient and clean production of electricity from biomass via pyrolyses oil and hydrogen utilizing fuel cells - target action g (BIO-ELECTRICITY)'
p1386
asS'BOVMAS'
p1387
(lp1388
S'Quantitative trait loci affecting milk production: mapping and utilization for marker assisted selection in dairy and dual purpose cattle.'
p1389
asS'BOVMAP'
p1390
(lp1391
S'Development of genetic and physical marker maps of the bovinegenome (Bovine Gene Mapping project)'
p1392
asS'B-2001-ETC'
p1393
(lp1394
S'B-2001-etc'
p1395
asS'BBHEVOL'
p1396
(lp1397
S'Numerical evolution of realistic binary black holes: application of the dynamical horizon formalism to the accurate estimation of physical parameter in gravitational waves'
p1398
asS'BABY PROJECT'
p1399
(lp1400
S'Expecting and Growing a Baby'
p1401
asS'BIO-CT'
p1402
(lp1403
S'European biotechnologies common tools'
p1404
asS'BRICS'
p1405
(lp1406
S'Best practice in robotics'
p1407
a(lp1408
S'Best practice in robotics'
p1409
aasS'BIOINORGANIC NMR'
p1410
(lp1411
S'NMR in Inorganic Structural Biology'
p1412
asS'BIDECASEOX'
p1413
(lp1414
S'Bio-inspired design of catalysts for selective oxidations of C-H and C=C bonds'
p1415
asS'BREAST MED'
p1416
(lp1417
S'Genetic profile of breast cancers in mediterranean countries: implications in preventive and predictive medicine'
p1418
asS'BRICC'
p1419
(lp1420
S'Broadband Integrated Communication for Construction'
p1421
asS'BLOTCHTREAT'
p1422
(lp1423
S'Development of new phytodermatologic product to improve antiblotch treatments'
p1424
asS'BIOREMAT'
p1425
(lp1426
S'Biological resources management and training'
p1427
a(lp1428
S'Biological resources management and training'
p1429
aasS'BIOMOLECULAR STRUCTU'
p1430
(lp1431
S'Structural chemistry in biomolecular recognition'
p1432
asS'BIOMITRE'
p1433
(lp1434
S'Biomass-based Climate Change Mitigation Through Renewable Energy'
p1435
a(lp1436
S'Biomass-based climate change mitigation through renewable energy'
p1437
aasS'BRAINBOWAKT'
p1438
(lp1439
S'Novel genetic engineering approaches for lineage analysis and exploration of Akt function in cortical development'
p1440
asS'BACULOGENES'
p1441
(lp1442
S'Baculovirus vectors for gene therapy'
p1443
asS'BESTCOIN'
p1444
(lp1445
S'Best practice mechanisms for co-operation between universities, research bodies and industry'
p1446
asS'BIOSAPIENS'
p1447
(lp1448
S'A European Network for Integrated Genome Annotation'
p1449
asS'BSI'
p1450
(lp1451
S'Black Sea Interconnection'
p1452
asS'BIOPHYL - ECOTREE'
p1453
(lp1454
S'Dynamics of biochemical and physiological signatures and leaching in a spruce stand in clean air and ambient air under natural site conditions'
p1455
asS'BATCIME'
p1456
(lp1457
S'Batch control integrated and integrated manufacturing execution'
p1458
asS'BRAIN2ROBOT'
p1459
(lp1460
S'A Robotic-Arm Orthosis Controlled by Electroencephalography and Gaze for Locked-In Paralytics'
p1461
asS'BOLLOK, MONIKA'
p1462
(lp1463
S'Development of production systems for fibre-active enzymes of trees in different prokaryotic and eukaryotic hosts.'
p1464
asS'BEYWATCH'
p1465
(lp1466
S'Building energy watcher'
p1467
a(lp1468
S'Building energy watcher'
p1469
aasS'BIOTRACE IP'
p1470
(lp1471
S'Improved bio-traceability of unintended microorganisms and their substances in food and feed chains'
p1472
asS'BIOHEAD-CITIZEN'
p1473
(lp1474
S'Biology, health and environmental education for better citizenship'
p1475
asS'BATEL'
p1476
(lp1477
S'Ball grid array technologies for advanced telecom applications'
p1478
asS'BRE CARDINGTON LBTF'
p1479
(lp1480
S'Building research establishment cardington laboratory large building test facility'
p1481
asS'BIO-ENGINEERS'
p1482
(lp1483
S'Influence of biological and physical processes on intertidal sediment dynamics and on the release of pollutants trapped in sediments and the toxicity of these pollutants'
p1484
asS'B-ASICS'
p1485
(lp1486
S'Bio-Sensitive ASICs for Smart Sensors in Medical and Environmental Monitoring'
p1487
asS'BLOCK SAVE'
p1488
(lp1489
S'A novel methodology for the safe handling and consolidation of dimensional stone blocks using a cost-effective combination of vacuum-based technology and highly penetrating resin formulations'
p1490
asS'BABY RIS'
p1491
(lp1492
S'Bansk bystricas regional innovation strategy'
p1493
asS'BOOT-AN'
p1494
(lp1495
S'Bootstrap assessment of an group'
p1496
asS'BAP'
p1497
(lp1498
S'Designing an hybrid and emergent educational society'
p1499
a(lp1500
S'Designing an hybrid and emergent educational society'
p1501
aasS'BIP2'
p1502
(lp1503
S'Support for international cooperation in the field of the Connected home'
p1504
a(lp1505
S'Support for international cooperation in the field of the Connected home'
p1506
aa(lp1507
S'Support for international cooperation in the field of the Connected home'
p1508
aa(lp1509
S'Support for international cooperation in the field of the Connected home'
p1510
aasS'BIOSTRESS'
p1511
(lp1512
S'Biodiversity in herbaceous semi-natural ecosystems under stress by global change components'
p1513
asS'BAF'
p1514
(lp1515
S'English for banking and finance multimedia self-study programme'
p1516
a(lp1517
S'Broadband Access Facilities'
p1518
aasS'BT ALPHA MANNOSIDASE'
p1519
(lp1520
S'Biological rational for the mannosidase super family in Bacteroides thetaiotaomicron'
p1521
asS'BLUEPRINT'
p1522
(lp1523
S'Project for the development of a practical guide for integrated multidisciplinary co-operation in the creation of innovative interface design'
p1524
a(lp1525
S'Blueprints for an integration of science, technology and environmental policy'
p1526
aa(lp1527
S'Blueprints for an integration of science, technology and environmental policy'
p1528
aasS'BRAVE'
p1529
(lp1530
S'Bee research and virology in Europe - identifying the research needs for protecting European agriculture and ecosystems against viral diseases'
p1531
a(lp1532
S'Broadband Access Verification Experiments'
p1533
aasS'BIOSEAL'
p1534
(lp1535
S'Development of Biotechnology derived alternatives for sustainable detergents and innovative strategies of using Sustainable ingredients by encapsulation and surfactants structuring'
p1536
asS'BRAVA'
p1537
(lp1538
S'Broadcast Restoration of Archives through Video Analysis'
p1539
a(lp1540
S'Broadcast Restoration of Archives through Video Analysis'
p1541
aasS'BONUS'
p1542
(lp1543
S'BONUS for the Baltic Sea Science - Network of Funding Agencies'
p1544
asS'BRAVO'
p1545
(lp1546
S'Brenner Rail Freight Action Strategy Aimed At Achieving A Sustainable Increase Of Intermodal Transport Volume By Enhancing Quality, Efficiency, And System Technologies'
p1547
a(lp1548
S'Brenner Rail Freight Action Strategy Aimed At Achieving A Sustainable Increase Of Intermodal Transport Volume By Enhancing Quality, Efficiency, And System Technologies'
p1549
aasS'BIDES'
p1550
(lp1551
S'Development of a new vocational training structure for the business interpretation education, especially emphazising the development and testing of a new educational strategy for adults planned for disadvantaged citizens with a multi-cultur'
p1552
asS'BIOACT'
p1553
(lp1554
S'The role of associated bacteria in the production of bioactive compounds of marine origin'
p1555
asS'BUFFER'
p1556
(lp1557
S'Key nutrient transport mechanisms important for the prediction of nutrient and p hytoplankton concentrations in european standing waters'
p1558
asS'BAGECO-7'
p1559
(lp1560
S'The seventh symposium on bacterial genetics and ecology'
p1561
asS'BIONIC EAR'
p1562
(lp1563
S'The bionic ear, a new approch to trigger repair mechanisms in the inner ear'
p1564
asS'BIOCELSOL'
p1565
(lp1566
S'Biotechnological Process for Manufacturing Cellulosic Products with Added Value'
p1567
asS'BIO-HUG'
p1568
(lp1569
S'Novel bioprocesses for hemicellulose up-grading'
p1570
asS'BIOASIA'
p1571
(lp1572
S'Multidisciplinary approaches to biodiversity analysis: testing evolutionary hypotheses in south-east Asian freshwater taxa'
p1573
asS'BIODESOPO'
p1574
(lp1575
S'Mechanisms of the biodegradation in soil of biodegradable polymers designed for agricultural applications'
p1576
asS'BUAFULL'
p1577
(lp1578
S'Acoustics of friction under light loads'
p1579
asS'BIRGITTA OLOFSSON'
p1580
(lp1581
S'Extracellular mechanisms regulating range and activity of egfr ligands'
p1582
a(lp1583
S'Extracellular mechanisms regulating range and activity of egfr ligands'
p1584
aasS'BRITEUR'
p1585
(lp1586
S'Broadband Rural Infrastructure for Telematics in Europe'
p1587
asS'BI-METAL'
p1588
(lp1589
S'Mechanics of Bi-Metallic Discs'
p1590
asS'BRAND NEW'
p1591
(lp1592
S'Business reference architecture for retailing on the web'
p1593
asS'BASSMAP'
p1594
(lp1595
S'Tools for the genetic improvement of sea bass. Construction and preliminary application of a medium density linkage and synteny map'
p1596
a(lp1597
S'Tools for the genetic improvement of sea bass. Construction and preliminary application of a medium density linkage and synteny map'
p1598
aasS'BIOCAT'
p1599
(lp1600
S'Catalyst development for catalytic biomass flash pyrolysis producing promissing liquid bio-fuels (BIOCAT)'
p1601
asS'BRIGHT NIGHT'
p1602
(lp1603
S'Belgian researchers initiative to heat that Night'
p1604
asS'BIO-FLIM'
p1605
(lp1606
S'Development of fluorescent lifetime imaging for studying microbial biofilms'
p1607
asS'BIOSTAB'
p1608
(lp1609
S'Stability of biodiesel'
p1610
asS'BACABS'
p1611
(lp1612
S'Assessment of structural requirements in complement-mediated bactericidal events: Towards a global approach to the selection of new vaccine candidates'
p1613
asS'BIOSTAR'
p1614
(lp1615
S'European bioinformatics early-stage training in advanced research'
p1616
asS'BESTWAFER'
p1617
(lp1618
S'Development of a New Grinding Technique towards a Free Damage Machining of Silicon Wafers'
p1619
asS'BIOLOGICAL AGEING'
p1620
(lp1621
S'Biological ageing'
p1622
a(lp1623
S'Biological ageing'
p1624
aasS'BASS'
p1625
(lp1626
S'Broadband Access Services Solution'
p1627
a(lp1628
S'Broadband acoustic scattering signatures of fish and zooplankton'
p1629
aa(lp1630
S'Broadband Access Services Solution'
p1631
aasS'BIOCHEMIRT'
p1632
(lp1633
S'Biochemical characterization of Arabidopsis Fe uptake transporter IRT1'
p1634
asS'BIOMERCURY'
p1635
(lp1636
S'Worldwide remediation of mercury hazards through biotechnology'
p1637
asS'BIOSHALE'
p1638
(lp1639
S'Search for a sustainable way of exploiting black shale ores using biotechnologies'
p1640
asS'BIOMARKERIGF'
p1641
(lp1642
S'Identification of Clinically Useful Biomarkers for IGF-I Receptor Signalling n Cancer'
p1643
asS'BASE'
p1644
(lp1645
S'Baselines for accession states in europe (BASE)'
p1646
a(lp1647
S'Bipolar Advanced Silicon for Europe'
p1648
aa(lp1649
S'Bio-based functional materials from engineered self-assembling peptides'
p1650
aasS'BRYOARC'
p1651
(lp1652
S'Biodiversity and adaptation in Arctic bryozoans'
p1653
asS'BRAIN & MATE CHOICE'
p1654
(lp1655
S'The neural basis of mate choice: Which brain structures are involved in mate assessment in mice?'
p1656
asS'BRAIN IRON IN ADHD'
p1657
(lp1658
S'BRAIN IRON LEVELS IN CHILDREN WITH ATTENTION-DEFICIT/HYPERACTIVITY DISORDER: AN IMAGING AND NEUROPHYSIOLOGICAL STUDY'
p1659
asS'BERGEN COMP.PHYSICS'
p1660
(lp1661
S'Bergen computational physics laboratory'
p1662
asS'BENE-BUS'
p1663
(lp1664
S'Benchmarking of E-Business Solutions for Western and Eastern Europe SMEs'
p1665
a(lp1666
S'Benchmarking of E-Business Solutions for Western and Eastern Europe SMEs'
p1667
aasS'BCCI'
p1668
(lp1669
S'Bidirectional cortical communication interface'
p1670
asS'BUNGEE'
p1671
(lp1672
S'Beyond Next Generation Mobile Broadband'
p1673
a(lp1674
S'Beyond Next Generation Mobile Broadband'
p1675
aasS'BIOCELLCHARABRX'
p1676
(lp1677
S'Biochemical and cell biological characterization of BRX, a novel regulator of root architecture in Arabidopsis, and its role in hormone homeostasis'
p1678
asS'B-COOL'
p1679
(lp1680
S'Low Cost and High Efficiency CO2 Mobile Air Conditioning system for lower segment cars'
p1681
asS'BCDDS'
p1682
(lp1683
S'Biodegradable controlled drug delivery systems for the treatment of brain diseases'
p1684
asS'BINACAT'
p1685
(lp1686
S'New directions in heterogeneous selective oxidation catalysis: synthesis and application of novel metal nanoparticulate systems'
p1687
asS'BIOPRODUCTS 4 FOOD'
p1688
(lp1689
S'Disseminating the results of EC funded research into food quality and safety to facilitate their transfer and exploitation into new products and processes to improve European health and well-being'
p1690
asS'BMG-FAILURE'
p1691
(lp1692
S'Deformation mechanisms, fracture formation and failure of bulk metallic glasses and bulk metallic glass matrix composites'
p1693
asS'BCN-ESOF2008'
p1694
(lp1695
S'Barcelona Euroscience Open Forum2008'
p1696
asS'BALTIC SEALS HISTORY'
p1697
(lp1698
S'Tracking the impact of Holocene environmental change on the population genetics and demographics of four Baltic seal species'
p1699
asS'BREAKWAVE'
p1700
(lp1701
S'Breakwave - OWC in breakwater douro'
p1702
asS'BI4MASSES'
p1703
(lp1704
S'Business Intelligence for the Masses'
p1705
asS'BIOSAFE-VACCINE-VECT'
p1706
(lp1707
S'Biosafe coronavirus vaccine vector for the prevention of human infections of the enteric and respiratory tract (BIOSAFE-VACCINE-VECTOR)'
p1708
asS'BEP-IFM'
p1709
(lp1710
S'Integration of business functions in manufacturing - a best practice approach'
p1711
asS'BOVAC'
p1712
(lp1713
S'Development of a prophylactic vaccine and diagnostic markers to prevent and diagnose lyme borreliosis specific to Europe and North America'
p1714
asS'BENOIT MENAND'
p1715
(lp1716
S'Genes regulated by rhd6 during root hairs development in arabidopsis'
p1717
asS'BSR ECO-EFF'
p1718
(lp1719
S'Baltic sea region research co-operation on eco-efficient products and processes'
p1720
asS'BRIDGING GAPS'
p1721
(lp1722
S'Bridging gaps between public and traditional health care sectors-testing a model to improve quality of STI/HIV/AIDS care in sub-Saharan Africa'
p1723
asS'BEMA'
p1724
(lp1725
S'Biogenic emissions in the Mediterranean area'
p1726
a(lp1727
S'Biogenic emissions in mediterranean area - Phase II:-1996-1997'
p1728
aasS'BIOSCOPE'
p1729
(lp1730
S'Self-reporting biological nanosystems to study and control bio-molecular mechanisms on the single molecule level'
p1731
asS'BIONANOPACK'
p1732
(lp1733
S'Biodegradable nanocomposite food packaging'
p1734
asS'BIOCERARP'
p1735
(lp1736
S'New generation of multi-functional, cost-effective and quick set-up time system for processing and forming ceramic part dedicated to single or small batch production for medical applications'
p1737
asS'BIOMARKER DISCOVERY'
p1738
(lp1739
S'Novel post-genomic bioanalytical techniques of metabonomics (metabolomics) in biomedical research and drug discovery'
p1740
asS'BROADCASTNET'
p1741
(lp1742
S'INTEGRATED INFORMATION SYSTEM FOR ADVERTISEMENT MANAGEMENT IN BROADCASTING COMPANIES'
p1743
a(lp1744
S'INTEGRATED INFORMATION SYSTEM FOR ADVERTISEMENT MANAGEMENT IN BROADCASTING COMPANIES'
p1745
aasS'BOVGEN'
p1746
(lp1747
S'Structural and functional genomics tools for cattle research'
p1748
asS'BIOCOM'
p1749
(lp1750
S'Biotic community attributes and ecosystem functioning: Implications for predicting and mitigating global change impacts'
p1751
asS'BIOHYP'
p1752
(lp1753
S'Hydrogen production by dark fermentation of biomass resources'
p1754
asS'BECCAVITY'
p1755
(lp1756
S'Bose-Einstein condensated atoms into a high finesse optical cavity.'
p1757
asS'BIOCOP'
p1758
(lp1759
S'New Technologies to Screen Multiple Chemical Contaminants in Foods: Biocop'
p1760
asS'BCA_GRAPE'
p1761
(lp1762
S'New biocontrol agents for powdery mildew on grapevine'
p1763
asS'BONANOVA'
p1764
(lp1765
S'Application of HPCN technology in software greenhouse data warehouse product'
p1766
asS'BABAS'
p1767
(lp1768
S'BIOETHICAL ASPECTS OF BIOTECHNOLOGY IN THE AGROFOOD SECTOR'
p1769
asS'BIO-TRIBODIAM'
p1770
(lp1771
S'DLC and CVD diamond coated Si3N4 ceramics for tribological and biomedical purposes'
p1772
asS'BIOPOWER'
p1773
(lp1774
S'Bioelectricity By Cofiring Biomass In Suomenoja Pulverised Coal Fired Boiler'
p1775
a(lp1776
S'Bioelectricity by cofiring biomass in Suomenoja pulverised coal fired boiler'
p1777
aasS'BIO-PROTECT'
p1778
(lp1779
S'Ionisation-based detector of airborne bio-agents, viruses and toxins for fast-alert and identification'
p1780
asS'BENCHNMR'
p1781
(lp1782
S'Benchtop nmr techniques for the structural characterization of foods'
p1783
a(lp1784
S'Benchtop nmr techniques for the structural characterization of foods'
p1785
aasS'BRAIN'
p1786
(lp1787
S'Basic Research in Aircraft Interior Noise'
p1788
a(lp1789
S'Electromagnetic Brain Activity: A Novel Mathematical Approach'
p1790
aa(lp1791
S'BCIs with rapid automated interfaces for nonexperts'
p1792
aa(lp1793
S'Broadband Radio Access for IP based Networks'
p1794
aa(lp1795
S'Brain research and inflammatory/neurodegenerative disease'
p1796
aa(lp1797
S'Bring Researchers On Advanced Communications To Industry And Network Operators'
p1798
aa(lp1799
S'BCIs with rapid automated interfaces for nonexperts'
p1800
aa(lp1801
S'Broadband Radio Access for IP based Networks'
p1802
aasS'BAFN'
p1803
(lp1804
S'Setting up of an agricultural and food research network in the Western Balkan Countries'
p1805
asS'BIO FLAM'
p1806
(lp1807
S"Combustion behaviour of clean fuels in power generation ('BIO FLAM')"
p1808
asS'BAFI'
p1809
(lp1810
S'BIOSENSOR FOR AGRICULTURE AND FOOD INDUSTRY'
p1811
asS'BRAID'
p1812
(lp1813
S'Bridging research in Ageing and ICT Development'
p1814
a(lp1815
S'Bridging research in Ageing and ICT Development'
p1816
aasS'BIO-SME-TC'
p1817
(lp1818
S'Promotion of Eu Biomass Technology in Agro-industry of High-potential Third Countries'
p1819
a(lp1820
S'Promotion of Eu biomass technology in agro-industry of high-potential third countries'
p1821
aasS'BIOSYS'
p1822
(lp1823
S'Intelligent Biomaterial Systems for Cardiovascular Tissue Repair'
p1824
asS'BACCHUS'
p1825
(lp1826
S'Methodological approach for vineyard inventory and management'
p1827
a(lp1828
S'Language CD-ROM'
p1829
aa(lp1830
S'Demonstration of the In-situ Application of an Industrial Clay-Based Backfill Material'
p1831
aasS'BIPV-CIS'
p1832
(lp1833
S'Improved Building Integration of PV by using Thin Film Modules in CIS Technology (BIPV-CIS)'
p1834
asS'BAWAPLA'
p1835
(lp1836
S'Sustainable Ballast Water Management Plant'
p1837
asS'BRANES, STRINGS AND FIELDS'
p1838
(lp1839
S'Branes, strings and fields'
p1840
asS'BETAIMAGE'
p1841
(lp1842
S'Use of innovative strategies for beta-cell imaging in diabetes mellitus'
p1843
asS'BJORN KJOS-HANSSEN'
p1844
(lp1845
S'Computability theory, effective forcing constructions, and applications to degree structures'
p1846
a(lp1847
S'Computability theory, effective forcing constructions, and applications to degree structures'
p1848
aasS'BIOFELT'
p1849
(lp1850
S'Novel biotechnical processes for wool felting'
p1851
asS'BIOWAS'
p1852
(lp1853
S'Materials for increased performance in sustainable fuel combustion'
p1854
asS'BT-BIONOTA'
p1855
(lp1856
S'Effects and mechanisms of bt transgenes on biodiversity of non-target insects: pollinators, herbivores and their natural enemies'
p1857
asS'BREAKING COMPLEXITY'
p1858
(lp1859
S'Non-linear approximation and adaptivity: breaking complexity in numerical modelling and data representation'
p1860
a(lp1861
S'Non-linear approximation and adaptivity: breaking complexity in numerical modelling and data representation'
p1862
aasS'BALTICGRID'
p1863
(lp1864
S'Baltic Grid'
p1865
asS'BBMRI'
p1866
(lp1867
S'Biobanking and biomolecular resources research infrastructure'
p1868
asS'BIONORM II'
p1869
(lp1870
S'Pre-normative research on solid biofuels for improved European standards'
p1871
asS'BEMMFISH'
p1872
(lp1873
S'Bio-economic modelling of Mediterranean fisheries'
p1874
a(lp1875
S'Bio-economic modeling of Mediterranean fisheries'
p1876
aasS'BITHINK'
p1877
(lp1878
S'Bifacial Thin Industrial multi-Crystalline Silicon Solar Cells'
p1879
a(lp1880
S'Bifacial Thin Industrial multi-Crystalline Silicon Solar Cells'
p1881
aasS'BASIS'
p1882
(lp1883
S'Assessing the consequences of global changes for the Barents sea region: the Barents sea impact study'
p1884
a(lp1885
S'Assessing the consequences of global changes for the Barents sea region: the Barents sea impact study'
p1886
aa(lp1887
S'Defining the Russian contributions to the Barents sea impact study'
p1888
aa(lp1889
S'Breast Cancer Somatic Genetics Study'
p1890
aa(lp1891
S'Business awareness on sustainable innovation strategies'
p1892
aa(lp1893
S'Business Awareness on Sustainable Innovation Strategies'
p1894
aa(lp1895
S'Baltic Air - Sea - Ice Study a field experiment of Baltex'
p1896
aa(lp1897
S'Business Awareness on Sustainable Innovation Strategies'
p1898
aasS'BPT'
p1899
(lp1900
S'Continous biopretreatment of cellulosic fibers'
p1901
a(lp1902
S'Wood, land and stone - apprentices building Europe'
p1903
aasS'BASIC'
p1904
(lp1905
S'Baltic sea cyanobacteria'
p1906
a(lp1907
S'The provision of basic services in liberalised markets'
p1908
aa(lp1909
S'The provision of basic services in liberalised markets'
p1910
aa(lp1911
S'Business And Scientific EuroIndia & Asia Co-operation'
p1912
aa(lp1913
S'Business And Scientific EuroIndia & Asia Co-operation'
p1914
aasS'BASIN'
p1915
(lp1916
S'Resolving the impact of climatic processes on ecosystems of the North Atlantic basin and shelf seas: Integrating and advancing observation, monitoring, and prediction'
p1917
asS'BIONANOMAGNET'
p1918
(lp1919
S'Biomimetic formation of bacterial magnetic nanoparticles: progress and promises'
p1920
asS'BBDB'
p1921
(lp1922
S'Backfill behaviour in emplacement drifts and boreholes in a salt repository'
p1923
asS'BITEFILM'
p1924
(lp1925
S'Nano-layered thin films of quaternary bismuth telluride lead selenide for low-dimensional thermopile devices'
p1926
asS'BIOPTRAIN'
p1927
(lp1928
S'Bioinformatics Optimisation Training'
p1929
asS'BIOLIQUIDS-CHP'
p1930
(lp1931
S'Engine and turbine combustion of bioliquids for combined heat and power production'
p1932
asS'BIOELECTRICITY CROPS'
p1933
(lp1934
S'Big Scale Demonstration Of Energy Crops Utilisation For Bioelectricity Generation - Target B'
p1935
a(lp1936
S'Big scale demonstration of energy crops utilisation for bioelectricity generation - target B'
p1937
aasS'BILATERAL MODULATION'
p1938
(lp1939
S'Modulating interhemispheric interaction in physiology and disease'
p1940
asS'BRIDGE TO CANAAN'
p1941
(lp1942
S'A Bridge to Canaan: Tell el-Daba (Egypt) in the Late Middle Kingdom, ca. 1820 to 1720 B.C.'
p1943
asS'BIOCOR ITN'
p1944
(lp1945
S'Initial training network on biocorrosion'
p1946
asS'BIBLINK'
p1947
(lp1948
S'Linking Publishers and National Bibliographic Services'
p1949
asS'BIOCAPITAL'
p1950
(lp1951
S'Cope with the challenges and opportunities of the 21st century: integrated basic and applied training in a success-oriented bioprospecting'
p1952
asS'BIO INTERACTIONS'
p1953
(lp1954
S'Biochemical and genetic approaches to study bio-molecular interactions in plants'
p1955
a(lp1956
S'Biochemical and genetic approaches to study bio-molecular interactions in plants'
p1957
aasS'BIOCHEMLIG'
p1958
(lp1959
S'Bio-orthogonal chemo-specific ligation'
p1960
asS'BAMLINK'
p1961
(lp1962
S'Molecular, Environmental and Nutritional Evaluation of Bambara Groundnut (Vigna subterranea L.Verdc.) for Food Production in Semi-Arid Africa and India'
p1963
asS'BASECONV'
p1964
(lp1965
S'Therapeutic oligomers for in vivo targeted gene modification'
p1966
asS'BIOBRUSH'
p1967
(lp1968
S'Novel approaches to conserve our european heritage : bioremediation for building restoration of the urban stone heritage in european states'
p1969
asS'BRIGHTLIGHT'
p1970
(lp1971
S'Periodic-dispersive photonic components for control of spectral, spatial and temporal characteristics of laser diode radiation'
p1972
a(lp1973
S'Periodic-dispersive photonic components for control of spectral, spatial and temporal characteristics of laser diode radiation'
p1974
aasS'BIODEM'
p1975
(lp1976
S'Biogeochemical and physical drivers of deep European margin ecosystems'
p1977
asS'BIOINFORMATICS-LCB'
p1978
(lp1979
S'Linneaus center for bioinformatics'
p1980
asS'BN HYDROGEN STORAGE'
p1981
(lp1982
S'Boron-nitrogen based materials for hydrogen storage'
p1983
asS'BIODEC'
p1984
(lp1985
S'BIOLOGICAL ELIMINATION OF CHLORINATED ETHYLENES IN COMBINED ANAEROBIC AND AEROBIC BIOFILM REACTOR SYSTEMS'
p1986
asS'B2BRELATIONSHIPS'
p1987
(lp1988
S'Developing business relationships by SMEs in the intercultural environment'
p1989
asS'BYFAULT'
p1990
(lp1991
S'Bulk YBCO and high voltage fault current limiter'
p1992
asS'BIODET'
p1993
(lp1994
S'Networking in the application of biosensors to pesticide detection in fruits and vegetables'
p1995
asS'BERTON ALIX'
p1996
(lp1997
S'Identification, activation and regulation of matrix metalloproteinases triggering endometrial breakdown'
p1998
a(lp1999
S'Identification, activation and regulation of matrix metalloproteinases triggering endometrial breakdown'
p2000
aasS'BARP'
p2001
(lp2002
S'Bioartificial Pancreas'
p2003
asS'BUNI'
p2004
(lp2005
S'Broadband User/Network Interface Demonstrator'
p2006
a(lp2007
S'Broadband User/Network Interface Demonstrator'
p2008
aasS'BLISTA'
p2009
(lp2010
S'The development and validation of a mechanical measurement and testing machine, to define the performance, reliability and safety of child proof pharmaceutical blister packs (BLISTA)'
p2011
asS'BB.BICE'
p2012
(lp2013
S'New Brazilian bureau for enhancing the international cooperation with European Union'
p2014
asS'BIPESCO'
p2015
(lp2016
S'Biocontrol of important soil dwelling pests by improving the efficacy of insect pathogenic fungi'
p2017
asS'BAHAMAS'
p2018
(lp2019
S'Biological patinA for arcHaeological and Artistic Metal ArtefactS'
p2020
asS'BERLIN'
p2021
(lp2022
S'European cities and their stories. Menschen in Berlin - Lives In Berlin'
p2023
asS'BIOCONTROL'
p2024
(lp2025
S'Biological control of tomato disease'
p2026
a(lp2027
S'Bio-interfaces: From molecular understanding to application'
p2028
aasS'BIANCHO'
p2029
(lp2030
S'BIsmide And Nitride Components for High temperature Operation'
p2031
a(lp2032
S'BIsmide And Nitride Components for High temperature Operation'
p2033
aasS'BREW-PACK'
p2034
(lp2035
S'Multi-layer biopolymer films demonstrating selective gas barrier and functional properties suitable for high performance food packaging, derived from integrated bio-refining of sustainable biomass'
p2036
asS'BIOSEAFOOD'
p2037
(lp2038
S'Bioactive compounds from seafood byproducts'
p2039
asS'BUSY'
p2040
(lp2041
S'Tools And Practices For Business Cycle Analysis In National Statistical Institutes Of EU'
p2042
a(lp2043
S'Tools And Practices For Business Cycle Analysis In National Statistical Institutes Of EU'
p2044
aasS'BIOSTAT-CHF'
p2045
(lp2046
S'A systems BIOlogy Study to TAilored Treatment in Chronic Heart Failure'
p2047
asS'BUILDIC'
p2048
(lp2049
S'Multimedia Building Dictionary'
p2050
asS'BIOPACK'
p2051
(lp2052
S'Biodegradable extruded starch-based plastics for packaging material'
p2053
a(lp2054
S'Proactive biobased cheese packaging'
p2055
aasS'BIOPACA'
p2056
(lp2057
S'Biomonitoring of anthropogenic pollutants in coastal areas'
p2058
asS'BDECMIT'
p2059
(lp2060
S'B decays and new effective field theories'
p2061
asS'BIOKENAF'
p2062
(lp2063
S'Biomass production chain and growth simumation model for kenaf'
p2064
asS'BIOMIX'
p2065
(lp2066
S'PROCESSING OF BIOPOLYMER MIXTURES FOR ZERO AND LOW FAT FOODS'
p2067
asS'BIOPROS'
p2068
(lp2069
S'Solutions for the safe application of wastewater and sludge for high efficient biomass production in Short-Rotation-Plantations'
p2070
asS'BIOCASE'
p2071
(lp2072
S'Biocase - a biodiversity collection access service for europe'
p2073
asS'BIO-PRO'
p2074
(lp2075
S'New Burner Technologies for Low Grade Biofuels to Supply Clean Energy for Processes in Biorefineries (BIO-PRO)'
p2076
asS'BIOMIS'
p2077
(lp2078
S'Reduction of fouling, slagging and corrosion characteristics of miscantus for po wer & heat generation using biotechnology'
p2079
asS'BIOKER'
p2080
(lp2081
S'Extending the life span of orthopaedic implants: development of ceramic hip and knee prostheses with improved zirconia toughned alumina nanocomposites'
p2082
asS'BIO-NMR'
p2083
(lp2084
S'NMR for Structural Biology'
p2085
asS'BARBOU DES PLACES SE'
p2086
(lp2087
S"La concurrence des systemes normatifs dans l'union europeenne. exemple du droit des etrangers."
p2088
a(lp2089
S"La concurrence des systemes normatifs dans l'union europeenne. exemple du droit des etrangers."
p2090
aasS'BIOMIC'
p2091
(lp2092
S'A Bioanalytical Microsystem Based On An Optical Microchip'
p2093
a(lp2094
S'A Bioanalytical Microsystem Based On An Optical Microchip'
p2095
aasS'BIOSELFORGANIZATION'
p2096
(lp2097
S'Biophysical aspects of self-organization in actin-based cell motility'
p2098
asS'BABOUKAS EVANGELOS'
p2099
(lp2100
S'Tropospheric ozone over the mediterranean region: analysis of observations using a global chemistry general circulation model.'
p2101
asS'BIMILLEN'
p2102
(lp2103
S'Bimillenary of Christ'
p2104
asS'BRAIN STORM'
p2105
(lp2106
S'On-chip simultaneous intracellular recording and stimulation of electrical and biochemical activities from hundreds of neurons'
p2107
a(lp2108
S'On-chip simultaneous intracellular recording and stimulation of electrical and biochemical activities from hundreds of neurons'
p2109
aasS'BOMBBE'
p2110
(lp2111
S'Biodiversity of methylotrophs and their remediation and biotechnological exploitation'
p2112
asS'BIOLINK'
p2113
(lp2114
S'BIOLINK'
p2115
asS'BOARD'
p2116
(lp2117
S'Business objects approach in rapid development'
p2118
asS'BBFOR2'
p2119
(lp2120
S'Bayesian biometrics for forensics'
p2121
asS'BEPTAM'
p2122
(lp2123
S'Institutionalization of best practices for test automation and management'
p2124
asS'BRISEIDE'
p2125
(lp2126
S'BRIdging SErvices, Information and Data for Europe'
p2127
asS'BUILD ENV'
p2128
(lp2129
S'Buildings and environment : new skills in the field of construction'
p2130
asS'BLUE4GLUE'
p2131
(lp2132
S'Reinforcing capacity towards industrially relevant research on bio-inspired materials and delivery mechanisms'
p2133
asS'BIOHYPO'
p2134
(lp2135
S'Confronting the clinical relevance of biocide induced antibiotic resistance'
p2136
asS'BOOM'
p2137
(lp2138
S'Terabit-on-chip: micro and nano-scale silicon photonic integrated components and sub-systems enabling Tb/s-capacity, scalable and fully integrated photonic routers'
p2139
asS'BISMUTH'
p2140
(lp2141
S'Breaking inversion symmetry in magnets: understand via theory'
p2142
asS'BIRDGENOTEMP'
p2143
(lp2144
S'Estimating population parameters in endangered afrotropical birds using temporal genetic samples'
p2145
asS'BELL , BRENDAN'
p2146
(lp2147
S'Mechanisms of alternative splicing during programmed cell death'
p2148
a(lp2149
S'Mechanisms of alternative splicing during programmed cell death'
p2150
aasS'BDA TOOLS'
p2151
(lp2152
S'Business development & analysis tools'
p2153
asS'BEROTZA'
p2154
(lp2155
S'Small and medium-sized entreprise'
p2156
asS'BIFID'
p2157
(lp2158
S'Improvement of the hygienic quality of raw milk, cheese made with raw milk, meat and meat products based on a new microbiological standard, the bifidobacteria.'
p2159
asS'BIFIC'
p2160
(lp2161
S'Biomass/waste fbc with inorganics control (BIFIC)'
p2162
asS'BIOBANKS FOR HEALTH'
p2163
(lp2164
S'Optimising the use of european biobanks and health registries for research relevant to public health and combating desease (BIOBANKS FOR HEALTH)'
p2165
asS'BOJCAS'
p2166
(lp2167
S'Bolted joints in composite aircraft structures (BOJCAS)'
p2168
asS'BIOACTIVENITI'
p2169
(lp2170
S'Bioactive Nickel Titanium Shape Memory Alloys for Enhanced Osseo-integration'
p2171
asS'BRAIN REHABILITATION'
p2172
(lp2173
S'Brain plasticity and learning based therapy (BRAIN REHABILITATION)'
p2174
asS'BENJAMIN MARTIN'
p2175
(lp2176
S'Dynamic and targeted vectors for gene transfer'
p2177
a(lp2178
S'Dynamic and targeted vectors for gene transfer'
p2179
aasS'BRAINCAV'
p2180
(lp2181
S'Nonhuman adenovirus vectors for gene transfer to the brain'
p2182
asS'BRUIT'
p2183
(lp2184
S'Benchmarking Russia and Ukraine with respect to the Innovation TrendChart'
p2185
a(lp2186
S'Benchmarking Russia and Ukraine with respect to the Innovation TrendChart'
p2187
aasS'BIOEXPLOIT'
p2188
(lp2189
S'Exploitation of natural plant biodiversity for the pesticide-free production of food'
p2190
asS'BETTER'
p2191
(lp2192
S'BNCI-driven robotic physical therapies in stroke rehabilitation of Gait disorders'
p2193
a(lp2194
S'BNCI-driven robotic physical therapies in stroke rehabilitation of Gait disorders'
p2195
aasS'BARMINT'
p2196
(lp2197
S'Basic Research for Microsystems Integration'
p2198
asS'BETATOBETA'
p2199
(lp2200
S'The molecular basis of pancreatic beta cell replication'
p2201
asS'BILEDITA'
p2202
(lp2203
S'BILINGUAL ELECTRONIC DICTIONARIES AND INTELLIGENT TEXT ALIGNMENT'
p2204
asS'BONTEC'
p2205
(lp2206
S'Bonding technology for monolithic integration of GAAS optoelectronic devices on SI substrates for chip-to-chip optical interconnections'
p2207
asS'BECHER, ANJA'
p2208
(lp2209
S'Role of homers in trafficking and localisation of glutamatergic receptors'
p2210
asS'BODY LIFE'
p2211
(lp2212
S'Intelligent system monitoring the body compostion for better healthy life style and illness prevention'
p2213
a(lp2214
S'Intelligent system monitoring the body compostion for better healthy life style and illness prevention'
p2215
aasS'BECANDDECFROMSEQ'
p2216
(lp2217
S'Bose-Einstein condensation and quantum decoherence as scaling limits of the Schrodinger equation'
p2218
asS'BISCO'
p2219
(lp2220
S'Processing and Characterization of Bi based High Temperature Superconductors for Technical Applications'
p2221
asS'BEP-IIM'
p2222
(lp2223
S'Best practice in the integration of manufacturing with marketing & sales'
p2224
asS'BOOKTOWNNET'
p2225
(lp2226
S'EUROPEAN BOOK TOWN NETWORK - A MODEL FOR SUSTAINABLE RURAL DEVELOPMENT BASED ON CULTURAL HERITAGE'
p2227
asS'BIGDFT'
p2228
(lp2229
S'Density functional calculations for systems of unprecedented size on parallel computers'
p2230
asS'BOILERNOISE'
p2231
(lp2232
S'Development of a european measurement method for noise characterisation of domestic fuel oil and gas boilers (BOILERNOISE)'
p2233
asS'BHINIDATA'
p2234
(lp2235
S'Construction of realistic initial data coalescing binary black holes in circular orbits'
p2236
asS'BIOLIPOL'
p2237
(lp2238
S'Unraveling the biosynthesis of fatty acid-based lipid polymers in plants'
p2239
asS'BIOCRYSTALLOGENESIS'
p2240
(lp2241
S'Biocrystallogenesis of RNA - protein systems'
p2242
asS'BONE GLUE'
p2243
(lp2244
S'Biodegradable bone glue for skeletal repair'
p2245
asS'BIO-PACK'
p2246
(lp2247
S'Biodegradable extruded starch based plastics for packaging material'
p2248
asS'BIOCORES'
p2249
(lp2250
S'Biodiversity conservation, restoration and sustainable use in fragmented forest landscapes'
p2251
asS'BI PIEZO SHEAR'
p2252
(lp2253
S'Biaxial, piezo-electric, shear facility'
p2254
a(lp2255
S'Biaxial, piezo-electric, shear facility'
p2256
aasS'BIOPROFIBRE'
p2257
(lp2258
S'Development of cholesterol lowering foods through bioactive proteins and fibres'
p2259
asS'BARRAGE'
p2260
(lp2261
S'Cell compartmentalization, individuation and diversity'
p2262
asS'BIODEFENSE'
p2263
(lp2264
S'Rapid induction of passive immunity against weapons of bioterrorism using transformed GRAS (generally regarded as safe) microorganisms'
p2265
asS'BROOM'
p2266
(lp2267
S'Banking process reengineering through object-oriented modelling'
p2268
asS'BIOGRID'
p2269
(lp2270
S'Biotechnology Information and Knowledge Grid'
p2271
a(lp2272
S'Biotechnology Information and Knowledge Grid'
p2273
aasS'BIOAGROTEX'
p2274
(lp2275
S'Development of new agrotextiles from renewable resources and with a tailored biodegradability'
p2276
asS'BIOSLUDGES'
p2277
(lp2278
S'A new integrated bioleaching process for agricultural applications of wastewater sludges'
p2279
asS'BACTOCOM'
p2280
(lp2281
S'Bacterial computing with engineered populations'
p2282
a(lp2283
S'Bacterial computing with engineered populations'
p2284
aasS'B.R.I.G.H.T'
p2285
(lp2286
S'Boosting research and integration in Europe through Humboldt fellowships'
p2287
asS'BET. EUR'
p2288
(lp2289
S'Testing and analysing a transnational business management curriculum for master tradesman training'
p2290
asS'BMR-HEAD'
p2291
(lp2292
S'BALLISTIC MAGNETORESISTANCE SENSOR HEAD FOR MAGNETIC STORAGE'
p2293
a(lp2294
S'BALLISTIC MAGNETORESISTANCE SENSOR HEAD FOR MAGNETIC STORAGE'
p2295
aasS'BALTIC'
p2296
(lp2297
S'BASIC AND ADVANCED LANGUAGE TRANSNATIONAL INTERACTIVE COURSE'
p2298
asS'BIOMACHINES BIOWIRES'
p2299
(lp2300
S'Biomolecular machines and wires'
p2301
asS'BALTICGRID-II'
p2302
(lp2303
S'Baltic Grid second phase'
p2304
asS'BOTTLE-NC2'
p2305
(lp2306
S'NC-TURNING OF NON-CIRCULAR MOULDS FOR BOTTLES'
p2307
asS'BLUE WHALE'
p2308
(lp2309
S'Wafer level packaging for Handheld Applications in a LAN Environment "System-on-Chip Packaging for Wireless Connectivity"'
p2310
a(lp2311
S'Wafer level packaging for Handheld Applications in a LAN Environment "System-on-Chip Packaging for Wireless Connectivity"'
p2312
aasS'BIOFAQS'
p2313
(lp2314
S'Biofiltration and Aquaculture: An evaluation of hard substrate deployment performance within mariculture developments'
p2315
a(lp2316
S'Biofiltration and aquaculture: an evaluation of hard substrate deployment performance within mariculture developments'
p2317
aasS'BIOFUEL'
p2318
(lp2319
S'Biofuels from Solid Wastes'
p2320
asS'BSMS-NANOCOMPLEXES'
p2321
(lp2322
S'Bulk and surface properties and nanocomplexes of macromolecules and surfactants'
p2323
asS'BIO-NET'
p2324
(lp2325
S'A network of national contact points providing cutting-edge NCP services to the knowledge based bio-economy research community'
p2326
asS'BRUNDTLAND'
p2327
(lp2328
S'Brundtland City Network'
p2329
asS'BOI'
p2330
(lp2331
S'Body-Object Integration (BOI): The neurocognitive basis of integrating conceptual object knowledge in the body representation'
p2332
asS'BACS'
p2333
(lp2334
S'Bayesian approach to cognitive systems'
p2335
a(lp2336
S'Bayesian approach to cognitive systems'
p2337
aasS'BEATRIZ GIL'
p2338
(lp2339
S'"identification of novel proteins involved in neuronal polarization"'
p2340
asS'BOB'
p2341
(lp2342
S'Benchmarking of Benchmarking'
p2343
a(lp2344
S'Benchmarking of Benchmarking'
p2345
aasS'BIRGIT HERTWECK'
p2346
(lp2347
S'Mineralogical and spectroscopic study of hydrous magnesium germanate spinel'
p2348
asS'BIOBS'
p2349
(lp2350
S'Evaluation of coastal pollution status and bioindicators for the Black Sea'
p2351
asS'BEE DOC'
p2352
(lp2353
S'Bees in Europe and the decline of honeybee colonies'
p2354
asS'BIOENERGY NETWORKS'
p2355
(lp2356
S'European Bioenergy Networks'
p2357
asS'BAMBI'
p2358
(lp2359
S'Broadcasting and Multimedia Bridge to the Internet'
p2360
a(lp2361
S'Better Access to Manuscripts and Browsing of Images'
p2362
aasS'BRAFO'
p2363
(lp2364
S'A specific support action to investigate the risk benefit analysis for foods'
p2365
asS'BEET-PULP'
p2366
(lp2367
S'Use of micronised and bleached beet pulp as additive in white boards and papers'
p2368
asS'BAGIT'
p2369
(lp2370
S'Biomas and gas integrated chp technology (BAGIT)'
p2371
asS'BOHUS OBERT'
p2372
(lp2373
S'Gene transfer via the androgenic pathway in barley'
p2374
asS'BMP 8B THERMOGENESIS'
p2375
(lp2376
S'Role of bone morphogenic protein 8b (BMP8b) in thermogenesis'
p2377
asS'BOUSS'
p2378
(lp2379
S'Theory and numerical analysis for boussinesq systems with applications in coastal hydrodynamics'
p2380
asS'BACANOVA'
p2381
(lp2382
S'Optimisation of safe food processing methods based on accurate characterisation of bacterial lag time using analysis of variance techniques'
p2383
asS'BIOCONVERSION'
p2384
(lp2385
S'PRODUCTION OF FATTY ACID ESTERS USABLE AS FUELS BY FERMENTATION OF BIOMASS'
p2386
asS'BLANKSIM'
p2387
(lp2388
S'Blanking simulation using HPCN technology'
p2389
a(lp2390
S'Blanking simulation using HPCN technology'
p2391
aasS'BIOMIGAG'
p2392
(lp2393
S'Biomimetic surface modification of tissue engineering scaffolds with glycosaminoglycans'
p2394
asS'BOOTSTREP'
p2395
(lp2396
S'Bootstrapping Of Ontologies and Terminologies STrategic REsearch Project'
p2397
a(lp2398
S'Bootstrapping Of Ontologies and Terminologies STrategic REsearch Project'
p2399
aasS'BIODIVERSITY'
p2400
(lp2401
S'Biodiversity'
p2402
a(lp2403
S'Biodiversity'
p2404
aasS'BIONET'
p2405
(lp2406
S'Ethical governance of biological and biomedical Research: Chinese-European Co-operation'
p2407
a(lp2408
S'Strategic Development of European Networks in Biomechanics'
p2409
aa(lp2410
S'Strategic Development of European Networks in Biomechanics'
p2411
aasS'BET-ORG-OWN'
p2412
(lp2413
S'Towards A Behavioral Theory of Organizational Ownership: A Comparative Study in Shareholder Behavior'
p2414
asS'BRU-VAC'
p2415
(lp2416
S'Animal brucellosis : genetically engineered live vaccines against b. melitensis (BRU-VAC)'
p2417
asS'BIONEL'
p2418
(lp2419
S'Bioanalytical electrochemistry and bionanotechnology "BIONEL"'
p2420
asS'BIO-ID WITH FS LASER'
p2421
(lp2422
S'BIOaerosol IDentification with optimal coherent control using FemtoSecond LASER pulses'
p2423
asS'BEYONDGR-2009-TPS'
p2424
(lp2425
S'Gravity beyond General Relativity'
p2426
asS'BREAD ENZYMES'
p2427
(lp2428
S'Enzymes modifications of macromolecules from wheat from used in bread making'
p2429
asS'BIOSAFETY-EUROPE'
p2430
(lp2431
S'Co-ordination, harmonisation and exchange of biosecurity practices within a pan European network'
p2432
asS'BARREL PLASTICITY'
p2433
(lp2434
S'Synaptic and molecular mechanisms of experience-dependent plasticity in the developing barrel cortex in vivo: role of horizontal connection modifications'
p2435
asS'BIONEMS'
p2436
(lp2437
S'Nano-electromechanical systems for biomedical applications'
p2438
asS'BIOSIM'
p2439
(lp2440
S'Biosimulation - A New Tool in Drug Development'
p2441
a(lp2442
S'Development and implementation of guideline and an expert and simulation system for biological revitalisation strategies in the remediation of areas impacted by human activities such as mining, industrial regions and landfills'
p2443
aa(lp2444
S'Development and implementation of guideline and an expert and simulation system for biological revitalisation strategies in the remediation of areas impacted by human activities such as mining, industrial regions and landfills'
p2445
aasS'BCL6-C-JUN-CAX'
p2446
(lp2447
S'cooperation between BCL6 and c-Jun in lymphoma development and progression'
p2448
asS'BIOIONS'
p2449
(lp2450
S'Biological ions in the gas-phase: New techniques for structural characterization of isolated biomolecular ions'
p2451
asS'BELLO, NATALIA'
p2452
(lp2453
S'Simultaneous multi-detection of animal species in raw and processed foods'
p2454
asS'BERGEN MARINE'
p2455
(lp2456
S'Bergen marine food chain research infrastructure'
p2457
a(lp2458
S'Bergen marine food chain research infrastructure'
p2459
aasS'BRYOZOA'
p2460
(lp2461
S'Ecological genetics of Bryozoa-Myxozoa host-parasite interactions'
p2462
asS'BIOSEQANALYSIS'
p2463
(lp2464
S'Computational methods for biological sequence analysis with application to evolution of yeast mitochondrial genomes'
p2465
asS'BIOSOFT'
p2466
(lp2467
S'Light scattering investigation of bio-functionalised amphiphiles'
p2468
asS'BUXADE FORTUNY, MARI'
p2469
(lp2470
S'Mnk control of cytokine expression in t-cell activation'
p2471
asS'BIOSCORE'
p2472
(lp2473
S'Biodiversity impact assessment using species sensitivity scores'
p2474
asS'BOLCI(R)'
p2475
(lp2476
S'Bonamia ostrae life cycle investigations, optimised production of resistent Ostrea edulis Spat, and studies of oyster (Ostre Edulis) immune mechanims'
p2477
a(lp2478
S'Bonamia ostrae life cycle investigations, optimised production of resistent Ostrea edulis'
p2479
aasS'BIOREMA'
p2480
(lp2481
S'Reference materials for biofuel specifications'
p2482
asS'BARP+'
p2483
(lp2484
S'Development of a bioartificial pancreas for type I diabetes therapy'
p2485
asS'BRAINNIGHT'
p2486
(lp2487
S'Night of the Brains'
p2488
asS'BIDR'
p2489
(lp2490
S'The jacob blaustein institute for desert research (BIDR)'
p2491
asS'BENEDICT'
p2492
(lp2493
S'Benedict - The New Intelligent Dictionary'
p2494
a(lp2495
S'Benedict - The New Intelligent Dictionary'
p2496
aasS"BANK '92"
p2497
(lp2498
S"Bank '92"
p2499
asS'BIPHOREP'
p2500
(lp2501
S'Biogenic VOC emissions and photochemistry in the boreal regions of Europe'
p2502
asS'BENEFIT'
p2503
(lp2504
S'Concerted Action for Stimulation and Support of East-West Collaborations in the Areas of Microelectronics and Signal Processing'
p2505
asS'BERTHIER STEPHANE'
p2506
(lp2507
S'Root anchorage modelling to predict stability of forest stands.'
p2508
asS'BIOGASMAX'
p2509
(lp2510
S'Biogas market expansion to 2020'
p2511
asS'B2B-ECOM'
p2512
(lp2513
S'Intelligent Personalised Catalogues to innovate and boost Business to Business E-Commerce (applied within the domain of electrical equipment components)'
p2514
a(lp2515
S'Intelligent Personalised Catalogues to innovate and boost Business to Business E-Commerce (applied within the domain of electrical equipment components)'
p2516
aasS'BIOMASS PRESERVATION'
p2517
(lp2518
S'Novel methods to preserve specialized bacteria for biodegradation of complex industrial wastewaters'
p2519
asS'BGGE'
p2520
(lp2521
S'13MW CHP plant based on biomass Gasifier with gas engines'
p2522
a(lp2523
S'13 MW CHP Plant Based on Biomass Gasifier with Gas Engines'
p2524
aasS'BEN-DET'
p2525
(lp2526
S'Improved air pollution and worker exposure monitoring and control through the development of a near real time benzene specific gas analysis & measurement instrument (BEN-DET)'
p2527
asS'BIODIEPRO'
p2528
(lp2529
S'Demonstration of the production of bio-diesel from tallow and recovered vegetable oil'
p2530
a(lp2531
S'Demonstration Of The Production Of Biodiesel From Tallow And Recovered Vegetable Oil'
p2532
aasS'BRAIN TOUCH'
p2533
(lp2534
S'3D flexible probe for deep brain stimulation and recording'
p2535
asS'BIOSOCIETY2008'
p2536
(lp2537
S'THE EMERGENCE OF A BIOSOCIETY. Toward an "anthropology of the contemporary"'
p2538
asS'BALOUIN YANN'
p2539
(lp2540
S'Improvement and applicability of sediment tracing techniques for evaluating littoral transport : case studies in the mediterranean'
p2541
asS'BMFC'
p2542
(lp2543
S'Biological and microbial fuel cells'
p2544
asS'BBBPERM'
p2545
(lp2546
S'1.1.1 molecular basis of blood-brain barrier permeability regulation'
p2547
asS'BRIDGEPLEX'
p2548
(lp2549
S'Application of duplex stainless steel for welded bridge construction in aggressive environment'
p2550
asS'BS-RESPOT'
p2551
(lp2552
S'Research potential of the Black Sea countries'
p2553
asS'BIGBONE'
p2554
(lp2555
S'Biologically induced guided bone neogenesis'
p2556
asS'BRAINTUNING'
p2557
(lp2558
S'Tuning the brain for music'
p2559
a(lp2560
S'Tuning the Brain for music'
p2561
aasS'BRICKS'
p2562
(lp2563
S'Building Resources for Integrated Cultural Knowledge Services'
p2564
a(lp2565
S'Building Resources for Integrated Cultural Knowledge Services'
p2566
aasS'BIOD-IBERIA'
p2567
(lp2568
S'Iberian collections of fauna and flora'
p2569
a(lp2570
S'Iberian collections of fauna and flora'
p2571
aasS'BIOSEM'
p2572
(lp2573
S'SOCIO-ECONOMIC MULTIPLIER MODEL FOR RURAL DIVERSIFICATION THROUGH BIOMASS ENERGY DEPLOYMENT'
p2574
asS'BRAPORT'
p2575
(lp2576
S'Braille Printers on Reusable Thermoplastic Sheets'
p2577
a(lp2578
S'Braille printer on reusable thermoplastic sheets'
p2579
aasS'BOTRYTISGENOMICS'
p2580
(lp2581
S'Genomics of the Botrytis cinerea grapevine interaction'
p2582
asS'BANDIT'
p2583
(lp2584
S'Embedding analogue-to-digital converters on digital telecom Asics'
p2585
asS'BIOTPHEX'
p2586
(lp2587
S'Multiplex bioassays using the two-photon excitation method (BIOTPHEX)'
p2588
asS'BAINITE DESIGN'
p2589
(lp2590
S'Design of bainite in steels from homogeneous and inhomogeneous microstructures using physical approaches'
p2591
asS'BENATURAL'
p2592
(lp2593
S'Bioengineered Nanomaterials for research and applications'
p2594
asS'BARTOC'
p2595
(lp2596
S'Bus Advanced Real Time Operational Control'
p2597
asS'BONDSHIP'
p2598
(lp2599
S'Bonding of lightweight materials for cost effective production of high speed craft and passenger ships (BONDSHIP)'
p2600
asS'BENSC ACCESS 2'
p2601
(lp2602
S'Enhanced access to the berlin neutron scattering center (bensc) - add-on prolongation'
p2603
a(lp2604
S'Enhanced access to the berlin neutron scattering center (bensc) - add-on prolongation'
p2605
aasS'BMP OSTEOGENESIS MSC'
p2606
(lp2607
S'Mechanisms of recombinant human bone morphogenetic protein 2 - mediated osteogenesis of human bone marrrow stromal cells: regulatory signaling pathways and effect of aging'
p2608
asS'BESTOLIVE'
p2609
(lp2610
S'Technology transfer for olive-oil mill agricultural co-operatives'
p2611
asS'BIOENERGY IN MOTION'
p2612
(lp2613
S'Production of a movie to accelerate the uptake of innovative bioenergy technologies for heating and cooling'
p2614
asS'BIODIESEL'
p2615
(lp2616
S'UTILIZATION OF VEGETABLE OILS AND THEIR DERIVATES AS DIESEL FUEL'
p2617
asS'BAMFBS'
p2618
(lp2619
S'Bio-active metabolites from bacteria symbiont and/or associated with marine sponges'
p2620
asS'BESSY GMBH'
p2621
(lp2622
S'Berliner elektronenspeicherring-gesellschaft fur synchrotron mbh (BESSY GMBH)'
p2623
a(lp2624
S'Berliner elektronenspeicherring-gesellschaft fur synchrotron mbh (BESSY GMBH)'
p2625
aasS'BILAT-USA'
p2626
(lp2627
S'Bilateral coordination for the enhancement and development of S&T partnerships between the European Union and the United States of America'
p2628
asS'BHMASS'
p2629
(lp2630
S'Quasar black hole mass estimates: identifying systematic biases for improved mass scaling laws'
p2631
asS'BIOBRIDGE'
p2632
(lp2633
S'Integrative genomics and chronic disease phenotypes: modelling and simulation tools for clinicians'
p2634
asS'BLACK SEA WEB'
p2635
(lp2636
S'Demonstrator for black sea marine environmental management support system based on telematics'
p2637
asS'BEAVER PHYLOGENY AND'
p2638
(lp2639
S'Dna sequence phylogeny of the eurasian beaver and its implications for conservation'
p2640
asS'B-BONE'
p2641
(lp2642
S'Broadcasting and multicasting over enhanced UMTS mobile broadband networks'
p2643
a(lp2644
S'Broadcasting and multicasting over enhanced UMTS mobile broadband networks'
p2645
aasS'BIAMFOOD'
p2646
(lp2647
S'Controlling biogenic amines in traditional food fermentations in regional Europe'
p2648
asS'BIOMAHE'
p2649
(lp2650
S'Biodegradable polymeric materials for health and environment -centre of excellence'
p2651
asS'BIOISOTOPE'
p2652
(lp2653
S'Assessment of natural attenuation applying stable isotope and molecular biological techniques'
p2654
asS'BRIMAS'
p2655
(lp2656
S'Bio-resorbable implants for minimal access surgery'
p2657
asS'BIOPYRR'
p2658
(lp2659
S'New Methodology for the Synthesis of Bioactive Pyrrolidines and Pyrrolidinones'
p2660
asS'BRIGHT NIGHT 2'
p2661
(lp2662
S'Belgian Researchers Initiatives to Heat That NIGHT 2'
p2663
asS'BRIGHT NIGHT 3'
p2664
(lp2665
S"Belgian researcher's initiatives to heat that night 3"
p2666
asS'BABE'
p2667
(lp2668
S'Beekeeping and biodiversity in europe (BABE)'
p2669
asS'BEMOSA'
p2670
(lp2671
S'Behavioral modeling for security in airports'
p2672
asS'BADANA'
p2673
(lp2674
S'Development of an automated process to extract fibres from the waste of banana food production for exploitation as a sustainable reinforcement in injection- and rotomoulded products'
p2675
asS'BUGCHECK'
p2676
(lp2677
S'A RAPID HAND-HELD ANALYSER FOR CONTROL OF MICROORGANISMS IN THE COMPLETE MEAT SUPPLY CHAIN'
p2678
asS'BIOTOXMARIN'
p2679
(lp2680
S'Development of novel analytic tools for the detection of marine biotoxins'
p2681
asS'BABY'
p2682
(lp2683
S'Expecting  and  Growing  a  Baby'
p2684
asS'BENCHMARK EXPERIMENT'
p2685
(lp2686
S'Benchmark experiments to validate EFF (European fusion file) data'
p2687
asS'BIOSYN-NUDICAUL'
p2688
(lp2689
S'Biosynthetic studies of nudicaulins in laser-microdissected petal cell of Papaver nudicaule by the use of NMR spectroscopy and hyphenated technique LC-NMR'
p2690
asS'BONE SCAN'
p2691
(lp2692
S'Traces in the bones: reconstructing the lost soft anatomy of the earliest vertebrates through ultra-high resolution synchrotron scanning'
p2693
asS'BE-SECBS'
p2694
(lp2695
S'Benchmark exercise on safety evaluation of computer-based systems'
p2696
asS'BENG'
p2697
(lp2698
S'Show me your colour: the neuroendocrine and molecular underpinnings of phenotypic variation in colour and aggression in cichlid fish'
p2699
asS'BERKLEY-IAC'
p2700
(lp2701
S'Probing the formation and evolution of brown dwarfs'
p2702
asS'BORGES'
p2703
(lp2704
S'Automated information filtering and profiling'
p2705
asS'BIDS'
p2706
(lp2707
S'Broadband Infrastructures for Digital Television and Multimedia Services'
p2708
asS'BACBONE'
p2709
(lp2710
S'Predicting DNA survival in forensic and archaeological bone. Identifying determinants of DNA preservation and characterising bacterial degradation of bone'
p2711
asS'BIOCLA'
p2712
(lp2713
S'Production of cla-enriched dairy products by natural means'
p2714
asS'BERNHARD GREGOR BAUM'
p2715
(lp2716
S'Characterisation of a novel gene that is differentially expressed in the skeletal muscle of obese and diabetic patients.'
p2717
asS'BUSIAP'
p2718
(lp2719
S'Hierarchical classification, mining and semantic retrieval in remote sensing image archives'
p2720
asS'BIOPRESS'
p2721
(lp2722
S'Linking pan-european landcover change to pressures on biodiversity'
p2723
asS'BIOBIZ 4'
p2724
(lp2725
S'Training program for future Bioentrepreneurs'
p2726
asS'BIOCOMPOSITES'
p2727
(lp2728
S'New all-natural composite materials based on renewable resources'
p2729
asS'BASSA'
p2730
(lp2731
S'Bond assisted single step assembly of aircraft structural components'
p2732
asS'BASST'
p2733
(lp2734
S'Band sawing of natural stone materials for the production of slabs and tiles (BASST)'
p2735
asS'BESUB'
p2736
(lp2737
S'Biochemicals and energy from sustainable utilisation of herbaceous biomass (BESUB)'
p2738
asS'BIOMORPH'
p2739
(lp2740
S'Development and Validation of Techniques for Brain Morphometry'
p2741
asS'BACTERIAL CROSS-TALK'
p2742
(lp2743
S'Cross-talk among pathogens, commensal and environmental factors in the digestive tract'
p2744
asS'BREIN'
p2745
(lp2746
S'Business objective driven reliable and intelligent Grids for real Business'
p2747
a(lp2748
S'Business objective driven reliable and intelligent Grids for real Business'
p2749
aasS'BILAT-RUS'
p2750
(lp2751
S'Enhancing the bilateral S&T partnership with the Russian Federation'
p2752
asS'BOLTED FIELD JOINT A'
p2753
(lp2754
S'Bolted field joint and blanket bolted field joint and blanket ITER Task Agreement: Concept improvement task force'
p2755
asS'BIO-DNP'
p2756
(lp2757
S'Dynamic Nuclear Polarization for NMR in Structural Biology'
p2758
asS'BRAIBANT MARTINE'
p2759
(lp2760
S'Structure-function study of the putative efflux protein flor of salmonella enterica serovar typhymurium dt104'
p2761
asS'BACDIVERS'
p2762
(lp2763
S'Developing a genomic toolbox for exploring and exploiting bacterial biodiversity'
p2764
asS'BEESWARM'
p2765
(lp2766
S'Honeybee swarming'
p2767
asS'BNCT'
p2768
(lp2769
S'Therapeutic strategies for boron neutron capture therapy (BNCT)'
p2770
asS'BIOMICS'
p2771
(lp2772
S'Bioavailability of micronutrients : characterising absorption, metabolism and tissue targeting'
p2773
asS'BAOPITR'
p2774
(lp2775
S'Bulgarian awareness for participation in transnational research and innovation schemes in Europe'
p2776
asS'BOURBON'
p2777
(lp2778
S'Broadband Urban Rural Based Open Networks'
p2779
asS'BAYHEX'
p2780
(lp2781
S'Construction and testing of a bayonet tube high temperature heat exchanger for advanced power generation cycles'
p2782
asS'BS/IMS 2004'
p2783
(lp2784
S'6th World Congress of the Bernoulli and IMS societies'
p2785
asS'BRIMA'
p2786
(lp2787
S'Biofouling reduction in Marine Aquaculture'
p2788
a(lp2789
S'Biofouling reduction in marine aquaculture'
p2790
aasS'BALTICSEAWEB'
p2791
(lp2792
S'Geographical user interface for network-based Baltic Marine Environment Information System'
p2793
asS'BBVIV2'
p2794
(lp2795
S'Bbviv2'
p2796
asS'BRUCELLA VACCINE'
p2797
(lp2798
S'Development of an efficacious vaccine against animal brucellosis that is harmless for humans'
p2799
asS'BEAMING'
p2800
(lp2801
S'Beaming through augmented media for natural networked gatherings'
p2802
a(lp2803
S'Beaming through augmented media for natural networked gatherings'
p2804
aasS'BOYS WILL BE BOYS'
p2805
(lp2806
S'Boys will be boys? Gender differences in the socialization of disruptive behaviour in early childhood'
p2807
asS'BEDOUIN HEALTH'
p2808
(lp2809
S'Improving access to and quality of reproductive and child health care to marginal peoples:Bedouin in Jordan and Syria'
p2810
asS'BIOFER'
p2811
(lp2812
S'Biogeochemical cycling of iron in freshwater sediments under oxic and anoxic conditions'
p2813
asS'BACILLUS CEREUS'
p2814
(lp2815
S'Preventing bacillus cereus foodborne poisoning in europe - detecting hazardous strains, tracing contamination routes and proposing criteria for foods.'
p2816
asS'BUSNET'
p2817
(lp2818
S'Building useful NCP Networks'
p2819
asS'BRIDGE2GROWTH'
p2820
(lp2821
S'Boosting Regional Investments in RTD - Guiding Europe to Growth'
p2822
asS'BACONE'
p2823
(lp2824
S'A broad area of competences and needs across Europe'
p2825
asS'BIONOSE FOR ANIMAL C'
p2826
(lp2827
S'Electronic noses for non-invasive quality, safety and in-process control of industrial animal cell culture processes'
p2828
asS'BIO-MEDNANO'
p2829
(lp2830
S'Integrating enzymes, mediators and nanostructures to provide bio-powered bio-electrochemical sensing systems'
p2831
asS'BISTRO'
p2832
(lp2833
S'Bistro learning'
p2834
asS'BESTMM'
p2835
(lp2836
S'Methods and tools to improve software quality for multimedia products'
p2837
asS'BENTHIC CILIATES'
p2838
(lp2839
S'The Biodiversity, Systematics and Guide to the Identification of Marine Benthic Ciliates'
p2840
a(lp2841
S'The Biodiversity, Systematics and Guide to the Identification of Marine Benthic Ciliates'
p2842
aasS'BIOCERENG'
p2843
(lp2844
S'Bioceramics: multiscale engineering of advanced ceramics at the biology interface'
p2845
asS'BIO.IMAGE'
p2846
(lp2847
S'Bio molecular image processing tool'
p2848
asS'BIOGEST'
p2849
(lp2850
S'Biogases transfers in estuaries.'
p2851
asS'BEYOND LOCAL QFT'
p2852
(lp2853
S'Beyond local quantum fields: Non-commutative field theory and deformed symmetries'
p2854
asS'BIOWAVES'
p2855
(lp2856
S'Influence of planetary waves on the biogeochemical system in the global ocean'
p2857
asS'BESECU'
p2858
(lp2859
S'Human behaviour in crisis situations: a cross cultural investigation to tailor security-related communication'
p2860
asS'BIODIVERSITY ASSESSM'
p2861
(lp2862
S'Biodiversity assessment tools'
p2863
asS'B-SENS'
p2864
(lp2865
S'Magnetostrictive bilayers for multi-functional sensor families'
p2866
asS'BIOPOWDERS'
p2867
(lp2868
S'Research training in powder technology for competitive manufacture of food, pharmaceutical, nutraceutical and biological powders'
p2869
asS'BLACK SEA SCENE'
p2870
(lp2871
S'Black Sea scientific network'
p2872
asS'BESTREGIT'
p2873
(lp2874
S'Training of regional technology transfer experts using best-practice models from Europe'
p2875
asS'BECAUSE'
p2876
(lp2877
S'Benchmark of Concurrent Architectures for Use in Scientific Engineering'
p2878
a(lp2879
S'Critical Interactions BEtween Species and their Implications for a PreCAUtionary FISheries Management in a variable Environment- a Modelling Approach'
p2880
aasS'BIOMIMETIC-CORTEX'
p2881
(lp2882
S'Actin-membrane interaction in biomimetic and living cellular systems studied with a novel, high precision optical method'
p2883
asS'BARTOLO'
p2884
(lp2885
S'Solvent-tolerant bacteria allowing a broader performance of biotransformations or organic compounds in two-phases fermentation systems'
p2886
asS'BIOHYDROGEN'
p2887
(lp2888
S'A novel bioprocess for hydrogen production from biomass for fuel cells'
p2889
asS'BEYONDBORDERS'
p2890
(lp2891
S"Beyond borders Maastricht University Researchers' Night"
p2892
asS'BIONEXGEN'
p2893
(lp2894
S'Development of the next generation bioreactor system'
p2895
asS'BMC'
p2896
(lp2897
S'Bispecific monoclonal antibody technology concept'
p2898
asS'BARRIER'
p2899
(lp2900
S'A new concept for improving the barrier properties of commodity Polymers in thick sections, enabling their long term use in aggressive Environments'
p2901
a(lp2902
S'DEVELOPMENT OF A MULTIMEDIA DATABASE PROVIDING INFORMATION ON THE ACCESSIBILITY IN PUBLIC BUILDINGS FOR PEOPLE WITH HANDICAPS TO THEIR MOBILITY'
p2903
aasS'BMR'
p2904
(lp2905
S'Ballistic magnetoresistance in thin film nanocontacts'
p2906
asS'BIOTELEKINESY'
p2907
(lp2908
S'The BIOTELEKINESY home-care service : a communication platform for the tele-monitoring and the tele-management of the elderly to detect locomotion disabilities and prevent fall'
p2909
asS'BMW'
p2910
(lp2911
S'Benchmark models for the water framefork directive'
p2912
asS'BOOST MT'
p2913
(lp2914
S'Support to Maltese organisations for achieving a good level of participation in the Sixth Framework Programme and beyond'
p2915
asS'BIOENGINEERED NICHES'
p2916
(lp2917
S'Bioengineering the neural stem cell niche to identify regulators of fate determination'
p2918
asS'BACREX'
p2919
(lp2920
S'Exploration of genomic and metabolite diversity of a novel group of abundant soil bacteria'
p2921
asS'BIROX'
p2922
(lp2923
S'Development and Assessment of Biotechnological Methods for the Removal of Metal Anions from Waste Water'
p2924
asS'BEST-GIS'
p2925
(lp2926
S'Best practice in software engineering and methodologies for developing GIS applications'
p2927
asS'BIOMARKCRC'
p2928
(lp2929
S'Identification of surface biomarkers of colorectal cancer by new proteomics approaches (LC/MS/MS)'
p2930
asS'BREEDING SYNCHRONY'
p2931
(lp2932
S'The effects of breeding synchrony on avian reproductive strategies'
p2933
asS'BIMORE'
p2934
(lp2935
S'Bio-inspired Molecular Optoelectronics'
p2936
asS'BIOTURANIUM'
p2937
(lp2938
S'Bioturbation effects on distribution, fluxes, bioavailability and toxicity of uranium in freshwater ecosystems.'
p2939
asS'BSSUB'
p2940
(lp2941
S'Behaviour and social structure of urban badgers'
p2942
asS'BIOASSESS'
p2943
(lp2944
S'Biodiversity assessment and conservation science'
p2945
asS'BASPM'
p2946
(lp2947
S'Development of a beta Absorption equipment for filters to measure the Suspended Particulate Matter along with heavy metals'
p2948
asS'BESTAS2'
p2949
(lp2950
S'BESTAS2 - stimulating SME participation in Framework 5'
p2951
asS'BOFCOM'
p2952
(lp2953
S'Application of the biomass, oxyfuel and flameless combustion for the utilisation of pulverised coals for electricity generation'
p2954
asS'BIOTOX'
p2955
(lp2956
S'An Assessment Of Bio-oil Toxicity For Safe Handling And Transportation - Target Action H'
p2957
a(lp2958
S'An assessment of bio-oil toxicity for safe handling and transportation - target action H'
p2959
aa(lp2960
S'Development of cost-effective tools for risk management and traceability systems for marine biotoxins in seafood (BIOTOX)'
p2961
aasS'BIDON'
p2962
(lp2963
S'BIDON'
p2964
asS'BEOBAL'
p2965
(lp2966
S'BEO Centre of Excellence Research Capacity Improvement for Sustainable Environment and Advanced Integration into ERA'
p2967
asS'BIOTOP'
p2968
(lp2969
S'Biofuels assessment on technical opportunities and research needs for Latin America'
p2970
asS'BITE'
p2971
(lp2972
S'Biometric Identification Technology Ethics Promoting research and public debate on bioethical implications of emerging biometric identification technologies'
p2973
a(lp2974
S'Biometric identification technology ethics promoting research and public debate on bioethical implications of emerging biometric identification technologies'
p2975
aasS'BERGEN COMP. PHYSICS'
p2976
(lp2977
S'Access to the bergen computational physics laboratory'
p2978
a(lp2979
S'Access to the bergen computational physics laboratory'
p2980
aasS'BIOCOLOR'
p2981
(lp2982
S'Ocean Colour for the Determination of Water Column Biological Processes-biocolor'
p2983
a(lp2984
S'Ocean Colour for the Determination of Water Column Biological Processes'
p2985
aasS'BIO-CT-EXPLOIT'
p2986
(lp2987
S'Innovative simulation tool for bone and bone biomaterials, based on enhanced CT-data exploitation'
p2988
a(lp2989
S'Innovative simulation tool for bone and bone biomaterials, based on enhanced CT-data exploitation'
p2990
aasS'BRAIN ENERGY'
p2991
(lp2992
S'Brain energy metabolism and neurotransmission: function and dysfunction'
p2993
asS'BIOTECH CONTROL'
p2994
(lp2995
S'Better management of process water systems by biotechnological identification and treatment of detrimental micro-organisms and metabolites'
p2996
asS'BCELLSMICETOMEN'
p2997
(lp2998
S'Translational study on the antigen presenting properties of human vs mouse B cell subpopulations'
p2999
asS'BIOTRANS'
p3000
(lp3001
S'6th european international conference on biocatalysis and biotransformations'
p3002
a(lp3003
S'Expression system for production of chiral hydroxy-compounds by whole cell biotransformation and in -situ extraction with a continuous high-cell-density recycling bioreactor system(BIOTRANS)'
p3004
aasS'BEARING'
p3005
(lp3006
S'New manufacturing process and design of a maintenance-free plain bearing with high mechanical resistance and working with high load (BEARING)'
p3007
asS'BACSIN'
p3008
(lp3009
S'Bacterial abiotic cellular stress and survival improvement network'
p3010
asS'BLUES'
p3011
(lp3012
S'Blue European semiconductor laser'
p3013
asS'BLIGHT - MOP'
p3014
(lp3015
S'Development of a systems approach for the management of late blight in eu organic potato production'
p3016
asS'BIO-AEROSOLS'
p3017
(lp3018
S'Aerosols in fixed-bed biomass combustion - formation, growth, chemical composition, deposition, precipitation and separation from flue gas (BIO-AEROSOLS)'
p3019
asS'BIONIT'
p3020
(lp3021
S'BIOFILMS IN BIOREACTORS FOR ADVANCED NITROGEN REMOVAL FROM WASTEWATER'
p3022
asS'BIFF'
p3023
(lp3024
S'Bivalves from farm to fork'
p3025
asS'BURULIVAC'
p3026
(lp3027
S'Identification and development of vaccine candidates for Buruli Ulcer Disease'
p3028
a(lp3029
S'Identification and development of vaccine candidates for Buruli Ulcer Disease'
p3030
aa(lp3031
S'Identification and development of vaccine candidates for Buruli Ulcer Disease'
p3032
aa(lp3033
S'Identification and development of vaccine candidates for Buruli Ulcer Disease'
p3034
aa(lp3035
S'Identification and development of vaccine candidates for Buruli Ulcer Disease'
p3036
aa(lp3037
S'Identification and development of vaccine candidates for Buruli Ulcer Disease'
p3038
aa(lp3039
S'Identification and development of vaccine candidates for Buruli Ulcer Disease'
p3040
aa(lp3041
S'Identification and development of vaccine candidates for Buruli Ulcer Disease'
p3042
aa(lp3043
S'Identification and development of vaccine candidates for Buruli Ulcer Disease'
p3044
aa(lp3045
S'Identification and development of vaccine candidates for Buruli Ulcer Disease'
p3046
aa(lp3047
S'Identification and development of vaccine candidates for Buruli Ulcer Disease'
p3048
aa(lp3049
S'Identification and development of vaccine candidates for Buruli Ulcer Disease'
p3050
aa(lp3051
S'Identification and development of vaccine candidates for Buruli Ulcer Disease'
p3052
aa(lp3053
S'Identification and development of vaccine candidates for Buruli Ulcer Disease'
p3054
aasS'BIG-HEART'
p3055
(lp3056
S'Bench-to-beside integrated approach to familial hypertrophic cardiomyopathy: To the HEART of the disease'
p3057
asS'BLINDOPTOGEN'
p3058
(lp3059
S'Vision restoration with optogenetic tools'
p3060
asS'BLISS'
p3061
(lp3062
S'Broadband Lightwave Sources and System'
p3063
a(lp3064
S'Blind Source Separation and Applications'
p3065
aa(lp3066
S'Blind Source Separation and Applications'
p3067
aasS'BIOCONNECTENCE'
p3068
(lp3069
S'Biodiversity and connectivity in the resilience of coastal marine communities'
p3070
asS'BIODESERT'
p3071
(lp3072
S'Biotechnology from desert microbial extremophiles for supporting agriculture research potential in Tunisia and Southern Europe'
p3073
asS'BARCELONA EXHIBITION'
p3074
(lp3075
S'Cities and regions info way to Europe - industrial exhibition'
p3076
asS"BISSOT'D"
p3077
(lp3078
S'Biochemical and Structural characterization of signal transduction by OTU family of Deubiquitinases'
p3079
asS'BOTIA'
p3080
(lp3081
S'Improving the safety of blood and organ supply by creating the research infrastructure to monitor emerging pathogens and develop new screening tests'
p3082
asS'BIOMIST'
p3083
(lp3084
S'Materials with improved stability for biotransformation processes'
p3085
asS'BAMONET'
p3086
(lp3087
S"Development of Bosnia and Herzegovina's Network of Mobility Centres"
p3088
asS'BESTCOM'
p3089
(lp3090
S"Implementation of e-business solutions in SME's to obtain competitive advantage and strengthening regional and European Innovation"
p3091
a(lp3092
S"Implementation of e-business solutions in SME's to obtain competitive advantage and strengthening regional and European Innovation"
p3093
aasS'BBF'
p3094
(lp3095
S'Identifying targets for antimicrobials against catheter related infections: analysis of temporal gene expression during bacterial bio-film formation using a novel strategy'
p3096
asS'BACOMA'
p3097
(lp3098
S'Improving technical management in baltic cod fishery'
p3099
asS'BELISSIMA'
p3100
(lp3101
S'BELGRADE INITIATIVE FOR SPACE SCIENCE, INSTRUMENTATION AND MODELLING IN ASTROPHYSICS'
p3102
asS'BIOGEOLOGICAL ENGINE'
p3103
(lp3104
S'Novel bio-geological engineering processes for heavy metal removal and recovery'
p3105
asS'BUROTROP'
p3106
(lp3107
S'Bureau for the development of research on tropical perennial soil crops 1993 - 1997'
p3108
asS'BIOFLAM'
p3109
(lp3110
S'Application of liquid biofuels in new heating technologies for domestic appliances based on cool flame vaporization and porous medium combustion (BIOFLAM)'
p3111
asS'BEEFGENES'
p3112
(lp3113
S'Exploring genome organization at QTLs for beef production traits at high resolution to identify candidate genes'
p3114
asS'BEAR'
p3115
(lp3116
S'Indicators for monitoring and evaluation of forest biodiversity in Europe'
p3117
asS'BIOFLAX'
p3118
(lp3119
S'Merging technologies from cell-wall biochemistry and advanced enzymology for high added value flax fibres'
p3120
asS'BEAM'
p3121
(lp3122
S'Biomedical Equipment Assessment and Management'
p3123
a(lp3124
S'Bridging effect assessment of mixtures to ecosystem situations and regulation'
p3125
aasS'BIRA FOR CHIP-CHIP'
p3126
(lp3127
S'Optimisation of a non-antibody based technology to improve the efficiency of genome-wide analysis of DNA binding sites'
p3128
asS'BAR STRUCTURE'
p3129
(lp3130
S'Microcrystallography of stabilized adrenergic receptors'
p3131
asS'BENCHMARK'
p3132
(lp3133
S'Benchmarking for Embedded Control and Real-Time Applications'
p3134
asS'BIOMEX'
p3135
(lp3136
S'Whole-cell baeyer-villiger monooxygenase biocatalysts: methodologies for exploitation'
p3137
asS'BETA-GLUCAN'
p3138
(lp3139
S'Design of foods with improved functionality and superior health effects using cereal beta-glucans'
p3140
asS'BORGEN, KATRINE'
p3141
(lp3142
S'Epidemiology and function of the variant esp gene in enterococcus faecium'
p3143
asS'BIREDA'
p3144
(lp3145
S'Capacity building in regional economic development agencies'
p3146
asS'BABA COOL'
p3147
(lp3148
S'Back-offices in banks: computers, games and on-line learning'
p3149
asS'BIOCARE'
p3150
(lp3151
S'Molecular Imaging for Biologically Optimised Cancer Therapy'
p3152
asS'BIOCARD'
p3153
(lp3154
S'Global Process To Improve Cynara cardunculus Exploitation for Energy Applications.'
p3155
asS'BIOCARB'
p3156
(lp3157
S'Carbonate Biomineralization in the Marine Environment: Paleo-climate proxies and the origin of vital effects'
p3158
asS'BOCAP'
p3159
(lp3160
S'Bone motion Capture from video sequences'
p3161
asS'BACTERIAL SPORES'
p3162
(lp3163
S'Investigating the Nature of Bacterial Spores'
p3164
asS'BREATHE'
p3165
(lp3166
S'Bristol environmental atmospheric chemistry'
p3167
asS'BROADCAST'
p3168
(lp3169
S'Basic Research on Advanced Distributed Computing: from Algorithms to Systems'
p3170
asS'BIOBROOM'
p3171
(lp3172
S'Biological control of broomrapes'
p3173
asS'BIOWASTE'
p3174
(lp3175
S'Bioprocessing of sewage sludge for safe recycling on agricultural land'
p3176
asS'BIO-REFINERY'
p3177
(lp3178
S'Demonstration Of An Integrated Bio-refinery/bio-electricity Generating Station Of 20mw Capacity - Target Action B - Bio-electricity'
p3179
asS'BIBLEX'
p3180
(lp3181
S'Public libraries tackle marginalisation: new functions, new challenges'
p3182
asS'BIOSENSORIMAGING'
p3183
(lp3184
S'Hyperpolarized biosensors in molecular imaging'
p3185
asS'BONE GENETICS'
p3186
(lp3187
S'Genetic and biological factors influencing bone density and remodelling'
p3188
a(lp3189
S'Genetic and biological factors influencing bone density and remodelling'
p3190
aasS'BYPROFEED'
p3191
(lp3192
S'Utilisation of by products from shrimp peeling, for feed addition to lobster fry, halibut juveniles, organic farmed salmon par and arctic char par and adults'
p3193
a(lp3194
S'Utilisation of by products from shrimp peeling, for feed addition to lobster fry, halibut juveniles, organic farmed salmon par and arctic char par and adults'
p3195
aasS'BLOODOMICS'
p3196
(lp3197
S'Identification of risk genes for atherothrombosis in coronary artery disease by transcriptome and proteome analysis and high throughput exon resequencing'
p3198
asS'B.O.T.S.'
p3199
(lp3200
S'Production of a multimedia package for the creation of new business opportunities under telematic support'
p3201
asS'BJOERN GUSTAVSEN'
p3202
(lp3203
S'High frequency modeling of transformers for simulation of electromagnetic transients'
p3204
asS'BIOGAP'
p3205
(lp3206
S'Biodiversity and genetics of algal populations'
p3207
asS'BIOMODULARH2'
p3208
(lp3209
S'Engineered modular bacterial hydrogen photo-production of hydrogen'
p3210
asS'BRAINTIME'
p3211
(lp3212
S'The biological clock in the brain : circadian genes and the sense of time (BRAINTIME)'
p3213
asS'BIGCOW'
p3214
(lp3215
S'BIoGeochemistry in a high CO2 World (BIGCOW): Lessons from the ocean anoxic events'
p3216
asS'BE2010-CONFERENCESME'
p3217
(lp3218
S'SMEs, Research & Innovation: Turning knowledge into profit'
p3219
asS'BACKPOCKET'
p3220
(lp3221
S'THE MOBILE DEVICE BACKUP TOOLSET'
p3222
a(lp3223
S'THE MOBILE DEVICE BACKUP TOOLSET'
p3224
aasS'BMNFU INFO'
p3225
(lp3226
S'Dissemination of results concerning the integrated production and exploitation of biological materials for non-food uses'
p3227
asS'BRI VI'
p3228
(lp3229
S'Bri vi'
p3230
a(lp3231
S'Bri vi'
p3232
aasS'BUDGETS OF CA AND MG'
p3233
(lp3234
S'Global cycles of Ca and Mg using Ca and Mg isotope ratios during continental weathering'
p3235
asS'BOS, CLEMENS'
p3236
(lp3237
S'Image guided gene therapy with modified stem cells: local delivery, tracking of labeled cells, and control of expression with local hyperthermia'
p3238
asS'BIO-TEACH-WORK'
p3239
(lp3240
S'Embo biology teachers workshops: continuing education for european biology teachers ceebt'
p3241
asS'BJERKNES'
p3242
(lp3243
S'ROLE OF ICE-OCEAN-ATMOSPHERE PROCESSES IN HIGH LATITUDE CLIMATE CHANGE'
p3244
asS'BRONTE'
p3245
(lp3246
S'BRONTE: Biological processes Re-descriptions by Ontology Expressions'
p3247
asS'BUILDING RURBAN RELA'
p3248
(lp3249
S'Building new relationships in rural areas under urban pressure'
p3250
asS'BEASTS'
p3251
(lp3252
S'Boosting the Economy by Assisting SMEs in the Tourism Sector'
p3253
a(lp3254
S'Boosting the Economy by Assisting SMEs in the Tourism Sector'
p3255
aasS'BIOFUELSTP'
p3256
(lp3257
S'European biofuels technology platform secretariat'
p3258
asS'BODY CONTOUR'
p3259
(lp3260
S'Body Contour - Basic Health, Fitness and Body Care Programme'
p3261
asS'BIOASSAYDEVICE'
p3262
(lp3263
S'A device for biological high-throughput assays based on in vitro compartmentalisation'
p3264
asS'BURNINGMICROBES'
p3265
(lp3266
S'Fire-induced changes on surface soil microbial communities in Mediterranean forests. Rehabilitation by addition of exogenous organic matter'
p3267
asS'BIODAM'
p3268
(lp3269
S'Inhibitors of biofilm damage on mineral materials'
p3270
a(lp3271
S'BIOSENSOR DEVELOPMENT FOR THE RAPID DETECTION OF ANTIBIOTICS IN MILK'
p3272
aasS'BLACKHOLEHOLOGRAM'
p3273
(lp3274
S'Black Holes, Superstrings, and Holography'
p3275
a(lp3276
S'Black holes, superstrings, and holography'
p3277
aasS'BIO-SNG'
p3278
(lp3279
S'Demonstration of the production and utilization of Synthetic Natural Gas (SNG) from solid biofuels'
p3280
asS'BIOSTRAT'
p3281
(lp3282
S'Developing the EU Biodiversity Research Strategy'
p3283
asS'BIOTRAINS'
p3284
(lp3285
S'A European biotechnology training network for the support of chemical manufacturing'
p3286
asS'BAPTISME'
p3287
(lp3288
S'Business application and tools for SMEs to cope with the Euro event'
p3289
asS'BENCHPAR'
p3290
(lp3291
S'Benchmark tests and guidance on coupled processes for performance assessment of nuclear repositories'
p3292
asS'BRIMOM'
p3293
(lp3294
S'Biofouling resistant infrastructure for measuring, observing and monitoring'
p3295
asS'BARBARA WIMMER'
p3296
(lp3297
S'Do hosts control parasite diversity? - an experimental study on soay sheep and their parasites'
p3298
asS'BOSEFERMIHE'
p3299
(lp3300
S'Ultracold Bose-Fermi Mixtures of Metastable Helium'
p3301
asS'BIOCELLUS'
p3302
(lp3303
S'BIOMASS FUELL CELL UTILITY SYSTEM'
p3304
asS'BREAK AWAY VALVE'
p3305
(lp3306
S'Break away valve'
p3307
asS'BIOTIP'
p3308
(lp3309
S'INJECTION MOULDING OF TITANIUM POWDERS FOR BIOMEDICAL APPLICATIONS'
p3310
asS'BESTLOG'
p3311
(lp3312
S'Logistics best practice'
p3313
asS'BUILDING ON THE PAST'
p3314
(lp3315
S'European Doctorate in the Social History of Europe and the Mediterranean'
p3316
asS'BS-ERA.NET'
p3317
(lp3318
S'Networking on science and technology in the Black Sea region'
p3319
asS'BUDALGGEO'
p3320
(lp3321
S'Algebraic Geometry'
p3322
asS'BIOAND'
p3323
(lp3324
S'Biomolecule driven assembly of nanoparticle based electronic devices'
p3325
a(lp3326
S'Biomolecule driven assembly of nanoparticle based electronic devices'
p3327
aasS'BLUEEAR'
p3328
(lp3329
S'Bluetooth assistive listening system'
p3330
a(lp3331
S'Bluetooth assistive listening system'
p3332
aasS'BOOKS2U!'
p3333
(lp3334
S'Books to you!'
p3335
a(lp3336
S'Books to you!'
p3337
aasS'BIOINFOGRID'
p3338
(lp3339
S'Bio-informatics grid application for life science'
p3340
asS'BIOFORUM'
p3341
(lp3342
S'European biodiversity forum - implementing the ecosystem approach (BIOFORUM)'
p3343
asS'BIOSYNTEX'
p3344
(lp3345
S'Biotechnical quality improvement of synthetic textile fibres'
p3346
asS'BONUS-ORTHO'
p3347
(lp3348
S'Orthopaedic shoes operation changed from a small shop operation to a large scale production system with a new arrangement (BONUS-ORTHO)'
p3349
asS'BRASIL'
p3350
(lp3351
S'Broadband to rural America over satellite integrated links'
p3352
a(lp3353
S'Belgian researchers animating sport and innovation links'
p3354
aa(lp3355
S'Broadband to rural America over satellite integrated links'
p3356
aasS'BRAINNET EUROPE II'
p3357
(lp3358
S'Network of European Brain and Tissue Banks for Clinical and Basic Neuroscience'
p3359
asS'B2B METRICS'
p3360
(lp3361
S'Statistical Indicators for the Information Society-Measuring Forms, Content, Strategy and Impacts of B2B E-Commerce'
p3362
a(lp3363
S'Statistical Indicators for the Information Society-Measuring Forms, Content, Strategy and Impacts of B2B E-Commerce'
p3364
aasS'BIONETRECON'
p3365
(lp3366
S'Reconstruction algorithms for biological networks'
p3367
asS'BRANEWORLD MODELS'
p3368
(lp3369
S'Investigation of the viability and cosmological consequences of the curvature corrections of the minimal Randall-Sundrum model.'
p3370
asS'BESST'
p3371
(lp3372
S'Breakthrough in European Ship and Shipbuilding Technologies'
p3373
asS'BREAKING THE CODE'
p3374
(lp3375
S'Breaking the code: interception and exploitation of intraspecific vibrational communication between insects by generalist predators'
p3376
asS'BIOPLASTICS'
p3377
(lp3378
S'Biodegradable plastics for environmentally friendly mulching and low tunnel cultivation'
p3379
asS'BIODECON'
p3380
(lp3381
S'Biological decontamination of surfaces using plasmas discharges'
p3382
asS'BESSE'
p3383
(lp3384
S'Brokering environmentally sustainable sanitation for europe'
p3385
asS'BE-NEURAL'
p3386
(lp3387
S'Cognitive and neural perspective on linguistics'
p3388
asS'BENEFITTING FROM BAC'
p3389
(lp3390
S'Exploiting bacteria for new applications and products in medicine and biotechnology'
p3391
asS'BIHARMONIC'
p3392
(lp3393
S'On biharmonic evolution equations'
p3394
asS'BRAIN AND ANXIETY'
p3395
(lp3396
S'Neural mechanisms of fear and anxiety: Interactions between proteases and extra-cellular Milieu'
p3397
asS'BIOMOLECULAR_COMP'
p3398
(lp3399
S'Biomolecular computers'
p3400
asS'BIO-CLAYS'
p3401
(lp3402
S'Bio-clays from several water media'
p3403
asS'BOREMED'
p3404
(lp3405
S'Boron contamination of water resources in the mediterranean region: distribution, sources, social impact and remediation (BOREMED)'
p3406
asS'BFA-HD'
p3407
(lp3408
S'Bio-active fatty acids in relation to health and disease'
p3409
asS'BREAST CT'
p3410
(lp3411
S'Dedicated CT of the female breast: feasibility, optimization and comparison to standard x-ray procedures (digital mammography and tomosynthesis)'
p3412
asS'BNEN'
p3413
(lp3414
S'Open Access to the Belgian Nuclear higher Education Network'
p3415
asS'BIOFILM TXRF'
p3416
(lp3417
S'Method development for determination of low Z elements in biofilms'
p3418
asS'BREAST CANCER MODELS'
p3419
(lp3420
S'Animals models for breast tumor formation'
p3421
asS'BIOSTRENGTH'
p3422
(lp3423
S'Strengthening regional bioresearch potential in greece: advanced scientific performance at the department of molecular biology and genetics in Thrace'
p3424
asS'BASIC SUPPORT FOR TE'
p3425
(lp3426
S'* Basic Support for Technology Work 1. Next Step Task Areas 2. Long Term Task Areas'
p3427
a(lp3428
S'* Basic Support for Technology Work 1. Next Step Task Areas 2. Long Term Task Areas'
p3429
aa(lp3430
S'Notification of Basic Support for Technology Work'
p3431
aa(lp3432
S'* Cost Estimate for BE Plasma Spraying'
p3433
aasS'BARLEY BREAD'
p3434
(lp3435
S'European guideline for healthy high fibre/ low salt baking process based on the use of European barley'
p3436
asS'BIOCONSUS'
p3437
(lp3438
S'Research potential in conservation and sustainable management of biodiversity'
p3439
asS'BIOCOMP'
p3440
(lp3441
S'New Classes of Engineering Composite Materials from Renewable Resources'
p3442
asS'BIOMED MINE'
p3443
(lp3444
S'Galway laboratory for biomedical data mining'
p3445
asS'BEFORE'
p3446
(lp3447
S'Benchmarking and foresight for regions of Europe'
p3448
asS'BDFAST'
p3449
(lp3450
S'Fast non-invasive bacteria determination in platelet units'
p3451
asS'BIOBUSINESS'
p3452
(lp3453
S'Training in research, product developement, marketing and sales in biobusiness'
p3454
asS'BIOMEDCHEM'
p3455
(lp3456
S'Training for new approaches in anti-parasite and anti-tumour drug discovery'
p3457
asS'BI-FXIII-B'
p3458
(lp3459
S'Stabilization of blood coagulation factor XIIIA in blood plasma: identification of the binding domain(s) involved in the binding with FXIII-A on FXIII-B'
p3460
asS'BRANCH OPTIMIZATION'
p3461
(lp3462
S'Constructional optimization of components (branch connection) of the compound plastic jacket pipe technology (branch optimization)'
p3463
asS'BUSMOD'
p3464
(lp3465
S'Business models in a world characterised by distributed generation'
p3466
a(lp3467
S'Business Models in A World Characterised By Distributed Generation'
p3468
aasS'BIORHIZ'
p3469
(lp3470
S'Biotic interactions in the rhizosphere as structuring forces for plant communities'
p3471
asS'BIO-GASCAT-POWER'
p3472
(lp3473
S'A 1mwe biomass fluidized bed Gasifier power plant with catalytic conversion of tars'
p3474
a(lp3475
S'A 1mwe Biomass Fluidised Bed Gasifier Power Plant with Catalytic Conversion of Tars'
p3476
aasS'BONECEM'
p3477
(lp3478
S'A Study of the Factors Determining Penetration of Polymethyl Methacrylate Bone Cement into Trabecular Bone'
p3479
asS'BIODEEP'
p3480
(lp3481
S'Biotechnologies form the deep (BIODEEP)'
p3482
asS'BRSCDP-TEA'
p3483
(lp3484
S'Bounded rationality and social concerns in decision processes: theory, experiments, and applications'
p3485
asS'B-VHF'
p3486
(lp3487
S'BROADBAND VHF AERONAUTICAL COMMUNICATIONS SYSTEM BASED ON MC-CDMA (B-VHF)'
p3488
asS'BOROMAT'
p3489
(lp3490
S'Boronic acids as building blocks for construction of molecular nanostructures and polymeric materials'
p3491
asS'BIOSTRUCT'
p3492
(lp3493
S'Multi-scale mathematical modelling of dynamics of structure formation in cell systems'
p3494
a(lp3495
S'Complex structural and multifunctional parts from enhanced wood-based composites - eWPC'
p3496
aasS'BIOMIMIC'
p3497
(lp3498
S'Biomimetic sensors as new generation of biotechnological devices for food safety and quality monitoring'
p3499
asS'BROADMAP'
p3500
(lp3501
S'Specifying and assessing BROADcaster Multi Access Portals for personalised multimedia content services.'
p3502
a(lp3503
S'Specifying and assessing BROADcaster Multi Access Portals for personalised multimedia content services.'
p3504
aasS'BIOCYCLE'
p3505
(lp3506
S'BIOMASS GASIFICATION FOR THE PRODUCTION OF ELECTRICITY AND HEAT'
p3507
asS'BACTOIL'
p3508
(lp3509
S'Bacterial dynamics and abundance'
p3510
asS'BLOODGEN'
p3511
(lp3512
S'Blood grouping and genotyping : improving patient safety and blood transfusion compatibility'
p3513
asS'BSR OPASS'
p3514
(lp3515
S'Black Sea Region OPET Associate'
p3516
a(lp3517
S'Black Sea region Opet associate'
p3518
aa(lp3519
S'Black Sea Region OPET Associate'
p3520
aasS'BRAINS'
p3521
(lp3522
S'Bringing research advances in neurobiology to society (BRAINS)'
p3523
asS'BABETHANOL'
p3524
(lp3525
S'New feedstock and innovative transformation process for a more sustainable development and production of lignocellulosic ethanol'
p3526
asS'BIO-NCHIPS'
p3527
(lp3528
S'Self-Assembly of Bio-Nanochips'
p3529
asS'BRAINSTEM GENETICS'
p3530
(lp3531
S'Genetic interactions in brainstem development and function (BRAINSTEM GENETICS)'
p3532
asS'BESTWHEATS'
p3533
(lp3534
S'Biodiversity for stripe rust resistance in Turkish wheats'
p3535
asS'BLEACH-CHEM PILOT'
p3536
(lp3537
S'Pilot de blanchiment du ctp'
p3538
asS'BVN'
p3539
(lp3540
S'BioVisioN - roadmap to successful deployments from the user and system integrator perspective'
p3541
a(lp3542
S'BioVisioN - roadmap to successful deployments from the user and system integrator perspective'
p3543
aasS'BANKSEC'
p3544
(lp3545
S'Secure Banking Application Assembly using a component based approach'
p3546
a(lp3547
S'Secure Banking Application Assembly using a component based approach'
p3548
aasS'BRAINCOM'
p3549
(lp3550
S'Increasing the information transfer of EEG-based brain-computer interfaces'
p3551
asS'BIOCURE'
p3552
(lp3553
S'Upgrade to CHP of a Biomass-Fired District Heating Plant in Denmark, Using a Combination of Gasification, a Novel Gas Tre'
p3554
asS'BEPRO'
p3555
(lp3556
S'Enabling Best Practices For Oncology'
p3557
a(lp3558
S'Enabling Best Practices For Oncology'
p3559
aasS'BSTVT'
p3560
(lp3561
S'Business success through vocational training'
p3562
asS'BIOSPHERE'
p3563
(lp3564
S'Biosphere - Atmosphere interactions of ammonia with grasslands across Europe'
p3565
asS'BEATRICE'
p3566
(lp3567
S'Building and Environmental Aerodynamics: Training, Research and Interchange of Expertise'
p3568
asS'BIOATTACH'
p3569
(lp3570
S'Biological agents that actively attack Cultural Heritage stoneworks'
p3571
asS'BARRACCUDA'
p3572
(lp3573
S'Resistance breeding against the barley leaf spot complex, a new barley disease in europe'
p3574
asS'BIOCOCHLEA'
p3575
(lp3576
S'The biophysics of the cochlea: from molecule to model'
p3577
asS'BIODISH'
p3578
(lp3579
S"Development of a ceramic hybrid receiver for biogas fired dish-stirling-systems for electric power supply ('BIODISH')"
p3580
asS'BONDSCHEME'
p3581
(lp3582
S'An assessment of the practicalities and acceptability of a bond scheme as part of common agricultural policy reform'
p3583
asS'BIOAIR'
p3584
(lp3585
S'Longitudinal assessment of clinical course and biomarkers in severe chronic airway disease'
p3586
asS'BIOSPORSUPPRESS'
p3587
(lp3588
S'BIOLOGICAL CONTROL OF AIR-BORNE NECTROTROPHIC PLANT PATHOGENS BY SUPPRESSION OF SPORE PRODUCTION'
p3589
asS'BAYASCAS RAMIREZ , J'
p3590
(lp3591
S'Role of the ph-domain in regulating pdk1 activity'
p3592
a(lp3593
S'Role of the ph-domain in regulating pdk1 activity'
p3594
aasS'BIOEXELL'
p3595
(lp3596
S'Biogas Centre of Excellence'
p3597
asS'BOUSSYDISTRICTHEATIN'
p3598
(lp3599
S'43% Electric Efficient Gas Turbine in Winter Operation for Nancy District Heating and National Grid Electricity Supply'
p3600
asS'BIOPATH'
p3601
(lp3602
S'Biopath'
p3603
asS'BACCARA'
p3604
(lp3605
S'Biodiversity and climate change, a risk analysis'
p3606
asS'BIOSPEC'
p3607
(lp3608
S'Sensor development for routine prediction of metal biouptake in freshwaters and soil solutions'
p3609
a(lp3610
S'Remote monitoring and control of biological processes for environmental protection and sustainable development'
p3611
aa(lp3612
S'How biochemical networks encode biological specificity: Modulation of cell migration by isoform specific ERK and Akt signaling'
p3613
aasS'BIO T- ETHICS'
p3614
(lp3615
S'Strategic initiatives to develop an interdisciplinary organization that contributes research and provides education on ethical aspects of biotechnology'
p3616
asS'BODISCAN'
p3617
(lp3618
S'Development of a cheap and reliable 3d body scanner for the production of made-to-measure clothes (BODISCAN)'
p3619
asS'BACPOLES'
p3620
(lp3621
S'Preserving cultural heritage by preventing bacterial decay of wood in foundation poles and archaeological sites'
p3622
asS'BREAKIT'
p3623
(lp3624
S'The BREast cancer interactive pathology Atlas Kit using off-line and on-line Information Technologies'
p3625
asS'BIOSAMP'
p3626
(lp3627
S'Mechanism of interaction of antimicrobial peptides with the cell membrane - a study using bio-sensing technologies'
p3628
asS'BIOMATRIX'
p3629
(lp3630
S'Study of DNA and RNA structures with Matrix Theory'
p3631
asS'BIOECOTOX'
p3632
(lp3633
S'Biomarkers: the early warning sentinel of chemical pollution risk assessment'
p3634
asS'BEAUVERIOLIDE'
p3635
(lp3636
S'Beauveriolide-Derived Cyclodepsipeptides as a New Class of Anti Alzheimer s Drugs'
p3637
asS'BENEFISH'
p3638
(lp3639
S'Evaluation and modelling of benefits and costs of fish welfare interventions in European Aquaculture'
p3640
asS'BIPMS'
p3641
(lp3642
S'Building Industry Project Management System'
p3643
asS'BIOFEED'
p3644
(lp3645
S'Biosensor feed-back control of waste water purification: photooxidation followed by biological degradation using highly active surfactant degrading bacteria'
p3646
a(lp3647
S'Biosensor feedback control of wastewater purification: photooxidation followed by biological degradation using highly active strains of surfactant degrading bacteria'
p3648
aasS'BIOTINYLATION'
p3649
(lp3650
S'Protein complex purification by in vivo biotinylation'
p3651
asS'BRAINCANNABINOIDS'
p3652
(lp3653
S'Understanding the molecular blueprint and functional complexity of the endocannabinoid metabolome in the brain'
p3654
asS'BOOTSTRAP'
p3655
(lp3656
S'Bootstrap'
p3657
asS'BIORESC'
p3658
(lp3659
S'Transfer of knowledge in biodiversity research and conservation'
p3660
asS'BIOPROTECT'
p3661
(lp3662
S'Development of an environmentally friendly protection for sweet pepper and strawberry'
p3663
asS'BIORESS'
p3664
(lp3665
S'Bioactive resorbable scaffolds for drug delivery in bone tissue engineering'
p3666
asS'BANK P.D.Q.'
p3667
(lp3668
S'A prediction mechanism for professional development and qualifications in banking. Effective use in vocational training actions and collective agreements.'
p3669
asS'BACSAFT'
p3670
(lp3671
S'The field testing and safety assessment of viral biopesticides for use in integrated pest management systems'
p3672
asS'BLANDINE RIMBAULT'
p3673
(lp3674
S'Iron homeostasis in c. reinhardtii : impacts of the up and down regulation of ferritin on gene expression and chloroplast proteome levels'
p3675
asS'BERNAL, FABIAN'
p3676
(lp3677
S'Identification of specific matrix metalloproteinases as targets for multiple sclerosis therapy'
p3678
asS'BIO-RESIDENCE'
p3679
(lp3680
S'Biometrics revisited for security, dependability and confidence'
p3681
asS'BUSINESS ARCHITECT'
p3682
(lp3683
S'Business Architect'
p3684
a(lp3685
S'Business Architect'
p3686
aasS'BIO LIGHT TOUCH'
p3687
(lp3688
S'Advanced near field optical tools with biochemical functional recognition at the single molecular level'
p3689
a(lp3690
S'Advanced near field optical tools with biochemical functional recognition at the single molecular level'
p3691
aasS'BIOSUMM'
p3692
(lp3693
S'Biosignal formation: the role of the sulfur cycle in microbial mats'
p3694
asS'BGCSE'
p3695
(lp3696
S'Bulgarian Centre Of Solar Energy'
p3697
a(lp3698
S'Bulgarian centre of solar energy'
p3699
aasS'BUDDY'
p3700
(lp3701
S'Building information supply chains with a high degree of adaptivity'
p3702
asS'BIOSEB'
p3703
(lp3704
S'Summer schools in ecology and biodiversity - understanding patterns and processes'
p3705
asS'BIOSEC'
p3706
(lp3707
S'Biometrics and security'
p3708
a(lp3709
S'Biosec: Security and privacy in life sciences data'
p3710
aa(lp3711
S'Biometrics and security'
p3712
aasS'BIOMALPAR'
p3713
(lp3714
S'Biology and Pathology of the Malaria Parasite'
p3715
asS'BIOMATHTECH 07-10'
p3716
(lp3717
S'Mathematical modeling of human physiological systems with biomedical applications'
p3718
asS'BULK SUBSTRATES'
p3719
(lp3720
S'Development of an energy efficient bulk sterilisation technique for the production of mycelium (BULK SUBSTRATES)'
p3721
asS'BRIDGE-MAP'
p3722
(lp3723
S'BRIDGING GENOMES: an integrated genomic approach towards genetic improvement of aquacultured fish species'
p3724
a(lp3725
S'Bridging genomes: An integrated genomic approach toward genetic improvement of aquacultured fish species'
p3726
aasS'BIOSIGS'
p3727
(lp3728
S'Devices and method validation for measuring Biogenic Signals in the sea'
p3729
asS'BIOCONS'
p3730
(lp3731
S'European centre for biodiversity and conservation research'
p3732
asS'BLUE BIRD'
p3733
(lp3734
S'High capacity blue source based magneto-optical disk drive dedicated to network integration'
p3735
asS'BEC FLOW'
p3736
(lp3737
S'Instability of superfluid flow in dilute Bose-Einstein condensates'
p3738
asS'BERND LORENZ'
p3739
(lp3740
S'Biological function of inorganic polyphosphates studies on osteoblast cell model'
p3741
asS'BALKANET'
p3742
(lp3743
S'Design and Development of a Multilingual Balkan WordNet'
p3744
a(lp3745
S'Design and Development of a Multilingual Balkan WordNet'
p3746
aasS'BIODIOL'
p3747
(lp3748
S'Process development for microbial production of the bulk chemical 1,3-propanediol from glycerol water as a waste effluent'
p3749
asS'BALTFOODQUAL'
p3750
(lp3751
S'Unlocking animal food quality research potential in Baltic region by developing scientific and technical capacities of the research institute Sigra'
p3752
asS'BABILAFUENTE BIOETHA'
p3753
(lp3754
S'Project For The Production Of 200 Million Litres Of Bioethanol En Babilafuente (Salamanca) From Cereals And Lignocellulose'
p3755
a(lp3756
S'Project for the production of 200 million litres of Bioethanol en Babilafuente (salamanca) from cereals and lignocellulose'
p3757
aasS'BASYNTHEC'
p3758
(lp3759
S'Bacterial Synthetic Minimal Genomes for Biotechnology'
p3760
asS'BIGPOWER'
p3761
(lp3762
S'T Research Capacity of TUBITAK-MRC Institute of Energy in the Fields of Integrated Biomass Gasification with Power Technologies'
p3763
a(lp3764
S'Advanced Biomass Gasification for High-Efficiency Power'
p3765
aasS'BALANCE@HOME'
p3766
(lp3767
S'Exploring home-based support systems for promotion of food, nutritional knowledge and personal choice.'
p3768
asS'BIOHEAT'
p3769
(lp3770
S'BIOHEAT - Promoting biomass heating in large buildings and blocks'
p3771
asS'BASEFOOD'
p3772
(lp3773
S'Sustainable exploitation of bioactive components from the Black Sea Area traditional foods'
p3774
asS'BIOMASS USE IN BRIAN'
p3775
(lp3776
S'Thermal utilization of virgin and residual biomass in Brianza (Italy) for district heating and electric co-generation'
p3777
a(lp3778
S'Thermal utilization of virgin and residual biomass in Brianza (Italy) for district heating and electric co-generation'
p3779
aasS'BACRNAS'
p3780
(lp3781
S'Non-coding RNAs in bacterial pathogenicity'
p3782
asS'BARBEUR'
p3783
(lp3784
S'History and future of Europe seen through the lens of the figure of the barbarian'
p3785
asS'BIODIAGNOSTICS'
p3786
(lp3787
S'Biological diagnostic tools using microsystems and supersensitive magnetic detection'
p3788
a(lp3789
S'Biological diagnostic tools using microsystems and supersensitive magnetic detection'
p3790
aasS'BIOINFOMED'
p3791
(lp3792
S'Prospective analysis on the relationships and synergy between MEDical informatics and BIOINFOrmatics'
p3793
a(lp3794
S'Prospective analysis on the relationships and synergy between MEDical informatics and BIOINFOrmatics'
p3795
aasS'BRAHMATWINN'
p3796
(lp3797
S'Twinning European and South Asian river basins to enhance capacity and implement adaptive integrated water ressources management approaches'
p3798
asS'BREASTCANCERWNTDDR'
p3799
(lp3800
S'Mechanisms underlying Wnt-induced DNA damage response in primary human breast epithelial cells'
p3801
asS'BGAS'
p3802
(lp3803
S"A Novel System for the Production of World's First Micro Ball Grid Array (BGA) Spheres for enabling the EU Electronics Industry to produce smaller electronics goods"
p3804
asS'BARVAUX VINCENT'
p3805
(lp3806
S'Resistance factors in cancer chemotherapy'
p3807
asS'BIRC FOR EUROPE'
p3808
(lp3809
S'The Brussels Innovation Relay Centre, the IRC of the capital of Europe'
p3810
asS'BOOSTING BALTIC FP6'
p3811
(lp3812
S'Boosting 4 ACC NCPs and their customers to advanced partnership, entrepreneurship and competitiveness for FP6 participation through expanded area of action by networking, training and coaching'
p3813
asS'BIOHAB'
p3814
(lp3815
S'Biological control of harmful algal blooms in european coastal waters: role of eutrophication.'
p3816
a(lp3817
S'Biohab, a framework for the coordination of biodiversity and habitats'
p3818
aasS'BIOREMEDIATION'
p3819
(lp3820
S'Bioremediation'
p3821
asS'BREATH'
p3822
(lp3823
S'Biomedical technology for respiration analysis through optoelectronics'
p3824
a(lp3825
S'Broadband e-Services and access for the home'
p3826
aa(lp3827
S'Characterization of biomarkers in breath of lung and breast cancer patients'
p3828
aa(lp3829
S'Broadband e-Services and access for the home'
p3830
aasS'BEYOND-THE-HORIZON'
p3831
(lp3832
S'Anticipating Future and Emerging Information Society Technologies'
p3833
a(lp3834
S'Anticipating Future and Emerging Information Society Technologies'
p3835
aa(lp3836
S'Anticipating Future and Emerging Information Society Technologies'
p3837
aa(lp3838
S'Anticipating Future and Emerging Information Society Technologies'
p3839
aasS'BRIGHTANIMAL'
p3840
(lp3841
S'Multidisciplinary approach to practical and acceptable precision livestock farming for SMEs in Europe and world-wide'
p3842
asS'BIOCOATING'
p3843
(lp3844
S'Development a new biocoating multi-layered polyelectrolyte film with incorporated drug-loaded liposomes'
p3845
asS'BIOGNOSIS'
p3846
(lp3847
S'Integrated biosensor system for label-free In-Vitro DNA and protein Diagnostics in health-care applications'
p3848
a(lp3849
S'Integrated Biosensor System for Label-Free In-Vitro DNA and Protein Diagnostics in Health-Care Applications'
p3850
aa(lp3851
S'Integrated biosensor system for label-free In-Vitro DNA and protein Diagnostics in health-care applications'
p3852
aasS'BIMACEL'
p3853
(lp3854
S'Biological and magnetic records, and dating of climatic changes in Western European Loess series'
p3855
asS'BERES'
p3856
(lp3857
S'when I grow up, I want to be a life science researcher'
p3858
asS'BLUETONGUE VACCINATI'
p3859
(lp3860
S'Development of a safe, efficacious bluetongue virus vaccination strategy for europe (BLUETONGUE VACCINATION)'
p3861
asS'BONE'
p3862
(lp3863
S'Building the future optical Network in Europe: The e-Photon/ONe Network'
p3864
asS'BOND'
p3865
(lp3866
S'Biogenic aerosols and air quality in the mediterranean area'
p3867
asS'BIOTACT'
p3868
(lp3869
S'Biomimetic technology for vibrissal active touch'
p3870
a(lp3871
S'Biomimetic technology for vibrissal active touch'
p3872
aasS'BIOGAS BY BIOAUGMENT'
p3873
(lp3874
S'Optimised Biogas Production and Resource Recovery through Bio-Augmentation in a Joint Plant Treating Poultry and Pig Wa'
p3875
asS'BSE TRANSMISSION TO PR    y34'
p3876
(lp3877
S'Bse transmission through food and blood products: a study in primates to assess the risk for humans'
p3878
asS'BIOLUBRICATION'
p3879
(lp3880
S'Oral bio-lubrication and bio-adsorption from multi-phased complex fluids'
p3881
asS'BRAINPLASTICITY'
p3882
(lp3883
S'In vivo imaging of functional plasticity in the mammalian brain'
p3884
asS'BIOSTIMUL'
p3885
(lp3886
S'Use of bioavailabilty promoting organisms to decontaminate pah-polluted soils : preparation towards large scale field exploitation'
p3887
asS'BROC'
p3888
(lp3889
S'Biological reference materials for organic contaminants (BROC)'
p3890
asS'BICAL'
p3891
(lp3892
S'Biological and chemical applications of lasers'
p3893
asS'BIODOT'
p3894
(lp3895
S'Sensing Biosystems and their Dynamics in fluids with Organic Transistors'
p3896
asS'BY-CARE'
p3897
(lp3898
S'Assessment and reduction of the by-catch of small cetaceans'
p3899
asS'BIODOS'
p3900
(lp3901
S'Development of Biological Dosimetry systems for monitoring the impact of solar UVB radiation on the biosphere and human health'
p3902
a(lp3903
S'Biokinetics and dosimetry of internal contamination'
p3904
aasS'BRIDGE2GEO'
p3905
(lp3906
S'Bridging innovation-driven GIS research and development to create a GEO-Society'
p3907
asS'BIOSECURE'
p3908
(lp3909
S'Biometrics for Secure Authentication'
p3910
a(lp3911
S'Biometrics for Secure Authentication'
p3912
aasS'BIOPROCESS CHIPS'
p3913
(lp3914
S'Electric dna chips for bioprocess control'
p3915
asS'BLUE-ETS'
p3916
(lp3917
S'BLUE-Enterprise and Trade Statistics'
p3918
asS'BIMOC'
p3919
(lp3920
S'Biomimetic organocatalysis development of novel synthetic catalytic methodology and technology'
p3921
asS'BIOMELI'
p3922
(lp3923
S'BIOTECHNOLOGICAL APPLICATION OF NOVEL ENZYMES FROM METAGENOME LIBRARIES'
p3924
asS'BIOPLASMA'
p3925
(lp3926
S'Bio-engineering by atmospheric plasma treatment'
p3927
asS'BIO-EMULSION'
p3928
(lp3929
S'Development of a bio-crude-oil/diesel oil emulsion'
p3930
asS'BEECH - 98'
p3931
(lp3932
S'Stresses in beech'
p3933
asS'BICATORG'
p3934
(lp3935
S'Self-hidden Bifunctional Organocatalysts for Organic Synthesis'
p3936
asS'BCNR2004'
p3937
(lp3938
S'Barcelona Renovable 2004'
p3939
asS'BILAT-UKR'
p3940
(lp3941
S'Enhancing the bilateral S&T partnership with Ukraine'
p3942
asS'BFLS'
p3943
(lp3944
S'Bridging the foreign language skills gap in SMEs'
p3945
asS'BERTET PATRICE'
p3946
(lp3947
S'Decoherence of flux qubits'
p3948
a(lp3949
S'Decoherence of flux qubits'
p3950
aasS'BIOMEDICAL IMAGING'
p3951
(lp3952
S'Multi-modal biomedical imaging for research and clinical application'
p3953
a(lp3954
S'Training for biologists and physicians'
p3955
aasS'BIOORGANOCLAY'
p3956
(lp3957
S'Use of organoclays in bioremediation of contaminated soils and groundwater'
p3958
asS'BELMOBNET'
p3959
(lp3960
S'BELMOBNET: Belgian Network of Mobility Centers'
p3961
asS'BICOGUSS'
p3962
(lp3963
S'Biogas Fired Co-generation-plant Combined with an Underground Seasonal Heat Store'
p3964
a(lp3965
S'Biogas fired co-generation-plant combined with an underground seasonal heat store'
p3966
aasS'BIOSAFENET'
p3967
(lp3968
S'Biosafety Research Communication Network'
p3969
a(lp3970
S'Biosafety Research Communication Network'
p3971
aasS'BARTKOWIAK KONRAD'
p3972
(lp3973
S'Modelling and experimental investigation of 3-dimensional laser forming of metallic components'
p3974
asS'BANG'
p3975
(lp3976
S'Biologically active novel glycosaminoglycans'
p3977
asS'BMDCS IN CANCER'
p3978
(lp3979
S'The impact of bone-marrow derived cells on tumor growth and metastasis after cytotoxic anti-cancer drug treatment'
p3980
asS'BIFORGCAT'
p3981
(lp3982
S'Asymmetric Bifunctional Organocatalysts and their Application in Organic Synthesis'
p3983
asS'BUBBLES'
p3984
(lp3985
S'Development of a continuous on-line ultrasonic technique for the detection of air bubbles in casting slips - slurries'
p3986
asS'BANK'
p3987
(lp3988
S'Banking Applications using IBC Network'
p3989
asS'BIOMON'
p3990
(lp3991
S'Towards long-life bio-lubricants using advanced design and monitoring tools (BIOMON)'
p3992
asS'BIOFILMS'
p3993
(lp3994
S'Natural biofilms as high-tech conditioners for drinking water'
p3995
asS'BACTERIAL INVASION'
p3996
(lp3997
S'Visualizing the Early Events of Shigella Invasion at the Molecular and Cellular Level'
p3998
asS'BUGS'
p3999
(lp4000
S'Benefits of urban green space (BUGS)'
p4001
asS'BIOMOB'
p4002
(lp4003
S'Biomass mobilisation'
p4004
asS'BREDSELS'
p4005
(lp4006
S'Bright-red surface emitting lasers'
p4007
asS'BRIDGES'
p4008
(lp4009
S'Business Route for Investors to Determine Gifted Entrepreneurs and Start-ups'
p4010
a(lp4011
S'Bi-Lateral Research in Digital Global Enterprise Support'
p4012
aa(lp4013
S'Bi-Lateral Research in Digital Global Enterprise Support'
p4014
aasS'BARAT JANOS'
p4015
(lp4016
S'Graph minors, generalizations and applications'
p4017
asS'BRIDGET'
p4018
(lp4019
S'Biomimetic systems for increased competitiveness in the FMCG sector'
p4020
asS'BDELLOID ROTIFERS'
p4021
(lp4022
S'Innate immune system of bdelloid rotifers'
p4023
asS'BEHAVIORAL LAW'
p4024
(lp4025
S'Developing a behaviourally informed Approach to the legal regulation of Market Behaviour and Institutions'
p4026
asS'BIODINA'
p4027
(lp4028
S'Sustainable community through the production of 30000Tm/year of bio-diesel starting from sunflower, rapeseed and palm biomass'
p4029
a(lp4030
S'"Sustainable Community Through The Production Of 30000 Tm/year Of Bio-diesel Starting From Sunflower, Rapeseed And Palm Biomass"'
p4031
aasS'BRICETS'
p4032
(lp4033
S'Metal by-product recovery in induction furnaces - commercial, environmental and technical solutions'
p4034
asS'BEFEMTO'
p4035
(lp4036
S'Broadband Evolved FEMTO Networks'
p4037
a(lp4038
S'Broadband Evolved FEMTO Networks'
p4039
aasS'BEAAMTIQOL'
p4040
(lp4041
S'Biomedical engineering as a means to improve quality of life'
p4042
asS'BOUARAB KAMAL'
p4043
(lp4044
S'Factors controlling pathogenicity in the fungus septoria lycopersici and the resistance genes induced during tomato infection'
p4045
asS'BAO AND DARK ENERGY'
p4046
(lp4047
S'Baryonic acoustic oscilations as a robust probe for dark energy'
p4048
asS'BIOMAG'
p4049
(lp4050
S'Magnetic biomaterials: Magnetically loaded stem cells as diagnostic and therapeutic vectors for Lung Cancer'
p4051
asS'BIOMAN'
p4052
(lp4053
S'Biodiversity and human impact in shallow lakes'
p4054
asS'BRETT MONITORING'
p4055
(lp4056
S'Development of diagnosis tools for Brettanomyce monitoring (Brett Monitoring)'
p4057
asS'BIOMAH'
p4058
(lp4059
S'Novel strategies for biomarker discovery and quantification'
p4060
asS'BAGINEA'
p4061
(lp4062
S'Ball grid array inspection equipment assessment'
p4063
asS'BFP'
p4064
(lp4065
S'IDENTIFICATION OF FLUID/STRUCTURE INTERACTION FOR THE DEVELOPMENT AND DESIGN OF BOILERFEED PUMPS'
p4066
asS'BIOMAR'
p4067
(lp4068
S'Biological markers of environmental contamination in marine ecosystems'
p4069
asS'BIOMAS'
p4070
(lp4071
S'First ukrainian conference on biomass for energy'
p4072
asS'BIOMAP'
p4073
(lp4074
S'Development of time-enabled mapping and dissemination tool for biofuels projects'
p4075
asS'BIOECON'
p4076
(lp4077
S'Biodiversity and economics for conservation (BIOECON)'
p4078
asS'BASIC SUPPORT TECHNO'
p4079
(lp4080
S'Basic support for technology work TCN 9901011'
p4081
a(lp4082
S'Notification of basic support for technology work TCN 9901031'
p4083
aasS'BIOMAX'
p4084
(lp4085
S'Maximum biomass use and efficiency in large-scale co-firing'
p4086
a(lp4087
S'Maximum Biomass Use and Efficiency in Large-scale Cofiring'
p4088
aasS'BEST-STEM CELLS'
p4089
(lp4090
S'Biochemically Equivalent Substitutive Technology for Stem Cells'
p4091
asS'BECOMING IC'
p4092
(lp4093
S'Becoming intercultural - the diversification of the political subject in multicultural societies a theoretical and practical approach'
p4094
asS'BIKE INTERMODAL'
p4095
(lp4096
S'THE INTERMODAL BIKE - Multi-modal integration of cycling mobility through product and process innovations in bicycle design'
p4097
asS'BUSINESS'
p4098
(lp4099
S'Business Class'
p4100
asS'BONAPARTE'
p4101
(lp4102
S'Broadband optical network using atm pon access facilities in realistic telecommunications environments'
p4103
asS'BUDMEP'
p4104
(lp4105
S'Business driven measurement program'
p4106
asS'BIMAMOSI'
p4107
(lp4108
S'(Bio)Materials Molecular Simulations'
p4109
asS'BIOFUNCTION'
p4110
(lp4111
S'Self assembly into biofunctional molecules, translating instructions into function'
p4112
asS'BACELL HEALTH'
p4113
(lp4114
S'Bacterial stress management relevant to infectious disease and biopharmaceuticals'
p4115
asS'BIOCOAT'
p4116
(lp4117
S'Biodegradable and food grade coatings and waxes for application on cheese'
p4118
a(lp4119
S'Production and characterization of biocompatible coatings'
p4120
aasS'BOUVARD DANIEL'
p4121
(lp4122
S'Analysis of icap-1 (integrin cytoplasmic domain associated protein) function in vivo.'
p4123
asS'BIOEMERGENCES'
p4124
(lp4125
S'"In what" and "how much" are individuals similar and different? Towards the measurement of the individual susceptibility to diseases or response to treatments.'
p4126
a(lp4127
S'"In what" and "how much" are individuals similar and different? Towards the measurement of the individual susceptibility to diseases or response to treatments'
p4128
aasS'BIOGREASE'
p4129
(lp4130
S'Environmentally friendly multifunctional grease based on regrowing resources and advanced thickener technology to apply in loss lubrication earth moving equipment'
p4131
asS'BOFDEDUST'
p4132
(lp4133
S'Development of effective de-dusting of converters by innovative concepts and constructive optimization'
p4134
asS'BIOHPR'
p4135
(lp4136
S'Biomass heatpipe reformer (BIOHPR)'
p4137
asS'BIOCLUS'
p4138
(lp4139
S'Developing innovation and research environment in five European regions in the field of sustainable use of biomass resources'
p4140
asS'BACELL NETWORK'
p4141
(lp4142
S'From gene regulation to gene function: regulatory networks in the model gram-positive bacterium bacillus subtilis'
p4143
asS'BISER'
p4144
(lp4145
S'Benchmarking the Information Society e-Europe Indicators for European Regions'
p4146
a(lp4147
S'Benchmarking the Information Society e-Europe Indicators for European Regions'
p4148
aasS'BOOST-IT'
p4149
(lp4150
S'Set-up of a Collaborative Permanent Network for Boosting the participation of Incubated SMEs in Innovation Processes under FP6 Activities'
p4151
asS'BIONICOL'
p4152
(lp4153
S'Development of a bionic solar collector with aluminium roll-bond absorber'
p4154
asS'BIOLIFT'
p4155
(lp4156
S'Fabrication of capacitive biosensors using the laser induced forward transfer process'
p4157
asS'BIONETS'
p4158
(lp4159
S'Biologically-inspired autonomic networks and services'
p4160
a(lp4161
S'Biologically-inspired autonomic networks and services'
p4162
aasS'BOOSTER'
p4163
(lp4164
S'BiO-dOSimetric Tools for triagE to Responders'
p4165
asS'BUSMAN'
p4166
(lp4167
S'Bringing User Satisfaction to Media Access Networks'
p4168
a(lp4169
S'Bringing User Satisfaction to Media Access Networks'
p4170
aasS'BOREALIS'
p4171
(lp4172
S'Development and application of fine-mapping methods for the study of ETL in cattle'
p4173
asS'BIOTITAN'
p4174
(lp4175
S'Transfer of bioinformatics into European industry'
p4176
asS'BASALGANGLIADYNAMIC'
p4177
(lp4178
S'Dynamic of neuronal network interactions in the basal ganglia'
p4179
asS'BEAM-BLANK MFC'
p4180
(lp4181
S'Direct casting of small sections beam-blanks thanks to meniscus free casting technology'
p4182
asS'BENCHCOMP'
p4183
(lp4184
S'European benchmarking of vocational competencies for craft print workers'
p4185
asS'BIOCARTE'
p4186
(lp4187
S'Biosensors for in situ evaluation of bioavailability of pollutants based on transcriptional regulators a la carte.'
p4188
asS'BIONORM'
p4189
(lp4190
S'Pre-normative work on sampling and testing of solid biofuels for the development of quality management (BIONORM)'
p4191
asS'BIOCLIM'
p4192
(lp4193
S'Modelling sequential biosphere systems under climate change for radioactive waste disposal'
p4194
asS'BRAVIS'
p4195
(lp4196
S'Development of a haptic display and vision system for the blind'
p4197
a(lp4198
S'Development of a haptic display and vision system for the blind'
p4199
aasS'BAFNET'
p4200
(lp4201
S'Biogeochemical cycling in agriforestry systems network'
p4202
asS'BIOGRAD'
p4203
(lp4204
S'Increasing the performance of total hip replacement prostheses through functionally graded material innovation and design'
p4205
asS'BALTDER'
p4206
(lp4207
S'Centre of excellence for baltic development, education and research'
p4208
asS'BULRUSH'
p4209
(lp4210
S'Humanitarian Demining in Water (HDW)'
p4211
a(lp4212
S'Humanitarian Demining in Water (HDW)'
p4213
aasS'BESTUFS II'
p4214
(lp4215
S'BEST Urban Freight Solutions II'
p4216
a(lp4217
S'BEST Urban Freight Solutions II'
p4218
aasS'BNC TUBES'
p4219
(lp4220
S'Novel, Heteroatomic Boron, Nitrogen and Carbon Nanotubes (BNC Tubes)'
p4221
asS'BIRDCENTROSOME'
p4222
(lp4223
S'Investigating the Molecular Mechanism of Human Centrosome Assembly'
p4224
asS'BIO@AGRO'
p4225
(lp4226
S'Demonstration of an online multilingual biological agriculture eServices system for organic framers, traders, institutions and citizens'
p4227
asS'BLUE'
p4228
(lp4229
S'Bluetooth technology for communication among scales'
p4230
a(lp4231
S'Bluetooth technology for communication among scales'
p4232
aasS'BLUR'
p4233
(lp4234
S'"The Blue Revolution" - a two part popular science tv-documentary on marine aquaculture'
p4235
a(lp4236
S'The Blue Revolution - a two part popular science tv-documentary on marine aquaculture'
p4237
aasS'BIOMAGSENS'
p4238
(lp4239
S'Ultra sensitive Magnetic Sensors for medical applications'
p4240
a(lp4241
S'Ultra sensitive magnetic sensors for medical applications'
p4242
aa(lp4243
S'Ultra sensitive Magnetic Sensors for medical applications'
p4244
aasS'BIODEPTH'
p4245
(lp4246
S'Bio-Diversity and Ecological Processes in Terrestrial Herbaceous ecosystems: experimental manipulations of plant communities'
p4247
asS'BIOALGAE'
p4248
(lp4249
S'Demonstration of microalgae cultivation as a new agro-industrial activity linked with urban wastewater reuse and CO2 biofiltration from combustion gases'
p4250
asS'BOLETUS 2001'
p4251
(lp4252
S'Biological, physiological, genitical, technical aspects from the mycorrhization between Boletus and forest plant'
p4253
asS'BEACON'
p4254
(lp4255
S'BEACON: Market for ALT'
p4256
a(lp4257
S'Brazilian European Consortium for DTT Services'
p4258
aa(lp4259
S'Brazilian European Consortium for DTT Services'
p4260
aa(lp4261
S'Novel molecular beacon technologies for the study of hiv-1 and other infectious agents'
p4262
aa(lp4263
S'The potential socio-economic impact of broadband access and use on new forms of pan-European trading, collaborative work and advanced public service provision'
p4264
aa(lp4265
S'Experimental constraints on magma flow conditions during highly-explosive basaltic eruptions'
p4266
aa(lp4267
S'Building Environmental Assessment CONsensus'
p4268
aa(lp4269
S'Building Environmental Assessment CONsensus'
p4270
aa(lp4271
S'Evaluation of bioenergy applications: combining technical economic and ecological aspects in a new model'
p4272
aa(lp4273
S'Evaluation of bio-energy applications: combining technical, exonomic and ecological aspects in a new model'
p4274
aa(lp4275
S'Evaluation of bioenergy applications: combining technical, economical and ecological aspects in a new model'
p4276
aa(lp4277
S'Brazilian European Consortium for DTT Services'
p4278
aasS'BRENNPUNKT ALPEN'
p4279
(lp4280
S'Focus on the Alps-Transnational pilot project for a summer academy in Liechtenstein'
p4281
asS'BURMA-X'
p4282
(lp4283
S'Business relationship management for the extended enterpise'
p4284
asS'BIFIDOGT'
p4285
(lp4286
S'Towards gene therapy using Bifidobacterium as gene delivery system'
p4287
asS'BOISI'
p4288
(lp4289
S'Bridging Open Systems to the Infrastructure'
p4290
asS'BIO-CAT'
p4291
(lp4292
S'Novel precious metal-based bionanocatalysts from scrap'
p4293
asS'BIG'
p4294
(lp4295
S'Bioethical implications of globalisation processes'
p4296
asS'BID'
p4297
(lp4298
S'Brains in dialogue: brain science at the service of European citizens'
p4299
asS'BIC'
p4300
(lp4301
S'Building International Cooperation for Trustworthy ICT: Security, Privacy and Trust in Global Networks & Services'
p4302
a(lp4303
S'BLUEPRINT FOR INTERACTIVE CLASSROOMS'
p4304
aa(lp4305
S'Building International Cooperation for Trustworthy ICT: Security, Privacy and Trust in Global Networks & Services'
p4306
aasS'BIF-GENOMICS'
p4307
(lp4308
S'Genome sequencing of the pathogenic bifidobacterial strain Bifidobacterium dentium: insights from genetics and comparative genomics'
p4309
asS'BIOINCMED'
p4310
(lp4311
S'Bioinorganic Chemistry for the Design of New Medicines'
p4312
asS'BIT'
p4313
(lp4314
S'Best practice for information technology in the textile industry'
p4315
a(lp4316
S'The Bayesian information-theoretical model of language processing in the brain'
p4317
aasS'BIP'
p4318
(lp4319
S'Boosting the international profile of IST projects in the networked audiovisual systems and home platforms field to capitalize on and exploit results'
p4320
a(lp4321
S'BOTTOM UP INNOVATION PLANNING'
p4322
aa(lp4323
S'Novel bioinsecticides from insect parasitoids'
p4324
aa(lp4325
S'Boosting the international profile of IST projects in the networked audiovisual systems and home platforms field to capitalize on and exploit results'
p4326
aa(lp4327
S'BOTTOM UP INNOVATION PLANNING'
p4328
aasS'BIOREINFORCE'
p4329
(lp4330
S'Biomediated calcite precipitation for monumental stones reinforcement (BIOREINFORCE)'
p4331
asS'BEE SHOP'
p4332
(lp4333
S'Bees in Europe and Sustainable Honey Production'
p4334
asS'BIOPOL'
p4335
(lp4336
S'Assessment of biorefinery concepts and the implications for agricultural and forestry policy'
p4337
a(lp4338
S'Assessment of Biorefinery concepts and the implications for agricultural and forestry Policy'
p4339
aasS'BIOXHIT'
p4340
(lp4341
S'Biocrystallography (X) on a highly integrated technology platform for European structural genomics'
p4342
asS'BIOPOP'
p4343
(lp4344
S'Pilot study on innovative approaches to public communication of life sciences and biotechnology by students and young researchers'
p4345
asS'BIOPOR'
p4346
(lp4347
S'Feasibility study on biofuel chains implementation in a mediterranean country'
p4348
asS'BICMOS'
p4349
(lp4350
S'A High-Performance CMOS/Bipolar Process for VLSI Circuits'
p4351
a(lp4352
S'A High-Performance CMOS/Bipolar Process for VLSI Circuits'
p4353
aasS'BIOWELL'
p4354
(lp4355
S'Increased renewable energy recovery from biomass by highly efficient disruption process'
p4356
asS'BIOMECH'
p4357
(lp4358
S'Biomechanics of the Sediment Erosion, Transport, Deposition and Consolidation cycle'
p4359
a(lp4360
S'Nonlinear solid biomechanics: theory, experiments, computations, applications.'
p4361
aasS'BIS-21++'
p4362
(lp4363
S'Bulgarian IST Center of Competence in 21 century'
p4364
asS'BRAIN IT'
p4365
(lp4366
S'Brain monitoring with information technology: an open, internet based, transnational infrastructure for health care technology assessment in brain injury (BRAIN IT)'
p4367
asS'BIOBOOTCAMP'
p4368
(lp4369
S'Bio entrepreneur boot camp: starting life science companies'
p4370
asS'BIOMIMETIC CATALYSIS'
p4371
(lp4372
S'Mimicking Non-Heme Iron and Copper Oxidases by Molecular Imprinting'
p4373
asS'BIO-NMD'
p4374
(lp4375
S'Identifying and validating pre-clinical biomarkers for diagnostics and therapeutics of Neuromuscular Disorders'
p4376
asS'BUILD-DSSC'
p4377
(lp4378
S'Large area dssc for building integrated PV tile'
p4379
asS'BRAINUSE'
p4380
(lp4381
S'Mobility, excellence and progression in the European and American scientific research markets'
p4382
asS'BGV'
p4383
(lp4384
S'Bgv-banc de couchage a grande vitesse'
p4385
asS'BEST'
p4386
(lp4387
S'ETUDE DE FAISABILITE DU PROGRAMME BEST'
p4388
a(lp4389
S'BioEthanol for sustainable transport'
p4390
aa(lp4391
S'Being a European Scientist Today'
p4392
aa(lp4393
S'Application of biofuel by-products to the soil: implications for carbon sequestration and GHG Emissions'
p4394
aa(lp4395
S'Building with environmentally sustainable structural timber'
p4396
aa(lp4397
S'Thematic network on BEnchmarking in tranSporT'
p4398
aa(lp4399
S'Thematic network on benchmarking in transport'
p4400
aa(lp4401
S'Thematic Network on Benchmarking in Transport'
p4402
aa(lp4403
S'Biomolecular recognition by integrated smart-sensor technology'
p4404
aa(lp4405
S'Better Enterprise SysTem implementation'
p4406
aa(lp4407
S'A Methodological Approach for IBC System Requirements and Specifications'
p4408
aa(lp4409
S'Effects of organic material and nutrients on the benthic systems of estuarine and coastal areas'
p4410
aa(lp4411
S'Better Enterprise SysTem implementation'
p4412
aa(lp4413
S'Biomolecular recognition by integrated smart-sensor technology'
p4414
aasS'BIOSCENT'
p4415
(lp4416
S'Bioactive highly porous and injectable scaffolds controlling stem cell recruitment, proliferation and differentiation and enabling angiogenesis for cardiovascular engineered tissues'
p4417
asS'BIOCOMPLEX'
p4418
(lp4419
S'Physical aspects of the evolution of biological complexity'
p4420
asS'BAS ANTI-MICROBIALS'
p4421
(lp4422
S'Development of novel anti-bacterials and anti-infectives that target programmed bacterial cell death'
p4423
asS'BIWACLIM'
p4424
(lp4425
S'Evaluating the effects of species composition and biodiversity on ecosystem water fluxes in a changing climate'
p4426
asS'BIOSCENE'
p4427
(lp4428
S'Scenarios for reconciling biodiversity conservation with declining agricultural use in the mountains of europe'
p4429
asS'BONACCURSO, ELMAR'
p4430
(lp4431
S'Fabrication of microlenses and microreaction vessels from polymers'
p4432
asS'BIOSYNERGY'
p4433
(lp4434
S'Biomass for the market competitive and environmentally friendly synthesis of bio-products together with the production of secondary enERGY carriers through the biorefinery approach'
p4435
asS'BIORENEW'
p4436
(lp4437
S'White Biotechnology for added value products from renewable plant polymers: Design of tailor-made biocatalysts and new industrial bioprocesses'
p4438
asS'BIO-SMR'
p4439
(lp4440
S'Application of New Vapour Mixture Cycle for the Improvement of Electric Efficiency in a Biomass Power Plant'
p4441
asS'BBMO'
p4442
(lp4443
S'Biosensors based on membrane organisation to replace animal testing'
p4444
asS'BIOPOSTHARVEST'
p4445
(lp4446
S'Development of biocontrol agents for commercial application against post-harvest diseases of perishable foods'
p4447
asS'BARENERGY'
p4448
(lp4449
S'Barriers for energy changes among end consumers and households'
p4450
asS'BORASSUS'
p4451
(lp4452
S'The environmental and socio-economic contribution of palm geotextiles to sustainable development and soil conservation'
p4453
asS'BREWPROC'
p4454
(lp4455
S'Development and demonstration of polymerase chain reaction based methods for process control in breweries'
p4456
asS'BELEN'
p4457
(lp4458
S'Bio-electricity Network'
p4459
asS'BETOCARIB'
p4460
(lp4461
S'Begomovirus diseases management for sustainable production of tomato in the Caribbean'
p4462
asS'BERENI'
p4463
(lp4464
S'Be researcher for a night'
p4465
asS'BIFURCATIONS'
p4466
(lp4467
S'Bifurcations in nonsmooth differential equations'
p4468
asS'BICULTURALISM'
p4469
(lp4470
S'The antecedents and consequences of biculturalism'
p4471
asS'BAMBUS II'
p4472
(lp4473
S'Backfill and material behaviour in underground salt repositories, phase II'
p4474
asS'BARBARA MELENDEZ'
p4475
(lp4476
S'Positional cloning of the pulmonary adenoma progression 1 (papg1) gene'
p4477
asS'BIOMIMETIC SYSTEMS'
p4478
(lp4479
S'Early Stage Research Training on Biomimetic Systems'
p4480
asS'BIBA'
p4481
(lp4482
S'Bayesian Inspired Brain and Artefacts: Using probabilistic logic to understand brain function and implement life-like behavioural co-ordination'
p4483
a(lp4484
S'Bayesian Inspired Brain and Artefacts: Using probabilistic logic to understand brain function and implement life-like behavioural co-ordination'
p4485
aasS'BIOEAR'
p4486
(lp4487
S'A bio-active cochlear implant for severe deafness'
p4488
asS'BROADWAN'
p4489
(lp4490
S'Broadband services for everyone over fixed wireless access networks'
p4491
a(lp4492
S'Broadband services for everyone over fixed wireless access networks'
p4493
aasS'BENOGO'
p4494
(lp4495
S'Being There - Without Going'
p4496
a(lp4497
S'Being There - Without Going'
p4498
aasS'BIOSCA'
p4499
(lp4500
S'Intelligent and reinforced tissue scaffolds for regenerative biomedicine'
p4501
asS'BIONIRS'
p4502
(lp4503
S'Nir-measurement-technique of n-oganic-concentration in agriculture-soils'
p4504
asS'BROADWAY'
p4505
(lp4506
S'BROADWAY, the way to broadband access at 60GHz'
p4507
a(lp4508
S'BROADWAY, the way to broadband access at 60GHz'
p4509
aasS'BARPHO'
p4510
(lp4511
S'Understanding the role of genes involved in phosphate transport and biological functions of the PSR1-related transcription factors in barley using Virus Induced Gene Silencing (VIGS) system'
p4512
asS'BIOCRYS'
p4513
(lp4514
S'Biocrys'
p4515
a(lp4516
S'Biocrys'
p4517
aasS'BTVAC'
p4518
(lp4519
S'Improved vaccines for Bluetongue Disease'
p4520
asS'BACTERIOSAFE'
p4521
(lp4522
S'Active wound dressings based on biological mimicry'
p4523
asS'BIO.SAFE'
p4524
(lp4525
S'BIOtechnologies in agro-food and environment: new technology solutions to improve quality, SAFEty and health'
p4526
asS'BIOMASS WILLOW RUST'
p4527
(lp4528
S'Integrated, non-fungicidal control of melampsora rusts in renewable energy willow plantations'
p4529
asS'BIOCOMPAC'
p4530
(lp4531
S'Bioprocessed wood fibres for composites and food packaging materials'
p4532
asS'BAUM'
p4533
(lp4534
S'Development of computer-aided and internet-capable teaching modules on the subjects of vocational training and the environment in several types of business'
p4535
asS'BEEP'
p4536
(lp4537
S'Biological effects of environmental pollution in marine coastal ecosystems (BEEP)'
p4538
a(lp4539
S'Best e-Europe Practices'
p4540
aa(lp4541
S'Assembly and application of photosystem ii-based biosensors for large scale environmental screening of specific herbicides and heavy metals'
p4542
aa(lp4543
S'Best e-Europe Practices'
p4544
aasS'BRAINFRIDGE'
p4545
(lp4546
S'Intelligent commercial refridgerator of the future'
p4547
asS'BRAIN TOLLS'
p4548
(lp4549
S'Innate signals for brain homeostasis'
p4550
asS'BROWN DWARF'
p4551
(lp4552
S'Brown dwarfs and extrasolar planets'
p4553
asS'BIOIMAGE'
p4554
(lp4555
S'A European database of Biological volume Images'
p4556
asS'BIOPLANT'
p4557
(lp4558
S'Bioassays in plant cells for improvement of ecosystem and human health'
p4559
asS'BIOGASFUELCELL'
p4560
(lp4561
S'Hydrogen production by catalytic reforming for a new generation of solid oxide fuel cells directly operating with biogas at intermediate temperatures'
p4562
asS'BIOPOLYMERS FOR FOOD'
p4563
(lp4564
S'Biopolymer-based microstructures for improved food quality'
p4565
a(lp4566
S'Biopolymer-based microstructures for improved food quality'
p4567
aasS'BIOPHYSRIBOSWITCH'
p4568
(lp4569
S'Biophysical basis for regulation of gene expression by riboswitches'
p4570
asS'BFTERRA'
p4571
(lp4572
S'Biogenesis and functions of telomeric Repeat-containing RNA'
p4573
asS'BRANCHING MORPHOLOGY'
p4574
(lp4575
S'Branching morphology'
p4576
a(lp4577
S'Branching morphology'
p4578
aasS'BPI PLANTHEAL'
p4579
(lp4580
S'Development of Benaki Phytopathological Institute as a centre of excellence in plant health and crop protection'
p4581
asS'BIZON'
p4582
(lp4583
S'BusIness ONtologies for dynamic web environments'
p4584
a(lp4585
S'BusIness ONtologies for dynamic web environments'
p4586
aasS'BIOPHOT'
p4587
(lp4588
S'Complexity and evolution of photonic nanostructures in bio-organisms: templates for material sciences'
p4589
asS'BAINHARD'
p4590
(lp4591
S'Bainitic hardenability - Effective use of expensive and strategically sensitive alloying elements in high strength steels'
p4592
asS'BLGMF'
p4593
(lp4594
S'Technical and Commercial Feasibility Study of Black Liquor Gasification with Methanol/DME Production as Motor Fuels for Automotive Uses - BLGMF.'
p4595
asS'BISNET'
p4596
(lp4597
S'A telematics service providing technical information about materials and works in the building sector'
p4598
asS'BISNES'
p4599
(lp4600
S'Bio-inspired self-assembled nano-enabled surfaces'
p4601
asS'BARBARA SPADILIERO'
p4602
(lp4603
S'Hira nucleosomal assembly pathway related to centromere structure'
p4604
asS'BEEP-C-EN'
p4605
(lp4606
S'Bio-sensor for Effective Environmental Protection and Commercialization - ENhanced'
p4607
asS'BIOPOLYSURF'
p4608
(lp4609
S'Engineering advanced polymeric surfaces for smart systems in biomedicine, biology, material science and nanotecnology: A cross-disciplinary approach of Biology, Chemistry and Physics'
p4610
asS'BRAINTRAIN'
p4611
(lp4612
S'BrainTrain: Integrative neuroscience school on brain function and disease'
p4613
asS'BIOGEM'
p4614
(lp4615
S'Development and risk assessment of a field-based portable biosensor using genetically-modified bioluminescent bacteria'
p4616
asS'BIODME'
p4617
(lp4618
S'Production of DME from biomass and utilisation as fuel for transport and for industrial use'
p4619
asS'BELIEF'
p4620
(lp4621
S"Bringing Europe's eLectronic Infrastructures to expanding frontiers - BELIEF"
p4622
asS'BIOWALK4BIOFUELS'
p4623
(lp4624
S'Biowaste and Algae Knowledge for the Production of 2nd Generation Biofuels'
p4625
asS'BANACH HOMOLOGY'
p4626
(lp4627
S'Homological properties of Banach algebres'
p4628
asS'BIMACOMPULINES'
p4629
(lp4630
S'Development of bistable thin film lines and nanowires for magnetic computing'
p4631
asS'BERYLLIUM HANDLING F'
p4632
(lp4633
S'Beryllium Handling Facilities ITER Task Agreement: N22TD01 ITER Task: EU-D417'
p4634
asS'BIOFUCEL'
p4635
(lp4636
S'Development of solid oxide fuel cells technology for stationary applications based on biomass gasification and natural gas'
p4637
asS'BEAUTY'
p4638
(lp4639
S'Towards a comparative sociology of beauty The transnational modelling industry and the social shaping of beauty standards in six European countries'
p4640
a(lp4641
S'Bio-ethanol engine for advanced urban transport by light commercial vehicle & heavy duty (beauty)'
p4642
aasS'BANSYSREG'
p4643
(lp4644
S'Banking system stability and bank regulation'
p4645
asS'BRIO'
p4646
(lp4647
S'Bounded rationality in industrial organization'
p4648
asS'BIO-DEVELOPMENT'
p4649
(lp4650
S'Bio-development'
p4651
a(lp4652
S'Bio-development'
p4653
aasS'BIOPRODUCTION'
p4654
(lp4655
S'Sustainable Microbial and Biocatalytic Production of Advanced Functional Materials'
p4656
asS'BSR INNONET'
p4657
(lp4658
S'The Baltic Sea Region Innovation Network'
p4659
asS'BIOBIO'
p4660
(lp4661
S'Indicators for biodiversity in organic and low-input farming systems'
p4662
asS'BRAIN TEST'
p4663
(lp4664
S'Accreditation of individual methods of learning'
p4665
asS'BPR LOGISTICS'
p4666
(lp4667
S'Business, Policy and Research implications of LOGISTICS in the e-economy environment'
p4668
a(lp4669
S'Business, Policy and Research implications of LOGISTICS in the e-economy environment'
p4670
aasS'BIOASET'
p4671
(lp4672
S'Biotechnology awareness, skills, education and training'
p4673
asS'BRAZDOVA MARIE'
p4674
(lp4675
S'Novel dna-binding properties of major "hot spot" p53 mutants'
p4676
asS'BOSE-EINSTEIN'
p4677
(lp4678
S'Bose-einstein'
p4679
asS'BIOTROLL'
p4680
(lp4681
S'Integrated biological treatment and agricultural reuse of olive mill effluents with the concurrent recovery of energy sources'
p4682
asS'BESTUFS'
p4683
(lp4684
S'Thematic Network "Harmonisation of strategies and highlighting best practice to determine optimum URBAN FREIGHT SOLUTIONS"'
p4685
a(lp4686
S'Thematic Network "Harmonisation of strategies and highlighting best practice to determine optimum URBAN FREIGHT SOLUTIONS"'
p4687
aa(lp4688
S'Thematic Network "Harmonisation of strategies and highlighting best practice to determine optimum URBAN FREIGHT SOLUTIONS"'
p4689
aasS'BREAST STEM CELLS'
p4690
(lp4691
S'The role of polycomb genes in normal stem cell and breast cancer stem cell self-renewal and maintenance'
p4692
asS'BDNF'
p4693
(lp4694
S'Role of BDNF and BDNF-related genes in animal models of neuropsychiatric disorders'
p4695
asS'BRISENZ'
p4696
(lp4697
S'Enzymology of Polyketide Biosynthesis'
p4698
asS'BSS 2006 - 2009'
p4699
(lp4700
S'Baltic Summer School 2006 to 2009'
p4701
asS'BEPEL'
p4702
(lp4703
S'Beyond e-publishing e-links'
p4704
asS'BIOHEALTH'
p4705
(lp4706
S'Security and Identity Management Standards in eHealth including Biometrics - Specific Requirements having an Impact on the European Society and on Standardisation'
p4707
asS'BEAM II'
p4708
(lp4709
S'BIOMEDICAL EQUIPMENT ASSESSMENT AND MANAGEMENT'
p4710
asS'BIO-HYDROGEN'
p4711
(lp4712
S'Development of a Biogas Reformer for Production of Hydrogen for PEM Fuel Cells'
p4713
asS'BIOCOMBE'
p4714
(lp4715
S'The impact of biodiversity changes in coastal marine benthic ecosystems'
p4716
asS'BOLD'
p4717
(lp4718
S'Beyond 0.3 micron Optical Lithography Development'
p4719
a(lp4720
S'Batch operations logistics and design'
p4721
aa(lp4722
S'Biology of liver and pancreatic development and disease'
p4723
aasS'BIOCOMBI'
p4724
(lp4725
S'Improved plant health by the combination of biological disease control methods'
p4726
asS'BIODEPOL'
p4727
(lp4728
S'BIODEGRADABLE POLYESTERS FROM 1,3-PROPANEDIOL AND SUCCINATE PRODUCED BY FERMENTATION OF REGROWING RESOURCES'
p4729
asS'BIOMOSA'
p4730
(lp4731
S'Biosphere models for Safety Assessment of radioactive waste disposal based on the application of the Reference Biosphere Methodology'
p4732
asS'BUILD HEALTH'
p4733
(lp4734
S'Holistic energy conscious and sustainable strategies in the health care building sector'
p4735
asS'BROAD-TECH'
p4736
(lp4737
S'Development of new technology for production of broad-leaved forest seedlings to promote sustainable of european forestry'
p4738
asS'BORGHANS, JOSEPHINA'
p4739
(lp4740
S'Homeostasis, competition and memory of b and t lymphocytes: an experimental-theoretical approach.'
p4741
asS'BALK, JANNEKE'
p4742
(lp4743
S'Fe/s cluster biogenesis in yeast'
p4744
a(lp4745
S'Fe/s cluster biogenesis in yeast'
p4746
aasS'BIOSUPPORT'
p4747
(lp4748
S'Strengthening the University of Plovdiv research potential in plant systems biology and food biotechnology'
p4749
asS'BASQUE IRC'
p4750
(lp4751
S'IRC-Basque Country'
p4752
asS'BEURRE DE KARITE'
p4753
(lp4754
S'Technologie nouvelle pour la transformation du beurre de karite dans les zones rurales africaines'
p4755
asS'BATT'
p4756
(lp4757
S'Behaviour and ATT'
p4758
asS'BECAL'
p4759
(lp4760
S'Becal'
p4761
a(lp4762
S'Becal'
p4763
aasS'BECAN'
p4764
(lp4765
S'Balkan Epidemiological Study on Child Abuse and Neglect'
p4766
asS'BATP'
p4767
(lp4768
S'Britons and their pasts'
p4769
asS'BIOLIVE'
p4770
(lp4771
S'Development of industrial solutions for the recycling and valorization of the olive oil fabrication residues for biopolymers and fine chemicals'
p4772
asS'BECAD'
p4773
(lp4774
S'Characterisation of Pancreatic Beta-Cell Antiviral defence, providing a basis for the development of a novel preventative treatment for Type 1 Diabetes'
p4775
asS'BIOACTIVE GLASS COAT'
p4776
(lp4777
S'Characterization and optimisation of bioactive glass coatings onto titanium alloys surfaces for dental implants'
p4778
asS'Bernstein'
p4779
(lp4780
S'Bernstein - The Memory of Papers.\r'
p4781
asS'BACTOFRUCT'
p4782
(lp4783
S'Bactofruct: development of biological pesticide against fire blight'
p4784
asS'BVDV CONTROL'
p4785
(lp4786
S'Thematic network on bovine virus diarrhoea virus (bvdv) control (bvdv control)'
p4787
asS'BIT-HOUSE NET'
p4788
(lp4789
S'The Baltic BIT-House Network for promotion and dissemination of Information Society Research'
p4790
a(lp4791
S'The Baltic BIT-House Network for promotion and dissemination of Information Society Research'
p4792
aasS'BANGLARSENIC'
p4793
(lp4794
S'Arsenic poisoning in Bangladesh: health and social hazards'
p4795
asS'BERI'
p4796
(lp4797
S'Bog Ecosystem Research Initiative'
p4798
asS'BWL-LERNPROGRAMME'
p4799
(lp4800
S'Business management learning programmes for self-learning in the workplace and distance-teaching with computer simulation'
p4801
asS'BIDMED'
p4802
(lp4803
S'Co-operative BIDding in the MEDical sector'
p4804
a(lp4805
S'Co-operative BIDding in the MEDical sector'
p4806
aasS'BRXTRAFFIC'
p4807
(lp4808
S'Plasma membrane to nucleus trafficking of the transcriptional co-activator BRX - characterization of a novel hormone signaling pathway in plants'
p4809
asS'BLACK HOLE UNIVERSE'
p4810
(lp4811
S'Multiwavelength studies of galactic black holes'
p4812
asS'BLES'
p4813
(lp4814
S'Buffer Layer Engineering in Semiconductors'
p4815
asS'BIOELECTRICSURFACE'
p4816
(lp4817
S'Electrically modified biomaterials surface'
p4818
asS'BERONICA'
p4819
(lp4820
S'Towards controlling antimicrobial (antibiotic) use and resistance in low-income countries. an intervention based study in latin america'
p4821
asS'BROTONS, LLUIS'
p4822
(lp4823
S'Bird distribution in mediterranean habitat mosaics in a context of global change'
p4824
a(lp4825
S'Bird distribution in mediterranean habitat mosaics in a context of global change'
p4826
aasS'BLACKCARBONMIX'
p4827
(lp4828
S'Measurement of state of mixture of black carbon in atmospheric aerosol'
p4829
asS'BION'
p4830
(lp4831
S'Synthetic pathways to bio-inspired information processing'
p4832
a(lp4833
S'Synthetic pathways to bio-inspired information processing'
p4834
aasS'B2B LOCO'
p4835
(lp4836
S'Baltic - to - Balkan network for logistics competence'
p4837
asS'BIS-RTD'
p4838
(lp4839
S'Building and improving support for RTD policy and public spending'
p4840
asS'BLASTWALL'
p4841
(lp4842
S'The development of an integrated wall-window structure which protects building occupants from explosions'
p4843
asS'BEST Energy'
p4844
(lp4845
S'Built Environment Sustainability and Technology in Energy'
p4846
asS'BAIER, STEPHAN'
p4847
(lp4848
S'Distribution of primes in polynomial sequences'
p4849
a(lp4850
S'Distribution of primes in polynomial sequences'
p4851
aasS'BENIPA'
p4852
(lp4853
S'Bentonite barriers in integrated performance assessment'
p4854
asS'BRSHADOWS'
p4855
(lp4856
S'Branched shadows and invariants of smooth 4-manifolds'
p4857
asS'BIOPOLIS'
p4858
(lp4859
S'Inventory and analysis of national public policies that stimulate research in life sciences and biotechnology, its exploitation and commercialisation by industry in Europe in the period 2001-2004'
p4860
asS'BSE IN SHEEP'
p4861
(lp4862
S'European project to study bse strain in sheep'
p4863
asS'BIGBAND'
p4864
(lp4865
S'Ultra wide band InP based quantum dot devices and applications covering the 1.4 - 1.65 m wavelength range'
p4866
a(lp4867
S'Ultra wide band InP based quantum dot devices and applications covering the 1.4 - 1.65 m wavelength range'
p4868
aasS'BEARINGS'
p4869
(lp4870
S'New generation of aeronautical bearings for extreme environmental constraints'
p4871
asS'BIOMOL. SIMULATION'
p4872
(lp4873
S'Development of multi-scale molecular models, force fields and computer software for biomolecular simulation'
p4874
asS'BIOTEACH'
p4875
(lp4876
S'Development of application-oriented CVT courses in the area of biotechnology'
p4877
asS'BALKAN OPET'
p4878
(lp4879
S'Consortium Balkan Opet'
p4880
a(lp4881
S'Consortium Balkan Opet'
p4882
aa(lp4883
S'Consortium Balkan Opet'
p4884
aa(lp4885
S'Consortium Balkan Opet'
p4886
aasS'BSS_2000'
p4887
(lp4888
S'Bss_2000'
p4889
asS'BIOTHERAPEUTIC ODN'
p4890
(lp4891
S'Use of CpG oligodeoxynucleotides to improve the immunogenicity of vaccines'
p4892
asS'BIO-INVES'
p4893
(lp4894
S'Investigation for biological samples'
p4895
asS'BBSG'
p4896
(lp4897
S"Bosnian bones, Spanish ghosts: 'Transitional justice' and the legal shaping of memory after two modern conflicts"
p4898
asS'BEQUALM'
p4899
(lp4900
S'Biological effects quality assurance in monitoring programmes'
p4901
asS'BOATENG-READING'
p4902
(lp4903
S'Nucleo-cytoplasmic shuttling proteins and mechano-signalling in cardiac myocytes'
p4904
asS'BLUEPAC'
p4905
(lp4906
S'Advanced integrated antenna PACkage for BLUEtooth wireless communication'
p4907
a(lp4908
S'Advanced integrated antenna PACkage for BLUEtooth wireless communication'
p4909
aasS'BIOFOULCONTROL'
p4910
(lp4911
S'Development of innovative and sustainable technology for control of marine biofouling on heat exchangers of vessels with ozone technology'
p4912
a(lp4913
S'Development of innovative and sustainable technology for control of marine biofouling on heat exchangers of vessels with ozone technology'
p4914
aasS'BIOMATHMFRANCA2000'
p4915
(lp4916
S'Biomathmfranca2000'
p4917
a(lp4918
S'Biomathmfranca2000'
p4919
aasS'BIOMEMOS'
p4920
(lp4921
S'Higher order structure and function of biomembranes'
p4922
asS'BUIATTI MARCO'
p4923
(lp4924
S'Temporal processing in the early visual and motor system: an information theoretic approach.'
p4925
asS'BOOSTIN'
p4926
(lp4927
S'PI3K in immunity and inflammation'
p4928
asS'BISIA'
p4929
(lp4930
S'Broadband Interactive Services on Integrated Access'
p4931
asS'BIOEFFTEX'
p4932
(lp4933
S'Biotechnical treatment and recycling of textile processing effluents'
p4934
asS'BIOPROCESA'
p4935
(lp4936
S'Bioinspired signal processing for chemical sensor arrays'
p4937
asS'BIOSAFEPAPER'
p4938
(lp4939
S'Application of bioassays for safety assessment of paper and board for food contact'
p4940
asS'BIO-ENERGY CHAINS'
p4941
(lp4942
S'Bio-energy chains from perennial crops in south europe (BIO-ENERGY CHAINS)'
p4943
as.