(dp1
S'ZURICH MEETS EUROPE'
p2
(lp3
S"Researchers' Night 2009 in the heart of Zurich - Zurich meets Europe"
p4
asS'ZF-CANCER'
p5
(lp6
S'Developing high-throughput bioassays for human cancers in zebrafish'
p7
asS'ZINC'
p8
(lp9
S"The role of zinc metabolism in alzheimer's disease. elaboration of a new strategy for prevention and therapy of alzheimer's disease (zinc)."
p10
asS'ZEST'
p11
(lp12
S'ZEffpp SecretariaT'
p13
asS'ZEPPOS'
p14
(lp15
S'Zero Emission Platform supPOrt Secretariat'
p16
asS'ZABEU'
p17
(lp18
S'CREATION OF A ZINC/AIR-BATTERY-SYSTEM-INFRASTRUCTURE FOR THE EUROPEAN UNION'
p19
asS'ZNMOLIMAGE'
p20
(lp21
S'Molecular imaging of zinc in the brain'
p22
asS'ZEO-SIMULATION'
p23
(lp24
S'A molecular investigation of Photocatalysis in Zeolites'
p25
asS'ZSOLT PONYA'
p26
(lp27
S'Investigating the molecular mechanisms controlling egg activation in wheat'
p28
asS'ZNIP'
p29
(lp30
S'Therapeutic in vivo DNA repair by site-specific double-strand breaks'
p31
asS'ZEOMAPS'
p32
(lp33
S'Zeolite modification and application study for nuclear waste water treatment'
p34
asS'ZINCCARB'
p35
(lp36
S'Zinc isotopes as tracers of nutrient cycling and carbon uptake by the past oceans'
p37
asS'ZOO ROLE'
p38
(lp39
S'Carnivorous zooplankton - their role in the arctic pelagic ecosystem'
p40
asS'ZEOREACTOR'
p41
(lp42
S'Upgrade kit for improving treatment efficiency and capacity of new and existing waste treatment systems'
p43
asS'ZEM'
p44
(lp45
S'Zero-hazard gas storage by multisensing optical monitoring system'
p46
asS'ZF OPTOGENETICS'
p47
(lp48
S'Optogenetic analysis of neural circuits controlling behavior in zebrafish'
p49
asS'ZEOGYP-BOARD'
p50
(lp51
S'Retrofitting existing plants for low cost production of high performance building boards'
p52
asS'ZOONET'
p53
(lp54
S'Devlopment and evolution of animal form: training modern comparative zoologists'
p55
asS'ZEDIS'
p56
(lp57
S'Zero emission downsized improved safety urban vehicle'
p58
asS'ZENITH'
p59
(lp60
S'Zinc effects on nutrient / nutrient interactions and trends in health and ageing.'
p61
asS'ZF-MODELS'
p62
(lp63
S'Zebrafish Models for Human Development and Disease'
p64
asS'ZEROWIN'
p65
(lp66
S'Towards zero waste in industrial networks'
p67
asS'ZEOCELL'
p68
(lp69
S'NANOSTRUCTURED ELECTROLYTE MEMBRANES BASED ON POLYMER-IONIC LIQUIDS-ZEOLITE COMPOSITES FOR HIGH TEMPERATURE PEM FUEL CELL'
p70
asS'ZUZANA RADOVA'
p71
(lp72
S'The development of lc-ms methods for the determination of fusarium mycotoxins in eggs'
p73
asS'ZER-OXY'
p74
(lp75
S'"Pesticides free" disinfestation of antiques from insect pests'
p76
asS'ZINC-HUBS'
p77
(lp78
S'Engineering zinc fingers to target cancer hub genes'
p79
asS'ZINSAS'
p80
(lp81
S'High Efficient Zero Impact Novel Species Aquaculture Systems'
p82
asS'ZERO REGIO'
p83
(lp84
S'Lombardia & Rhein-Main towards Zero Emission: Development & Demonstration of Infrastructure Systems for Alternative Motor Fuels (Bio-fuels and Hydrogen)'
p85
a(lp86
S'Lombardia & Rhein-Main towards Zero Emission: Development & Demonstration of Infrastructure Systems for Alternative Motor Fuels (Bio-fuels and Hydrogen)'
p87
aasS'ZINCPASSIVATION'
p88
(lp89
S'SUBSTITUTION OF ENVIRONMENTALLY HARMFUL CHROMATES FOR PASSIVATION OF ZINC PLATED PARTS WITH MOLYBDATE PHOSPHATE'
p90
asS'ZP DOMAIN STRUCTURE'
p91
(lp92
S'Structure determination of the zona pellucida domain by X-ray crystallography'
p93
asS'ZIP'
p94
(lp95
S'Zilina innovation policy'
p96
asS'ZSOLT NEMETHY'
p97
(lp98
S'Corticosteroids and hippocampal cell survival and protection : novel signaling pathways'
p99
asS'ZA-EUROLAB'
p100
(lp101
S'European Data Laboratory for Comparative Social Research'
p102
asS'ZEBRAFISH PERCEPTION'
p103
(lp104
S'Sensory perception: Neural representation and modulation'
p105
asS'ZEPHYR'
p106
(lp107
S'Fuel-cell - flywheel hybrid vehicle (ZEPHYR)'
p108
asS'ZSN PHD-PROGRAM'
p109
(lp110
S'International, interdisciplinary PhD-program of the Centre for Systems Neuroscience Hannover (ZSN)'
p111
asS'ZTC'
p112
(lp113
S'The human effects of intelligent buildings: zonal temperature control'
p114
asS'ZA'
p115
(lp116
S'Central archive for empirical social reaerch (ZA)'
p117
a(lp118
S'Central archive for empirical social reaerch (ZA)'
p119
aasS'ZERO-VOC'
p120
(lp121
S'Monitoring and controlling volatile organic compound (VOC) emissions by using novel on-line FTIR/iPAS technology'
p122
asS'ZOOPALIS'
p123
(lp124
S'Zooplankton OPAL and Iron Study (ZOOPALIS) - Investigating the effect of grazing on Si and Fe recycling'
p125
asS'ZEOLITENUCLEATION'
p126
(lp127
S'Studies on the nucleation of zeolites from gels containing pre-structured Si species'
p128
asS'ZEPO'
p129
(lp130
S'Improved Rheological Characterisation of Ceramic Slips and Glazes Using Zeta Potential'
p131
asS'ZAFIRA'
p132
(lp133
S'Zero discharge aquaculture by farming in integrated recirculating systems in Asia'
p134
asS'ZOOPCLIMCHNG'
p135
(lp136
S'Mesozooplankton response to temperature increase during spring succession: potential effects of the climate change'
p137
asS'ZSIM1GALDYN'
p138
(lp139
S'Merging, outflows, or rotation? Early galaxy evolution in the context of dark matter assembly'
p140
asS'ZONMAIZE'
p141
(lp142
S'Preparation and certification of reference materials for the determination of the mycotoxin zearalenone'
p143
asS'ZELNIK VLADIMIR'
p144
(lp145
S"Molecular interactions of oncogenic marek's disease herpesvirus with its natural host and other viral pathogens"
p146
asS'ZEBRAFISHFOREBRAIN'
p147
(lp148
S'Organization, plasticity and perceptual functions of neuronal circuits in a higher olfactory forebrain area'
p149
asS'ZABALFORCE'
p150
(lp151
S'Dissemination of the services offered by vocational training centres to companies'
p152
asS'ZINCAGE'
p153
(lp154
S'Nutritional zinc, oxidative stress and immunosenescence: biochemical, genetic and lifestyle implications for healthy ageing'
p155
asS'ZED'
p156
(lp157
S'Innovative electric traction Module for Zero Emission downsized urban vehicle'
p158
asS'ZINC-ALLOY'
p159
(lp160
S'Fundamental aspects of corrosion and delamination behaviour of novel zinc alloy coatings and Zn-intermetallic phases'
p161
asS'ZEASTAR'
p162
(lp163
S'A functional blueprint for the zea mays endosperm cell factory'
p164
asS'ZF-HEALTH'
p165
(lp166
S'Zebrafish Regulomics for Human Health'
p167
asS'ZEN'
p168
(lp169
S'Zero-emission Neighbourhoods'
p170
asS'ZF-TOOLS'
p171
(lp172
S'High-throughput tools for biomedical screens in Zebrafish'
p173
asS'ZEBRAFISH MYELIN'
p174
(lp175
S'Analysis of myelinated axon development in zebrafish'
p176
asS'ZEBRASOMWNT'
p177
(lp178
S'Role of canonical Wnt signaling during somite formation in the zebrafish embryo'
p179
asS'ZEBRAFISH PLASTICITY'
p180
(lp181
S'Experience-dependent modifications of developing neural circuits and animal behaviours'
p182
asS'ZLIDIDE'
p183
(lp184
S'The zona limitans intrathalamica as an organiser of diencephalic development'
p185
asS'ZCLOCK'
p186
(lp187
S'Analysis of the Molecular mechanisms controlling the Segmentation Clock during Zebrafish Somitogenesis'
p188
asS'ZHBC'
p189
(lp190
S'Zagreb health and biotechnology congress'
p191
asS'ZODIAC'
p192
(lp193
S'Zero Order Dimension based Industrial components Applied to teleCommunications'
p194
a(lp195
S'Optical diagnostics for industrial applications in combustion'
p196
aas.