(dp1
S'XPECTION'
p2
(lp3
S'Innovate residual service time assessment of industrial plant components using real structure analysis by on site x-ray diffraction'
p4
asS'XPRESS'
p5
(lp6
S'Flexible Production experts for reconfigurable assembly technology'
p7
asS'XRB-AGN CONNECTIONS'
p8
(lp9
S'Black hole accretion on all mass scales'
p10
asS'X-RAY-BIOIMAGING'
p11
(lp12
S'X-ray phase-contrast imaging for biomedical applications'
p13
asS'X-RAY PROP GALAXIES'
p14
(lp15
S'Determining star-formation activity and history in spiral galaxies from their X-ray and multi-wavelength properties'
p16
asS'XYLODIMENS'
p17
(lp18
S'Regulating plant quality by controlling xylem vessel dimensions during xylogenesis (XyloDimens)'
p19
asS'XPLORE HEALTH'
p20
(lp21
S'A European gateway to the science and research of health, through online and offline innovative activities aimed at citizens, patients, pupils and teachers'
p22
asS'XENODIAGNOSTICS'
p23
(lp24
S'Establishment of novel targets for risk assessment and monitoring of xenogeneic infections in the course of animal to human transplantation (XENODIAGNOSTICS)'
p25
asS'XRAY FEL PUMP-PROBE'
p26
(lp27
S'Development of a pump-probe facility with sub-picosecond time resolution combining a high-power optical laser and a soft x-ray free electron laser.'
p28
asS'X-FLOOD'
p29
(lp30
S'Advancing quantitative precipitation estimation and short-to-medium range forecasting on the basis of remotely sensed data assimilation'
p31
asS'XSAVIE'
p32
(lp33
S'SUPPORT ACTION TO FACILITATE THE USE OF VIDEOCONFERENCING IN EDUCATION'
p34
asS'XTRA'
p35
(lp36
S'Ultrashort XUV pulses for time-resolved and non-linear applications'
p37
asS'XCEPTION'
p38
(lp39
S'Software based fault injection methods for dependability evaluation'
p40
asS'XYLOSKELETON'
p41
(lp42
S'Analysis of microtubule-associated proteins specifically associated with xylem vessel formation'
p43
asS'XNETMOD'
p44
(lp45
S'XML Based Modelling Language for Simulation of Technical Networks'
p46
a(lp47
S'XML Based Modelling Language for Simulation of Technical Networks'
p48
aasS'XYLELLA DISEASES'
p49
(lp50
S'Integrated approaches to the sustainable management of xylella diseases of citrus and coffee'
p51
asS'XENIOS'
p52
(lp53
S'Development of an audit tool for Hotel buildings and the promotion of RUE and RES'
p54
asS'X-STATIS'
p55
(lp56
S'Extended Statistical Information System'
p57
a(lp58
S'Extended Statistical Information System'
p59
aasS'XIMENES'
p60
(lp61
S'Art, Natural Science, Local History, and the New World in Counter-Reformation Antwerp: The Collection of the Portuguese Merchant-Banker Manuel Ximenes (1564-1632).'
p62
asS'X-CORE'
p63
(lp64
S'DEVELOPMENT AND EVALUATION OF AN X-RAY-ANALYTICAL TECHNIQUE FOR CORES FROM EXPLORATION HOLES DRILLED ON A WASTE-DISPOSAL SITE.'
p65
asS'XTREEMOS'
p66
(lp67
S'Building and promoting a Linux-based Operating System to support virtual organizations for next generation grids'
p68
a(lp69
S'Building and promoting a Linux-based Operating System to support virtual organizations for next generation grids'
p70
aasS'X ISC - PL'
p71
(lp72
S'Organisation of the "x international starch convention"'
p73
asS'X3-NOISE'
p74
(lp75
S'Aircraft external noise research Network and co-ordination'
p76
asS'XTRANS II'
p77
(lp78
S'Determination of the dispersal of Rhine water in the North Sea and the N.E. Atlantic by measurement of fluorescent xenobiotic river substances'
p79
asS'X-RAY-GAL'
p80
(lp81
S'X-ray studies of nearby galaxies'
p82
asS'X-MIAM'
p83
(lp84
S'X-ray multiple ionization of impulsively aligned molecules'
p85
asS'XENO'
p86
(lp87
S'Increasing public involvement in debates on ethical questions of xenotransplantation'
p88
asS'XMMSDSS'
p89
(lp90
S'Understanding the evolution of active galactic nuclei'
p91
asS'X-BAND SRO'
p92
(lp93
S'GaAs HEMT- HTS Resonator-based X-Band Oscillator made by a Hybrid and Integrated Technology'
p94
asS'XPRIMING AND TMEMORY'
p95
(lp96
S'Study of the generation of CD8 memory T cells against soluble proteins: A step toward a new vaccine design?'
p97
asS'XANDER DE HAAN'
p98
(lp99
S'The use of vaccinia virus infection as a model system to study interactions between the endoplasmic reticulum and microtubules'
p100
a(lp101
S'The use of vaccinia virus infection as a model system to study interactions between the endoplasmic reticulum and microtubules'
p102
aasS'XPERTS'
p103
(lp104
S'Experts Enablers in the Machinery Engineering Domain'
p105
a(lp106
S'Experts Enablers in the Machinery Engineering Domain'
p107
aasS'X2-NOISE'
p108
(lp109
S'Aircraft external noise network, phase ii'
p110
asS'XX-IUCR FLORENCE'
p111
(lp112
S'International Union of Crystallography Congress (Florence, Italy, 2005)'
p113
asS'X-TIP'
p114
(lp115
S'Nano-scale chemical mapping and surface structural modification by joined use of X-ray microbeams and tip assisted local detection.'
p116
asS'X-MOB'
p117
(lp118
S'Teletraining platform'
p119
a(lp120
S'Teletraining platform'
p121
aasS'XAUDIO'
p122
(lp123
S'Use of broadcast AUDIO to assist mobile Internet interaction'
p124
a(lp125
S'Use of broadcast AUDIO to assist mobile Internet interaction'
p126
aasS'X-CITTIC'
p127
(lp128
S'A planning and control system for a semiconductor virtual enterprise'
p129
asS'XDELIA'
p130
(lp131
S'Excellence in public and professional decision making: boosting deliberate practice and handling biases through immersive cognitive and emotional reinforcement strategies and tools'
p132
a(lp133
S'Excellence in public and professional decision making: boosting deliberate practice and handling biases through immersive cognitive and emotional reinforcement strategies and tools'
p134
aasS'XTATADUCROHET'
p135
(lp136
S'On some open problems about curves in Algebraic geometry'
p137
asS'XAGENOMICS'
p138
(lp139
S'Unravelling pathogenicity of Xanthomonas albilineans, the pathogen causing leaf scald disease of sugarcane'
p140
asS'X-TB'
p141
(lp142
S'Structural and functional genomics of mycobacterium tuberculosis (X-TB)'
p143
asS'X RAY FEL'
p144
(lp145
S'Ultrafast atomic and molecular physics at x-ray free electron lasers'
p146
asS'X-GEAR'
p147
(lp148
S'Development of gear drive trains based on new materials and novel gear systems'
p149
asS'X-HOMES'
p150
(lp151
S'XUV-High Order Harmonic Metrology tools for novel Spectroscopic applications'
p152
asS'XJENZA-TV'
p153
(lp154
S'Science popularisation TV bringing those the knoweldge society to those not yet participating.'
p155
asS'X-ALD'
p156
(lp157
S'X-linked Adrenoleukodystrophy (X-ALD): pathogenesis, animal models and therapy'
p158
asS'XPERTSA'
p159
(lp160
S'EXPERTS ENABLERS IN THE MACHINERY ENGINEERING DOMAIN, NAS ADDITIONS'
p161
a(lp162
S'EXPERTS ENABLERS IN THE MACHINERY ENGINEERING DOMAIN, NAS ADDITIONS'
p163
aasS'XPERO'
p164
(lp165
S'Learning by experimentation'
p166
a(lp167
S'Learning by experimentation'
p168
aasS'X_MEDIA'
p169
(lp170
S'Knowledge sharing and reuse across Media'
p171
a(lp172
S'Knowledge sharing and reuse across Media'
p173
aasS'XMOTION'
p174
(lp175
S'eMobile Testbed For Interoperability Of Net-works In eLogistics'
p176
a(lp177
S'eMobile Testbed For Interoperability Of Net-works In eLogistics'
p178
aasS'X-RAY BINARIES'
p179
(lp180
S'Determining the masses of low mass X-ray binaries in our Galaxy'
p181
a(lp182
S'Determining the system parameters of low mass X-ray binaries'
p183
aasS'XET'
p184
(lp185
S'Determinants of the tranglycosylating versus hydrolytic activity in xyloglucan endotransglycosylases (XET)'
p186
a(lp187
S'Determinants of the tranglycosylating versus hydrolytic activity in xyloglucan endotransglycosylases (XET)'
p188
aasS'XENOPHOB'
p189
(lp190
S"The European dilemma: institutional patterns and politics of 'racial' discrimination"
p191
a(lp192
S"The European dilemma: institutional patterns and politics of 'racial' discrimination"
p193
aasS'X-TRA-NET'
p194
(lp195
S'ChIP-chip to decipher transcription networks of RXR and partners'
p196
asS'XRBGAL'
p197
(lp198
S'Exploitation of the connections from X-ray binaries to active galactic nuclei'
p199
asS'X-CHANGE'
p200
(lp201
S'Flexible Change Management for the Factory of the Future'
p202
a(lp203
S'Flexible Change Management for the Factory of the Future'
p204
aa(lp205
S'Flexible Change Management for the Factory of the Future'
p206
aa(lp207
S'Flexible Change Management for the Factory of the Future'
p208
aasS'X-RAY PUMP-PROBE'
p209
(lp210
S'X-ray pump-probe spectroscopies - new tools to study ultrafast surface dynamics'
p211
asS'XBRL IN EUROPE'
p212
(lp213
S'Speeding up the development and adoption of XBRL in Europe'
p214
a(lp215
S'Speeding up the development and adoption of XBRL in Europe'
p216
aasS'XYLOPASS'
p217
(lp218
S'XYLOPASS'
p219
asS'XENOPHON'
p220
(lp221
S'Enhancing labour mobility through the development of core competencies and the certification of acquired skills in the European telecommunications industry'
p222
asS'XREM'
p223
(lp224
S'Approaching atomic resolution in structures of macromolecular assemblies by combining X-ray diffraction and electron microscopy : Methodological developments and application to SIRV1 virus'
p225
asS'XUEJUN HE'
p226
(lp227
S'Zero nutrient discharge aquaculture by farming in integrated recirculating systems in asia'
p228
asS'XYLOPHONE'
p229
(lp230
S'Development of xylo-oligosaccharides and xylitol for use in pharmaceutical and food industries'
p231
asS'XCIP'
p232
(lp233
S'X-chromosome inactivation and plasticity in pre-implantation mouse embryo'
p234
asS'XPLORE'
p235
(lp236
S'High resolution x-ray detector system for food quality control'
p237
asS'X-OMICS'
p238
(lp239
S'Xenopus comparative genomics: coordinating integrated and comparative functional genomics for understanding normal and pathologic development'
p240
asS'XENOME'
p241
(lp242
S'Engineering of the porcine genome for xenotransplantation studies in primates: a step towards clinical application'
p243
asS'XCHEM'
p244
(lp245
S'Photoinduced Chemistry: Development and Application of Computational Methods for New Understanding'
p246
asS'XMLDATA'
p247
(lp248
S'Designing, querying and exchanging XML data'
p249
asS'XML-KM'
p250
(lp251
S'XML-based Mediator for Knowledge Extraction and Brokering'
p252
a(lp253
S'XML-based Mediator for Knowledge Extraction and Brokering'
p254
aasS'XRB/AGN VARIABILITY'
p255
(lp256
S'Exploring the origins and implications of variability in X-ray binary systems and active galactic nuclei'
p257
asS'XAVIER SALVATELLA'
p258
(lp259
S'Determination of protein non-native structures leading to misfolding'
p260
a(lp261
S'Determination of protein non-native structures leading to misfolding'
p262
aasS'XENOPUS EYE-HANEL'
p263
(lp264
S'The function of the BMP antagonist gremlin in Xenopus eye development'
p265
asS'XENOMIC'
p266
(lp267
S'Characterisation of Microbial Communities degrading Xenobiotics'
p268
asS'XEROCHORE'
p269
(lp270
S'An exercise to assess research needs and policy choices in areas of drought'
p271
as.