(dp1
S'KIDS LAB'
p2
(lp3
S'Kids-lab designing with children'
p4
asS'KITE'
p5
(lp6
S'Kernel project on impact of transport telematics on the environment'
p7
a(lp8
S'Knowledge and information transfer of electronic commerce'
p9
aa(lp10
S'York Institute for tropical Ecosystem dynamics'
p11
aa(lp12
S'A knowledge base for intermodal passenger travel in Europe'
p13
aa(lp14
S'Knitwear/crochet industry training enhancement'
p15
aasS'KTAGS'
p16
(lp17
S'Algebraic K-theory, linear algebraic groups and related structures'
p18
asS'KNOWCOAT'
p19
(lp20
S'Neural knowledge management solutions for the coating market value chain'
p21
a(lp22
S'Neural knowledge management solutions for the coating market value chain'
p23
aasS'K-SPACE'
p24
(lp25
S'Knowledge space of semantic inference for automatic annotation and retrieval of multimedia content'
p26
a(lp27
S'Knowledge space of semantic inference for automatic annotation and retrieval of multimedia content'
p28
aasS'KIRBAC'
p29
(lp30
S'Structural study of a potassium channel, KirBac3.1, using electron microscopy'
p31
asS'KVOUCHER'
p32
(lp33
S'Implementation of a Transeuropean Knowledge Voucher System'
p34
a(lp35
S'Implementation of a transeuropean knowledge voucher system'
p36
aasS'KINCON'
p37
(lp38
S'Molecular bases of kinetochore-microtubule attachment and their implications for cell cycle control'
p39
asS'KRANG'
p40
(lp41
S'Kainate receptors and neuronal growth'
p42
asS'KNOWSEAS'
p43
(lp44
S"Knowledge-based sustainable management for Europe's seas"
p45
asS'KITS'
p46
(lp47
S'Knowledge-Based Intelligent Traffic Control Systems'
p48
a(lp49
S'Multimedia Interactive Environments for Distributed Teamwork Promotion in Schools'
p50
aa(lp51
S'Knowledge and information transfer system'
p52
aa(lp53
S'Multimedia Interactive Environments for Distributed Teamwork Promotion in Schools'
p54
aa(lp55
S'Knowledge and information transfer system'
p56
aasS'KATNET II'
p57
(lp58
S'Key Aerodynamic Technologies to meet the Vision 2020 Challenges'
p59
asS'KCNQ CHANNELS'
p60
(lp61
S'Properties and functions of neuronal kcnq/m-type potassium channels mutated in human disease'
p62
asS'K-TRIANGLE'
p63
(lp64
S'The Knowledge Triangle Shaping the Future of Europe'
p65
asS'KERTESZ ISTVAN'
p66
(lp67
S'Non-peptide inhibitors of dpp iv and type ii diabetes'
p68
asS'KREO-FMD'
p69
(lp70
S'Karlsruhe, Rhone-Alpes, Emilia Romagna, and Oxfordshire Finance and Management Development Project'
p71
asS'KFE1648'
p72
(lp73
S'1648 - War and Peace in Europe'
p74
asS'KREISSIG, KATHARINA'
p75
(lp76
S'Combined ca and mg isotope measurements as palaeo-sea-surface thermometer'
p77
a(lp78
S'Combined ca and mg isotope measurements as palaeo-sea-surface thermometer'
p79
aasS'KIM BINDERUP'
p80
(lp81
S'Starch as an epitope nano-vechicle.'
p82
asS'KAPPA FLEX MOUSE'
p83
(lp84
S'Allelic exclusion of antibody gene expression'
p85
asS'KATHARINA WULFF'
p86
(lp87
S'Mechanisms underlying abnormal circadian synchronisation in humans'
p88
a(lp89
S'Mechanisms underlying abnormal circadian synchronisation in humans'
p90
aasS'KADWCI'
p91
(lp92
S'The kinematics and Dynamics of Wave-Current Interactions'
p93
asS'KLEOMENIS TSIGANIS'
p94
(lp95
S'Chaotic diffusion of main-belt asteroids'
p96
a(lp97
S'Chaotic diffusion of main-belt asteroids'
p98
aasS'KOLA WATER QUALITY'
p99
(lp100
S'A study on pollution of the kola river and its outflow into the arctic sea : source identification, protocol for monitoring and low cost purification measures'
p101
asS'KEEP'
p102
(lp103
S'Keeping emulation environments portable'
p104
asS'KRAKER'
p105
(lp106
S"The Asbestos Cruncher - 'ABC/ABK'- breakthrough in asbestos disposal"
p107
asS'KEEN'
p108
(lp109
S'Kyoto mechanism expert network (KEEN)'
p110
asS'KYIV, 2003'
p111
(lp112
S'Organisation of the 5th international conference on ethics and environmental policies "business style and sustainable development" (KYIV, 2003)'
p113
asS'KMIX'
p114
(lp115
S'QCD corrections to neutral Kaon mixing'
p116
asS'KEOPS'
p117
(lp118
S'Keys to optical packet switching'
p119
asS'KINACEPT'
p120
(lp121
S'Novel anti-inflammatory compounds for autoimmune diseases'
p122
a(lp123
S'Novel anti-inflammatory compounds for autoimmune diseases'
p124
aasS'KLUMPP KATJA'
p125
(lp126
S'Carbon sequestration in grasslands as affected by soil carbon turnover and management factors'
p127
asS'KNOWING'
p128
(lp129
S'Knowledge, Institutions and Gender: an East-West comparative study'
p130
a(lp131
S'Knowledge, Institutions and Gender: an East-West comparative study'
p132
aasS'KNOWLEDGE NBIC'
p133
(lp134
S'Knowledge Politics and New Converging Technologies'
p135
asS'KOMBE'
p136
(lp137
S'Communication aids for the handicapped'
p138
asS'KNOBA'
p139
(lp140
S'Knowledge-Based Real-Time Systems for Fault Diagnosis of Flexible Manufacturing Systems'
p141
asS'KCNK9 IMPRINTING'
p142
(lp143
S'The role of Kcnk9 imprinting in development and disease'
p144
asS'KASS'
p145
(lp146
S'Kinship and social security'
p147
asS'KNOW-CONSTRUCT'
p148
(lp149
S'Internet Platform for Knowledge-based Customer Needs Management and Collaboration among SMEs in Construction Industry'
p150
asS'KIST'
p151
(lp152
S'Knowledge and Information Stimulating Technology'
p153
a(lp154
S'Knowledge and Information Stimulating Technology'
p155
aasS'KIDSTORY'
p156
(lp157
S'Developing collaborative storytelling environments for children , with children'
p158
asS'KISS'
p159
(lp160
S'Knowledge-based Interactive Signal monitoring System'
p161
a(lp162
S'Kaizen information system and management support'
p163
aasS'KPRDG'
p164
(lp165
S'Quantum graphs with quasiperiodic and random interactions'
p166
asS'KOMODA'
p167
(lp168
S'Co-modality - towards optimised integrated chains in freight transport logistics'
p169
asS'KARINE BASTARD'
p170
(lp171
S'Simulation studies of the relationship between ligand induced rearrangements of enzyme loops and high ligand selectivity'
p172
asS'KRAB'
p173
(lp174
S'KRAB - an Intelligent Document Management and Workflow System'
p175
a(lp176
S'KRAB - an Intelligent Document Management and Workflow System'
p177
aasS'KASWARMI'
p178
(lp179
S'Knowledge assessment on sustainable water resources Management for irrigation'
p180
asS'KAOLINITE-SMECTITE'
p181
(lp182
S'Crystal-chemistry and reaction paths of kaolinite-smectite mixed-layer clays'
p183
asS'KISKO GABRIELLA 13/0'
p184
(lp185
S'Characterisation and manipulation of the microbial ecosystem in minimally processed fruit juices for improved quality and safety'
p186
asS'KNOW-BLADE'
p187
(lp188
S'Wind turbine blade aerodynamics and aeroelastics: closing knowledge gaps "know-blade"'
p189
asS'KRISZTINA MONORY'
p190
(lp191
S'Spatial and temporal regulation of cannabinoid signalling during memory processing'
p192
asS'KATSIOTIS TH. STAVRO'
p193
(lp194
S'Supercritical processing of certain aromatic or/and medicinal plants'
p195
asS'KNOTTEDPROTEINFOLD'
p196
(lp197
S'A tangled problem: how does a knotted protein fold?'
p198
asS'KRITIC'
p199
(lp200
S'Knowledge Representation and Inference Techniques in Industrial Control'
p201
asS'KP-LAB'
p202
(lp203
S'Developing knowledge practices - laboratory'
p204
a(lp205
S'Developing knowledge practices - laboratory'
p206
aasS'KOUDRIACHOVA,MARINA'
p207
(lp208
S'Ab initio studies of electrode materials'
p209
asS'KOHEPOCU'
p210
(lp211
S'Knowledge, heresy and political culture in the Islamic West. Eighth-fifteenth centuries'
p212
asS'KOZMA-BOGNARNE HAMAR'
p213
(lp214
S'Role of histone h1 in a model ascomycete'
p215
asS'KIFREIO'
p216
(lp217
S'Keratin Intermediate filaments as regulators of epithelial intracellular organization keratin intermediate filaments are cytoskeletal proteins regulating the polarity and intracellular organization'
p218
asS'KAP'
p219
(lp220
S'Knowledge, Awareness and Prediction of Man, Machine, Material and Method in Manufacturing'
p221
a(lp222
S'Knowledge, Awareness and Prediction of Man, Machine, Material and Method in Manufacturing'
p223
aasS'KNOSSOS'
p224
(lp225
S'KNOwledge from Science to SOcitieS'
p226
asS'KESO'
p227
(lp228
S'Knowledge extraction for statistical offices'
p229
asS'KINGDOM CELL DEATH'
p230
(lp231
S'Autophagic cell death across kingdoms'
p232
asS'KEVIN PETRIE'
p233
(lp234
S'Characterization of mecp2 function in rett syndrome'
p235
asS'KEYBIOEFFECTS'
p236
(lp237
S'Cause-effect relationships of key pollutants on the European rivers biodiversity'
p238
asS'KAR-TRAP'
p239
(lp240
S'Kainate and ampa receptor trafficking and recycling at brain synapses (KAR-TRAP)'
p241
asS'KICOBIOFRAG'
p242
(lp243
S'Towards a kinematically complete investigation of radiation-induced biomolecule fragmentation'
p244
asS'KLING-CED'
p245
(lp246
S'Attosecond observation and control of collective electron dynamics in nanoparticles'
p247
asS'KD-UBIQ'
p248
(lp249
S'KD-ubiq - a blueprint for ubiquitous knowledge discovery systems'
p250
a(lp251
S'KD-ubiq - a blueprint for ubiquitous knowledge discovery systems'
p252
aasS'KNOW IT'
p253
(lp254
S'The innovative Pathfinder, an IT-solution guide to support innovation processes in SME'
p255
a(lp256
S'Practical Knowledge Management to support Front-line Decision making in SMEs'
p257
aa(lp258
S'Practical Knowledge Management to support Front-line Decision making in SMEs'
p259
aasS'KILEO EMMANUEL'
p260
(lp261
S'Use of indigenous n2-fixing cyanobacteria for sustainable improvement of soil biogeochemical performance and physical fertility in semiarid tropics'
p262
asS'KBS-SHIP'
p263
(lp264
S'Shipboard Installation of Knowledge-Based Systems'
p265
a(lp266
S'Shipboard Installation of Knowledge-Based Systems: Design and Installation'
p267
aasS'KATARSIS'
p268
(lp269
S'Growing Inequality and Social Innovation: Alternative Knowledge and Practice in Overcoming Social Exclusion in Europe'
p270
asS'KNOW-HOW-SAMLUNG'
p271
(lp272
S'Entwicklung einer innovativen Systematik zur berechnung des teiliprograms fur kunststoff-Spritzgiessmaschinenv opimierung der Masshinen-einstellung und qualitat einschl'
p273
asS'KSYSERROR'
p274
(lp275
S'Knowledge-Based System for consistency in Bibliographic Databases'
p276
a(lp277
S'KNOWLEDGE-BASED SYSTEM FOR CONSISTENCY IN BIBLIOGRAPHIC DATABASES'
p278
aasS'KUHAR IRENA'
p279
(lp280
S'Specificity, polymorphism and regulation of the toll-like receptor (tlr)-based innate host defense signal transduction system'
p281
asS'KIM'
p282
(lp283
S'Knowledge-Based Information Management'
p284
asS'KIWIS'
p285
(lp286
S'Advanced Knowledge-Based Environments for Database Systems'
p287
asS'KIT'
p288
(lp289
S'Knowledge for international traders'
p290
asS'KOBAS'
p291
(lp292
S'Knowledge Based Customized Services for Traditional Manufacturing Sectors Provided by a Network of High Tech SMEs'
p293
asS'KNOSOS'
p294
(lp295
S'A Knowledge-Based Environment for Software System Configuration Reusing Components'
p296
asS'KAS'
p297
(lp298
S'Kids and science'
p299
asS'KINETOCHORE AND CANCER'
p300
(lp301
S'Kinetochore-microtubule Interaction and Chromosome Instability'
p302
asS'KM3NET-PP'
p303
(lp304
S'Preparatory phase for a deep sea facility in the Mediterranean for neutrino astronomy and associated sciences'
p305
asS'KAHANE BERNARD'
p306
(lp307
S"Strategies and dynamic of life technology sme's' in israel"
p308
a(lp309
S"Strategies and dynamic of life technology sme's' in israel"
p310
aasS'KAUDYTE'
p311
(lp312
S'Knowledge Acquisition and Use in Dynamic Task Environments'
p313
asS'KLIF'
p314
(lp315
S'A knowledge and learning infrastructure'
p316
asS'KOCISOVA EVA'
p317
(lp318
S'Uptake, localisation and stability within single living cells of novel-type synthetic oligonucleotides of potential therapeutic interest: a microspectroscopic study'
p319
asS'KAREN BOHME'
p320
(lp321
S'Do carotenoids act as pro-oxidants in biological systems?'
p322
asS'KM FORUM'
p323
(lp324
S'European Knowledge Management Forum'
p325
a(lp326
S'European Knowledge Management Forum'
p327
aasS'KINETICS'
p328
(lp329
S'Enzyme kinetics during thermal and non-thermal food processing'
p330
asS"KIDS'TVMINE"
p331
(lp332
S"Kids'.TV Multimedia Information Network"
p333
asS'KACTUS'
p334
(lp335
S'Modelling Knowledge About Complex Technical Systems for Multiple Use'
p336
asS'KEEPEMALIVE'
p337
(lp338
S'Knowledge to Enhance the Endurance of PEM fuel cells by Accelerated LIfetime Verification Experiments'
p339
asS'KIDSTEM'
p340
(lp341
S'Developing a stem cell based therapy to replace nephrons lost through reflux nephropathy'
p342
asS'KEBUSCH'
p343
(lp344
S'The role of neuronal compartmentalization in generating specific behavioural responses in C. elegans'
p345
asS'KRISHNA DAS'
p346
(lp347
S'Study of impact of contaminants on thyroid and immune system of harbour porpoise (phocoena phocoena)'
p348
asS'KINX'
p349
(lp350
S'Knowledge integration and network expertise'
p351
asS'KALANET'
p352
(lp353
S'Efficacy, acceptability and cost-effectiveness of long lasting insecticidal nets in the prevention of Kala-azar.'
p354
asS'KERNEL II'
p355
(lp356
S'CONSTRUCTION OF TWO DEMONSTRATORS ACCORDING TO THE INDICATIONS GIVEN IN PROJECT BE 5621 KERNEL AND CEDAM METHODOLOGY'
p357
asS'KPS'
p358
(lp359
S'Knowledge Processing System development'
p360
asS'KNOWNET'
p361
(lp362
S'Knowledge management with intranet technologies'
p363
a(lp364
S'MAPPing Global Knowledge Networks'
p365
aasS'KODKOD'
p366
(lp367
S'Forecasting conservation needs for endangered fauna:integrating landscape ecology and ethnoecology to predict habitat quality for the kodkod cat (Leopardus guigna) in the Chilean temperate rainforest'
p368
asS'KOMAC , URSA , 8.6.1'
p369
(lp370
S'Semiotics of places for the cities of tomorrow'
p371
asS'KOM2002'
p372
(lp373
S'Web4Health objectives'
p374
asS'KOERBER, CHRISTINA'
p375
(lp376
S'Agriculturally and pharmacologically ralevant structures: more efficient syntheses of polyoximic acid and cyclopropyl amino acids.'
p377
asS'KNOWNOX'
p378
(lp379
S'Development of continuous catalytic nox reduction for lean burn cars'
p380
asS'KAMRA'
p381
(lp382
S'Cooperative Analysis of Measures for the Vocational Training and Continuing Training of Convicted Prisoners'
p383
asS'KARNAL BUNT RISKS'
p384
(lp385
S'Risks associated with tilletia indica, the newlylisted eu quarantine pathogen, the cause of karnal bunt of wheat'
p386
asS'KLING-SDE'
p387
(lp388
S'Strongly driven electrons in the attosecond to nanosecond domain'
p389
asS'KNOWMAN-SYST'
p390
(lp391
S'Intelligent agent-based knowledge management system specifically adaptable for SMEs in the building and craft sector'
p392
a(lp393
S'Intelligent agent-based knowledge management system specifically adaptable for SMEs in the building and craft sector'
p394
aasS'KAMP'
p395
(lp396
S'KNOWLEDGE ASSURANCE IN MULTIMEDIA PUBLISHING'
p397
asS'KNOWENTECH'
p398
(lp399
S'Development of strategic academia-industry partnership in Romania for knowledge management in environmental friendly technologies'
p400
asS'KEPT'
p401
(lp402
S'Knowledge e-Publishing Tools'
p403
a(lp404
S'Knowledge e-Publishing Tools'
p405
aasS'KEEP WATER ALIVE'
p406
(lp407
S'An environmental training module for investigating and treating water pollution'
p408
asS'KORA-NET'
p409
(lp410
S'An Initiative to Intensify and Strengthen the Regional S&T-Cooperation between Korea and the ERA'
p411
asS'KRAGEOMP'
p412
(lp413
S'Krakow geometry in mathematical physics'
p414
asS'KBBECONFERENCE2010'
p415
(lp416
S'Knowledge Based Bio-Economy towards 2020 conference: turning challenges into opportunities'
p417
asS'KYRGYZSTAN'
p418
(lp419
S'Assessment and prognosis of environmental changes in lake issyk-kul (KYRGYZSTAN)'
p420
asS'KADS'
p421
(lp422
S'A Methodology for the Development of Knowledge-Based Systems'
p423
asS'KARSTANPS'
p424
(lp425
S'TRANSPORT AND ATTENUATION OF NON-POINT SOURCE POLLUTANTS IN KARSTIC AQUIFERS'
p426
asS'KADS-II'
p427
(lp428
S'An Advanced and Comprehensive Methodology for Integrated KBS Development'
p429
asS'KIMSAC'
p430
(lp431
S'Kiosk-based Integrated Multimedia Service Access for Citizens'
p432
asS'KT-DIGICULT-BG'
p433
(lp434
S'Knowledge transfer for digitisation of cultural and scientific heritage in Bulgaria'
p435
asS'KESTCAP'
p436
(lp437
S'Korea-EU science and technology cooperation advancement programme'
p438
asS'KYOTO'
p439
(lp440
S'Knowledge yielding ontologies for transition-based organization'
p441
asS'KATARZYNA GRZELAK'
p442
(lp443
S'Study of the neutrino oscillation pattern in the minos experiment'
p444
a(lp445
S'Study of the neutrino oscillation pattern in the minos experiment'
p446
aasS'KACELLE'
p447
(lp448
S'Demonstrating Industrial Scale Second Generation Bioethanol Production - KAlundborg CELLulosic Ethanol plant'
p449
asS'KNOWANDPOL'
p450
(lp451
S'The role of knowledge in the construction and regulation of health and education policy in Europe : convergences and specificities among nations and sectors'
p452
a(lp453
S'The role of knowledge in the construction and regulation of health and education policy in Europe : convergences and specificities among nations and sectors'
p454
aasS'KARIN EDOFF'
p455
(lp456
S'Asymmetric segregation of cell fate determinants during development of the nervous system.'
p457
asS'KNOGG'
p458
(lp459
S'Knowledge, growth and globalisation - science and technology policy as a growth factor in smaller economies'
p460
asS'KOUTALAKIS, CHARALAM'
p461
(lp462
S'Making european policies work in the south : explaining non-compliance in italy and greece.'
p463
asS'KSERA'
p464
(lp465
S'Knowledgable SErvice Robots for Aging'
p466
a(lp467
S'Knowledgable SErvice Robots for Aging'
p468
aasS'KEYCOP'
p469
(lp470
S'Key coastal processes in the mesotrophic Skagerrak and the oligotrophic Northern Aegean : a comparative study'
p471
asS'KV CHANNELS & MEMORY'
p472
(lp473
S'The role of the voltage-gated potassium channels and their modulators in mechanisms of plasticity underlying learning and memory in Drosophila'
p474
asS'KOMEKO 2003'
p475
(lp476
S'International conference "komeko 2003 - technology in service to the environment"'
p477
asS'KLW-HMGN-CHEMOKINES'
p478
(lp479
S'The role of the chromatin protein HMGN3 in cytokine-induced gene expression'
p480
asS'K2'
p481
(lp482
S'K2: knowledge square'
p483
a(lp484
S'K2: knowledge square'
p485
aasS'KBEMOULD'
p486
(lp487
S'VALIDATION OF THE KBE (KNOWLEDGE BASED ENGINEERING) TOOL FOR THE AUTOMATIC AND DISTRIBUTED DESIGN OF PLASTIC INJECTION MOULDS FOR THE PLASTIC AND TOY SECTOR'
p488
a(lp489
S'VALIDATION OF THE KBE (KNOWLEDGE BASED ENGINEERING) TOOL FOR THE AUTOMATIC AND DISTRIBUTED DESIGN OF PLASTIC INJECTION MOULDS FOR THE PLASTIC AND TOY SECTOR'
p490
aasS'KAMMERER MARTIAL'
p491
(lp492
S'New therapeutic targets for osteoporosis and bone metastasis.'
p493
asS'KASSA'
p494
(lp495
S'Knowledge Assessment and Sharing on Sustainable Agriculture'
p496
asS'KUJPOMRIS'
p497
(lp498
S'Regional innovation strategy for Kujawy-Pomorze region'
p499
asS'KNIXMAS'
p500
(lp501
S'Knowledge shared XPS-based research network using multi-agent systems'
p502
asS'KEELAN'
p503
(lp504
S"Key Elements for electronic Local Authorities' Networks"
p505
a(lp506
S"Key Elements for electronic Local Authorities' Networks"
p507
aasS'KIRSI RIENTO'
p508
(lp509
S'Signalling by rhoe in actin organization and cell migration'
p510
asS'KDE'
p511
(lp512
S'Knowledge desktop environment'
p513
asS'KAREN'
p514
(lp515
S'KEYSTONE ARCHITECTURE REQUIRED FOR EUROPEAN NETWORKS'
p516
asS'KINASE'
p517
(lp518
S'VALIDATION OF THE BIOTECHNOLOGICAL PROCESS AND PRODUCTION OF A FIRST LOT OF SAMPLES FOR CLINICAL TRIALS'
p519
asS'KREDENS KRZYSZTOF'
p520
(lp521
S'Investigating idiolectal performance: towards a methodology of forensic authorship attribution'
p522
a(lp523
S'Investigating idiolectal performance: towards a methodology of forensic authorship attribution'
p524
aasS'KEMICC'
p525
(lp526
S'Key elements for application of microreactors in multiphasic catalytic chemistries'
p527
asS'KNOWFISH'
p528
(lp529
S'Knowledge in fisheries management'
p530
asS'KARTRAF'
p531
(lp532
S'Synaptic trafficking of Kainate receptors in Hippocampal CA3 pyramidal cells in vivo'
p533
asS'KYRIAKOS KYPREOS'
p534
(lp535
S'Development of beneficial forms of apolipoprotein e that can clear cholesterol without triggering the unwanted side-effect of hypertriglyceridemia'
p536
asS'KNOX TARGET GENES'
p537
(lp538
S'Identification and characterization of target genes regulated by KNOX transcription factors in different plant species'
p539
asS'KAPPA-HEALTH'
p540
(lp541
S'Key Performance Factor Assessment and Valorisation for Successful EU-FP Project Participation of innovative SMEs in the Area of HEALTH'
p542
asS'KESTA'
p543
(lp544
S'NEW STATISTICAL METHODS FOR WILDLIFE POPULATION ASSESSMENT'
p545
asS'KIWI'
p546
(lp547
S'Knowledge-Based User-Friendly System For the Utilisation of Information Bases'
p548
a(lp549
S'Knowledge in a Wiki'
p550
aa(lp551
S'Building Innovative Knowledge Management Infrastructures Within European Public Administrations'
p552
aa(lp553
S'Building Innovative Knowledge Management Infrastructures Within European Public Administrations'
p554
aasS'KOZYNIAK KATHLEEN 10'
p555
(lp556
S'Integrated mesoscale-hydrometeorological modelling for rainfall and flood forecasting.'
p557
asS'KISMOL'
p558
(lp559
S'Kinetics in Soft Molecular Layers - from interstellar ices to polymorph control'
p560
asS'KARMA2'
p561
(lp562
S'Knowledge and Augmented Reality Management Assistance'
p563
a(lp564
S'Knowledge and Augmented Reality Management Assistance'
p565
aasS'KJADEK1'
p566
(lp567
S'The role of DEFECTIVE KERNEL, ADEK1, in specification of epidermal identity in Arabidopsis'
p568
asS'KWICK'
p569
(lp570
S'Knowledge Workers Intelligently Collecting, Coordinating and Consulting Knowledge'
p571
asS'KEEPING JOBS IN EU'
p572
(lp573
S'How revolutionary queuing based modelling software helps keeping jobs in Europe. The creation of a lead time reduction software that increases industry competitiveness and supports academic research'
p574
asS'KB-MUSICA'
p575
(lp576
S'Knowledge-Based Multi-Sensor Systems in CIM Applications'
p577
asS'KNOWLABORATION'
p578
(lp579
S'KNOWLEDGE APPLICATIONS FOR COLLABORATIVE ORGANISATIONAL NETWORKS'
p580
a(lp581
S'KNOWLEDGE APPLICATIONS FOR COLLABORATIVE ORGANISATIONAL NETWORKS'
p582
aasS'KOTLOWSKI ROMAN'
p583
(lp584
S'Genetical characterization of the putative hemolysins/cytolysins of mycobacterium avium'
p585
asS'KIMASI'
p586
(lp587
S'KIMASI'
p588
asS'KERMIT'
p589
(lp590
S'Kernel Methods for Images and Text'
p591
a(lp592
S'Kernel Methods for Images and Text'
p593
aasS'KNOWMIG'
p594
(lp595
S'Expanding the knowledge base of European labour migration policies'
p596
asS'KINETOCORE'
p597
(lp598
S'Molecular dissection of the kinetochore microtubule interface'
p599
asS'KNIFE'
p600
(lp601
S'Knowledge Needs of Investment and Finance for Enterprise'
p602
asS'KREO'
p603
(lp604
S'The KREO network'
p605
asS'K-WF GRID'
p606
(lp607
S'Knowledge-based Workflow System for Grid Applications'
p608
a(lp609
S'Knowledge-based Workflow System for Grid Applications'
p610
aasS'KRZYSZTOF GIBASIEWIC'
p611
(lp612
S'Low-energy states and excitonic coupling in photosynthetic light-harvesting systems.'
p613
a(lp614
S'Low-energy states and excitonic coupling in photosynthetic light-harvesting systems.'
p615
aasS'KRZYSZTOF GORAL'
p616
(lp617
S'Quantum field theory of ultracold atoms in optical lattices'
p618
a(lp619
S'Quantum field theory of ultracold atoms in optical lattices'
p620
aasS'KDNET'
p621
(lp622
S'European Knowledge Discovery Network of Excellence'
p623
a(lp624
S'European Knowledge Discovery Network of Excellence'
p625
aasS'K4CARE'
p626
(lp627
S'Knowledge-based homecare eServices for an ageing Europe'
p628
a(lp629
S'Knowledge-based homecare eServices for an ageing Europe'
p630
aasS'KB20'
p631
(lp632
S'The European knowledge space'
p633
a(lp634
S'The European knowledge space'
p635
aasS'KEI'
p636
(lp637
S'Knowledge Economy Indicators: Development of Innovative and Reliable Indicator Systems'
p638
asS'KBRALOG'
p639
(lp640
S'Knowledge- based regions and levels of governance'
p641
a(lp642
S'Knowledge- based regions and levels of governance'
p643
aasS'KNOW-WEB'
p644
(lp645
S'Web in support of knowledge management in company'
p646
asS'KLARHOEFER, MARKUS'
p647
(lp648
S'Development of ultrafast mri techniques for functional and physiological brain imaging'
p649
asS'KORRIDOR'
p650
(lp651
S'Stimulating and facilitating the participation of European researchers in Korean R&D programmes'
p652
asS'KIDREGEN'
p653
(lp654
S'Ivestigating the ability of embryonic stem cell derivatives to improve renal function in a murine model of kidney disease.'
p655
asS'KISMET'
p656
(lp657
S'Knowledge of the information society for SMEs and electronic trade'
p658
asS'KOSOVOAFGHANISTAN'
p659
(lp660
S'From Walls to Webs:Cooperation and Coordination in Kosovo and Afghanistan'
p661
asS'KNOWMI'
p662
(lp663
S'Knowledge networks in Oncology: Weavers of medical innovation'
p664
asS'KALINA CHRISTOFF'
p665
(lp666
S'Functional organisation of the lateral prefrontal cortex: role of the anterior prefrontal region'
p667
asS'KRONSBERG FACTS'
p668
(lp669
S'Large-Scale Energy Saving Made Reality in Kronsberg'
p670
asS'KNIWOOD'
p671
(lp672
S'"innovative and efficient knives surfaces modification in first transformation of wood (chipper, canter and peeling machine)"'
p673
asS'KIETZ, SILKE 31/01/1'
p674
(lp675
S'Crosstalk between the aryl hydrocarbon receptor and estrogen receptors'
p676
asS'KATRINE BORGAA'
p677
(lp678
S'Modelling pollutant transfer through arctic marine food webs'
p679
a(lp680
S'Modelling pollutant transfer through arctic marine food webs'
p681
aasS'KHRESMOI'
p682
(lp683
S'Knowledge Helper for Medical and Other Information users'
p684
a(lp685
S'Knowledge Helper for Medical and Other Information users'
p686
aasS'KNOWARC'
p687
(lp688
S'Grid-enabled know-how sharing technology based on ARC services and open standards'
p689
a(lp690
S'Grid-enabled know-how sharing technology based on ARC services and open standards'
p691
aasS'KAROLEWSKI, ZBIGNIEW'
p692
(lp693
S'Epidemiology of oilseed rape pathogens-pyrenopeziza brassicae and leptosphaeria maculans'
p694
asS'KEEN-REGIONS'
p695
(lp696
S'Knowledge and excellence in european nanotechnology - regions'
p697
asS'KARE'
p698
(lp699
S'Knowledge acquisition and sharing for requirement engineering'
p700
asS'KE07-LDH'
p701
(lp702
S'Application of directed evolution to the study of structural enzyme dynamics'
p703
asS'KOD'
p704
(lp705
S'KNOWLEDGE-ON-DEMAND'
p706
a(lp707
S'KNOWLEDGE-ON-DEMAND'
p708
aasS'KAHLER MANIFOLDS'
p709
(lp710
S'Several problems on Kahler manifolds'
p711
asS'KIDSINNSCIENCE'
p712
(lp713
S'Innovation in Science Education - Turning Kids on to Science'
p714
asS'KINSIGN'
p715
(lp716
S'Guarding genome stability: dynamic control of chromosome segregation by kinetochore signalling pathways'
p717
asS'KALADRUG-R'
p718
(lp719
S'New tools for monitoring drug resistance and treatment response in visceral leishmaniasis in the Indian subcontinent'
p720
asS'KTIECBR'
p721
(lp722
S'Knowledge Transfer and Innovations in European Cross Border Regions'
p723
asS'K3 ARITHMETIC'
p724
(lp725
S'Arithmetic of K3 Surfaces'
p726
asS'KAI WENGELNIK'
p727
(lp728
S'Lipidic metabolism of serine in plasmodium falciparum as a potential new drug target'
p729
asS'KIIB'
p730
(lp731
S'An Interactive Multimedia System: Knowing Italy in Business'
p732
asS'KISEIS'
p733
(lp734
S'Key Interventions for Sustainable Employment in the Information Society for Disadvantaged Groups'
p735
a(lp736
S'Key Interventions for Sustainable Employment in the Information Society for Disadvantaged Groups'
p737
aasS'KM3NET'
p738
(lp739
S'Design Study for a Deep Sea Facility in the Mediterranean for Neutrino Astronomy and Associated Sciences'
p740
asS'KNITTING TRAINING'
p741
(lp742
S'Development of distance learning and self-learning training system adapted to industrial pattern making requirements for the ready-to-wear knitting companies'
p743
asS'KOUTSOURAKIS MANOUSS'
p744
(lp745
S'The role of motx2 in patterning of the foregut in the mouse embryo'
p746
asS'KULCSAR AGNES'
p747
(lp748
S'Quantitative evaluations of cellular interactions with bioactive biofilms'
p749
asS'KNAPPE'
p750
(lp751
S'Knowledge and need assessment on pharmaceutical product in environmental waters'
p752
asS'KRISTAL'
p753
(lp754
S'Knowledge - based radical innovation surfacing for tribology and advanced lubrication'
p755
asS'KIDSCANCERKINOME'
p756
(lp757
S'Selecting and validating drug targets from the human kinome for high risk pediatric cancers'
p758
asS'KINETOCHORE MAP'
p759
(lp760
S'Analysis of the kinetochore architecture and dynamics using a mass spectrometry based integrative structural approach'
p761
asS'KISOLL'
p762
(lp763
S'Knowledge Investment Strategies on Local Level.'
p764
a(lp765
S'Knowledge investment strategies on local level'
p766
aasS'KINPOR'
p767
(lp768
S'First principle chemical kinetics in nanoporous materials'
p769
asS'KEPPLER FRANK'
p770
(lp771
S'Stable carbon isotope ratios for the identification of environmentally significant halomethanes'
p772
asS'KODZIUS RIMANTAS'
p773
(lp774
S'Development and applications of new technologies for global gene networking'
p775
asS'K-FLOW'
p776
(lp777
S'Advanced methodologies and tools for the knowledge management within the extended manufacturing enterprise'
p778
asS'KBMMGABA'
p779
(lp780
S'Ketone body mediated modulation of gabaergic signaling: mechanisms and consequences'
p781
asS'KNOW-COM'
p782
(lp783
S'Knowledge and Co-operation based Engineering for Die & Mould making SMEs'
p784
a(lp785
S'Knowledge and Co-operation based Engineering for Die & Mould making SMEs'
p786
aasS'KAPROW'
p787
(lp788
S'Kant and the problem of war'
p789
asS'KATNET'
p790
(lp791
S'Key aerodynamic technologies for aircraft performance improvement'
p792
asS'KITVES'
p793
(lp794
S'Airfoil-based solution for vessel on-board energy production destined to traction and auxiliary services'
p795
asS'K-NET'
p796
(lp797
S'Services for context sensitive enhancing of knowledge in networked enterprises'
p798
a(lp799
S'Services for context sensitive enhancing of knowledge in networked enterprises'
p800
aasS'KALCIVAL'
p801
(lp802
S'KALCIVAL'
p803
asS'KNOWBRIDGE'
p804
(lp805
S'The cross border knowledge bridge in the renewable energy sources cluster in the Eastern Slovakia and North Hungary'
p806
asS'KARMA'
p807
(lp808
S'Knowledge Based Process planning and Design for Additive Layer Manufacturing'
p809
asS'KEYZONES'
p810
(lp811
S'To investigate sustainable biological carrying capacities of key coastal zones important in the cultivation of marine bivalve molluscs'
p812
a(lp813
S'To investigate sustainable biological carrying capacities of key coastal zones important in the cultivation of marine bivalve molluscs'
p814
aasS'KLEECO'
p815
(lp816
S'Knowledge and learnings environments for European and creative organizations'
p817
asS'KBAET'
p818
(lp819
S'Development of production automation technology'
p820
asS'KAROLA RENATE GLAESE'
p821
(lp822
S'Trans-vaccenic acid, a precursor for conjugated linoleic acids in sheep'
p823
asS'KEY M. BOVIS ANTIGEN'
p824
(lp825
S'Identification of relevant diagnostic antigens for bovine tuberculosis: influences of animal and regional disease patterns'
p826
asS'KINETOCHECK'
p827
(lp828
S'Dissecting the signalling cascade in the vertebrate spindle assembly checkpoint'
p829
asS'KAINATE OSCILLATIONS'
p830
(lp831
S'Kainate receptors role on the generation and maintenance of gamma oscillations in vitro'
p832
asS'KMM-NOE'
p833
(lp834
S'Knowledge-based Multicomponent Materials for Durable and Safe Performance'
p835
asS'KBL'
p836
(lp837
S'Design, Development and Implementation of a Knowledge-Based Leitstand'
p838
asS'KIAI'
p839
(lp840
S'Knowledge for ignition, acoustics and instabilities'
p841
asS'KNOWLEDGE2INNOVATION'
p842
(lp843
S'Promoting the exploitation of scientific knowledge through academia industry cooperation in the Knowledge-Based Bio-Economy in Europe and beyond'
p844
asS'KENSYS'
p845
(lp846
S'DEVELOPMENT, IMPLEMENTATION AND DISSEMINATION OF A NEW METHODOLOGY FOR USER-CENTERD PRODUCTS DESIGN USING PRODUCT SEMANTICS AND KANSEI ENGINEERING.'
p847
a(lp848
S'DEVELOPMENT, IMPLEMENTATION AND DISSEMINATION OF A NEW METHODOLOGY FOR USER-CENTERD PRODUCTS DESIGN USING PRODUCT SEMANTICS AND KANSEI ENGINEERING.'
p849
aasS'KFACTOR'
p850
(lp851
S'Bridging Europe: The driving force of new engineering materials'
p852
asS'KEYZONES(R)'
p853
(lp854
S'To investigate sustainable biological carrying capacities of key European coastal zones'
p855
asS'KNOWLEDGE WEB'
p856
(lp857
S'Realizing the semantic web'
p858
a(lp859
S'Realizing the semantic web'
p860
aasS'KEINS'
p861
(lp862
S'KNOWLEDGE-BASED ENTREPRENEURSHIP: INNOVATION, NETWORKS ANS SYSTEMS'
p863
asS'KIDSCREEN'
p864
(lp865
S'Screening for and promotion of health related quality of life in children an adolescents - a european public health perspective'
p866
asS'KNOWEDM'
p867
(lp868
S'Automated knowledge based EDM technology for integrated tool making and precision components'
p869
asS'KLAUSGODL'
p870
(lp871
S'Assembly of the muc2 mucin'
p872
asS'KNEES-UP'
p873
(lp874
S'HPCN-enabled simulation of the human knee'
p875
asS'KAVAS'
p876
(lp877
S'A Knowledge Acquisition, Visualization and Assessment Study'
p878
a(lp879
S'Knowledge Acquisition, Visualization and Assessment System'
p880
aasS'KRISP'
p881
(lp882
S'The kenya rift international seismic project 93-4 - s kenya and n. tanzania'
p883
asS'KYRIACOS NEOCLEOUS'
p884
(lp885
S'Waste fibre recycling in concrete'
p886
a(lp887
S'Waste fibre recycling in concrete'
p888
aasS'KALEIDOSCOPE'
p889
(lp890
S'Concepts and methods for exploring the future of learning with digital technologies'
p891
a(lp892
S'Concepts and methods for exploring the future of learning with digital technologies'
p893
aas.