(dp1
S'YEAR-2010'
p2
(lp3
S'Young European arena of research - 2010'
p4
asS'YBCRM'
p5
(lp6
S'Stationary solutions for non-linear random dynamical systems'
p7
asS'YMIR'
p8
(lp9
S'YMIR - Improve access to finance for innovative SMEs'
p10
asS'YONG-HONG WANG'
p11
(lp12
S'Establishment of an integrated marker system for oilseed rape breeding'
p13
asS'YELLOW'
p14
(lp15
S'HEAT INDUCED YELLOWING - A SECONDARY PHENOMENON OF CHLORINE-FREE BLEACHING'
p16
asS'YOUTH AND EUROPEAN I'
p17
(lp18
S'Orientations of young men and women to citizenship and european identity'
p19
a(lp20
S'Orientations of young men and women to citizenship and european identity'
p21
aasS'YAFL-TOOL'
p22
(lp23
S'Creating an object oriented modelling environment for YAFL'
p24
asS'YURICO'
p25
(lp26
S'SYNTHESIS, CHEMICAL FUNCTIONALIZATION, MODIFICATION, AND APPLICATIONS OF NANODIAMONDS AND CARBON ONIONS'
p27
asS'YOGALOKACNTXT'
p28
(lp29
S'The Concept of "World" (Sattva-bhAjana-loka) in Indian Early YogAcAra Buddhism: An Intellectual History'
p30
asS'YIPPEE'
p31
(lp32
S'Young people from a public care background: pathways to education in Europe'
p33
asS'YELLOW FEVER RECOMBI'
p34
(lp35
S'Generation of recombinant yellow fever virus (strain 17d) vaccine vectors to deliver heterologous antigens'
p36
asS'YEAST SPECIES'
p37
(lp38
S'Species delineation of yeasts'
p39
asS'YOUNGEURIMMUNOLOGIST'
p40
(lp41
S'Youngeurimmunologist'
p42
a(lp43
S'Youngeurimmunologist'
p44
aasS'YOUNG-TRAIN'
p45
(lp46
S'TRAINING AND MENTORING YOUNG SCIENTISTS FROM CANDIDATE, ASSOCIATED AND MEDITERRANEAN COUNTRIES IN A WHOLE FOOD CHAIN APPROACH TO QUALITY AND SAFETY'
p47
asS'YEAST'
p48
(lp49
S'Yeast'
p50
a(lp51
S'Yeast'
p52
aa(lp53
S'Yeast'
p54
aasS'YVONNE SMIT'
p55
(lp56
S'Melt mixing underneath iceland, what are the primary mantle components?'
p57
a(lp58
S'Melt mixing underneath iceland, what are the primary mantle components?'
p59
aasS'YTANIZAWA'
p60
(lp61
S'Dissecting dynamic monoaminergic nervous system in C. elegans with genetically-encoded neuron activator protein channelrhodopsin-2'
p62
asS'YERSINIA CARRIER VAC'
p63
(lp64
S'spp. : genetic engineering and immunological evaluation'
p65
asS'YETI'
p66
(lp67
S'Evaluation and demonstration of the simulation and enhancement tool'
p68
a(lp69
S'Yeasts of technological interest in agro industries.'
p70
aasS'YEOS'
p71
(lp72
S'Yellow Sea observation, forecasting and information System'
p73
asS'YERAC 2000'
p74
(lp75
S'Yerac 2000'
p76
a(lp77
S'Yerac 2000'
p78
aasS'YOGHURTAIR'
p79
(lp80
S'A novel environmentally friendly and cost-effective technology for thermal and refrigerated processing of yoghurt and fermented milks by air-cycle-based heat pumps'
p81
asS'Y.G.E.'
p82
(lp83
S'Youth gender education - gender mentoring workshop'
p84
asS'YOUNG PEOPLE COMM'
p85
(lp86
S'Communication strategies in groups of young people and their interaction with schools'
p87
asS'YOUNEX'
p88
(lp89
S'Youth, unemployment, and exclusion in Europe: a multidimensional approach to understanding the conditions and prospects for social and political integration of young unemployed'
p90
asS'YOLANDA ESPINOSA PAR'
p91
(lp92
S'Functional genomics of human neurocristopathies: application to hischprung disease'
p93
asS'YEAST SENSING'
p94
(lp95
S'Nutrient sensing and signaling by the yeast Gap1 amino acid transceptor'
p96
asS'YSC 2003 - BUDAPEST'
p97
(lp98
S'15th European young scientists contest - Budapest 20-26 september 2003'
p99
asS'YOUNGNET'
p100
(lp101
S'Youngsters Learning and Playing Network'
p102
a(lp103
S'Youngsters Learning and Playing Network'
p104
aasS'YANG-MILLS'
p105
(lp106
S'Large-N Yang-Mills Theory'
p107
asS'YOUTH INEQUALITIES'
p108
(lp109
S'Factors Influencing the Educational Inequality of Young People: A European and Comparative Perspective'
p110
asS'YOVE'
p111
(lp112
S'Young venture'
p113
asS'YAM'
p114
(lp115
S'Cultivar selection for disease resistance and commercial potential in Pacific Islands'
p116
asS'YSBN'
p117
(lp118
S'Yeast Systems Biology Network'
p119
asS'YLIDXCHEM'
p120
(lp121
S'Development and applications of new ylid chemistry'
p122
asS'YEAR'
p123
(lp124
S'Young European arena research'
p125
asS'YPIT'
p126
(lp127
S'Qualification of young people in initial training in SMEs in product design and modern production technologies for the construction and metal sectors'
p128
asS'YPRT'
p129
(lp130
S'Youth Protection Roundtable'
p131
asS'YEASTSCH9'
p132
(lp133
S'Role of the yeast PKB homologue ,Sch9, in nutrient induced signal transduction'
p134
asS'YOLAMI'
p135
(lp136
S'Young labour Migrants in Chinese Cities: A demonstration-intervention project to address barriers to health care and promote their sexual and reproductive health'
p137
asS'YIC STATUS'
p138
(lp139
S'Realisation of Young Innovative Company Status, YIC, for biotech companies'
p140
asS'YOSCIWEB'
p141
(lp142
S'Young people and the images of science on websites'
p143
asS'YTRID'
p144
(lp145
S'Remediation of aqueous and gaseous waste streams using pulsed corona discharge in heterogeneous media'
p146
asS'YANN TRICAULT'
p147
(lp148
S'Developing biological control of greenhouse pests with simulation models'
p149
asS'YOYO'
p150
(lp151
S'Youth policy and participation. the role of participation and informal learning in the transition of young people to the labour market. a comparative analysis in 10 european regions.'
p152
asS'YEPOS'
p153
(lp154
S"Young Europeans' office skills"
p155
asS'YOLANDA CANTON'
p156
(lp157
S'Soil crusting impacts on catchment runoff and erosion processes'
p158
asS'YESS'
p159
(lp160
S'Young enterprise across borders in Europe'
p161
asS'YOUNGSTER'
p162
(lp163
S'Young People creating Active Service On Context-aware Terminals'
p164
a(lp165
S'Young People creating Active Service On Context-aware Terminals'
p166
aasS'YOUNGEGG'
p167
(lp168
S'Youngegg'
p169
a(lp170
S'Youngegg'
p171
aas.