cre
_compile
p1
(S"(?<![a-zA-Z0-9\\-])(Aach|Aachen|Aalborgb|Aalen|Aalst|Aarhus|Aarschot|Aba\\\xfajsz\\\xe1nt\\\xf3|Abakan|Abakan|Abasha|Abaza|\\\xafabbar|Abbeville|Abbotsford|Ab\\\xe1dszal\\\xf3k|Abdulino|Aberdeenshire|Aberdeen|Abha|Abilene|Abinsk|Abja\\-Paluoja|\\\x8eabljak|Abony|Abovyan|Abrud|Abu\\ dhabi|Acapulco|Acarigua\\-Araure|Accra|Acerra|Achajur|Acharkut|Acharnes|Acheng|Achern|Achinsk|Achna|Acireale|Adana|Ad\\-Dammam|Addis\\ ababa|Adelaide|Adelsheim|Adenau|Adiyaman|Adjud|Ado\\-Ekiti|Adoni|Adony|Adygeysk|Afragola|Agarakadzor|Agarak|\\\x8eagare|Agartala|Agdam|Agdash|Agde|Agen|Ageo|Aghavnadzor|Aghavnatun|Aghavnavank|Aghberk|Aghin|Aghitu|Aghnjadzor|Aghtsk|Aghvani|Aghvorik|Agia\\ Marina|Agia\\ Marinouda|Agia\\ Napa|Agia\\ Paraskevi|Agia\\ Trias|Agia\\ Varvara|Agia\\ Varvara|Agidel|Agioi\\ Anargyroi|Agioi\\ Trimithias|Agios\\ Dimitrios|Agios\\ Dometios|Agios\\ Ioannis\\ Rentis|Agios\\ Sozomenos|Agjabadi|Aglandjia|Agnita|Agra|Agrigento|Agrinio|Agryz|Agstafa|Agsu|Aguascalientes|Ahaus|Ahlen|Ahmedabad|Ahnidzor|Ahrensburg|Ahtopol|Ahwaz|Aichtal|Aigaleo|Aigio|Aina\\\x9ei|Aiud|Aix\\-en\\-Provence|Aix\\-les\\-Bains|Aizawl|Aizkraukle|Aizpute|Ajaccio|Ajka|Ajman|Akaa|Akaki|Akanthou|Ak\\-Dovurak|Akesu|Akhalkalaki|Akhaltsikhe|Akhlatyan|Akhmeta|Akhpradzor|Akhtala|Akhtubinsk|Akhurik|Akhuryan|\\\x8aakiai|Akmene|Aknaghbyur|Aknalich|Aknashen|Akner|Akniste|Akori|Akranes|Akron|Akron|Akrotiri|Aksakovo|Aksaray|Aksay|Aktau|Aktau|Aktobe|Akunk|Akureyri|Alagir|Alagyaz|Alaj\\\xe4rvi|Alandur|Alapars|Alapayevsk|Alatyr|Alaverdi|Alavus|Albacete|Alba\\ Iulia|Alberta|Albertirsa|Albertslunda|Albi|Albstadt|Albuquerque|Aldan|Ale\\\xbad|Aleksandrovsk|Aleksandrovsk\\-Sakhalinsky|Aleksandrov|Alekseyevka|Aleksin|Alen\\\xe7on|Aleppo|Ales|Alessandria|Alesund|Aletai|Alexandra|Alexandria|Alexandria|Alexandria|Alexandroupoli|Aleysk|Al\\-Fasher|Alfatar|Alfeld|Alfortville|Al\\-Gadarif|Al\\-Gezira|Algiers|Al\\-Hasakeh|Aligarh|Alimos|\\\x8aal\\\xe8ininkai|Al\\-Jubayl|Al\\-Kharj|Al\\-Khubar|Al\\ Khums|Allahabad|Allendorf|Allentown|Allstedt|Al\\-Madinah|Almaty|Almere|Almere|Almetievsk|Almetyevsk|Al\\-Obeid|Aloja|Alor\\ Setar|Alpirsbach|Al\\-Rakka|Alsdorf|Alsleben|Als\\\xf3zsolca|Altamura|Altdorf\\ bei\\ N\\\xc3\\\xbcrnberg|Altena|Altenau|Altenburg|Altenkirchen|Altensteig|Altentreptow|Altlandsberg|Alt\\\xc3\\\xb6tting|Aluksne|Alvank|Alvar|Alvorada|Alytus|Alzamay|Alzenau\\ in\\ Unterfranken|Alzey|Amadora|Amaliada|Amara|Amara|Amargeti|Amarillo|Amarillo|Amasia|Amathous|Ambala|Ambarnath|Ambato|Amberd|Ambon|Ambrolauri|Americana|Amersfoort|Amersfoort|Amiens|Amman|Amol|Am\\\xc3\\\xb6neburg|Ampelokipoi|Amrakits|Amravati|Amre\\ Taza|Amritsar|Amroha|Amsterdam|Amsterdam|Amstetten|Amursk|Anadyr|Anaheim|Anand|Anapa|Anarita|Anchorage|Ancona|Andenne|Andernach|Andong|Andorra\\ la\\ Vella|Andreapol|Andria|Andrijevica|Anenii\\ Noi|Angarsk|Angeghakot|Angerm\\\xc3\\\xbcnde|Angers|Angers|Anglet|Angouleme|Angra\\ dos\\ Reis|Ani\\ kayarani|Anina|Aninoasa|Anipemza|Aniva|Anjalankoski|Anjo|Ankang|Ankara|Anklam|Anlu|Annaberg\\-Buchholz|Annaburg|Ann\\ Arbor|Annecy|Annemasse|Annweiler\\ am\\ Trifels|Ano\\ Liosia|Anqing|Anqiu|Ansfelden|Anshan|Anshun|Antalya|Antananarivo|Antaramej|Antaramut|Antarashat|Antarut|Antibes|Antioch|Antoing|Antonovo|Antony\\,\\ Hauts\\-de\\-Seine|Antsirabe|Antsla|Antwerp|Anushavan|Anyang|Anyk\\\x9a\\\xe8iai|Anzhero\\-Sudzhensk|Apaga|Aparan|Apatity|Apaven|Apeldoorn|Apeldoorn|Ape|Apnagyugh|Apopa|Apostolos\\ Andreas|Aprelevka|Aprilia|Apriltsi|Apsheronsk|Ara|Arad|Arad|Aragats|Aragatsotn|Aragyugh|Arajadzor|Araks|Araksavan|Aralez|Aramil|Aramus|Arapi|Arapiraca|Araraquara|Ararat\\ |Ararat|Ar\\'ar|Aratashen|Aravus|Arazap|Arbat|Archis|Ardatov|Ardenis|Ardino|Ardon|Ardud|Ardvi|Areg|Aregnadem|Areguni|Arendal|Arendonk|Arendsee|Areni|Arequipa|Arevabuyr|Arevadasht|Arevashat|Arevashogh|Arevatsag|Arevik|Arevis|Arevshat|Arezzo|Argaki|Argavand|Argel|Argenteuil|Argina|Argos|Argun|Argyroupoli|Arica|Arin|Arinj|Arinsal|Ariogala|Arjut|Arkadak|Arkalyk|Arkhangelsk|Arles|Arlington|Arlington|Arlington|Arlon|Armagh|Armash|Armavir\\ |Armavir|Armavir|Armavir|Armenia|Armentieres|Arneburg|Arnhem|Arnhem|Arnis|Arnsberg|Arnstein|Arpeni|Arpi|Arpunk|Arrah|Arras|Arsenyev|Arshaluys|Arsk|Artabuynk|Arta|Artamet|Artanish|Artashar|Artashat|Artashavan|Artavan|Artavaz|Artemis|Arteni|Artern\\/Unstrut|Artik|Artimet|Artsni|Artsvaberd|Artsvanik|Artsvanist|Artsvashen|Artyomovsk|Artyomovsky|Artyom|Aruch|Arvada|Arzakan|Arzamas|Arzni|Asansol|Asan|Asbest|Aschaffenburg|Aschersleben|Ascoli\\ Piceno|Asenovgrad|Asha|Ashdod|Ashikaga|Ashmyany\\ |Ashnak|Ashotavan|Ashotsk|Ashtarak|Asino|Asinou|Asipovichy\\ |Askas|Asnieres\\-sur\\-Seine|Asperg|Aspropyrgos|AsSeeb|Assia|Astana|Astana|Astara|Astghadzor|Asti|Astrakhan|Astravyets\\ |Astromeritis|Asuncion|Aswan|Asz\\\xf3d|Atan|Ath|Athens|Athens|Athens|Athienou|Athis\\-Mons|Ath\\-Thuqbah|Atirau|Atkarsk|Atlanta|Atlanta|Atsugi|At\\-Ta\\'if|Attendorn|Atushi|Atyrau|Aubagne|Aubervilliers|Auce|Auch|Auckland|Auerbach\\ in\\ der\\ Oberpfalz|Auerbach|Augusta|Augusta\\-Richmond|Augustusburg|Aulendorf|Aulnay\\-sous\\-Bois|Aurangabad|Aurich|Aurillac|Aurora|Aurora|Aurora|Austin|Austin|Auxerre|Avadi|Avan|Avazan|Avellino|Aversa|Avignon|\\\x8aavnik|Avrig|Avshar|Avshen|Avtona|Ayacucho|Aydin|Aygavan|Aygebats|Aygedzor|Aygehat|Aygehovit|Aygek|Aygepar|Aygepat|Aygeshat|Aygestan|Aygezard|Aygut|Ayntap|Ayrk|Ayrum|Aytos|Azatamut|Azatan|Azat|Azatashen|Azatavan|Azatek|Aznakayevo|Aznvadzor|Azov|Azuga|Babadag|Babayevo|Babek|Babol|Babruysk\\ |Babushkin|Bacau|Bacharach|Backnang|Bac\\\xe3u|Badacsonytomaj|Bad\\ Aibling|Badajoz|Badalona|Bad\\ Bentheim|Bad\\ Bergzabern|Bad\\ Berka|Bad\\ Berleburg|Bad\\ Berneck\\ im\\ Fichtelgebirge|Bad\\ Bevensen|Bad\\ Bibra|Bad\\ Blankenburg|Bad\\ Bramstedt|Bad\\ Breisig|Bad\\ Br\\\xc3\\\xbcckenau|Bad\\ Buchau|Bad\\ Colberg\\-Heldburg|Bad\\ Doberan|Bad\\ Driburg|Bad\\ D\\\xc3\\\xbcben|Bad\\ D\\\xc3\\\xbcrkheim|Bad\\ D\\\xc3\\\xbcrrenberg|Bad\\ D\\\xc3\\\xbcrrheim|Bad\\ Ems|Baden\\-Baden|Baden\\ bei\\ Wien|Bad\\ Fallingbostel|Bad\\ Frankenhausen\\/Kyffh\\\xc3\\\xa4user|Bad\\ Freienwalde|Bad\\ Friedrichshall|Bad\\ Gandersheim|Bad\\ Gottleuba\\-Berggiessh\\\xc3\\\xbcbel|Bad\\ Griesbach\\ im\\ Rottal|Bad\\ Grund|Bad\\ Harzburg|Bad\\ Herrenalb|Bad\\ Homburg\\ vor\\ der\\ H\\\xc3\\\xb6he|Bad\\ Honnef|Bad\\ H\\\xc3\\\xb6nningen|Bad\\ Iburg|Bad\\ Ischl|Bad\\ Karlshafen|Bad\\ Kissingen|Bad\\ K\\\xc3\\\xb6nig|Bad\\ K\\\xc3\\\xb6nigshofen\\ im\\ Grabfeld|Bad\\ K\\\xc3\\\xb6stritz|Bad\\ K\\\xc3\\\xb6tzting|Bad\\ Kreuznach|Bad\\ Krozingen|Bad\\ Laasphe|Bad\\ Langensalza|Bad\\ Lauchst\\\xc3\\\xa4dt|Bad\\ Lauterberg\\ im\\ Harz|Bad\\ Liebenstein|Bad\\ Liebenwerda|Bad\\ Liebenzell|Bad\\ Lippspringe|Bad\\ Lobenstein|Bad\\ Marienberg|Bad\\ Mergentheim|Bad\\ M\\\xc3\\\xbcnder\\ am\\ Deister|Bad\\ M\\\xc3\\\xbcnster\\ am\\ Stein\\-Ebernburg|Bad\\ M\\\xc3\\\xbcnstereifel|Bad\\ Nenndorf|Bad\\ Neuenahr\\-Ahrweiler|Bad\\ Neustadt\\ an\\ der\\ Saale|Bad\\ Oeynhausen|Bad\\ Oldesloe|Bad\\ Pyrmont|Bad\\ Rappenau|Bad\\ Reichenhall|Bad\\ Sachsa|Bad\\ S\\\xc3\\\xa4ckingen|Bad\\ Salzdetfurth|Bad\\ Salzuflen|Bad\\ Salzungen|Bad\\ Saulgau|Bad\\ Schandau|Bad\\ Schmiedeberg|Bad\\ Schussenried|Bad\\ Schwalbach|Bad\\ Schwartau|Bad\\ Segeberg|Bad\\ Sobernheim|Bad\\ Soden\\ am\\ Taunus|Bad\\ Soden\\-Salm\\\xc3\\\xbcnster|Bad\\ Sooden\\-Allendorf|Bad\\ Staffelstein|Bad\\ Sulza|Bad\\ S\\\xc3\\\xbclze|Bad\\ Teinach\\-Zavelstein|Bad\\ Tennstedt|Bad\\ T\\\xc3\\\xb6lz|Bad\\ Urach|Bad\\ Voslau|Bad\\ Waldsee|Bad\\ Wildbad|Bad\\ Wildungen|Bad\\ Wilsnack|Bad\\ Wimpfen|Bad\\ Windsheim|Bad\\ W\\\xc3\\\xb6rishofen|Bad\\ W\\\xc3\\\xbcnnenberg|Bad\\ Wurzach|Baesweiler|Bafoussam|Bagaran|Baghanis|Baghdad|Baghdati|Bagheria|Baghramyan|Bagneux|Bagnolet|Bago|Bagratashen|Bagrationovsk|Bagravan|Baharampur|Bahraich|Baia\\ de\\ Aram\\\xe3|Baia\\ de\\ Arie\\\xba|Baia\\ Mare|Baia\\ Sprie|Baie\\-Mahault|Baikonur|Baja|Bajram|Bakal|Bakar|Bakersfield|Baksan|Baktal\\\xf3r\\\xe1nth\\\xe1za|Baku|Baku\\ \\(capital\\)|Balabanovo|Balahovit|Balakan|Balak|Balakhna|Balakovo|Balakovo|Balashikha|Balashikha|Balashov|Balassagyarmat|Balatonalm\\\xe1di|Balatonbogl\\\xe1r|Balatonf\\\xf6ldv\\\xe1r|Balatonf\\\xfcred|Balatonf\\\xfbzf\\\xf5|Balatonkenese|Balatonlelle|Balchik|Baldone|Baleshwar|Baley|Balgarovo|Balikesir|Balingen|Balk\\\xe1ny|Ballenstedt|Ballerupa|Ballsh|Balmaz\\\xfajv\\\xe1ros|Balo\\\x9ei|Bal\\\xba|Balqash|Balti|Baltimore|Baltimore|Baltiysk|Baltoji\\ Voke|Balurghat|Balve|Balvi|Bamako|Bambakashat|Bandar\\ Lampung|Bandivan|Bandjarmasin|Bandung|Bangalore|Bangkok|Banja\\ Luka|Banja\\ Luka|Banskogerb\\.jpg|Baoding|Baoji|Baoshan|Baotou|Barabinsk|Baranavichy\\ |Baranovichi|Baraolt|Barasat|Bar|Barby|Barcelona|Barcs|Barda|B\\\xfa\\?ardalur|Bardzrashen|Bardzravan|Bardzruni|Bare|Bareilly|Barekamavan|Bargteheide|Bari|Barinas|Barisal|Barletta|Barmstedt|B\\\xc3\\\xa4rnau|Barnaul|Barnaul|Barntrup|Barozh|Barquisimeto|Barrackpur|Barra\\ Mansa|Barrancabermeja|Barranquilla|Barsinghausen|Barth|Baruth\\/Mark|Barysaw\\ |Barysh|Basarabeasca|Bashgyugh|Bassum|Bastia|Bastogne|Batak|Batala|Batam|Batanovtsi|Bataysk|Bat\\ Dambang|Bathinda|Baton\\ Rouge|Baton\\ Rouge|Battipaglia|Battonya|Batumi|Bauchi|Baumholder|Bauska|Bavly|Bavra|Bawshar|Bayamo|Bayandur|Baykalsk|Baymak|Bayonne|Baysz|Bazhong|Bazhou|Bazmaghbyur|Bazum|B\\\xe3beni|B\\\xe1bolna|B\\\xe1csalm\\\xe1s|Beaumont|Beaumont|Beaune|Beauraing|Beauvais|Bechet|Beckum|Beclean|Bedburg|Beelitz|Be\\'er\\ Sheva|Beeskow|Begles|Beihai|Be\\\xe8i\\\xe6i|Beijing|Beiliu|Beilstein|Beining|Beipiao|Beiu\\\xba|Belaya\\ Kalitva|Belaya\\ Kholunitsa|Belebey|Beled|Belene|Belfast|Belfort|Belgorod|Belgrade|Beli\\ Manastir|Belinsky|Beli\\\xc5\\\xa1\\\xc4\\\x87e|Belitsa|Bellapais|Bellevue|Belogorsk|Belogradchik|Belo\\ Horizonte|Belokurikha|Belomorsk|Belorechensk|Beloretsk|Beloslav|Belovo|Belovo|Belovo|Beloyarsky|Belozersk|Belyov|Bely|Bender\\ \\(Tighina\\)|Bendorf|Bene\\ Beraq|Benevento|Bengbu|Benghazi|Beniamin|Benin\\ City|Beni\\-Suef|Benkovac|Benxi|Berane|Beran\\ Selo|Berat|Berbe\\\xbati|Berd|Berdashen|Berdavan|Berdik|Berdkunk|Berdsk|Bere\\\xbati|Beretty\\\xf3\\\xfajfalu|Berezniki|Berezniki|Berezovsky|Berezovsky|Berga\\/Elster|Bergamo|Bergen\\ auf\\ R\\\xc3\\\xbcgen|Bergen|Bergen|Bergerac|Bergheim|Bergisch\\ Gladbach|Bergkamen|Bergneustadt|Berhida|Beringen|Berkaber|Berkanush|Berkarat|Berkashat|Berka\\/Werra|Berkeley|Berkovi\\\xc4\\\x87i|Berkovitsa|Berlin|Berlin|Bernau\\ bei\\ Berlin|Bernburg|Bernkastel\\-Kues|Bernstadt\\ a\\.\\ d\\.\\ Eigen|Berovo|Bersenbr\\\xc3\\\xbcck|Besan\\\xe7on|Besigheim|Beslan|Betzdorf|Betzenstein|Beverungen|Beylagan|Bezhetsk|Bezons|Bhadravati|Bhalswa\\ Jahangir\\ Pur|Bharatpur|Bharuch|Bheemavaram|Bhilai\\ Nagar|Bhind|Bhiwandi|Bhiwani|Bhopal|Bhubaneswar|Bhusawal|Biarritz|Biatorb\\\xe1gy|Biberach\\ an\\ der\\ Riss|Bicaz|B\\\xe3icoi|Bicske|Bidar|Bidhan\\ Nagar|Bielefeld|Bielsko\\-Biala|Biesenthal|Bietigheim\\-Bissingen|Biha\\\xc4\\\x87|Bihar|Biharkeresztes|Biisk|Bijela|Bijeljina|Bijelo\\ Polje|Bijie|Bikaner|Bikin|Bilasuvar|Bila\\ Tserkva|B\\\xe3ile\\ Govora|B\\\xe3ile\\ Herculane|B\\\xe3ile\\ Ol\\\xe3ne\\\xbati|B\\\xe3ile\\\xbati|B\\\xe3ile\\ Tu\\\xbanad|Bilibino|Bilisht|Billerbeck|Billings|Bilzen|Binche|Bingen\\ am\\ Rhein|Binjai|Binzhou|Biograd\\ na\\ Moru|Bir\\\x9eai|Biratnagar|Birgu|Birjand|Birkenfeld|Birmingham|Birmingham\\[\\]|Birmingham|Birobidzhan|Birsk|Bir\\\x9atonas|Biruin\\\xfea|Biryuch|Biryusinsk|Bisceglie|Bischofsheim\\ an\\ der\\ Rh\\\xc3\\\xb6n|Bischofshofen|Bischofswerda|Bishkek|Biskra|Bismark|Bissau|Bistri\\\xfea|Bitburg|Bitola|Bitonto|Bitterfeld\\-Wolfen|Bitung|Biysk|Bjeli\\\x9ai|Bjelovar|Bjni|B\\\xfck|B\\\xe9k\\\xe9scsaba|B\\\xe9k\\\xe9s|Blagnac|Blagodarnoye|Blagodarny|Blagoevgrad|Blagoveshchensk|Blagoveshchensk|Blagoveshchensk|Blaj|B\\\xe3lan|Blankenberge|Blankenburg|Blankenhain|Blantyre\\ City|B\\\xe9lap\\\xe1tfalva|Blaubeuren|B\\\xe3lce\\\xbati|B\\\xedldudalur|Bleckede|Bleicherode|B\\\xe3l\\\xfei|Blida|Blieskastel|Bl\\\xf6ndu\\\xf3s|Blois|Blomberg|Bludenz|Blumberg|B\\\xf3ly|B\\\xe3neasa|Bnunis|Bobigny|B\\\xc3\\\xb6blingen|Boboshevo|Bobov\\ Dol|Bobrov|Bobruisk|Boc\\\xbaa|Bocholt|Bochum|Bockenem|Bodajk|Bodaybo|Bodenwerder|Bodo|Bogdanci|Bogdanovich|Bogor|Bogoroditsk|Bogorodsk|Bogota|Bogotol|Bogra|Boguchar|Bois\\-Colombes|Boise\\ City|Boise|Boizenburg\\/\\ Elbe|Bojnurd|Boksitogorsk|Bolde\\\xbati\\-Sc\\\xe3eni|Bole|Bolgar|Bolintin\\-Vale|Bolkhov|Bolnisi|Bologna|Bologoye|Bolokhovo|Bolotnoye|Bolshoy\\ Kamen|Bolungarv\\\xedk|Bolyarovo|Bolzano|Bommanahalli|Bondy|Bonndorf\\ im\\ Schwarzwald|Bonn|B\\\xc3\\\xb6nnigheim|Bonn|Bonyh\\\xe1d|Bopfingen|Boppard|Bor\\\xbaa|Bordeaux|Bordeaux|Borgarnes|Borgentreich|Borgholzhausen|Borgloon|Borisoglebsk|Borisov|Borjomi|Borken|Borken|Borkum|Bormla|Bornheim|Bor|Borodino|Borovichi|Borovo|Borovsk|Borsec|Borsodn\\\xe1dasd|Borzya|Bosanska\\ Gradi\\\xc5\\\xa1ka|Bosanska\\ Krupa|Bosanski\\ Brod|Bosanski\\ Petrovac|Boston|Boston|Botevgrad|Boto\\\xbaani|Botou|Botshabelo|Bottrop|Bouillon|Boulder|Boulogne\\-Billancourt|Boulogne\\-sur\\-Mer|Bourgas|Bourg\\-en\\-Bresse|Bourges|Bourgoin\\-Jallieu|Bovadzor|Boxberg|Boychinovtsi|Bozhou|Bozhurishte|Brackenheim|Brad|Bragadiru|Brahin\\ |Braila|Braine\\-l\\'Alleud|Braine\\-le\\-Comte|Brakel|Brake|Bramsche|Brandenburg\\ an\\ der\\ Havel|Brand\\-Erbisdorf|Bra\\\xbaov|Brasilia|Braslaw\\ |Bratsigovo|Bratsk|Braubach|Braunau\\ am\\ Inn|Braunlage|Br\\\xc3\\\xa4unlingen|Braunsbedra|Braunschweig|Br\\\xc4\\\x8dko|Breaza|Breckerfeld|Breda|Breda|Bredstedt|Bree|Bregenz|Bregovo|Brei\\?dalsv\\\xedk|Breisach|Bremen|Bremen|Bremerhaven|Bremerv\\\xc3\\\xb6rde|Brescia|Brest\\ |Brest|Brest|Bretten|Breznik|Brezoi|Brezovo|Briceni|Bridgeport|Br\\\xe3ila|Brilon|Brindisi|Brisbane|Bristol|Brive\\-la\\-Gaillarde|B\\\xe2rlad|Brnakot|Brno|Broceni|Brondbya|Bronnitsy|Bron|Bro\\\xbateni|Brotterode|Brownsville|Brownsville|Br\\\xe9tigny\\-sur\\-Orge|Bruay\\-la\\-Buissiere|Bruchk\\\xc3\\\xb6bel|Bruchsal|Bruck\\ an\\ der\\ Mur|Br\\\xc3\\\xbcck|Br\\\xc3\\\xbcel|Bruges|Br\\\xc3\\\xbchl|Brunn\\ am\\ Gebirge|Brunoy|Brunsb\\\xc3\\\xbcttel|Brusartsi|Brussels|Br\\\xc3\\\xbcssow|Bryansk|B\\\xe1tasz\\\xe9k|B\\\xe9thune|B\\\xe1tonyterenye|Bucecea|Bucharest|Bucharest|Buchen|Bucheon|Buchholz\\ in\\ der\\ Nordheide|B\\\xc3\\\xbcckeburg|Bucov\\\xe3\\\xfe|Budakal\\\xe1sz|Buda\\-Kashalyova\\ |Budakeszi|Budapest|Buda\\\xf6rs|Budaun|B\\\xc3\\\xbcdelsdorf|Bude\\\xbati|Budimlja|B\\\xc3\\\xbcdingen|Budva|Budyonnovsk|Bu\\\xe8e|Buenos\\ aires|Buffalo|Buffavento|Buftea|Bugojno|Bugulma|Buguruslan|B\\\xc3\\\xbchl|Buhu\\\xbai|Buinsk|Buje|Bukand|Bulandshahr|Bulawayo|Bulqiz\\\xc3\\\xab|BUL\\ \\\xd0\\\x98\\\xd1\\\x81\\\xd0\\\xbf\\\xd0\\\xb5\\\xd1\\\x80\\\xd0\\\xb8\\\xd1\\\x85\\ COA\\.jpg|Bumbe\\\xbati\\-Jiu|B\\\xc3\\\xbcnde|Burastan|Burbank|B\\\xc3\\\xbcren|Burewala|Burgas|Burgbernheim|Burgdorf|B\\\xc3\\\xbcrgel|Burgkunstadt|Burglengenfeld|Burgos|Burgst\\\xc3\\\xa4dt|Burg\\ Stargard|Burgwedel|Burhanpur|Buri\\ Ram|Burladingen|Burnley\\/Nelson|Burrel|Bursa|Burscheid|B\\\xc3\\\xbcrstadt|Burtai\\\x9ai|Busan|Bushehr|Busto\\ Arsizio|Bu\\\xbateni|Buttelstedt|Buttst\\\xc3\\\xa4dt|Buturlinovka|B\\\xc3\\\xbctzow|Buxtehude|Buy|Buynaksk|Buzet|Buzhakan|Buzia\\\xba|Buz\\\xe3u|Buzuluk|Byala\\ Cherkva|Byala|Byala\\ Slatina|Byala|Byalynichy\\ |Byaroza\\ |Byatarayanapura|Byerazino\\ |Byeshankovichy\\ |Bykhaw\\ |Bytom|Byurakan|Byuravan|Byureghavan|B\\\xe9ziers|Cabanatuan|\\\xc4\\\x8cabar|Cabimas|Cabo\\ de\\ Santo\\ Agostinho|Cabo\\ Frio|Cachan|Cachoeiro\\ de\\ Itapemirim|Cadiz|Caen|Cagliari|Cagnes\\-sur\\-Mer|Caguas|Cahors|Cahul|Cairo|\\\xc4\\\x8cajni\\\xc4\\\x8de|Cajvana|\\\xc4\\\x8cakovec|Calafat|Calais|Calama|Calbayog|Calbe|Calgary|Cali|Callao|Caloocan|Caltanissetta|Caluire\\-et\\-Cuire|Calw|Camacari|Camaragibe|Cambrai|Cambridge|Camenca|Campeche|Campha|Campinas|Campobasso|Campo\\ Grande|Cancun|Canillo|Cannes|Cantemir|Cantho|Cape\\ Coral|Cape\\ town|Caracal|Caracas|Caransebe\\\xba|Carcassonne|Carei|Carolina|Carpentras|Carpi|Carrara|Carrollton|Cartagena|Cartagena|Cartago|Cary|Casablanca|Casalnuovo\\ di\\ Napoli|Caserta|Cashel|Casoria|Castanhal|Castellammare\\ di\\ Stabia|Castres|Castrop\\-Rauxel|Catania|Catanzaro|Cava\\ de\\'\\ Tirreni|Cavaillon|Cavnic|Caxias|Cayenne|Cazin|\\\xc4\\\x8cazma|Cead\\\xe2r\\-Lunga|Cebu|Cedar\\ Rapids|Cegl\\\xe9d|Cehu\\ Silvaniei|Celld\\\xf6m\\\xf6lk|Cenon|Centennial|Cenxi|Cergy|Cerignola|Cernavod\\\xe3|C\\\xc3\\\xabrrik|Cesena|Cesis|\\\xc4\\\x8cesk\\\xc3\\\xa9\\ Bud\\\xc4\\\x9bjovice|Cesvaine|Cetinje|Chachersk\\ |Chadan|Chaidari|Chaiyaphum|Chakaten|Chalandri|Chalcis|challenged|Chalon\\-sur\\-Sa\\\xf4ne|Chambarak|Chamb\\\xe9ry|Champigny\\-sur\\-Marne|Champs\\-sur\\-Marne|Chandan\\ Nagar|Chandigarh|Chandler|Chandler|Changchun|Changde|Changge|Changle|Changning|Changsha|Changshu|Changyi|Changzhi|Changzhou|Chania|Chanthaburi|Chaohu|Chaoyang|Chapayevsk|Chaplygin|Chapni|Chapra|Chardzhou|Charenton\\-le\\-Pont|Charentsavan|Charleroi|Charleston|Charleville\\-M\\\xe9zieres|Charlotte|Charlotte|Chartres|Chashniki\\ |Ch\\\xc3\\\xa2telet|Chatou|Chattanooga|Chattanooga|Chaumont|Chavusy\\ |Chaykovsky|Chebarkul|Cheboksary|Chegem|Chekalin|Chekhov|Chelles|Chelyabinsk|Chelyabinsk|Chengdu|Chenghai|Chennai|Chenzhou|Cheongju|Chepelare|Cherbourg\\-Octeville|Cherdyn|Cheremkhovo|Cherepanovo|Cherepovets|Cherkessk|Chernogolovka|Chernogorsk|Chernushka|Chernyakhovsk|Cherven\\ Bryag|Chervyen\\ |Cherykaw\\ |Chesapeake|Chesapeake|Chhindwara|Chiatura|Chiba|Chicago|Chicago|Chieti|Chifeng|Chigasaki|Chihuahua|Chi\\\xbaineu\\-Cri\\\xba|Chi\\\xbain\\\xe3u|Chimay|Chimoio|Chinari|Chinchin|Chingola|Chiniot|Chiny|Chioggia|Chios|Chiprovtsi|Chirala|Chirchik|Chirokitia|\\\xc9chirolles|Chirpan|Chistopol|Chita|Chitila|Chittagong|Chittoor|Chiva|Chizhou|Chkalov|Chkalovka|Chkalovsk|Chknagh|Chlef|Ch\\\xe2lons\\-en\\-Champagne|Chloraka|Chochkan|Chofu|Choisy\\-le\\-Roi|Cholargos|Cholet|Chomutov|Chon\\ Buri|Chongjin|Chongqing|Chongzhou|Choratan|Ch\\\xe2teauroux|Ch\\\xe2tellerault|Ch\\\xe2tenay\\-Malabry|Ch\\\xe2tillon|Chudovo|Chukhloma|Chula\\ Vista|Chula\\ Vista|Chulym|Chungju|Chusovoy|Chyormoz|Ciacova|Cienfuegos|Cig\\\xe1nd|Cimi\\\xbalia|C\\\xe3inari|Cincinnati|Ciney|Cinisello\\ Balsamo|Cisn\\\xe3die|cite|Ciudad\\ Del\\ Carmen|Ciudad\\ Delgado|Ciudad\\ Guayana|Civitavecchia|Cixi|Clamart|C\\\xe3lan|Clarksville|Clausthal\\-Zellerfeld|Clearwater|Clermont\\-Ferrand|Cleveland|Clichy|Clichy\\-sous\\-Bois|C\\\xe3lim\\\xe3ne\\\xbati\\-C\\\xe3ciulata|Clogher\\[15\\]|Cloppenburg|C\\\xe3l\\\xe3ra\\\xbai|C\\\xe3l\\\xe3ra\\\xbai|Cluj\\-Napoca|C\\\xe2mpeni|C\\\xe2mpia\\ Turzii|C\\\xe2mpina|C\\\xe2mpulung|C\\\xe2mpulung\\ Moldovenesc|Cochabamba|Cochem|Codlea|Codru|Coesfeld|Coimbatore|Colimas|Collegno|Colmar|Cologne|Colombes|Colombo|Colombo|Colomiers|Colorado\\ Springs|Columbia|Columbia|Columbus|Columbus|Columbus|Comarnic|Combs\\-la\\-Ville|Comilla|Comines\\-Warneton|Com\\\xe3ne\\\xbati|Como|Compiegne|Comrat|Conakry|Concord|Conflans\\-Sainte\\-Honorine|Constan\\\xfea|Contagem|Cop\\\xbaa\\ Mic\\\xe3|Copenhagena|Coquimbo|Corabia|Coral\\ Springs|Corbeil\\-Essonnes|Corinth|Cork|Corlu|Cormeilles\\-en\\-Parisis|Corne\\\xbati|Corona|Corona|Coro|\\\xc3\\\x87orovod\\\xc3\\\xab|Corpus\\ Christi|Corum|Cosenza|Costa\\ Mesa|Coste\\\xbati|Coste\\\xbati|Coswig|Cotabato|Cotia|Cotonou|Cottbus|Coudekerque\\-Branche|Courbevoie|Couvin|Covasna|Crailsheim|Craiova|Crasnoe|Crawley|Creglingen|Creil|Cremona|Cres|Creussen|Creuzburg|Cricova|Crikvenica|Crimmitschau|Cristuru\\ Secuiesc|Criuleni|Crivitz|Croix|Crotone|Cr\\\xe9teil|\\\xd3csa|Csan\\\xe1dpalota|Csenger|Csepreg|\\\xc1cs|Csongr\\\xe1d|Csorna|Csorv\\\xe1s|Csurg\\\xf3|Cuddalore|C\\\xe3u\\\xbaeni|Cuernavaca|Cugir|Cuneo|Cupcini|Curitiba|Curtea\\ de\\ Arge\\\xba|Curtici|Cuttack|Cuxhaven|C\\\xe3z\\\xe3ne\\\xbati|Dabas|Daegu|Daejeon|Dafeng|Dafni|Dagda|Dagestanskiye\\ Ogni|Dahme\\/Mark|Dahn|Dakar|\\\xc4\\\x90akovo|Dalar|Dalarik|Dalgopol|Dalian|Dali|Dali|Dallas|Dallas|Dalmatovo|Dalnegorsk|Dalnerechensk|Dalv\\\xedk|Daly\\ City|Damascus|Damaturu|Dammarie\\-les\\-Lys|Damme|Dandong|Danilovgrad|Danilov|Dankov|Dannenberg|Danyang|Danzhou|Daqing|Darabani|Darakert|Daranak|Darbas|Darbnik|Dar\\ es\\ Salaam|Dargun|Darpas|Daruvar|Dasaki\\ tis\\ Achnas|Dashiqiao|Dashkasan|Dashtadem|Dashtakar|Dasht|Dashtavan|Dassel|Dassow|Dastakert|Datong|Datteln|Daugai|Daugavpils|Daun|Davachi|Davao|Davenport|Davit\\ Bek|Davlekanovo|Davtashen|Davyd\\-Haradok\\ |Dax|Daye|Dayton|Dayton|D\\\xe3buleni|D\\\xe9cines\\-Charpieu|Ddmashen|Dearne\\ Valley|Debar|Debelets|Debet|Debetavan|Debrecen|D\\\xc4\\\x9b\\\xc4\\\x8d\\\xc3\\\xadn|Dedoplistsqaro|Dedovsk|Deghdzavan|Deghdzut|Degtyarsk|Dehiwala\\-Mount\\ Lavinia|Dehradun|Dehui|Deidesheim|Deinze|Deir\\ El\\-Zor|Dej|Delbr\\\xc3\\\xbcck|Del\\\xe8evo|Delhi|Delmenhorst|Delnice|Delvin\\\xc3\\\xab|Demecser|Demidov|Demir\\ Hisar|Demir\\ Kapija|Demmin|Denain|Dendermonde|Dengfeng|Dengzhou|Denton|Denver|Denver|Dera\\ Ghazi\\ Khan|Derbent|Derecske|Derek|Derry|Derventa|Deryneia|Des\\ Moines|Des\\ Moines|Desnogorsk|Dessau\\-Rosslau|Dessie|Deta|Detmold|Detroit|Detroit|Deuil\\-la\\-Barre|Deva|Devecser|Devin|Devnya|Dewas|Deyang|Dezhou|Dhaka|Dhanbad|Dhekelia|Dian|Diepholz|Dieppe|Dierdorf|Diest|Dietenheim|Dietfurt\\ an\\ der\\ Altm\\\xc3\\\xbchl|Diez|Digora|Dijon|Dijon|Diksmuide|Dilijan|Dillingen\\ an\\ der\\ Donau|Dillingen\\/Saar|Dimitrov|Dimitrovgrad|Dimitrovgrad|Dimovo|Dinajpur|Dinant|Dindigul|Dingelst\\\xc3\\\xa4dt|Dingzhou|Dinkelsb\\\xc3\\\xbchl|Dinklage|Dinslaken|Dippoldiswalde|Dissen\\ am\\ Teutoburger\\ Wald|Ditak|Ditavan|Ditzingen|Divjak\\\xc3\\\xab|Divnogorsk|Diwaniya|Diyarbakir|Dj\\\xfapivogur|Dmanisi|Dmitriyev|Dmitrov|Dmitrovsk|Dnestrovsc|Dnipropetrovsk|Dno|Dobele|Doberlug\\-Kirchhain|D\\\xc3\\\xb6bern|Doboj|Dobrich|Dobrinishte|Dobrota|Dobrush\\ |Dobryanka|Dodoma|Doghs|Dokshytsy\\ |Dolac|Dole|Dolgoprudny|Dolhasca|Dolinsk|Dolna\\ Banya|Dolna\\ Mitropoliya|Dolna\\ Oryahovitsa|Dolni\\ Chiflik|Dolni\\ Dabnik|Dombr\\\xe1d|Domb\\\xf3v\\\xe1r|D\\\xc3\\\xb6mitz|Domodedovo|Donaueschingen|Donauw\\\xc3\\\xb6rth|Dondu\\\xbaeni|Donetsk|Donetsk|Donggang|Dongguan|Dongtai|Dongyang|Dongying|Donja\\ Lastva|Donja\\ Stubica|Donje\\ Luge|Donji\\ Miholjac|Donji\\ Vakuf|Donskoy|Donzdorf|Dordrecht|Dormagen|Dornbirn|Dornburg\\-Camburg|Dornhan|Dornstetten|Dorog|Dorogobuzh|Dorohoi|Dorsten|Dortmund|Dortmund|Dospat|Dos\\ Quebradas|Douai|Douala|Dourados|Dovegh|Dovrus|Downey|Downpatrick|Dprabak|Dprevank|Dragoman|Dragomire\\\xbati|Draguignan|Drahichyn\\ |Drakhtik|Drama|Drammen|Drancy|Drangsnes|Dransfeld|Draveil|Drebkau|Drensteinfurt|Dresden|Dreux|Drezna|Dr\\\xe3g\\\xe3\\\xbaani|Dr\\\xe3g\\\xe3ne\\\xbati\\-Olt|D\\\xe3rm\\\xe3ne\\\xbati|Drni\\\xc5\\\xa1|Drobeta\\-Turnu\\ Severin|Drochia|Drolshagen|Drousia|Druskininkai|Dryanovo|Drybin\\ |Dsegh|Dubai|Dublin|Dubna|Dubovka|Dubrovnik|Dubrowna\\ |Dub\\\xe3sari|Duderstadt|Dudinka|Duga\\ Resa|Dugo\\ Selo|Duisburg|Duisburg|Dujiangyan|Dukhovshchina|Duk\\\x9atas|D\\\xc3\\\xbclmen|Dulovo|Dumbr\\\xe3veni|Dumfries\\ \\&\\ Galloway|Dunaf\\\xf6ldv\\\xe1r|Dunaharaszti|Duna\\\xfajv\\\xe1ros|Dunakeszi|Dunavars\\\xe1ny|Dunavecse|Dunavtsi|Dundee|Dunhuang|Dunkerque|Dupnitsa|Duque\\ de\\ Caxias|Durban|Durbe|Durbuy|\\\xc4\\\x90ur\\\xc4\\\x91evac|D\\\xc3\\\xbcren|Durg\\-Bhilai\\ Nagar|Durg|Durham|Durham|Durle\\\xbati|Durr\\\xc3\\\xabs|Dusetos|Dushanbe|Dusheti|D\\\xc3\\\xbcsseldorf|D\\\xe9vav\\\xe1nya|Dve\\ Mogili|Dvin|Dyatkovo|Dyurtyuli|Dzerzhinski|Dzerzhinsk|Dzerzhinsky|Dzhebel|Dzithankov|Dzoraget|Dzoraghbyur|Dzoraglukh|Dzoragyugh\\ |Dzoragyugh|Dzoragyukh\\ |Dzorakap|Dzorak|Dzoramut|Dzorashen|Dzorastan|Dzoravank|Dzyarzhynsk\\ |Dzyatlava\\ |Dzyunashogh|Eaubonne|\\\xafebbug|Eberbach|Ebermannstadt|Ebersbach\\ an\\ der\\ Fils|Ebersbach\\/Sa\\.|Eberswalde|Eckartsberga|Eckernf\\\xc3\\\xb6rde|Edel\\\xe9ny|Ede|Edenkoben|Edessa|Edine\\\xfe|Edmonton|\\\x8aeduva|Eeklo|E\\\x9eerelis|Effon\\-Alaiye|Eforie|Egeln|Eger|Egersund|Eggenfelden|Eggesin|Egilssta\\?ir|Ehingen|Ehrenfriedersdorf|Eichst\\\xc3\\\xa4tt|Ei\\\x9ai\\\x9akes|Einbeck|Eindhoven|Eisenberg|Eisenberg|Eisenh\\\xc3\\\xbcttenstadt|Eisenstadt|Eisleben|Eislingen\\/Fils|Ejmiatsin|\\\xafejtun|Ekaterinoburg|Eken\\\xe4s|Ekibastuz|El\\ aaiun|El\\ Alto|Elbasan|Elche|El\\ Djelfa|Eleftherio\\-Kordelio|Elek|Elektrenai|Elektrogorsk|Elektrostal|Elektrostal|Elektrougli|Elena|Eleusis|Elgin|Elhovo|Elin\\ Pelin|Elista|Elizabeth|El\\-Jadida|Elk\\ Grove|Elliniko|Ellwangen|El\\ Monte|Elmshorn|El\\ Paso|El\\ Paso|Elsfleth|Elsterwerda|El\\ Tarter|Eltville\\ am\\ Rhein|\\\xc8eluga|Eluru|Elva|Elzach|Em\\\xf5d|Emmendingen|Emmerich\\ am\\ Rhein|Emsdetten|Enakievo|Encamp|Encs|Endingen|Engels|Engels|Engen|Enger|Enghien|English\\ Bazar|Ennepetal|Ennigerloh|Enns|\\\xd0enovi\\\xe6i|Enschede|Enschede|Enshi|Envigado|Enying|Episkopi|Eppelheim|Eppingen|Erbach|Ercolano|Ercsi|Erftstadt|Erfurt|Erfurt|Ergates|Erie|Erkelenz|Erkrath|Erlenbach\\ am\\ Main|Ermont|Ersek\\\xc3\\\xab|Ertil|Erwitte|Esbjerg|Eschenbach\\ in\\ der\\ Oberpfalz|Eschershausen|Eschweiler|Escondido|Esfahan|Eskifj\\\xf6r\\?ur|Espelkamp|Espoo|Essen|Essen|Esslingen\\ am\\ Neckar|Esztergom|Etawah|Etropole|Ettenheim|Ettlingen|Eugene|Eugene|Eupen|Euskirchen|Eutin|Evansville|Evosmos|Evrychou|Eyrarbakki|Ezhou|Faenza|Fairfield|Faisalabad|Faizabad|Falkenberg\\/Elster|Falkensee|Falkenstein\\/Harz|Falkenstein\\/Vogtl\\.|Falkirk|Famagusta|Fanipal\\ |Fano|Fantan|Faridabad|Farsund|Fatehpur|Fatezh|Fayetteville|Fehmarn|Feh\\\xe9rgyarmat|Feicheng|Feira\\ de\\ Santana|Feldkirchen|Feldkirch|Fellbach|Fels\\\xf5zsolca|Fengcheng|Fengnan|Fergana|Ferik|Ferrara|Ferraz\\ de\\ Vasconcelos|Fert\\\xf5d|Fert\\\xf5szentmikl\\\xf3s|Fete\\\xbati|Feuchtwangen|F\\\xe3get|F\\\xe3g\\\xe3ra\\\xba|Fianarantsoa|Fieni|Fier|Fierbin\\\xfei\\-T\\\xe2rg|Filderstadt|Filia\\\xbai|Finsterwalde|Fioletovo|Firenze|Fiumicino|Flekkefjord|Flensburg|F\\\xe3le\\\xbati|Fleurus|Fleury\\-les\\-Aubrais|Flint|Fl\\\xfa\\?ir|Florence|Florencia|Florenville|Flore\\\xbati|Florina|Floro|Fl\\\xc3\\\xb6rsheim\\ am\\ Main|F\\\xe3lticeni|Fo\\\xc4\\\x8da|Foc\\\xbaani|Foggia|Fokino|Fokino|Foligno|Fontaine\\-l\\'Ev\\\xc3\\\xaaque|Fontaine|Fontana|Fontana|Fontenay\\-aux\\-Roses|Fontenay\\-sous\\-Bois|Fony\\\xf3d|Forbach|Forchtenberg|Forli|Formosa|Forssa|Forst|Fortaleza|Fort\\ Collins|Fort\\-de\\-France|Fort\\ Lauderdale|Fort\\ Lauderdale|Fort\\ Wayne|Fort\\ Wayne|Fort\\ Worth|Fort\\ Worth|Foshan|Fosses\\-la\\-Ville|Fougeres|Francisco\\ Morato|Franconville|Frankenberg|Frankenberg\\/Sa\\.|Frankenthal|Frankfurt\\ am\\ Main|Frankfurt\\ am\\ Main|Frankfurt|Franzburg|Frasin|Frechen|Fredericia|Frederiksberga|Frederikshavn|Fredrikstad|Freiberg\\ am\\ Neckar|Freiburg\\ im\\ Breisgau|Freiburg\\ im\\ Breisgau|Freilassing|Freinsheim|Fremont|Fremont|Freren|Fresnes|Fresno|Freudenberg|Freudenberg|Freudenstadt|Freyburg|Fridingen\\ an\\ der\\ Donau|Friedland|Friedland|Friedrichroda|Friedrichsdorf|Friedrichshafen|Friedrichstadt|Friedrichsthal|Friesack|Friesoythe|Frisco|Fr\\\xe9jus|Frolovo|Fr\\\xc3\\\xb6ndenberg|Frontignan|Frunz\\\xe3|Fryazino|Fr\\\xc3\\\xbddek\\-M\\\xc3\\\xadstek|F\\\xe1skr\\\xfa\\?sfj\\\xf6r\\?ur|F\\\xf3t|Fuan|Fuding|Fuenlabrada|Fukang|Fukuoka|Fullerton|Funabashi|Fundulea|Fuqing|F\\\xe3urei|Furmanov|F\\\xc3\\\xbcrstenau|F\\\xc3\\\xbcrstenberg\\/Havel|F\\\xc3\\\xbcrstenfeldbruck|F\\\xc3\\\xbcrstenwalde|Furth\\ im\\ Wald|Furtwangen\\ im\\ Schwarzwald|Fush\\\xc3\\\xab\\-Arr\\\xc3\\\xabz|Fush\\\xc3\\\xab\\-Kruj\\\xc3\\\xab|Fushun|F\\\xc3\\\xbcssen|Fuxin|Fuyang|Fuzhou|Fuzuli|F\\\xfczesabony|F\\\xfczesgyarmat|Gabrovo|Gadabay|Gadag\\-Betgeri|Gadebusch|Gadzhiyevo|Gagarin|Gaggenau|Gagny|Gaildorf|Gainesville|Gaizhou|Galabovo|Gala\\\xfei|Galata|Galatsi|Galich|Gallarate|Galway|Gammertingen|Gandhinagar|Gandzakar|Gandzak|Ganganagar|Gangneung|Ganja|Gaoan|Gaobeidian|Gaocheng|Gaomi|Gaoyao|Gaoyou|Gaozhou|Gap|Gar\\?abar|Garbsen|Garching\\ bei\\ M\\\xc3\\\xbcnchen|Gardabani|Gardanne|Gardelegen|Garden\\ Grove|Garden\\ Grove|Garding|Gare\\\xc5\\\xa1nica|Gargar|Garg\\\x9edai|Garges\\-les\\-Gonesse|Garland|Garland|Garliava|Garnahovit|Garnarich|Garni|Gar\\?ur|Garz\\/R\\\xc3\\\xbcgen|Gatchina|Gau\\-Algesheim|Gavar|Gavrilov\\ Posad|Gavrilov\\-Yam|Gay|Gay|Gazanabutsakan\\ p\\.t\\.k\\.|Gaziantep|G\\\xf6d|G\\\xf6d\\\xf6ll\\\xf5|Gdov|Geel|Geelong|Geesthacht|Geghadir|Geghadzor|Geghakar|Geghamabak|Geghamasar|Geghamavan|Geghanist|Geghanush|Geghard|Gegharkunik|Gegharot|Geghasar|Geghashen|Geghhovit|Geghi|Gehrden|Geilenkirchen|Geiselh\\\xc3\\\xb6ring|Geisingen|Geislingen\\ an\\ der\\ Steige|Geislingen|Gela|Geldern|Gelendzhik|Gelgaudi\\\x9akis|Gelsenkirchen|Gembloux|Gem\\\xc3\\\xbcnden\\ am\\ Main|Gem\\\xc3\\\xbcnden|Genappe|General\\ Toshevo|Gengenbach|Genhe|Genk|Gennevilliers|Genoa|Genova|Gent|Genthin|Gentoftea|Geoagiu|Geoje|George\\ Town|Georgiyevsk|Georgsmarienh\\\xc3\\\xbctte|Geraardsbergen|Gerabronn|Gerakas|Gerakies|Gerbstedt|Geri|Geringswalde|Gerlingen|Germersheim|Germiston|Gernrode|Gernsbach|Gerolakkos|Gerolstein|Gerolzhofen|Geroskipou|Gersfeld|Gescher|Geseke|Getafe|Getahovit|Getamej|Getap|Getapnya|Getashen|Getatagh|Getazat|G\\\xe3e\\\xbati|Getik|Getk|Gevelsberg|Gevgelija|Ghabaghtapa|Gharibjanyan|Ghazanchi|Ghazaravan|Ghaziabad|Ghent|Gheorgheni|Gherla|Ghimbav|Ghinde\\\xbati|Ghukasavan|Ghursal|Ghzljugh|Gialousa|Giannitsa|Giengen\\ an\\ der\\ Brenz|Gifhorn|Gif\\-sur\\-Yvette|Gilbert|Gilbert|Gimcheon|Giolou|Gistel|Giugliano\\ in\\ Campania|Giurgiu|Giza|Gjirokast\\\xc3\\\xabr|Gjovik|Gladbeck|Gladsaxea|Gladzor|Glasgow|Glash\\\xc3\\\xbctte|Glavinitsa|Glazov|Glendale|Glendale|Glendale|Glina|Glinde|Gliwice|Glodeni|Glodzhevo|Glostrupa|Gl\\\xc3\\\xbccksburg|Gl\\\xc3\\\xbcckstadt|Glyfada|Gmunden|G\\\xf6nc|Gndevaz|Gnishik|Gnoien|Goch|Godech|Gogaran|Goghovit|Goghtanik|Goght|Goldberg|Gold\\ Coast\\-Tweed|Goldkronach|Golitsyno|Golssen|Golubovci|Gombe|Gomk|Gommern|Gondar|Gonesse|Gongyi|Gongzhuling|G\\\xc3\\\xb6ppingen|Gorakhpur|Goranboy|Goransko|Goravan|Gorayk|Gora\\\xc5\\\xbede|Gorbatov|Gori\\\xe8ani|Gori|Goris|G\\\xc3\\\xb6rlitz|Gorna\\ Oryahovitsa|Gornji\\ Vakuf|Gorno\\-Altaysk|Gornozavodsk|Gornyak|Gorodets|Gorodishche|Gorodovikovsk|Gorokhovets|Gorontalo|Goryachy\\ Klyuch|Gosh|Goslar|Gospi\\\xc4\\\x87|G\\\xc3\\\xb6ssnitz|Gostivar|Gotse\\ Delchev|G\\\xc3\\\xb6ttingen|Gotzis|Goussainville|Goyang|Goychay|Goygol|Grabow|Gra\\\xc4\\\x8danica|Grada\\\xc4\\\x8dac|Gradac|Gradignan|Gr\\\xc3\\\xa4fenberg|Gr\\\xc3\\\xa4fenhainichen|Gr\\\xc3\\\xa4fenthal|Grafenw\\\xc3\\\xb6hr|Grafing\\ bei\\ M\\\xc3\\\xbcnchen|Gramada|Gramsh|Grande\\-Synthe|Grand\\ Prairie|Grand\\ Prairie|Grand\\ Rapids|Grand\\ Rapids|Gransee|Grasse|Grayvoron|Graz|G\\\xe1rdony|Greater\\ Hobart|Greding|Green\\ Bay|Greensboro|Greensboro|Greifswald|Gremyachinsk|Grenoble|Grenoble|Gresham|Greussen|Grevenbroich|Greven|Grevesm\\\xc3\\\xbchlen|Greve\\ Stranda|Griboyedov|Grigi\\\x9akes|Grigny|Grigoriopol|Grimmen|Grimstad|Grindav\\\xedk|Grobina|Gr\\\xc3\\\xb6bzig|Gr\\\xc3\\\xb6ditz|Gronau|Gronau|Groningen|Groningen|Gr\\\xc3\\\xb6ningen|Grossalmerode|Gross\\-Bieberau|Grossbottwar|Grossbreitenbach|Grossenehrich|Grossenhain|Grosseto|Gross\\-Gerau|Grossr\\\xc3\\\xa4schen|Grossr\\\xc3\\\xb6hrsdorf|Grossschirma|Gross\\-Umstadt|Grozny|Groznyi|Grubi\\\xc5\\\xa1no\\ Polje|Gr\\\xc3\\\xbcnberg|Grundarfj\\\xf6r\\?ur|Gr\\\xc3\\\xbcnhain\\-Beierfeld|Gr\\\xc3\\\xbcnsfeld|Gr\\\xc3\\\xbcnstadt|Gryazi|Gryazovets|G\\\xe3taia|Gtashen|Guadalajara|Guang\\'an|Guanghan|Guangshui|Guangyuan|Guangzhou|Guarapuava|Guarenas|Guarulhos|Guatemala\\ city|Guayaquil|Gubakha|Gubkin|Gubkinsky|Gudemnis|Gudermes|Gugark|G\\\xc3\\\xbcglingen|Guidonia\\ Montecelio|Guigang|Guilin|Guiping|Guixi|Guiyang|Gujiao|Gujranwala|Gukovo|Gulbene|Gulkevichi|Gulyantsi|Gummersbach|Gundelfingen\\ an\\ der\\ Donau|Gundelsheim|G\\\xc3\\\xbcntersberge|G\\\xc3\\\xbcnzburg|Gunzenhausen|Gura\\ Humorului|Gurgaon|Gurjaani|Gurkovo|Guryevsk|Guryevsk|Gusanagyugh|Gusev|Gusinje|Gusinoozersk|Gus\\-Khrustalny|G\\\xc3\\\xbcsten|G\\\xc3\\\xbcstrow|G\\\xc3\\\xbctersloh|G\\\xc3\\\xbctzkow|Guwahati|Guyancourt|Gvardeysk|Gwalior|Gwangju|Gyalto|Gyeongsan|Gy\\\xe1l|Gy\\\xf6mr\\\xf5|Gy\\\xf6ngy\\\xf6s|Gy\\\xf6nk|Gyomaendr\\\xf5d|Gy\\\xf5r|Gyulagarak|Gyula|Gyullibulagh|Gyumri|Haan|Haapaj\\\xe4rvi|Haapavesi|Haapsalu|Haarlem|Haarlem|Hachenburg|Hachioji|Hadano|Haderslev|Hadmersleben|Hadzhidimovo|Ha\\\xfeeg|Haeju|Hafar\\ al\\-Batin|Hafnarfj\\\xf6r\\?ur|Hagenbach|Hagen|Hagen|Hagenow|Haghartsin|Haghpat|Haghtanak|Haguenau|Hagvi|Haicheng|Haigerloch|Haikou|Hailun|Haimen|Haining|Haiphong|Haiterbach|Haiyang|Hajd\\\xfab\\\xf6sz\\\xf6rm\\\xe9ny|Hajd\\\xfadorog|Hajd\\\xfahadh\\\xe1z|Hajd\\\xfan\\\xe1n\\\xe1s|Hajd\\\xfas\\\xe1mson|Hajd\\\xfaszoboszl\\\xf3|Hajigabul|Haj\\\xf3s|Hakko|Halavar|Halberstadt|Halden\\[6\\]|Haldensleben|Haldia|Haldwani\\-cum\\-Kathgodam|Halen|Halidzor|Halle|Hallein|Hallenberg|Halle|Halle|Hall\\ in\\ Tirol|Hal\\\xe1sztelek|Haltern\\ am\\ See|Halver|Hamamatsu|Hamar|Hama|Hamburg|Hameln|Hamhung|Hamilton|Hamilton|Hamina|Hammerfest|Hamm|Hamminkeln|Hamm|Hampton|Hampton|Hanchuan|Handan|Hangzhou|Hankavan|Hanko|Hann\\.\\ M\\\xc3\\\xbcnden|Hannut|Hanover|Hantsavichy\\ |Haora|Hapur|Haradok\\ |Harare|Harbin|Hardegsen|Hard|Hardwar|Harelbeke|Haren|Harich|Harjavalta|Hark\\\xe1ny|Harmanli|Harsewinkel|Harstad|Hartagyugh|Hartashen|Hartavan|Hartford|Harzgerode|Harzhis|Hasel\\\xc3\\\xbcnne|Haskovo|Haslach|Hasselt|Hassfurt|Hatay|Hatis|Hatsashen|Hatsavan|Hatsik|Hattersheim\\ am\\ Main|Hattingen|Hatvan|Hatzfeld|Haugesund|Hausach|Havana|Havelberg|Havelsee|Hav\\\xc3\\\xad\\\xc5\\\x99ov|Hayanist|Hayingen|Haykadzor|Haykasar|Haykashen|Haykavan|Hayravank|Hayrenyats|Haytagh|Hayward|Hazebrouck|H\\\xf3dmez\\\xf5v\\\xe1s\\\xe1rhely|Hebron|Hechingen|Hechuan|Hecklingen|Heerlen\\-Kerkrade|Hefei|Hegang|Heidelberg|Heidenheim\\ an\\ der\\ Brenz|Heide|Heihe|Heilbad\\ Heiligenstadt|Heilbronn|Heiligenhafen|Heiligenhaus|Heimbach|Heimsheim|Heinola|Heinsberg|Heitersheim|Hejian|Heldrungen|Hella|Hellissandur|Helmbrechts|Helmstedt|Helong|Helsingor|Helsinki|Hemer|Hemmingen|Hemmoor|Hemsbach|Henderson|Henderson|Hengyang|Hennef|Hennigsdorf|Heraklion|Herat|Herblay|Herbolzheim|Herbrechtingen|Herceg\\ Novi|Herdecke|Herdorf|Herend|Herentals|Herford|Herher|Heringen\\/Helme|Herk\\-de\\-Stad|Herleva|Hermeskeil|Hermon|Hermosillo|Hermsdorf|Herne|Herne|Herning|Herrenberg|Herten|Herve|Herzberg\\ am\\ Harz|Herzberg|Herzogenaurach|Herzogenrath|Hessisch\\ Lichtenau|Hessisch\\ Oldendorf|Hetian|Hettingen|Hettstedt|Heubach|Heves|Heyuan|Heze|Hezhou|H\\\xf6fn|Hialeah|Hialeah|Higashihiroshima|Higashimurayama|Highland|High\\ Point|Hilchenbach|Hildburghausen|Hilden|Hildesheim|Hillerod|Hillesheim|Hilpoltstein|Himar\\\xc3\\\xab|Hino|Hirosaki|Hiroshima|Hirschberg|Hirschhorn|Hisarya|Hitachi|Hitachinaka|Hitzacker|Hjorring|H\\\xf3lar|H\\\xf3lmav\\\xedk|Hlusk\\ |Hlybokaye\\ |H\\\xe4meenlinna|Hnaberd|H\\\xeence\\\xbati|H\\\xe9nin\\-Beaumont|Hobardz|Hochheim\\ am\\ Main|Ho\\ Chi\\ Minh\\ City|H\\\xc3\\\xb6chstadt\\ an\\ der\\ Aisch|H\\\xc3\\\xb6chst\\\xc3\\\xa4dt\\ an\\ der\\ Donau|Hockenheim|Hofheim\\ am\\ Taunus|Hoghmik|Hohenberg\\ an\\ der\\ Eger|Hohenems|Hohenleuben|Hohenm\\\xc3\\\xb6lsen|Hohen\\ Neuendorf|Hohenstein\\-Ernstthal|H\\\xc3\\\xb6hr\\-Grenzhausen|Hoktember|Holbak|Hollabrunn|Hollywood|Hollywood|Holmestrand|Holon|Holstebro|Holzgerlingen|Holzminden|Homberg|Homberg|Homburg|Homs|Homyel\\ |Honefoss|Honghu|Hong\\ kong|Honolulu|Hoogstraten|Horb\\ am\\ Neckar|Horbategh|Horezu|Horki\\ |Hornbach|Horn\\-Bad\\ Meinberg|Hornberg|Hornburg|Horom|Hors|Horsens|Horsholm3|H\\\xc3\\\xb6rstel|Horstmar|Horten|Hortolandia|Hoshiarpur|Hospet|Houffalize|Houilles|Houma|Houston|Houston|Hovit|Hovk|Hovnanadzor|Hovtamej|Hovtashat|Hovtashen|Hovtun|Hovuni|H\\\xc3\\\xb6xter|Hradec\\ Kr\\\xc3\\\xa1lov\\\xc3\\\xa9|Hrazdan|H\\\xe2rl\\\xe3u|Hrodna\\ |H\\\xe9rouville\\-Saint\\-Clair|H\\\xe2r\\\xbaova|Hrvatska\\ Kostajnica|H\\\xfasav\\\xedk|\\\xc4ht\\\xe4ri|Huaian|Huaibei|Huainan|Huaiyin|Huangshi|Huazhou|Hubli\\-Dharwad|H\\\xc3\\\xbcckelhoven|H\\\xc3\\\xbcckeswagen|Huedin|Huelva|H\\\xc3\\\xbcfingen|Hugli\\-Chinsurah|Huhehaote|Huittinen|Hu\\\xbai|Huixian|Huiyang|Huizhou|Huludao|Hunchun|Hunedoara|Huntington\\ Beach|Huntington\\ Beach|Huntsville|Huntsville|H\\\xc3\\\xbcrth|Hushakert|Husum|Huy|Huzhou|Hvammstangi|Hvanneyri|Hvar|Hverager\\?i|Hvidovrea|Hvolsv\\\xf6llur|H\\\xe9v\\\xedz|Hyderabad|Hyderabad|Hyeres|Hyesan|Hyvink\\\xe4\\\xe4|Ia\\\xbai|Ialoveni|Ianca|Iargara|\\\x8aiauliai|Ibadan|Ibarac|Ibbenb\\\xc3\\\xbcren|Ibr\\\xe1ny|Ica|Ichenhausen|Icheon|\\\xdeicleni|Idalium|Idar\\-Oberstein|\\\x8eidovi\\\xe6i|\\\x8eie\\\x9emariai|Iernut|Ife|Igal\\,\\ Hungary|Igalo|Igarka|Ignalina|Ihtiman|Iisalmi|Ijevan|Ikaalinen|Ik\\\x9akile|Ikorodu|\\\x8ailale|Ilam|Ilansky|Ilid\\\xc5\\\xbea|Ilio|Ilioupoli|Illertissen|Illkirch\\-Graffenstaden|Ilok|Ilopango|Ilorin|Ilsenburg|Ilshofen|Ilukste|\\\x8ailute|Imabari|Imatra|Imbaba|Imishli|\\\xaaimleu\\ Silvaniei|Immenstadt\\ im\\ Allg\\\xc3\\\xa4u|Imola|Imotski|Imperatriz|improve\\ this\\ article|Incheon|Indaiatuba|Independence|Indianapolis|Indianapolis|Indore|Ineu|Ingelfingen|Ingelheim\\ am\\ Rhein|Inglewood|Inia|Innsbruck|Insar|Inta|Inza|Ioannina|Ipatovo|Ipswich|Iquique|Irakleio|Irbit|Irind|Irkutsk|Irkutsk|Iruma|Irvine|Irvine|Irving|Irving|\\\x8airvintos|Isaccea|Isahakyan|Isahaya|Isaszeg|Iserlohn|Isesaki|Iseyin|Ishimbay|Ishim|Ishinomaki|Isilkul|Iskar|Iskenderun|Iskitim|Islamabad|Isla|Ismailli|Isny\\ im\\ Allg\\\xc3\\\xa4u|Isparta|Isselburg|Issy\\-les\\-Moulineaux|Istanbul|Isto\\\xc4\\\x8dno\\ Sarajevo|Istra|Istres|Itabuna|Itami|Itapecerica\\ da\\ Serra|Itapetininga|Itapevi|Itsakar|Itu|Itzehoe|Ivanava\\ |Ivanec|Ivangorod|Ivani\\\xc4\\\x87\\-Grad|Ivano\\-Frankivsk|Ivanovo|Ivanteyevka|Ivatsevichy\\ |Ivaylovgrad|Ivdel|Ivry\\-sur\\-Seine|Iwata|Iwye\\ |Izberbash|Izegem|Izhevsk|Izhevsk|Izmir|Izobilny|Izs\\\xe1k|Izumi|Izumo|Jabalpur|Jablanica|Jaboatao\\ dos\\ Guarapes|Jabrayil|Jackson|Jackson|Jacksonville|Jacksonville|Jaghatsadzor|Jaipur|Jajce|Jajur|Jajur\\ kayaranin\\ kits|Jakarta|Jakobstad|Jalandhar|Jalilabad|Jammu|Jamnagar|Jamshedpur|Jamshlu|Janfida|Jarmen|Jastrebarsko|Jaunjelgava|Jaunpur|Jayapura|Jecheon|Jeddah|Jekabpils|Jelgava|Jeonju|Jerichow|Jermuk|Jersey\\ City|Jerusalem|Jessen|Jessore|\\\xdajfeh\\\xe9rt\\\xf3|Jhelum|Jiamusi|Jiangdu|Jiangjin|Jiangmen|Jiangyan|Jiangyin|Jiangyou|Jianyang|Jiaonan|Jiaozhou|Jiaozuo|Jiaxing|Jiayuguan|Jibou|Jieshou|Jieyang|Jieznas|Jihlava|Jil|Jilin|Jiliza|Jimbolia|Jimeta|Jimo|Ji\\'nan|Jinchang|Jinggangshan|Jingjiang|Jingmen|Jingzhou|Jining|Jinjiang|Jintan|Jinzhong|Jinzhou|Jiujiang|Jiutai|Jixi|Jiyuan|\\\xdajk\\\xedgy\\\xf3s|J\\\xe4ms\\\xe4|J\\\xe4ms\\\xe4nkoski|J\\\xe1noshalma|J\\\xe1nossomorja|Joachimsthal|Joao\\ Pessoa|Jodhpur|Jodoigne|Joensuu|Joetsu|Jogeva|Johannesburg|Johanngeorgenstadt|J\\\xc3\\\xb6hstadt|Johvi|Joliet|Jonava|Joni\\\x9akelis|Joni\\\x9akis|Jou\\\xe9\\-les\\-Tours|Joutseno|Jraber|Jradzor|Jrahovit|Jrambar|Jrapi|Jrarat|Jrarati\\ trchnafabrika|Jrashen|J\\\xe4rvenp\\\xe4\\\xe4|Jrvezh|J\\\xe1szap\\\xe1ti|J\\\xe1szber\\\xe9ny|J\\\xe1szf\\\xe9nyszaru|J\\\xe1szkis\\\xe9r|J\\\xe1sz\\\xe1roksz\\\xe1ll\\\xe1s|\\\xdajsz\\\xe1sz|Juankoski|Juazeiro|Jujevan|Julfa|Juliaca|J\\\xc3\\\xbclich|Jurbarkas|Jurmala|Jurong|J\\\xc3\\\xbcterbog|Jvari|Jyv\\\xe4skyl\\\xe4|Kaarina|Kaarst|Kaba|Kabankalan|Kableshkovo|Kabul|Kabwe|Kachachkut|Kachkanar|Kadark\\\xfat|Kadhimain|Kadnikov|Kaduna|Kaghnut|Kaghsi|Kaghtsrashen|Kagoshima|Kaifeng|Kai\\\x9aiadorys|Kaimakli|Kaiping|Kaisariani|Kaisersesch|Kaiserslautern|Kaiyuan|Kajaani|Kajaran|Kajarants|Kakamigahara|Kakanj|Kakavadzor|Kakavasar|Kakhakn|Kakopetria|Kalachinsk|Kalach\\-na\\-Donu|Kalach|Kalamaria|Kalamata|Kalasin|Kalavan|Kalavasos\\;|Kalbajar|Kalbe|Kalesija|Kaliningrad|Kaliningrad|Kalininsk|Kalinkavichy\\ |\\\x8akaljari|Kalkar|Kallaste|Kallithea|Kalocsa|Kalofer|Kalookan|Kalopanagiotis|Kaltan|Kaltenkirchen|Kaltennordheim|Kaluga|Kalvarija|Kalyan|Kalyazin|Kalyvia\\ Thorikou|Kamakura|Kamaris|Kamatero|Kambarka|Kambos|Kamenka|Kamen\\-na\\-Obi|Kamennogorsk|Kamen|Kameno|Kamensk\\-Shakhtinsky|Kamensk\\-Uralsky|Kamensk\\-Uralsky|Kameshkovo|Kam\\\xc3\\\xabz|Kamo|Kamoke|Kampala|Kampia|Kamp\\-Lintfort|Kamyanyets\\ |Kamyshin|Kamyshlov|Kamyzyak|Kanachut|Kanakeravan|Kanash|Kanchanaburi|Kancheepuram|Kandahar|Kandalaksha|Kandava|Kandel|Kandern|Kanggye|Kankaanp\\\xe4\\\xe4|Kannus|Kano|Kanpur|Kansas\\ City|Kansas\\ City|Kansas\\ City|Kansk|Kantou|Kaohsiung|Kaolack|Kaolinovo|Kapan|Kapedes|Kapfenberg|Kaposv\\\xe1r|Kappeln|Kapra|Kaps|Kaputan|Kapuv\\\xe1r|Kapyl\\ |Karabanovo|Karabash|Karaberd|Karabulak|Karachayevsk|Karachev|Karachi|Karadzor|Karagandy|Karaglukh|Karahunj|Karaj|Karakert|Karashamb|Karashen|Karasuk|Karawal\\ Nagar|Karbi|Karcag|Karchaghbyur|Karchevan|Karditsa|Kardzhali|Karelichy\\ |Kareli|Karenis|Kargat|Kargopol|Karimnagar|Karin|Karinj|Karis|Kariya|Karkkila|Karkop|Karksi\\-Nuia|Karlovac|Karlovo|Karlovy\\ Vary|Karlsruhe|Karma\\ |Karmir\\ Aghek|Karmirgyugh|Karmrakar|Karmrashen|Karmravan|Karnal|Karnobat|Karnut|Karpinsk|Karsava|Karshi|Kartaly|Karur|Karvin\\\xc3\\\xa1|Kasakh|Kashin|Kashira|Kashuni|Kasimov|Kaskinen|Kasli|Kaspichan|Kaspi|Kaspiysk|Kassala|Kassel|Kastav|Ka\\\xc5\\\xa1tela|Kastellaun|Kastsyukovichy\\ |Katav\\-Ivanovsk|Kataysk|Katerini|Kathmandu|Katihar|Katnaghbyur|Katnajur|Katnarat|Kato\\ Lefkara|Katowice|Katzenelnbogen|Kaub|Kauhajoki|Kauhava|Kaunas|Kauniainen|Kavadarci|Kavaj\\\xc3\\\xab|Kavala|Kavarna|Kavarskas|Kawanishi|Kawasaki|Kayes|Kayseri|Kazanlak|Kazan|Kazan|Kazincbarcika|Kazlu\\ Ruda|Kecel|Kecskem\\\xe9t|Kedainiai|Kedrovy|Keflav\\\xedk|Kegums|Kehl|Kehra|Keila|Kelbra|K\\\xc3\\\xablcyr\\\xc3\\\xab|Kelia|Kelkheim|Kellinghusen|Kelme|Kelokedara|Kemberg|Kemecse|Kemerovo|Kemerovo|Kemi|Kemij\\\xe4rvi|Kem|Kempen|Kempten\\ im\\ Allg\\\xc3\\\xa4u|Kena|Kenderes|Kentau|Kenzingen|Keratsini|Kerava|Kerch|Kerekegyh\\\xe1za|Kerkyra|Kerman|Kermanshah|Kermen|Kerpen|Keszthely|Keti|Keuruu|Kevelaer|Khabarovsk|Khabarovsk|Khachaghbyur|Khachardzan|Khachik|Khachmaz|Khachpar|Khadyzhensk|Khalaj|Khammam|Khandwa|Khanjyan|Khanty\\-Mansiysk|Kharabali|Kharkiv|Kharovsk|Khartoum\\ North|Khartoum|Khasavyurt|Khashtarak|Khashuri|Khdrants|Khilok|Khimki|Khimki|Khnatsakh|Khndzoresk|Khndzorut|Khnkoyan|Khnusik|Khobi|Khoiniki\\ |Khojali|Khojavend|Kholm|Kholmsk|Khomeini\\ shahr|Khoni|Khoramshahr|Khoronk|Khot|Khotkovo|Khotsimsk\\ |Khoy|Khoznavar|Khulna|Khvalynsk|Khyrdalan|Kiel|Kielce|Kiel|Kierspe|Ki\\\xe8evo|Kifissia|Kigali|Kilani|Kilifarevo|Kilingi\\-Nomme|Kilkenny|Kilkis|Killeen|Kimberley|Kimovsk|Kimry|Kindelbr\\\xc3\\\xbcck|Kinel|Kineshma|Kingisepp|Kingston|Kingston|Kinshasa|Kirants|Kirari\\ Suleman\\ Nagar|Kirawsk\\ |Kirchberg\\ an\\ der\\ Jagst|Kirchberg|Kirchenlamitz|Kirchen|Kirchheimbolanden|Kirchheim\\ unter\\ Teck|Kirensk|Kireyevsk|Kirikkale|Kirillov|Kirishi|Kirkjubajarklaustur|Kirn|Kirovgrad|Kirov|Kirov|Kirovo\\-Chepetsk|Kirovsk|Kirovsk|Kirsanov|Kirs|Kirzhach|Kisb\\\xe9r|Kiselevsk|Kiseljak|Kishinev|Kishiwada|Kis\\\xfajsz\\\xe1ll\\\xe1s|Kisk\\\xf6re|Kisk\\\xf5r\\\xf6s|Kiskunf\\\xe9legyh\\\xe1za|Kiskunhalas|Kiskunmajsa|Kislovodsk|Kissonerga|Kistarcsa|Kistelek|Kisumu|Kisv\\\xe1rda|Kitakyushu|Kitee|Kiten|Kiti|Kiuruvesi|Kivioli|Kizel|Kizilyurt|Kizlyar|Kladno|Klagenfurt|Klaipeda|Klaipeda|Klanjec|Kleve|Klichaw\\ |Klimavichy\\ |Klimovsk|Klingenberg\\ am\\ Main|Klingenthal\\/Sa\\.|Klin|Klintsy|Klisura|Klos|Klosterneuburg|Kl\\\xc3\\\xb6tze|Kl\\\xc3\\\xbctz|Klyetsk\\ |Knezha|Knin|Knittelfeld|Knittlingen|Knoxville|Knoxville|Knyaginino|Ko\\\xe8ani|Kobe|Koblenz|Kobryn\\ |Kobuleti|Kocaeli|Kocherinovo|Kochi|Kodaira|Kodinsk|Kodre|Koflach|Kofu|Koga|Kogalym|Koge|Koghb|Koghbavan|Koghes|Kohren\\-Sahlis|Kohtla\\-J\\\xe4rve|Kokand|Kokem\\\xe4ki|Kokhma|Kokkina|Kokkola|Kokshetau|Kola\\\x9ain|Kola|Kolchugino|Kolding|Kolkata|K\\\xc3\\\xb6lleda|Kologriv|Kolomna|Kolomna|Kolpashevo|Kolpino|Komaki|Kom\\\xe1di|Komi\\\xc5\\\xbea|Koml\\\xf3|Kommunar|Komotini|Kom\\\xe1rom|Komsomolsk|Komsomolsk\\-na\\-Amure|Konakovo|Kondopoga|Kondrovo|Kongsberg|Kongsvinger|K\\\xc3\\\xb6nigsberg\\ in\\ Bayern|K\\\xc3\\\xb6nigsbr\\\xc3\\\xbcck|K\\\xc3\\\xb6nigsbrunn|K\\\xc3\\\xb6nigsee|K\\\xc3\\\xb6nigslutter|K\\\xc3\\\xb6nigstein\\ im\\ Taunus|K\\\xc3\\\xb6nigstein|K\\\xc3\\\xb6nigswinter|K\\\xc3\\\xb6nigs\\ Wusterhausen|Konispol|Konjic|K\\\xc3\\\xb6nnern|Konstantinovsk|Konstanz|Konya|Konz|Kopeysk|Kophinou|Koplik|Koprivnica|Koprivshtitsa|Korablino|Kor\\\xc3\\\xa7\\\xc3\\\xab|Kor\\\xc4\\\x8dula|Korenovsk|Korkino|Kormakitis|Korneuburg|Kornidzor|Kornokipos|Kornos|Korntal\\-M\\\xc3\\\xbcnchingen|Kornwestheim|Korocha|Korolyov|Koropi|Korsakov|Korschenbroich|Kortrijk|Koryazhma|Korydallos|Kosh|Kosice|Kos|Kostanay|Kostandovo|Kostenets|Kosteryovo|Kostinbrod|Kosti|Kostomuksha|Kostroma|Kota\\ Bahru|Kota|Kota\\ Kinabalu|Kotayk|Kotelnich|Kotelniki|Kotelnikovo|Kotel|K\\\xc3\\\xb6then|Koti|Kotka|Kotlas|Kotor|Kotovo|Kotovsk|Kottayam|Kouklia|Koulikoro|Kourou|Kouvola|Kovdor|Kovrov|Kovrov|Kovylkino|Koynare|Kozani|Kozarska\\ Dubica|Kozelsk|Kozhikode|Kozloduy|Kozlovka|Kozmodemyansk|Koz\\\xe1rmisleny|K\\\xf3pavogur|Kragujevac|Kraichtal|Krakow\\ am\\ See|Kraljevica|Kramatorsk|Kranichfeld|Krapina|Krasar|Krasavino|Krashen|Kraslava|Krasnapolle\\ |Krasnoarmeysk|Krasnoarmeysk|Krasnodar|Krasnodar|Krasnogorsk|Krasnokamensk|Krasnokamsk|Krasnoslobodsk|Krasnoslobodsk|Krasnoturinsk|Krasnoufimsk|Krasnouralsk|Krasnovishersk|Krasnoyarsk|Krasnoyarsk|Krasnoye\\ Selo|Krasnozavodsk|Krasnoznamensk|Krasnoznamensk|Krasny\\ Kholm|Krasny\\ Kut|Krasny\\ Sulin|Krast\\\xc3\\\xab|Kratovo|Krautheim|K\\\xe4rdla|Krefeld|Kremenchuh|Kremmen|Krempe|Krems\\ an\\ der\\ Donau|Kre\\\xc5\\\xa1evo|Kresna|Kretinga|Kreuztal|Krichim|Krishnanagar|Krishnarajapura|Kristiansand|Kristiansund|Kristinestad|Kriva\\ Palanka|Krivodol|Kri\\\xc5\\\xbeevci|Krk|K\\\xf6rmend|Kronberg\\ im\\ Taunus|Kronstadt|Kr\\\xc3\\\xb6pelin|Kropotkin|Kroppenstedt|Krrab\\\xc3\\\xab|K\\\xf6r\\\xf6slad\\\xe1ny|Kru\\\x9aevo|Kruhlaye\\ |Kruj\\\xc3\\\xab|Krumbach|Krum\\\xc3\\\xab|Krumovgrad|Krupki\\ |Krychaw\\ |Krymsk|Kryviy\\ Rig|Kstovo|K\\\xf5szeg|Kuala\\ lumpur|Kuala\\ Terengganu|Kuantan|Kubinka|Kubrat|Kuchak|Ku\\\xc3\\\xa7ov\\\xc3\\\xab|Kudirkos\\ Naumiestis|Kudymkar|Kufstein|K\\\xc3\\\xbchlungsborn|Kuhmo|Kuk\\\xc3\\\xabs|Kuklen|Kula|Kuldiga|Kulebaki|K\\\xc3\\\xbclsheim|Kumagaya|Kumamoto|Kumanovo|Kumasi|Kumbakonam|Kumbor|Kumertau|Kunda|Kungur|Kunhegyes|Kunming|Kunshan|Kunszentmikl\\\xf3s|Kunszentm\\\xe1rton|K\\\xc3\\\xbcnzelsau|Kuopio|Kupi\\\x9akis|Kupino|Kuppenheim|Kurbnesh|Kurchatov|Kurdamir|Kur\\\x9aenai|Kuressaare|Kurganinsk|Kurgan|Kurikka|Kurilsk|Kuris|Kurlovo|Kurovskoye|Kursk|Kurtamysh|Kurtan|Kusa|Kusel|Kushiro|Kushva|Kustanai|Kutaisi|Kutakan|Kut|Kutina|Kut|Kutjevo|Kuusamo|Kuusankoski|Kuvandyk|Kuvshinovo|Kuybyshev|Kuznetsk|Kyakhta|Kybartai|Kyiv|Kyllburg|Kyoto|Kyperounta|Kyrenia|Kyshtym|Kythrea|Kyustendil|Kyzylorda|Kyzylorda|Kyzyl|Laage|Laatzen|Labin|Labinsk|Labytnangi|La\\\xc3\\\xa7|La\\ Celle\\-Saint\\-Cloud|Lachin|La\\ Ciotat|La\\ Courneuve|Ladenburg|Ladushkin|Lafayette|\\\xd3lafsfj\\\xf6r\\?ur|\\\xd3lafsv\\\xedk|Lagan|La\\ Garde|La\\ Garenne\\-Colombes|Lage|Lages|Lagny\\-sur\\-Marne|Lagodekhi|Lagos|Lagoudera|Lahnstein|Lahore|Lahoysk\\ |Lahr\\/Schwarzwald|Lahti|La\\ Hulpe|Laichingen|Laishevo|Laitila|Laiwu|Laixi|Laiyang|Laizhou|Lajosmizse|Lakewood|Lakhdenpokhya|Lakinsk|Laki|Lakta\\\xc5\\\xa1i|Lalitpur|La\\ Louvi\\\xc3\\\xa8re|La\\ Madeleine|La\\ Massana|La\\ Matanza|Lambersart|Lambousa|Lambrecht|Lamezia\\ Terme|Lamia|Lampang|Lancaster|Lanchkhuti|\\\xc9lancourt|Landau\\ an\\ der\\ Isar|Landau\\ in\\ der\\ Pfalz|Landen|Landsberg\\ am\\ Lech|Landsberg|Landstuhl|Lanester|Langelsheim|Langenau|Langenburg|Langenfeld|Langenhagen|Langen|Langen|Langenselbold|Langepas|Langewiesen|Langfang|Langzhong|Lanjaghbyur|Lanjanist|Lanjar|Lanjazat|Lanjik|Lankaran|Lansing|Lanxi|Lanzhou|Laon|La\\ paz|La\\ Paz|Lapithos|La\\ Plata|La\\ Possession|Lappeenranta|Lapua|Lapu\\-Lapu|L\\\x92Aquila|Laredo|Laredo|Larissa|Larnaca|La\\ Roche\\-en\\-Ardenne|La\\ Rochelle|La\\ Roche\\-sur\\-Yon|Larvik|Lasa|La\\ Serena|La\\ Seyne\\-sur\\-Mer|La\\ Spezia|Lassan|Las\\ Tunas|Las\\ Vegas|Las\\ Vegas|La\\ Teste\\-de\\-Buch|Latina|Latsia|Lattakia|Laucha\\ an\\ der\\ Unstrut|Lauchhammer|Lauchheim|Lauda\\-K\\\xc3\\\xb6nigshofen|Lauenburg|Lauf\\ an\\ der\\ Pegnitz|Laufenburg|Lauffen\\ am\\ Neckar|Laugardalir|Lauingen|Laupheim|Lauro\\ de\\ Freitas|Lauterbach|Lauterecken|Lauterstein|La\\ Valette\\-du\\-Var|Laval|Lazdijai|L\\\xe1batlan|Lchap|Lchashen|Lchavan|Lchkadzor|Lebedyan|Le\\ Blanc\\-Mesnil|Le\\ Bouscat|Le\\ Cannet|Lecce|Le\\ Chesnay|Le\\ Creusot|Lefka|Lefkoniko|Lefkosia|Legasp|Leghorn|Legnano|Le\\ Gosier|Le\\ Grand\\-Quevilly|Le\\ Havre|Le\\ Havre|Lehliu\\ Gar\\\xe3|Lehrte|Lehvaz|Leichlingen|Leiden|Leimen|Leinefelde\\-Worbis|Leinfelden\\-Echterdingen|Leiyang|Leizhou|Lejan|Le\\ Kremlin\\-Bicetre|Le\\ Lamentin|Lelchytsy\\ |Leling|Le\\ Mans|Le\\ Mans|Lemesos|Le\\ M\\\xe9e\\-sur\\-Seine|Lemgo|Le\\ Moule|Lengerich|Lengyelt\\\xf3ti|Leninakan|Leninogorsk|Leninsk\\-Kuznetsky|Leninsk|Lennestadt|Lensk|Lens|Lenti|Lentvaris|Lenughi|Leoben|Leonarisso|Leonberg|Leonding|Leova|Lepel\\ |Le\\ Perreux\\-sur\\-Marne|Le\\ Petit\\-Quevilly|Leping|Le\\ Plessis\\-Robinson|Lepoglava|Le\\ Port|Leqing|Lerik|Lermontov|Lermontov|Lernadzor|Lernagog|Lernagyugh|Lernahovit|Lernakert|Lernamerdz|Lernanist|Lernantsk|Lernapar|Lernapat|Lernarot|Lernavan|Lernut|Le\\ Robert|Le\\ Roeulx|Les\\ Abymes|Les\\ Escaldes|Leshan|Leskovac|Leskovik|Les\\ Lilas|Les\\ Mureaux|Lesnoy|Lesosibirsk|Lesozavodsk|Les\\ Pavillons\\-sous\\-Bois|Les\\ Pennes\\-Mirabeau|Lessines|Les\\ Ulis|Le\\ Tampon|Letenye|Letnitsa|Leuna|Leutenberg|Leutershausen|Leutkirch\\ im\\ Allg\\\xc3\\\xa4u|Leuven|Leuze\\-en\\-Hainaut|Levadeia|Levallois\\-Perret|Leverkusen|Leverkusen|Levski|Lewisville|Lexington|Lezh\\\xc3\\\xab|\\\xc1lftanes|Lgov|L\\'Hay\\-les\\-Roses|Lianjiang|Lianyuan|Lianyungang|Liaocheng|Liaoyang|Liberec|Libohov\\\xc3\\\xab|Libourne|Libramont|Librazhd|Lichk|Lichtenau|Lichtenau|Lichtenberg|Lichtenfels|Lichtenstein\\/Sa\\.|Lichuan|Lida\\ |Liebenwalde|Lieberose|Li\\\xc3\\\xa8ge|Lieksa|Lielvarde|Lienz|Liepaja|Lier|Ligatne|Lihula|Likhoslavl|Likino\\-Dulyovo|Liling|Lille|Lillehammer|Lille|Lilongwe|Lima|Limassol|Limbach\\-Oberfrohna|Limba\\\x9ei|Limbourg|Limburg\\ an\\ der\\ Lahn|Limerick|Limnitis|Limoges|Lincoln|Lindau|Lindenberg\\ im\\ Allg\\\xc3\\\xa4u|Lindow|Linfen|Lingbao|Lingen|Linghai|Lingyuan|Linhai|Linjiang|Linkuva|Linnich|Linqing|Linxia|Linyi|Linz\\ am\\ Rhein|Linz|Linzhou|Linz|Lipa|Lipcani|Lipetsk|Lipik|Lipki|Lipova|Lippstadt|Lisbon|Lisburn|Lisieux|Liski|Liteni|Little\\ Rock|Little\\ Rock|Liuan|Liupanshui|Liuyang|Liuzhou|Livada|Livani|Liverpool|Li\\\xe9vin|Livno|Livny|Livorno|Livry\\-Gargan|Liyang|Lje\\\x9anica|Ljubu\\\xc5\\\xa1ki|\\\xdcll\\\xf5|L\\\xc3\\\xb6bej\\\xc3\\\xbcn|Lobnya|Lodeynoye\\ Pole|L\\\xc3\\\xb6ffingen|Lohja|Lohmar|L\\\xc3\\\xb6hne|Lohr\\ am\\ Main|Loimaa|Loitz|Lokeren|Loksa|Lomas\\ de\\ Zamora|Lommel|Lom|Lomonosov|London|Long\\ Beach|Longhai|Longjumeau|Longkou|Longyan|L\\\xc3\\\xb6ningen|Loos|Lor|Lorch|Lo\\-Reninge|Lori|Lori\\ Berd|Lorient|Lormont|L\\\xc3\\\xb6rrach|Lorut|Los\\ Angeles|Los\\ Angeles|Losino\\-Petrovsky|L\\\xc3\\\xb6ssnitz|Los\\ Teques|Louisville|Louisville|Louroujina|Louvain\\-la\\-Neuve|Lovech|Loviisa|Lowell|L\\\xc3\\\xb6wenstein|Loyew\\ |Loznitsa|L\\\xf5rinci|L\\\xe9tav\\\xe9rtes|Ltsen|Luanda|Luanshya|Lubana|L\\\xc3\\\xbcbbecke|L\\\xc3\\\xbcbbenau|L\\\xc3\\\xbcbben|Lubbock|Lubbock|L\\\xc3\\\xbcbeck|L\\\xc3\\\xbcbtheen|L\\\xc3\\\xbcbz|Lucca|Lucena\\ City|Lucheng|L\\\xc3\\\xbcchow|Luckenwalde|Lucknow|Ludbreg|L\\\xc3\\\xbcdenscheid|Ludhiana|L\\\xc3\\\xbcdinghausen|Ludu\\\xba|Ludwigsburg|Ludwigsfelde|Ludwigshafen\\ am\\ Rhein|Ludwigshafen\\ am\\ Rhein|Ludwigslust|Ludwigsstadt|Ludza|Lufeng|Luga|Lugau\\/Erzgeb\\.|L\\\xc3\\\xbcgde|Lugoj|Lukashin|Lukavac|Lukhovitsy|Lukovit|Lukoyanov|L\\\xc3\\\xbcneburg|Lunel|L\\\xc3\\\xbcnen|Luninets\\ |Luoding|Luoyang|Lupeni|Luque|Lusadzor|Lusaghbyur\\ |Lusagyugh\\ |Lusahovit|Lusaka|Lusakert|Lusakn|Lusakunk|Lusarat|Lusashogh|Lushnj\\\xc3\\\xab|Lustenau|L\\\xc3\\\xbctjenburg|Lutsk|L\\\xc3\\\xbctzen|Luxer|Luza|Luzern|Luzhou|Lviv|Lyakhavichy\\ |Lyantor|Lyaskovets|Lyngby\\-Taarbaka|Lyon|Lyozna\\ |Lyskovo|Lysva|Lythrangomi|Lythrodontas|Lytkarino|Lyuban\\,\\ Belarus\\ |Lyuban|Lyubertsy|Lyubertsy|Lyubimets|Lyubim|Lyudinovo|Maanshan|Maardu|Maaseik|Maastricht|Macae|Machala|Macheng|Machilipatnam|Madan|Madhyamgram|Madina|Madison|Madison|Madiun|Madona|Madrid|Madurai|Madzharovo|Ma\\\x9eeikiai|Magadan|Magas|Magdeburg|Magdeburg|Magl\\\xf3d|Maglizh|Magnitogorsk|Mahajanga|Mahala|Mahilyow\\ |Mahlberg|Maiac|Maiduguri|Maikop|Mainbernheim|Mainz|Mainz|Maisons\\-Alfort|Maisons\\-Laffitte|Makarov|Makarska|Makaryev|Makasar|Makedonska\\ Kamenica|Makedonski\\ Brod|Makenis|Makhachkala|Makhachkala|Mak\\\xf3|Makkah|Makurdi|Makushino|Maladzyechna\\ |Malakoff|Malang|Malappuram|Malaryta\\ |Malaya\\ Vishera|Malayer|Malchin|Malchow|Malgobek|Mali\\ Lo\\\xc5\\\xa1inj|Maliq|Malishka|Malkajgiri|Malko\\ Tarnovo|Malmyzh|Maloarkhangelsk|Malolos|Malounta|Maloyaroslavets|Mamadysh|Mammari|Mamonovo|Mamurras|Managua|Manama|Manaus|Manchester|Manchester|Mandal|Mandelieu\\-la\\-Napoule|Manderscheid|Mandria|Manfredonia|Mangalia|Mangalore|Mangaung|Mango|Mangora|Manila|Manisa|Mannheim|Manosque|Mansfeld|Mansfield|Manta|Mantes\\-la\\-Jolie|Manturovo|Manzhouli|Maoming|Maputo|Maraba|Maracaibo|Maracanau|Maralik|Marano\\ di\\ Napoli|Maraqeh|Marbach\\ am\\ Neckar|Marcali|Marche\\-en\\-Famenne|Marchtrenk|Marcq\\-en\\-Baroul|Margahovit|Margara|Marghita|Margilan|Mariehamn|Marienm\\\xc3\\\xbcnster|Marignane|Mariinsk|Mariinsky\\ Posad|Marijampole|Markdorf|Markgr\\\xc3\\\xb6ningen|M\\\xc3\\\xa4rkisch\\ Buchholz|Markkleeberg|Markneukirchen|Markranst\\\xc3\\\xa4dt|Marks|Marktheidenfeld|Marktleuthen|Marktoberdorf|Marktredwitz|Marl|Marlow|Marmarashen|Marmarik|Marmashen|Marne|Marneuli|Maroni|Maroua|Marousi|Marrakech|Marsala|Marsa|Marsberg|Marseille|Marseille|Marten|Martf\\\xfb|Martigues|Martiros|Martonv\\\xe1s\\\xe1r|Marts|Martuni|Martvili|Maryina\\ Horka\\ |Masally|Mashhad|Masis\\ |Masis|Massa|Massy|Mastara|Masty\\ |Matagu\\\x9ei|Matera|Mathiatis|Matoury|Matsue|Matsumoto|Matsusaka|Maubeuge|Maulbronn|Maunath\\ Bhanjan|Maxh\\\xc3\\\xbctte\\-Haidhof|Mayakovski|Mayen|Mayisyan|Maykop|Maysky|Mazara\\ del\\ Vallo|Mazsalaca|Mazyr\\ |Mbeya|McAllen|M\\\xe3cin|McKinney|M\\\xe2con|Mdina|Meaux|Mechelen|Mechernich|Meckenheim|Medan|Medebach|Medgidia|Medgyesegyh\\\xe1za|Media\\\xba|Medinipur|Mednogorsk|Medovka|Medvezhyegorsk|Medyn|Meerbusch|Meersburg|Meerut|Megara|Meghradzor|Meghrashat|Meghrashen|Meghri|Meghvahovit|Megion|Meihekou|Meinerzhagen|Meiningen|Meisenheim|Meishan|Mejicanos|Melbourne|Meldorf|Melenki|Meleuz|Melikgyugh|Melissia|Melitopol|Meljine|Mellrichstadt|Melnik|Melun|Memaliaj|Memphis|Memphis|Mendeleyevsk|Menden|Mendig|Mendoza|Menemeni|Menen|Mengen|Menia|Meniko|Menton|Menzelinsk|Meppen|Merdzavan|Merichleri|Merseburg|Mesa|Meschede|Mesen|Meshchovsk|Mesquita|Mesquite|Messina|Messkirch|Messstetten|Metamorfosi|Metkovi\\\xc4\\\x87|Metsamor|Metsavan|Mets\\ Ayrum|Mets\\ Mantash|Mets\\ Masrik|Mets\\ Parni|Mets\\ Sariar|Mets\\ Sepasar|Mettmann|Metzingen|Metz|Meudon|Meuselwitz|Mexicali|Mexico\\ city|Meyenburg|Meyzieu|Mez\\\xf5ber\\\xe9ny|Mez\\\xf5cs\\\xe1t|Mezdra|Mezen|Mezhdurechensk|Mez\\\xf5hegyes|Mezhgorye|Mez\\\xf5keresztes|Mez\\\xf5kov\\\xe1csh\\\xe1za|Mez\\\xf5k\\\xf6vesd|Mez\\\xf5t\\\xfar|Mghart|Mglin|M\\\xe1gocs|M\\\xe3gurele|Miami|Miami\\ Gardens|Mia\\ Milia|Miami|Mianyang|Miass|Miass|Michurinsk|Midland|Miercurea\\ Ciuc|Miercurea\\ Nirajului|Miercurea\\ Sibiului|Mih\\\xe3ile\\\xbati|Mikhayelovka|Mikhaylovka|Mikhaylov|Mikhaylovsk|Mikhaylovsk|Mikkeli|Mikun|Milan|Milano|Milia|Milikouri|Miliou|Mili\\\xba\\\xe3u\\\xfei|Millau|Millerovo|Milton\\ Keynes|Miluo|Milwaukee|Milwaukee|Minden|Mindszent|Mineralnyye\\ Vody|Mingacevir|Mingguang|Minna|Minneapolis|Minneapolis|Minsk\\ |Minsk|Minusinsk|Minyar|Mioveni|Miquan|Mira\\-Bhayandar|Mirak|Miramar|Miramas|Mirny|Mirny|Mirow|Mirpur\\ Khas|Mirzapur\\-cum\\-Vindhyachal|Miskolc|Mistelbach|Mitaka|Mittenwalde|Mitterteich|Mizil|Miziya|Mj\\\xf3ifj\\\xf6r\\?ur|Mkhchyan|Mlad\\\xc3\\\xa1\\ Boleslav|M\\\xe9lyk\\\xfat|M\\\xe1ndok|M\\\xe4ntt\\\xe4|Mobile|Mobile|M\\\xc3\\\xb6ckern|M\\\xc3\\\xb6ckm\\\xc3\\\xbchl|Modena|Modesto|Modesto|Modica|M\\\xc3\\\xb6dling|Modri\\\xc4\\\x8da|Moers|Mogadishu|Mogocha|Mohammedia|Moh\\\xe1cs|Moine\\\xbati|Moisak\\\xfcla|Mojanovi\\\xe6i|Mojkovac|Molde|Moldova\\ Nou\\\xe3|Moletai|Molfetta|M\\\xc3\\\xb6lln|Mombasa|Momchilgrad|Momin\\ Prohod|Moncalieri|Monchegorsk|M\\\xc3\\\xb6nchengladbach|Monheim\\ am\\ Rhein|Monor|Mons|Monschau|Mons\\-en\\-Baroul|Montabaur|Montana|Montauban|Montb\\\xe9liard|Mont\\-de\\-Marsan|Monterrey|Montevideo|Montfermeil|Montgeron|Montgomery|Montgomery|Montigny\\-le\\-Bretonneux|Montigny\\-les\\-Metz|Mont\\\xe9limar|Montlu\\\xe7on|Montmorency|Montpellier|Montpellier|Montreuil|Montrouge|Mont\\-Saint\\-Aignan|Monza|Mopti|Moradabad|Moratuwa|Morelia|Morena|Moreni|Moreno\\ Valley|Moreno\\ Valley|M\\\xc3\\\xb6rfelden\\-Walldorf|Moriguchi|Moringen|Morozovsk|Morphou|Morsang\\-sur\\-Orge|Morshansk|Mortsel|Mosalsk|Mosbach|Moschato|Moscow|Moscow|Mosesgegh|Mosfellsbar|Moskovsky|Mosonmagyar\\\xf3v\\\xe1r|M\\\xc3\\\xb6ssingen|Moss|Mostar|Most|Mosul|Motru|Moulins|Mouscron|Moutoullas|Mozdok|Mozhaysk|Mozhga|M\\\xf3rahalom|M\\\xe3rcule\\\xbati|M\\\xe3r\\\xe3\\\xbae\\\xbati|Mr\\\xe8evac|Mrganush|Mrgashat|Mrgashen|Mrgastan|Mrgavan|Mrgavet|M\\\xf3r|M\\\xe1riap\\\xf3cs|M\\\xe9rignac|Mstsislaw\\ |Mtsensk|Mtskheta|M\\\xe1t\\\xe9szalka|M\\\xc3\\\xbccheln|Mudanjiang|Mughni|M\\\xc3\\\xbchlacker|M\\\xc3\\\xbchlberg|M\\\xc3\\\xbchldorf|M\\\xc3\\\xbchlhausen|M\\\xc3\\\xbchlheim\\ am\\ Main|M\\\xc3\\\xbchlheim\\ an\\ der\\ Donau|M\\\xc3\\\xbchltroff|M\\\xc3\\\xbclheim\\ an\\ der\\ Ruhr|M\\\xc3\\\xbclheim\\-K\\\xc3\\\xa4rlich|Mulhouse|Mulki|M\\\xc3\\\xbcllheim|M\\\xc3\\\xbcllrose|Multan|Mumbai|M\\\xc3\\\xbcnchberg|M\\\xc3\\\xbcncheberg|M\\\xc3\\\xbcnchenbernsdorf|Munderkingen|Munger|Munich|M\\\xc3\\\xbcnnerstadt|M\\\xc3\\\xbcnsingen|Munster|M\\\xc3\\\xbcnstermaifeld|M\\\xc3\\\xbcnster|M\\\xc3\\\xbcnzenberg|Murashi|Muravlenko|Muret|Murfatlar|Murfreesboro|Murgeni|Murmansk|Murom|Murrhardt|Mursko\\ Sredi\\\xc5\\\xa1\\\xc4\\\x87e|Murwara|Musaler|Musayelyan|Mustvee|Mutare|Mutrah|Mutsk|Mwanza|Myadzyel\\ |Myasnikyan|Mymensingh|Myory\\ |Myshkin|Myski|Mysore|Mytilini|Mytishchi|Mytishchi|Naantali|Naberezhnye\\ Chelny|Nacala|Nadiad|Nadym|Naftalan|Nagareyama|Nagercoil|Nagold|Nagoya|Nagpur|Nagyat\\\xe1d|Nagybajom|Nagyecsed|Nagyhal\\\xe1sz|Nagykanizsa|Nagyk\\\xe1ll\\\xf3|Nagyk\\\xf5r\\\xf6s|Nagyk\\\xe1ta|Nagymaros|Nagym\\\xe1nyok|Nahapetavan|Naihati|Nairobi|Najafabad|Nakhichevan|Nakhodka|Nakhodka|Nakhon\\ Pathom|Nakhon\\ Ratchasima|Nakhon\\ Sawan|Nakuru|Nala\\ Sopara|Nalbandyan|Nalchik|Namdinh|Nampho|Namsos|Namur|Nan\\'an|Nanchang|Nanchong|Nanchuan|Nancy|Nandyal|Nangloi\\ Jat|Nanhai|Nanjing|Nankang|Nanning|Nanterre|Nantes|Nantong|Nanyang|Naousa|Naperville|Naperville|Naples|Napoli|Narashino|Narathiwat|Narbonne|Narek|Narimanov|Naro\\-Fominsk|Narowla\\ |Nartkala|Narva|Narva\\-Joesuu|Narvik|Naryan\\-Mar|Nashik|Nashville\\-Davidson|Nashville|Na\\\xc5\\\xa1ice|Nassau|Nassau|Nast\\\xc3\\\xa4tten|Nastved|Nata|Natal|Naujoji\\ Akmene|Naumburg|Naumburg|Navahrudak\\ |Navapolatsk\\ |Navashino|navigation|Navi\\ Mumbai|Navoloki|Navotas|Navsari|Navur|Nawabganj|Nawabshah|Nazareth|Nazarovo|Nazran|Nazyvayevsk|N\\'djamena|N\\\xe3dlac|\\\xde\\\xe3nd\\\xe3rei|N\\\xe1dudvar|Nea\\ Erythraia|Nea\\ Ionia|Nea\\ Ionia|Nea\\ Makri|Nea\\ Philadelphia|Neapoli|Nea\\ Smyrni|Nebra|Neckarbischofsheim|Neckargem\\\xc3\\\xbcnd|Neckarsteinach|Neckarsulm|Nedakusi|Nedelino|Neftchala|Neftegorsk\\,\\ Samara\\ Oblast|Neftekamsk|Neftekumsk|Nefteyugansk|Neghots|Negotino|Negre\\\xbati\\-Oa\\\xba|Negre\\\xbati|Negru\\ Vod\\\xe3|Nehe|Nehoiu|Neijiang|\\\xc4\\\xe4nekoski|Nelidovo|Neman|Nemen\\\xe8ine|Nerchinsk|Nerekhta|Neresheim|Neringa|Nerkin\\ Bazmaberd|Nerkin\\ Getashen|Nerkin\\ Hand|Nerkin\\ Karmir\\ aghbyur|Nerkin\\ Khndzoresk|Nerkin\\ Khotanan|Nerkin\\ Sasunashen|Nerkin\\ Shorzha|Neryungri|Nesebar|Neskaupsta\\?ur|Nesterov|Netanya|Netphen|Nettetal|Neubrandenburg|Neubukow|Neubulach|Neuburg\\ an\\ der\\ Donau|Neudenau|Neuenburg\\ am\\ Rhein|Neuenb\\\xc3\\\xbcrg|Neuenhaus|Neuenrade|Neuenstadt\\ am\\ Kocher|Neuenstein|Neuerburg|Neufch\\\xc3\\\xa2teau|Neuffen|Neuhaus\\ am\\ Rennweg|Neuilly\\-sur\\-Marne|Neuilly\\-sur\\-Seine|Neukalen|Neukirchen\\-Vluyn|Neukloster|Neumarkt\\ in\\ der\\ Oberpfalz|Neumarkt\\-Sankt\\ Veit|Neum|Neum\\\xc3\\\xbcnster|Neunburg\\ vorm\\ Wald|Neunkirchen|Neunkirchen|Neu\\\xc3\\\xb6tting|Neuruppin|Neusalza\\-Spremberg|Neus\\\xc3\\\xa4ss|Neuss|Neuss|Neustadt\\ am\\ Kulm|Neustadt\\ am\\ R\\\xc3\\\xbcbenberge|Neustadt\\ an\\ der\\ Aisch|Neustadt\\ an\\ der\\ Donau|Neustadt\\ an\\ der\\ Orla|Neustadt\\ an\\ der\\ Waldnaab|Neustadt\\ an\\ der\\ Weinstrasse|Neustadt\\ bei\\ Coburg|Neustadt|Neustadt\\-Glewe|Neustadt|Neustadt\\ in\\ Holstein|Neustadt\\ in\\ Sachsen|Neustrelitz|Neutraubling|Neuwied|Nevel|Nevelsk|Nevers|Nevesinje|Nevinnomyssk|Nevyansk|Newark|New\\ Haven|New\\ Orleans|Newport\\ News|Newport\\ News|Newry|New\\ York|New\\ York|Neya|Neyshabur|Nhatrang|Niamey|Nice|Nicosia|Nideggen|Nieb\\\xc3\\\xbcll|Niederkassel|Niedernhall|Nieder\\-Olm|Niederstetten|Niederstotzingen|Nieheim|Niemegk|Nienburg|Nienburg|Nieuwpoort|Nigatun|Nigavan|Niigata|Niiza|Nijmegen|Nijmegen|Nikaia|Nik\\\x9ai\\\xe6|Nikolaevo|Nikolayevsk\\-na\\-Amure|Nikolayevsk|Nikolskoye|Nikolsk|Nikolsk|Nikopol|Nilsi\\\xe4|Nin|Ningbo|Ninotsminda|Ninove|Niort|Nishitokyo|Nisporeni|Nivala|Nivelles|Nizami|Nizhnekamsk|Nizhnekamsk|Nizhneudinsk|Nizhnevartovsk|Nizhniye\\ Sergi|Nizhnyaya\\ Salda|Nizhnyaya\\ Tura|Nizhny\\ Lomov|Nizhny\\ Novgorod|Nizhny\\ Novgorod|Nizhny\\ Tagil|Njar\\?v\\\xedk|Njegovu\\\xf0a|N\\\xeemes|Noda|Nogent\\-sur\\-Marne|Noginsk|Noisy\\-le\\-Grand|Noisy\\-le\\-Sec|Nokia|Nolinsk|Nong\\ Bua\\ Lam\\ Phu|Nong\\ Khai|Nonthaburi|Norabak|Norabats|Norakert|Nor\\ Amanos|Noramarg|Norapat|Nor\\ Armavir|Nor|Nor\\ Artages|Nor\\ Artamet|Nor\\ Artik|Norashen|Norashenik|Noratus|Noravan|Nor\\ Aznaberd|Nordenham|Norden|Norderney|Norderstedt|Nordhausen|Nordhorn|N\\\xc3\\\xb6rdlingen|Norfolk|Norfolk|Nor\\ Geghi|Nor\\ Gyugh|Nor\\ Hachn|Norilsk|Norilsk|Nor\\ Kesaria|Nor\\ Khachakap|Nor\\ Kharberd|Nor\\ Kyank|Nor\\ Kyurin|Norman|Norresundbyb|Northampton|North\\ Dumdum|Northeim|North\\ Las\\ Vegas|North\\ Las\\ Vegas|Northshore|Nortorf|Nor\\ Ughi|Norwalk|Norwich|Nor\\ Yedesia|Nor\\ Yerznka|Nossa\\ Senhora\\ do\\ Socorro|Notodden|Nottingham|Nouakchott|Novaci|Nova\\ Friburgo|Nova\\ Gradi\\\xc5\\\xa1ka|Novalja|Novara|Novaya\\ Ladoga|Novaya\\ Lyalya|Nova\\ Zagora|Novi\\ Grad|Novigrad|Novi\\ Marof|Novi\\ Pazar|Novi\\ Travnik|Novi\\ Vinodolski|Novoaleksandrovsk|Novoaltaysk|Novoanninsky|Novocheboksarsk|Novocherkassk|Novocherkassk|Novodvinsk|Novokhopyorsk|Novokubansk|Novokuybyshevsk|Novokuznetsk|Novokuznetsk|Novomichurinsk|Novomoskovsk|Novopavlovsk|Novorossiysk|Novorzhev|Novoseltsovo|Novoshakhtinsk|Novosibirsk|Novosibirsk|Novosil|Novosokolniki|Novotroitsk|Novoulyanovsk|Novouralsk|Novouzensk|Novovoronezh|Novozybkov|Novska|Novy\\ Oskol|Novy\\ Urengoy|Noyabrsk|Noyakert|Noyemberyan|N\\\xe4rpes|Nshavan|N\\\xe3s\\\xe3ud|\\\xcensur\\\xe3\\\xfeei|\\\xcentorsura\\ Buz\\\xe3ului|Nucet|Nueva\\ San\\ Salvador|Nukus|Numazu|Nurlat|Nurmes|N\\\xc3\\\xbcrnberg|Nurnus|N\\\xc3\\\xbcrtingen|N\\\xe3vodari|Nyagan|Nyala|Nyandoma|Nyasvizh\\ |Nyazepetrovsk|Nyerges\\\xfajfalu|Nykarleby|Ny\\\xe9kl\\\xe1dh\\\xe1za|Ny\\\xedradony|Ny\\\xedrb\\\xe1tor|Ny\\\xedregyh\\\xe1za|Ny\\\xedrlugos|Ny\\\xedrmada|Ny\\\xedrtelek|Nytva|Nyurba|Nyuvadi|Oakland|Obeliai|Oberharz\\ am\\ Brocken|Oberhausen|Oberhausen|Oberkirch|Oberkochen|Oberlungwitz|Obermoschel|Obernburg\\ am\\ Main|Oberndorf\\ am\\ Neckar|Obernkirchen|Ober\\-Ramstadt|Oberriexingen|Oberursel|Oberviechtach|Oberweissbach\\/Th\\\xc3\\\xbcr\\.\\ Wald|Oberwesel|Oberwiesenthal\\ \\,\\ Kurort|Obihiro|Obluchye|Obninsk|Ob|Oboyan|Obrovac|Obzor|Oceanside|Oceanside|Ochsenhausen|Ochtrup|Ochyor|Ocna\\ Mure\\\xba|Ocna\\ Sibiului|Ocnele\\ Mari|Ocni\\\xfea|Odawara|Odense|Oderberg|Odessa|Odessa|Odintsovo|Odobe\\\xbati|Odorheiu\\ Secuiesc|Odzun|Oebisfelde\\-Weferlingen|Oelde|Oelsnitz\\/Erzgeb\\.|O\\\xfeelu\\ Ro\\\xbau|Oer\\-Erkenschwick|Oerlinghausen|Oestrich\\-Winkel|Oettingen\\ in\\ Bayern|Offenbach\\ am\\ Main|Offenburg|Ogaki|Ogre|Ogulin|Oguz|Ohanavan|Ohrid|\\\xc3\\\x96hringen|Oikos|Okara|Okayama|Okhansk|Okha|Okhtar|Oklahoma\\ City|Oklahoma\\ City|Oktyabrsk|Oktyabrsky|Okulovka|Olaine|Olathe|Olbia|Oldenburg|Oldenburg\\ in\\ Holstein|Oldenburg|\\\xaaold\\\xe3ne\\\xbati|Olenegorsk|Olfen|Olivet|Olomouc|Olonets|Olongapo|Olpe|Olsberg|Olstrykke\\-Stenlose|Olsztyn|Olteni\\\xfea|Olyokminsk|Omaha|\\\xaaomcuta\\ Mare|Omdurman|Ome|Omi\\\xc5\\\xa1|Omorphita|Omsk|Omsk|Omurtag|Omutninsk|Ondo|Onega|One\\\xbati|Ongole|Oni|Ontario|Ontario|Oostende|Opaka|Opatija|Opava|Opochka|Oppenau|Oppenheim|Opuzen|Oradea|Oradea|Orahovica|Oraiokastro|Oral|Oran|Orange|Orange|Oranienbaum|Oranienburg|Oravi\\\xfea|Ordino|Ordubad|Orekhovo\\-Zuyevo|Orenburg|Orenburg|Orestiada|Orgov|Orhei|Orikum|Orimattila|Orivesi|Orlam\\\xc3\\\xbcnde|Orlando|Orlando|Orl\\\xe9ans|\\?orl\\\xe1ksh\\\xf6fn|Orlov|Orly|Ormidia|Ormoc|Oroklini|Orosh\\\xe1za|Oroslavje|Oroszl\\\xe1ny|Orounta|Or\\\xbaova|Orsha\\ |Orsk|Ortachya|Or\\\xe3\\\xbatie|Ortrand|Orumiyeh|Oruro|Orvault|Oryahovo|Oryol|Osaka|Osa|Osasco|Oschersleben|Oshakan|Osijek|Osinniki|Oskemen|Oslo|Oslo|Osmaniye|Osnabr\\\xc3\\\xbcck|Osorno|Ostashkov|Osterburg|Osterburken|Osterfeld|Osterholz\\-Scharmbeck|Osterode\\ am\\ Harz|Osterwieck|Ostfildern|Ostheim\\ vor\\ der\\ Rh\\\xc3\\\xb6n|Osthofen|Ostrava|\\\xc3\\\x96stringen|Ostrogozhsk|Ostrovnoy|Ostrov|Otaci|Ota|Otaru|Otep\\\xe4\\\xe4|Oto\\\xc4\\\x8dac|Otok|Otopeni|Otradnoye|Otradny|Ottawa|Otterberg|Otterndorf|Ouagadougou|Oudenaarde|Oudenburg|Oulainen|Oullins|Oulu|Outokumpu|Overath|Overland\\ Park|Overland\\ Park|Ovidiu|Oviedo|Owen|Owo|Oxford|Oxnard|Oxnard|Oyama|Oyonnax|Ozalj|Ozherelye|Ozhukarai|Ozoir\\-la\\-Ferriere|Ozrini\\\xe6i|Ozurgeti|Ozyorsk|Ozyorsk|Ozyory|Pabrade|Pa\\\xbacani|Pachna|Pacsa|Padang|Paderborn|Padova|Padua|Pagadian|Pag|Pagegiai|Paghaghbyur|Paiania|Paide|Paimio|Pakanbaru|Pakrac|Pakruojis|Paks|Palaichori|Palaio\\ Faliro|Palaiseau|Palakkad|Palanga|Palangkaraya|Paldiski|Palembang|Palermo|Pali|Pallasovka|Pallavaram|Pallini|Palmas|Palm\\ Bay|Palmdale|Pambak|Pamplona|Panagia|Panagyurishte|Panciu|Pandelys|Panemune|Paneve\\\x9eys|Pangkal\\ Pinang|Panik|Panjin|Pannonhalma|Pano\\ Lefkara|Panorama|Panshi|Pantelimon|Pantin|Panzhihua|Papenburg|Paphos|Parakar|Parakou|Paralimni|Paravakar|Parchim|Pardubice|Pargas|Paris|Paris|Parkano|Parma|Parnamirim|Parpi|Partizak|Partizansk|Paruyr\\ Sevak|Parvomay|Pasadena|Pasadena|Pasadena|Pas\\ de\\ la\\ Casa|Pasewalk|Passo\\ Fundo|Pastavy\\ |Pasuruan|Pasvalys|Paterson|Paterson|Pathankot|Patna|Patos|Patrai|Patras|Patreksfj\\\xf6r\\?ur|Pattensen|Pau|Pausa\\/Vogtl\\.|Pavel\\ Banya|Pavia|Pavilosta|Pavlikeni|Pavlodar|Pavlovo|Pavlovsk|Pavlovsk|Pavlovsky\\ Posad|Payahan|Pazardzhik|Pazin|P\\\xe9cel|P\\\xe9cs|P\\\xe9csv\\\xe1rad|Pe\\\x9aca|Pechora|Pechory|Pecica|Pedoulas|Peer|Pefki|Pegeia|Peh\\\xe8evo|Pematang\\ Siantar|Pembroke\\ Pines|Pembroke\\ Pines|Pemzashen|Pengzhou|Penkun|Penza|Penzlin|Peoria|Peoria|Peqin|Pera\\ Chorio|Peraia|Perama|Pera\\ Orinis|Pera\\ Pedi|Perast|Perchtoldsdorf|Pereslavl\\-Zalessky|Peresvet|Perevoz|Peristeri|Peristerona|Perleberg|P\\\xc3\\\xabrmet|Perm|Perm|\\\xc9pernay|Pernik|Perpignan|P\\\xc3\\\xabrrenjas|Perth|Perugia|Perushtitsa|P\\\xc3\\\xa9ruwelz|Pervomaysk|Pervouralsk|Pervouralsk|Pesaro|Pescara|Peshawar|Peshkopi|Peshtera|Pessac|Pestovo|Petah\\ Tiqwa|Petergof|Petershagen|Petit\\-Bourg|Petrich|Petrila|Petrinja|Petro\\\xbaani|Petropavl|Petropavlovsk\\-Kamchatsky|Petropavlovsk\\-Kamchatsky|Petropavlovsk|Petroupoli|Petrovac|Petrovka|Petrovo|Petrovsk|Petrovsk\\-Zabaykalsky|Petrov\\ Val|Petrozavodsk|Petukhovo|Petushki|Pevek|Pfaffenhofen\\ an\\ der\\ Ilm|Pfarrkirchen|Pforzheim|Pfullendorf|Pfullingen|Phetchabun|Phetchaburi|Philadelphia|Philadelphia|Philippeville|Philippsburg|Phnom\\ penh|Phoenix|Phoenix|Phusro|Phyti|Piacenza|Piatra\\ Neam\\\xfe|Piatra\\ Olt|Pieks\\\xe4m\\\xe4ki|Pierrefitte\\-sur\\-Seine|Pikalyovo|Pikine\\-Guediawaye|Pilis|Pilisv\\\xf6r\\\xf6sv\\\xe1r|Piltene|Pimpri\\ Chinchwad|\\\xc9pinal|\\\xc9pinay\\-sur\\-Seine|Pindamonhangaba|Pingdingshan|Pingdu|Pingxiang|Pinneberg|Pinsk\\ |Pionersky|Piraeus|Pirdop|Pireas|Pirmasens|Pisa|Pissouri|Pistoia|Pitesti|Pite\\\xbati|Pitkyaranta|Pittsburgh|Pizhou|Plachkovtsi|Plaisir|Plano|Plast|Platanistasa|Platres|Plau\\ am\\ See|Plavinas|Plav|Plavsk|Pleternica|Plettenberg|Pleven|P\\\xe1lh\\\xe1za|Pliska|Pljevlja|Plo\\\xc4\\\x8de|Plochingen|Ploiesti|Ploie\\\xbati|Pl\\\xc3\\\xb6n|Plopeni|Plovdiv|Plu\\\x9eine|Plunge|Plyos|Plzen|Plze\\\xc5\\\x88|P\\\xe2ncota|Pochep|Pochinok|Podgorica|Podi|Podolsk|Podolsk|Podporozhye|Podu\\ Iloaiei|Pogoanele|Pogradec|Poissy|Poitiers|Pokachi|Pokhara|Pokhvistnevo|Pokrajci|Pokrashen|Pokr\\ Mantash|Pokr\\ Masrik|Pokrovsk|Pokrov|Pokr\\ Sariar|Pokr\\ Sepasar|Pokr\\ Vedi|Polatsk\\ |Polch\\ Rhineland\\-Palatinate\\)|Polessk|Polevskoy|Polg\\\xe1rdi|Polg\\\xe1r|Poli\\\xc3\\\xa7an|Polichni|Polis|Politiko|Polja|Polje|Polski\\ Trambesh|Poltsamaa|Polva|Polyarny|Polyarnyye\\ Zori|Polysayevo|Pomezia|Pomona|Pomona|Pomorie|Pomos|Pompano\\ Beach|Pom\\\xe1z|Ponce|Pontault\\-Combault|Pontoise|Poperinge|Pope\\\xbati\\-Leordeni|Popovo|Por|Porbandar|Pordenone|Pordim|Pore\\\xc4\\\x8d|Pori|Porkhov|Poronaysk|Porsgrunn|Port\\-au\\-prince|Porta\\ Westfalica|Port\\ Elizabeth|Port\\ Harcourt|Portici|Portland|Portland|Port\\ louis|Portmore|Porto\\ Alegre|Porto\\-novo|Porto|Portoviejo|Port\\ St\\.\\ Lucie|Porvoo|Posadas|Poshekhonye|P\\\xc3\\\xb6ssneck|Potamos\\ tou\\ Kambou|Potcoava|Potenza|Poti|Potsdam|Pottenstein|Povorino|Po\\\xc5\\\xbeega|Poznan|Pozzuoli|P\\\xe1pa|Prachuap\\ Khiri\\ Khan|Prague|Prague|Praha|Pr\\\xe8anj|Prato|Pravdinsk|Pravets|Predeal|Preetz|Pregrada|Preili|Prelog|Premnitz|Prenzlau|P\\\xc5\\\x99erov|Presidente\\ Prudente|Preston|Pretoria|Prettin|Preussisch\\ Oldendorf|Preveza|Prichsenstadt|Priekule|Priekule|Prienai|P\\\xe9rigueux|Prijedor|Prilep|Primorsk|Primorsko\\-Akhtarsk|Primorsko|Priozersk|Pritzwalk|Privolnoye|Privolzhsk|P\\\xe4rnu|Probi\\\x9atip|Probolinggo|Proddatur|Prokhladny|Prokopyevsk|Prokopyevsk|Proletarsk|Proshyan|Protaras|Protvino|Provadiya|Providence|Providence|Provo|Pr\\\xc3\\\xbcm|Pruzhany\\ |Pshatavan|Psimolofou|Pskov|Pskov|P\\\xfcsp\\\xf6klad\\\xe1ny|P\\\xfcssi|P\\\xe1szt\\\xf3|P\\\xe9terv\\\xe1s\\\xe1ra|Ptghavan|Ptghni|Ptghunk|Ptolemais|P\\\xe3t\\\xe2rlagele|Puchezh|Pucioasa|Pudasj\\\xe4rvi|Pudozh|Puebla\\ de\\ Zaragoza|Pueblo|Puente\\ Alto|Puerto\\ Cabello|Puerto\\ Montt|Puerto\\ Princesa|Pugachyov|Puk\\\xc3\\\xab|Pula|Pulandian|Pulheim|Pune|Puning|Puri|Purnia|Pushchino|Pushkino|Pushkino|Pushkin|Pustoshka|Pusztaszabolcs|Putbus|Puteaux|Putlitz|Putnok|P\\\xc3\\\xbcttlingen|Pyatigorsk|Pyatigorsk|Pyetrykaw\\ |Pyh\\\xe4j\\\xe4rvi|Pyla|Pylaia|Pyongyang|Pyrgos|Pyrgos|Pytalovo|Pyt\\-Yakh|Qabala|Qaem\\ shahr|Qakh|Qarchak|Qazakh|Qian\\'an|Qianjiang|Qidong|Qingdao|Qingzhou|Qinhuangdao|Qinzhou|Qionglai|Qiongshan|Qiqihaer|Qixia|Qom|Qormi|Quakenbr\\\xc3\\\xbcck|Quanzhou|Quartu\\ Sant\\'Elena|Quba|Qubadli|Quedlinburg|Quelimane|Querfurt|Quetta|Quetzaltenango|Quezon\\ City|Qufu|Quickborn|Quimper|Qui\\ Nhon|Quito|Qujing|Qusar|Quthbullapur|Qvareli|Raahe|Rabat|Rab|Radevormwald|Radiokayanin\\ kits|Radnevo|Radolfzell\\ am\\ Bodensee|Radomir|Radom|Radovi\\\x9a|Raduzhny|Raduzhny|Radvili\\\x9akis|Rae\\ Bareli|Raguhn\\-Jessnitz|Ragusa|Rahachow\\ |Rahden|Rahimyar\\ Khan|Raichur|Raiganj|Raipur|Raisio|Rajkot|Rajnandgaon|Rakamaz|Rakitovo|Rakovski|Rakvere|Raleigh|Ramadi|Rambouillet|Ramenskoye|Ramstein\\-Miesenbach|Ramygala|Ranaghat|Rancagua|Ranchi|Rancho\\ Cucamonga|Rancho\\ Cucamonga|Ranchpar|Randers|Rankweil|Ransbach\\-Baumbach|Rapla|Raseiniai|Rasht|Rasony\\ |Rasskazovo|Rastatt|Rastenberg|Rastovica|Rathenow|Ratingen|Ratlam|Ratzeburg|Rauenberg|Rauma|Ravenna|Ravensburg|Ravenstein|Rawalpindi|Raychikhinsk|Rayong|Razgrad|Razlog|R\\\xeebni\\\xfea|R\\\xe1calm\\\xe1s|R\\\xee\\\xbacani|R\\\xe3cari|R\\\xe1ckeve|\\\xc9rd|R\\\xe3d\\\xe3u\\\xfei|Reca\\\xba|Rechytsa\\ |Recife|Recklinghausen|Rees|references\\ or\\ sources|Reggio\\ Calabria|Reggio\\ di\\ Calabria|Reggio\\ Emilia|Reggio\\ nell\\'Emilia|Reghin|Regina|Regis\\-Breitingen|Rehburg\\-Loccum|Rehna|Re\\\xbai\\\xfea|Reichelsheim|Reichenbach|Reichenbach|Reims|Reims|Reinbek|Reinfeld\\,\\ Holstein|reliable\\ sources|Remagen|Remda\\-Teichel|removed|Remscheid|Remseck\\ am\\ Neckar|Renchen|Rendsburg|Renfrewshire|Renhuai|Rennerod|Rennes|Rennes|Renningen|Reno|Reno|Renqiu|Rerik|Resen|Resnik|Rethem|Rethymno|Reutlingen|Reutov|Revda|Rewa|Rey\\?arfj\\\xf6r\\?ur|Reykholt|Reykjahl\\\xed\\?|Reykjanesbar|Reykjavik|Reykjav\\\xedk|Reynosa|Rezekne|Rezh|Rezina|Rez\\\xe9|Rheda\\-Wiedenbr\\\xc3\\\xbcck|Rhede|Rheinau|Rheinbach|Rheinberg|Rheinb\\\xc3\\\xb6llen|Rheine|Rheinfelden|Rheinsberg|Rheinstetten|Rhens|Rhodes|Rho|Ribnitz\\-Damgarten|Richardson|Richmond|Richmond|Richmond|Richtenberg|Ridder|Ried\\ im\\ Innkreis|Riedlingen|Rietavas|Rietberg|Riga|Riga|Riihim\\\xe4ki|Rijeka\\ Crnojevi\\\xe6a|Rijeka|Rila|Rillieux\\-la\\-Pape|Rimini|Rind|Ringsted|Rinteln|Rio\\ Claro|Rio\\ de\\ Janeiro|Rio\\ Grande|Riohacha|Risan|Rishon\\ Leziyyon|Ris\\-Orangis|Risor|\\\xd5riszentp\\\xe9ter|Riverside|Rivoli|Riyadh|Rizhao|Rizokarpaso|R\\\xe1k\\\xf3czifalva|\\\xd6rk\\\xe9ny|R\\\xe2mnicu\\ S\\\xe3rat|R\\\xe2mnicu\\ V\\\xe2lcea|R\\\xe2\\\xbanov|Ro\\\x9eaje|Roanne|R\\\xc3\\\xb6bel\\/M\\\xc3\\\xbcritz|Robertson\\ Pet|Rochefort|Rochefort|Rochester|Rochester|Rochester|Rockenhausen|Rockford|Rockford|Rodalben|Rodenberg|R\\\xc3\\\xb6dental|R\\\xc3\\\xb6dermark|Rodez|Rodniki|Rodovrea|Roeselare|Roi\\ Et|Ro\\\xbaiorii\\ de\\ Vede|Roissy\\-en\\-Brie|Roki\\\x9akis|Romainville|Roma|Roman|Romans\\-sur\\-Isere|Roman|Rome|R\\\xc3\\\xb6mhild|Rongcheng|Ronneburg|Ronnenberg|Ronse|Rosario|Rosbach\\ vor\\ der\\ H\\\xc3\\\xb6he|Rosenfeld|Roseville|Roshal|Roskilde|Roskovec|Roslavl|Rosny\\-sous\\-Bois|R\\\xc3\\\xb6srath|Rossleben|Rossosh|Rosswein|Rostock|Rostock|Rostov\\-na\\-Donu|Rostov\\-on\\-Don|Rostov|Rotenburg\\ an\\ der\\ Fulda|Rotenburg\\ an\\ der\\ W\\\xc3\\\xbcmme|R\\\xc3\\\xb6thenbach\\ an\\ der\\ Pegnitz|Rothenburg\\ ob\\ der\\ Tauber|Rottenburg\\ a\\.d\\.Laaber|Rottenburg\\ am\\ Neckar|Rotterdam|Rotterdam|R\\\xc3\\\xb6ttingen|Rottweil|Roubaix|Rouen|Round\\ Rock|Rousse|Rousse|Rovaniemi|Rovigo|Rovinari|Rovinj|Roznov|R\\\xe9pcelak|R\\\xe4pina|Rr\\\xc3\\\xabshen|Rrogozhin\\\xc3\\\xab|Rtishchevo|R\\\xe9ts\\\xe1g|Rubik|Rubtsovsk|Rubtsovsk|Rudab\\\xe1nya|Ruda\\ Slaska|R\\\xc3\\\xbcdesheim|Rudi\\\x9akes|Rudnya|Rudolstadt|Rudozem|Rueil\\-Malmaison|Rugao|Ruhland|Ruian|Ruijin|Ruili|Rujiena|Rupea|Rushan|R\\\xc3\\\xbcsselsheim|Rustavi|Rutesheim|R\\\xc3\\\xbcthen|Ruza|Ruzayevka|Ruzhou|Rya\\ Taza|Ryazan|Ryazhsk|Rybinsk|Rybinsk|Rybnoye|Rylsk|Rzhev|Saalburg\\-Ebersdorf|Saalfelden|Saarbr\\\xc3\\\xbccken|Saarburg|Saarij\\\xe4rvi|Saatly|Sabadell|Sabile|Sabirabad|Sabzewar|Sachkhere|Sachsenhagen|Sachsenheim|Sacramento|Sadiqabad|Sadovo|Saedinenie|Safi|\\\xcdsafj\\\xf6r\\?ur|Safonovo|Saga|Sagamihara|Sagarejo|Saghmosavan|Sahiwal|Saint\\-Andr\\\xe9|Saint\\-Beno\\\xeet|Saint\\-Brieuc|Saint\\-Chamond|Saint\\-Cloud|Saint\\-Denis|Saint\\-Denis|Saint\\-Di\\\xe9\\-des\\-Vosges|Saint\\-Dizier|Sainte\\-Anne|Sainte\\-Foy\\-les\\-Lyon|Sainte\\-Genevieve\\-des\\-Bois|Sainte\\-Marie|Saintes|Sainte\\-Suzanne|Saint\\-Germain\\-en\\-Laye|Saint\\-Ghislain|Saint\\-Gratien|Saint\\-Herblain|Saint\\-Hubert|Saint\\-Joseph|Saint\\-Laurent\\-du\\-Maroni|Saint\\-Laurent\\-du\\-Var|Saint\\-Leu|Saint\\-Louis|Saint\\ Louis|Saint\\-Malo|Saint\\-Mand\\\xe9|Saint\\-Martin\\-d\\'Heres|Saint\\-Maur\\-des\\-Foss\\\xe9s|Saint\\-M\\\xe9dard\\-en\\-Jalles|Saint\\-Michel\\-sur\\-Orge|Saint\\-Nazaire|Saint\\-Ouen\\-l\\'Aum\\\xf4ne|Saint\\-Ouen|Saint\\-Paul|Saint\\ Petersburg|Saint\\ Petersburg|Saint\\-Pierre|Saint\\-Pol\\-sur\\-Mer|Saint\\-Priest|Saint\\-Quentin|Saint\\-Rapha\\\xebl|Saint\\-S\\\xe9bastien\\-sur\\-Loire|Saint\\-\\\xc9tienne\\-du\\-Rouvray|Saint\\-\\\xc9tienne|Saitama|Saj\\\xf3b\\\xe1bony|Saj\\\xf3szentp\\\xe9ter|Sakai|Sakura|Salacgriva|Salair|Salalah|Salamanca|Salamanca|Salamis|Salantai|Salaspils|Salatiga|Salavat|Salavat|Salcea|Saldus|Salekhard|Salem|Salem|Salem|Salerno|Salg\\\xf3tarj\\\xe1n|Salihorsk\\ |Salinas|Salinas|Salli|Salmiya|Salo|Salon\\-de\\-Provence|Salonta|Salsk|Saltillo|Salt\\ Lake\\ City|Salt\\ Lake\\ City|Salut|Salvador|Salvard|Salyan|Salzburg|Salzburg|Salzgitter|Salzkotten|Salzwedel|Samaghar|Samara|Samara|Samarinda|Sambalpur|Sambhal|Samobor|Samokov|Samtredia|Samut\\ Prakan|Samut\\ Sakhon|Sana\\'a|San\\ Antonio|San\\ Antonio|San\\ Bernardino|San\\ Bernardino|San\\ Buenaventura\\ \\(Ventura\\)|San\\ Carlos|Sandakan|Sandanski|Sandau|Sandefjord|Sandersdorf\\-Brehna|Sandger\\?i|San\\ Diego|San\\ Diego|Sandnes|San\\ Fernando\\ City|San\\ Francisco|San\\ Francisco|Sangerhausen|Sangyar|San\\ Jose|San\\ Jose|San\\ Juan|Sankt\\ Andr\\\xc3\\\xa4|Sankt\\ Andreasberg|Sankt\\ Augustin|Sankt\\ Goar|Sankt\\ Goarshausen|Sankt\\ Johann\\ im\\ Pongau|Sankt\\ P\\\xc3\\\xb6lten|Sankt\\ Veit\\ an\\ der\\ Glan|Sankt\\ Vith|San\\ Lorenzo|Sannois|San\\ Pablo|Sanremo|San\\ Salvador\\ de\\ Jujuy|San\\ Severo|Sanski\\ Most|Santa\\ Ana|Santa\\ Clara|Santa\\ Clara|Santa\\ Clarita|Santa\\ Clarita|Santa\\ Cruz|Santa\\ Cruz\\ de\\ Tenerife|Santa\\ Luzia|Santander|Santa\\ Rosa|Santa\\ Rosa|Santiago|Santiago\\ de\\ los\\ Caballeros|Sant\\ Juli\\\xc3\\\xa0\\ de\\ L\\\xc3\\\xb2ria|Santo\\ Domingo\\ de\\ los\\ Colorados|Santo\\ domingo|Sao\\ Bernardo\\ do\\ Campo|Sao\\ Carlo|Sao\\ Leopoldo|Sao\\ Paulo|Sapareva\\ Banya|Sapporo|Saqez|Saragyugh|Sarahart|Sarajevo|Sarajevo|Sarakap|Saralanj|Saramej|Sarand\\\xc3\\\xab|Saran|Saransk|Sarapat|Sarapul|Saratak|Saratovka|Saratov|Saratov|Saravan|Sarcelles|Sarchapet|Sarigyugh|Sarkad|Sarnaghbyur|Sarnakunk|Sarnitsa|Sarov|Sarpsborg|Sarreguemines|Sarstedt|Sartrouville|Sarukhan|Sasovo|Sassari|Sassenberg|Sassnitz|Sasunik|Satka|Satna|Satpayev|Satu\\ Mare|Saue|Saulkrasti|Saumur|Sau\\?\\\xe1rkr\\\xf3kur|Savannah|Savigny\\-le\\-Temple|Savigny\\-sur\\-Orge|Savona|Savonlinna|Sayama|Sayanogorsk|Sayansk|Sayat\\-Nova|Scafati|Scandicci|S\\\xe3cele|Schauenstein|Scheer|Scheibenberg|Schelklingen|Schenefeld|Scherpenheuvel\\-Zichem|Schesslitz|Schieder\\-Schwalenberg|Schifferstadt|Schillingsf\\\xc3\\\xbcrst|Schiltach|Schiltigheim|Schirgiswalde|Schk\\\xc3\\\xb6len|Schleiden|Schleswig|Schleusingen|Schlieben|Schloss\\ Holte\\-Stukenbrock|Schlotheim|Schl\\\xc3\\\xbcchtern|Schl\\\xc3\\\xbcsselfeld|Schmalkalden|Schmallenberg|Schm\\\xc3\\\xb6lln|Schnackenburg|Schnaittenbach|Schneverdingen|Scholcher|Sch\\\xc3\\\xb6mberg|Sch\\\xc3\\\xb6nau|Sch\\\xc3\\\xb6nau\\ im\\ Schwarzwald|Sch\\\xc3\\\xb6nberg|Sch\\\xc3\\\xb6nebeck|Sch\\\xc3\\\xb6neck\\/Vogtl\\.|Sch\\\xc3\\\xb6newalde|Sch\\\xc3\\\xb6ningen|Sch\\\xc3\\\xb6nsee|Sch\\\xc3\\\xb6nwald|Schopfheim|Sch\\\xc3\\\xb6ppenstedt|Schorndorf|Schortens|Schramberg|Schraplau|Schriesheim|Schrobenhausen|Schrozberg|Sch\\\xc3\\\xbcttorf|Schwaan|Schw\\\xc3\\\xa4bisch\\ Gm\\\xc3\\\xbcnd|Schw\\\xc3\\\xa4bisch\\ Hall|Schwabm\\\xc3\\\xbcnchen|Schwaigern|Schwalbach\\ am\\ Taunus|Schwanebeck|Schwarzenbach\\ am\\ Wald|Schwarzenbach\\ an\\ der\\ Saale|Schwarzenbek|Schwarzenberg\\/Erzgeb\\.|Schwarzenborn|Schwarzheide|Schwaz|Schwechat|Schwedt|Schweich|Schweinfurt|Schwelm|Schwentinental|Schwerin|Schwerte|Schwetzingen|Scornice\\\xbati|Scottsdale|Scottsdale|S\\\xe3cueni|search|Seattle|Seattle|Sebe\\\xba|Sebezh|Sebha|Sebi\\\xba|Secunderabad|Seda|Seda|Seehausen|Seelze|Seesen|Segarcea|Segezha|Sehnde|Seifhennersdorf|Seini|Sein\\\xe4joki|Selenic\\\xc3\\\xab|Selfoss|Sellye|Selm|Selters|Seltjarnarnes|Seltso|Semarang|Semey|Semikarakorsk|Semiluki|Semyonovka|Semyonov|Senaki|Sendai|Sendenhorst|Senftenberg|Sengiley|Senj|Senovo|Sens|Seongnam|Seosan|Seoul|Septemvri|Serafimovich|Seraing|Serampore|Serdobsk|Seremban|Sergach|Sergiyev\\ Posad|Serilingampalle|Serov|Serpukhov|Serres|Sers|Sertolovo|Sesslach|Sesto\\ San\\ Giovanni|Sestroretsk|Sete\\ Lagoas|Sete|Sevaberd|Sevakar|Sevan|Severobaykalsk|Severodvinsk|Severodvinsk|Severo\\-Kurilsk|Severomorsk|Severouralsk|Seversk|Sevilla|Sevkar|Sevlievo|Sevran|Sevres|Sevsk|Sey\\?isfj\\\xf6r\\?ur|Sf\\\xe2ntu\\ Gheorghe|Shabla|Shadrinsk|Shaghap|Shaghat|Shaghik|Shagonar|Shahtinsk|Shahumyan|Shahumyani\\ trchnafabrika|Shakhbuz|Shakhtyorsk|Shakhty|Shakhunya|Shaki|Shaki|Shali|Shamakhy|Shamiram|Shamkir|Shamlugh|Shamut|Shanghai|Shangqiu|Shangyu|Shangzhi|Shangzhou|Shantou|Shaoguan|Shaoxing|Shaoyang|Sharur|Sharya|Sharypovo|Shatin|Shatjrek|Shatsk|Shatura|Shatvan|Shcherbinka|Shchigry|Shchuchye|Shchuchyn\\ |Shchyokino|Shchyolkovo|Shebekino|Shebin\\-El\\-Kom|Sheffield|Shelekhov|Shenatagh|Shenavan|Sh\\\xc3\\\xabngjin|Shengzhou|Shenik|Shenkani|Shenkursk|Shenyang|Shenzhen|Shenzhou|Sherbrooke|s\\-Hertogenbosch|\\'s\\-Hertogenbosch|Shgharshik|Shihezi|Shijak|Shijiazhuang|Shikahogh|Shikhany|Shilka|Shimanovsk|Shimkent|Shimla|Shinuhayr|Shipka|Shirakamut|Shirak|Shirakavan|Shiraz|Shirvan|Shishou|Shivachevo|Shivapuri|Shiyan|Shizuoka|Shklow\\ |Shkod\\\xc3\\\xabr|Shlisselburg|Shnogh|Shorzha|Shouguang|Shreveport|Shreveport|Shrvenants|Shuangcheng|Shubra\\-El\\-Khema|Shuchinsk|Shulan|Shumerlya|Shumikha|Shunan|Shunde|Shuozhou|Shurnukh|Shusha|Shuya|Shvanidzor|Shymkent|Siazan|Sibay|\\\xc5\\\xa0ibenik|Sibiu|Sibiu|Siegburg|Siegen|Siena|Si\\\xf3fok|Siggiewi|Sighetu\\ Marma\\\xfeiei|Sighi\\\xbaoara|Sighnaghi|Siglufj\\\xf6r\\?ur|Sigmaringen|Sigulda|Sikar|Sikasso|Sikl\\\xf3s|Silchar|Silikou|Silistra|Silkeborg|Sillam\\\xe4e|Simao|Simbach\\ am\\ Inn|Sim|Simeonovgrad|Simeria|Simitli|Simi\\ Valley|Simmern|Simnas|Simontornya|Sinaia|Sindelfingen|Sindi|Singapore|Singen|Singrauli|Sinj|Sinsheim|Sint\\-Niklaas|Sint\\-Truiden|Sinzig|Sioux\\ Falls|Sipan|Sipanik|Siracusa|Siret|Sirjan|Sirsa|Sisak|Sis|Sisavan|Sisian|Sitapur|Siuntio|Siverek|Six\\-Fours\\-les\\-Plages|Sizavet|Skagastr\\\xf6nd|Skaudvile|Sk\\\xf3gar|Skidzyel\\ |Skien|Skikda|Skive|Skopin|Skopje|Skoplje|Skovorodino|Skradin|Skrunda|Skuodas|Slagelse|Slantsy|Slatina|Slatina|Slatina|Slavgorod|Slavonski\\ Brod|Slavsk|Slavyanovo|Slavyansk\\-na\\-Kubani|Slawharad\\ |S\\\xe3li\\\xbatea\\ de\\ Sus|S\\\xe3li\\\xbate|Sliven|Slivnitsa|Slivo\\ Pole|Sl\\\xe3nic\\ Moldova|Sl\\\xe3nic|Slobodskoy|Slobozia|Slobozia|Slonim\\ |Slough|Slunj|Slutsk\\ |Slyudyanka|Smajlagi\\\xe6a\\ Polje|Smalininkai|Smalyavichy\\ |Smarhon\\ |S\\\xfcmeg|Smilavichy\\ |Smiltene|Smolensk|Smolyan|Smyadovo|S\\\xe1ndorfalva|Snezhinsk|Snezhnogorsk|S\\\xe2ngeorgiu\\ de\\ P\\\xe3dure|S\\\xe2ngeorz\\-B\\\xe3i|S\\\xeengera|S\\\xeengerei|S\\\xe2nnicolau\\ Mare|S\\\xe2ntana|Sobinka|Sobral|Sochi|Soest|Sofia|Sofia|Soflu|Sohag|Soignies|Soissons|Sokolniki|Sokol|Solak|Solapur|Solca|Soligalich|Solikamsk|Sol\\-Iletsk|Solin|Solingen|Solingen|Solnechnogorsk|Soltau|Solt|Soltsy|Soltvadkert|Solvychegodsk|Somero|S\\\xc3\\\xb6mmerda|Sonderborg|Sondershausen|Songyuan|Songzi|Sonipat|Sonneberg|Sonnewalde|Sopot|Sopron|Sorik|Sorocaba|Soroca|Sorochinsk|Sorsk|Sortavala|Sosensky|Sosnogorsk|Sosnovka|Sosnovoborsk|Sosnovy\\ Bor|Sosnowiec|Sotk|Sotteville\\-les\\-Rouen|South\\ Bend|Sovata|Sovetakan|Sovetskaya\\ Gavan|Sovetsk|Sovetsk|Sovetsk|Sovetsky|Soweto|Sozopol|Spa|Spaichingen|Spandaryan|Sparta|Spas\\-Demensk|Spas\\-Klepiki|Spassk\\-Dalny|Spassk|Spassk\\-Ryazansky|Spenge|Speyer|Spitak|Spittal\\ an\\ der\\ Drau|Split|Spokane|Spokane|Spremberg|Springe|Springfield|Springfield|Springfield|Springfield|Springs|Sprockh\\\xc3\\\xb6vel|Spu\\\x9e|Srashen|S\\\xe1rbog\\\xe1rd|Srebrenica|Srebrenik|Sredets|Srednekolymsk|Sredneuralsk|Sretensk|Srinagar|S\\\xe3rma\\\xbau|S\\\xe1rospatak|S\\\xe1rv\\\xe1r|S\\\xe1sd|Stadtallendorf|Stadthagen|Stadtlengsfeld|Stadtlohn|Stadtoldendorf|Stadtprozelten|Stadtroda|Stadtsteinach|Stadt\\ Wehlen|Staicele|Stains|Stamboliyski|Stamford|Stara\\ Novalja|Staraya\\ Kupavna|Staraya\\ Russa|Stara\\ Zagora|Stara\\ Zagora|Stari\\ Bar|Stari\\ Grad|Staritsa|Starodub|Starsy\\ Oskol|Stary\\ Oskol|Staryya\\ Darohi\\ |Stassfurt|Staufen\\ im\\ Breisgau|Stavanger|Stavelot|Stavenhagen\\ \\,\\ Reuterstadt|Stavropol|Stavroupoli|St\\.\\ Blasien|Steinau\\ an\\ der\\ Strasse|Steinbach\\-Hallenberg|Steinbach|Steinfurt|Steinheim\\ an\\ der\\ Murr|Steinheim|Steinkjer|Stendal|Stende|Stepanavan|Stepnogorsk|Sterling\\ Heights|Sterlitamak|Sternberg|Steyr|St\\.\\ Gallen|St\\.\\ Georgen\\ im\\ Schwarzwald|St\\.\\ Ingbert|St\\.\\ John\\'s|St\\.\\ Louis|St\\.\\ Louis|Stockach|Stockerau|Stockholm|Stockton|Stokkseyri|Stolberg|Stolberg|Stolin\\ |S\\\xe1toralja\\\xfajhely|Storkow|St\\\xc3\\\xb6ssen|Stowbtsy\\ |St\\.\\ Paul|St\\.\\ Petersburg|Straelen|Straldzha|Stralsund|Strasbourg|Strasburg|Strausberg|Strazhitsa|Strehaia|Strelcha|Str\\\xe3\\\xbaeni|Stren\\\xe8i|Strezhevoy|Stroitel|Stromberg|Strovolos|Struga|Strumica|Strunino|St\\\xc3\\\xbchlingen|Stupino|Stutensee|Stuttgart|Stuttgart|St\\\xf6\\?varfj\\\xf6r\\?ur|St\\.\\ Wendel|Stykkish\\\xf3lmur|Suba\\\xe8ius|Subate|Subotica|Suceava|Sucy\\-en\\-Brie|Sudbury|S\\\xc3\\\xbcdliches\\ Anhalt|Sudogda|Sudzha|Suhindol|Suihua|Suining|Suizhou|Sukhinichi|Sukhoy\\ Log|Sulina|Sulingen|Sullana|Sultan\\ Pur\\ Majra|Sulz\\ am\\ Neckar|Sulzbach\\-Rosenberg|Sulzbach\\/\\ Saar|Sulzburg|Sumqayit|Sunderland|Sundern|Sungurlare|Sunnyvale|Sunshine\\ Coast|Suonenjoki|Suoyarvi|Supetar|Surabaya|Surat|Surazh|Surenavan|Surendranagar\\ Dudhrej|Suresnes|Surgut|Surovikino|Sursk|Suser|S\\\xc3\\\xbcssen|Susuman|Sutomore|Suure\\-Jaani|Suva|Suvorovo|Suvorov|Suwon|Suzdal|Suzhou|Suzuka|Svarants|Svendborg|S\\\xe3veni|Sverdlov|Sveta\\ Nedelja|Sveti\\ Ivan\\ Zelina|Sveti\\ Nikole|Sveti\\ Stefan|Sveti\\ Vlas|Svetlahorsk\\,\\ Svyetlahorsk\\ |Svetlogorsk|Svetlograd|Svetly|Svetogorsk|Svilengrad|Svirsk|Svishtov|Svislach\\ |Svobodny|Svoge|Swindon|Syanno\\ |Syasstroy|Sychyovka|Sydney|Sykies|Syktyvkar|Syracuse|Syracuse|Syracuse|Sysert|Syunik|Syzran|Syzran|Szabadsz\\\xe1ll\\\xe1s|Szarvas|Sz\\\xe9cs\\\xe9ny|Szeged|Szeghalom|Szeksz\\\xe1rd|Szendr\\\xf5|Szentendre|Szentes|Szentgotth\\\xe1rd|Szentl\\\xf5rinc|Szerencs|Szigethalom|Szigetszentmikl\\\xf3s|Szigetv\\\xe1r|Sziksz\\\xf3|Sz\\\xe9kesfeh\\\xe9rv\\\xe1r|Szob|Szolnok|Szombathely|Sz\\\xe1zhalombatta|Taastrupa|Tab|Taboao\\ da\\ Serra|Tabriz|Tacheng|Tachikawa|Tacloban|Tacna|Tacoma|Tacoma|Taganrog|Tagum|Taian|Taichung|Tainan|Taipei|Taiping|Taishan|Taixing|Taiyuan|Taizhou|Takaoka|Takarazuka|Takoradi|Talachyn\\ |Talca|Talcahuano|Taldom|Taldykorgan|Talence|Talin|Talitsa|Tallahassee|Tallahassee|Tallinn|Talsi|Talvorik|Tama|Tamale|Tambach\\-Dietharz|Tambov|Tampa|Tampa|Tampere|\\\xc9tampes|Tampico|Tamsalu|Tam\\\xe1si|Tanahat|Tandzatap|Tandzaver|Tandzut|Tanga|Tangerang|Tangerh\\\xc3\\\xbctte|Tanger|Tangerm\\\xc3\\\xbcnde|Tangshan|Tanjung\\ Balai|Tann|Tapa|Taperakan|Tapolca|Taraclia|Taranto|Tara|Taratumb|Taraz|Tarbes|Targovishte|Tarija|Tarko\\-Sale|Tarnbya|Taronik|Tarsus|Tartar|Tartu|Tarusa|Tashir|Tashkent|Tashtagol|Tashtun|Tasik|Tatab\\\xe1nya|Tata|Tatarsk|Tatev|Tauberbischofsheim|Taurage|Tavda|Taverny|Tavshut|Tavush|Tayga|Tayshet|Tazagyugh|Tbilisi|Teberda|Tebessa|Techirghiol|Tecklenburg|Tecuci|\\\xaatefan\\ Vod\\\xe3|\\\xaatef\\\xe3ne\\\xbati|Tegh|Teghenik|Tegher|Teghut|Tegucigalpa|Tehran|\\\xaatei|Teiu\\\xba|Telavi|Tel\\ Aviv\\-Yafo|Telene\\\xbati|Telfs|Telgte|Tel\\\x9aiai|Temirtau|Temirtau|Temnikov|Tempe|Tempe|Templin|Templos|Temryuk|Tenali|Tengen|Tengzhou|Tepelen\\\xc3\\\xab|Teplice|Teramo|Terek|Teresina|Terjola|Terni|Ternitz|Ternopil|Terrassa|Tervel|Tervuren|Te\\\xc5\\\xa1anj|Tesli\\\xc4\\\x87|Tessin|Teterow|Teteven|Tetovo|Tetri\\ Tsqaro|Tettnang|Tetyushi|Teuchern|Teupitz|Teykovo|T\\\xe9gl\\\xe1s|Thale|Thalheim\\/Erzgeb\\.|Thane|Thanjavur|Thannhausen|Thebes|The\\ Hague|The\\ Hague|The\\ Medway\\ Towns|the\\ original|Thermi|Thessaloniki|Thiais|Thionville|Thiruvananthapuram|Thonon\\-les\\-Bains|Thornton|Thousand\\ Oaks|Thuin|Tiaert|Tianchang|Tianjin|Tianmen|Tianshui|Tielt|Tienen|Tijuana|Tikhoretsk|Tikhvin|Tilburg|Tilburg|Timashyovsk|Timi\\\xbaoara|Timon|\\\x8atip|Tirana|Tiraspol|Tiraspolul\\ Nou|Tirgu\\-Mures|Tirschenreuth|Tiruchchirappalli|Tiruppur|Tiruvottiyur|Tismana|Tiszacsege|Tiszaf\\\xf6ldv\\\xe1r|Tiszaf\\\xfcred|Tisza\\\xfajv\\\xe1ros|Tiszak\\\xe9cske|Tiszal\\\xf6k|Tiszavasv\\\xe1ri|Titisee\\-Neustadt|Titu|Tivat|Tivoli|T\\\xf6k\\\xf6l|Tlemcen|Tlik|T\\\xe1lknafj\\\xf6r\\?ur|T\\\xe3lmaciu|T\\\xe3\\\xbanad|Toamasina|Tobolsk|Todtnau|T\\\xc3\\\xb6ging\\ am\\ Inn|Toguchin|Tokaj|Tokyo|Toledo|Tolna\\,\\ Hungary|Tolors|Toluca|Tolyatti|Tolyatti|Tomakomai|Tomari|Tomba|Tommot|Tompa|Tomsk|Tongcheng|Tongeren|Tongjiang|Tongliao|Tongxiang|Tongzhou|T\\\xc3\\\xb6nisvorst|T\\\xc3\\\xb6nning|Tonsberg|Topeka|Topki|Topli\\\xfea|Topoloveni|Topolovgrad|Torcy|Torfavan|Torgelow|Torhout|Torino|Tornesch|Tornio|Toronto|Toropets|Torosgyugh|Torrance|Torrance|Torre\\ del\\ Greco|Torunik|Torun|Torva|Torzhok|Tosno|Totma|Tottori|Toulon|Toulon|Toulouse|Tourcoing|Tournai|Tournefeuille|Tours|Tovuz|Tovuz|Townsville|T\\\xe1pi\\\xf3szele|Tqibuli|Traben\\-Trarbach|Trabzon|Traiskirchen|Trakai|Trani|Trapani|Trappes|Trastenik|Traun|Travnik|Trebbin|Trebinje|Trebsen\\/Mulde|Tremblay\\-en\\-France|Trent|Trento|Tretuk|Treuchtlingen|Treuenbrietzen|Treviso|T\\\xe2rgovi\\\xbate|T\\\xe2rgu\\ Bujor|T\\\xe2rgu\\ C\\\xe3rbune\\\xbati|T\\\xe2rgu\\ Frumos|T\\\xe2rgu\\ Jiu|T\\\xe2rgu\\ L\\\xe3pu\\\xba|T\\\xe2rgu\\ Mure\\\xba|T\\\xe2rgu\\ Neam\\\xfe|T\\\xe2rgu\\ Ocna|T\\\xe2rgu\\ Secuiesc|Triberg\\ im\\ Schwarzwald|Tribsees|Trier|Trieste|T\\\xfcri|Trikala|Trikomo|Trilj|Tripoli|Tripoli|T\\\xf6r\\\xf6kb\\\xe1lint|T\\\xfarkeve|T\\\xf6r\\\xf6kszentmikl\\\xf3s|T\\\xe2rn\\\xe3veni|Trochtelfingen|Trogir|Troisdorf|Troitsk|Troitsk|Tro\\\x9akunai|Tromso|Trondheim|Trondheim|Trossingen|Troulloi|Troyan|Troyes|Trubchevsk|Trujillo|Trun|Tryavna|Tryokhgorny|Tsageri|Tsaghkaber|Tsaghkadzor|Tsaghkahovit|Tsaghkalanj|Tsaghkasar|Tsaghkashat|Tsaghkashen|Tsaghkavan|Tsaghkunk|Tsaghkut|Tsakistra|Tsakkar|Tsalenjikha|Tsalka|Tsamakasar|Tsapatagh|Tsarevo|Tsar\\ Kaloyan|Tsater|Tsav|Tseri|Tsghuk|Tsiatsan|Tsilkar|Tsimlyansk|Tsivilsk|Tsnori|Tsoghamarg|Tsovagyugh|Tsovak|Tsovazard|Tsovinar|Tsqaltubo|Tsu|Tsukuba|Tsuruoka|T\\\xe9t|T\\\xf3tkoml\\\xf3s|Ttujur|Tuapse|T\\\xc3\\\xbcbingen|Tucson|Tufashen|T\\\xe3u\\\xfeii\\-M\\\xe3gher\\\xe3u\\\xba|Tukums|Tula|Tulcea|Tulln|Tulsa|Tulun|Tumaco|Tumanyan|Tunis|Tunja|Tura|Turan|Turaw\\ |Turda|Turin|Turinsk|Turkistan|Turku|Turmero|Turnhout|Turnu\\ M\\\xe3gurele|Tutayev|Tutrakan|Tuttlingen|Tuymazy|Tuzi|Tuzla|Tvarditsa|Tver|Twistringen|Tymvou|Tynda|Tyneside|Tyrnyauz|Tytuvenai|Tyukalinsk|Tyumen|Tyumen|\\\x8au\\\x9aanj|\\\xc3\\\x9cbach\\-Palenberg|Ube|\\\xc3\\\x9cberlingen|Uchaly|Udachny|Udine|Udomlya|Uebigau\\-Wahrenbr\\\xc3\\\xbcck|Ueckerm\\\xc3\\\xbcnde|Uelzen|Uetersen|Ufa|Ufa|Ugarchin|Uglegorsk|Uglich|Uhingen|Ujan|Ujar|Uji|Ukhta|Ukmerge|Ulaanbaatar|Ulan\\-Ude|Ulcinj|Ul\\\xc3\\\xabz|Ulm|Ulmen|Ulsan|Uluberia|Ulvila|Ulyanovsk|Ulyanovsk|Umag|Ummerstadt|Umuahia|Unecha|Ungheni|Ungheni|Unkel|Unna|Unnao|Unterschleissheim|Uppsala|Uralsk|Urasar|Urayasu|Uray|Ur\\\xc3\\\xab|Uren|Uricani|Urla\\\xfei|Urtsadzor|Urtsalanj|Urumqi|Urus\\-Martan|Urut|Uryupinsk|Urzhum|Urziceni|Usak|Usedom|Ushachy\\ |Ushi|Usinsk|Usman|Usolye|Usolye\\-Sibirskoye|Ussuriisk|Ussuriysk|Ust\\-Dzheguta|Ust\\-Ilimsk|\\\xc3\\\x9ast\\\xc3\\\xad\\ nad\\ Labem|Ust\\-Katav|Ust\\-Kut|Ust\\-Labinsk|Ustyuzhna|Utena|Utrecht|Uttarpara\\ Kotrung|Uusikaupunki|Uvarovo|U\\\x9eventis|Uyar|Uyts|Uzda\\ |Uzhanis|Uzhur|Uzlovaya|Vaasa|Vabalninkas|Va\\\xbac\\\xe3u|Vadodara|Vadso|Vadul\\ lui\\ Vod\\\xe3|Vagharshapat|Vaghashen|Vaghatin|Vaghatur|Vahagnadzor|Vahagni|Vahan|Vahramaberd|Vahravar|Vaihingen\\ an\\ der\\ Enz|Vaja|Valandovo|Valchedram|Valchi\\ Dol|Valday|Valdemarpils|Valea\\ lui\\ Mihai|Vale|Valence|Valencia|Valencia|Valenciennes|Valga|Valka|Valkeakoski|Vallauris|Vallejo|Vallendar|Valletta|Valmiera|Valozhyn\\ |Valpovo|Valsad|Valuyki|Vammala|Vanadzor|Vanand|Vanashen|Vancouver|Vancouver|Vancouver|Vandouvre\\-les\\-Nancy|Vanek|Vanevan|Vanga\\\x9ei|Vani|Vannes|Vantaa|Vanves|Varagavan|Varaklani|Varamin|Varanasi|Vara\\\xc5\\\xbedin|Vara\\\xc5\\\xbedinske\\ Toplice|Varbitsa|Vardablur|Vardadzor|Vardaghbyur|Vardahovit|Vardakar|Vardanashen|Vardanidzor|Vardashat|Vardashen|Vardenik|Vardenis|Vardenut|Vardo|Varena|Varese|Varkaus|Varna|Varniai|Varosha|Varser|Varshets|Vasai|Vasilikos|Vaslui|Vasv\\\xe1r|Vatra|Vatra\\ Dornei|Vaulx\\-en\\-Velin|Vavla|Vawkavysk\\ |Vayk|Vayots\\ Dzor|Vazashen|V\\\xe1c|Vechta|Vecs\\\xe9s|Vedi|Vedu\\ ginu\\ gortsaranin\\ kits|Veisiejai|Vejle|Velbert|Velence|Veles|Velika\\ Gorica|Velika\\ Kladu\\\xc5\\\xa1a|Veliki\\ Preslav|Velikiye\\ Luki|Velikiy\\ Novgorod|Veliky\\ Novgorod|Veliky\\ Ustyug|Velingrad|Velizh|Vellberg|Velletri|Velsk|Venezia|Venice|\\\x8aven\\\xe8ioneliai|\\\x8aven\\\xe8ionys|Venlo|Venta|Ventspils|Venyov|Veracruz|Veraval|Verden|Veresegyh\\\xe1z|Vereshchagino|Vereya|Verin\\ Artashat|Verin\\ Bazmaberd|Verin\\ Dvin|Veringenstadt|Verin\\ Getashen|Verin\\ Gyodaklu|Verin\\ Karmir\\ aghbyur|Verin\\ Khotanan|Verin\\ Kyorplu|Verin\\ Ptghni|Verin\\ Sasunashen|Verin\\ Sasunik|Verin\\ Shorzha|Verishen|Verkhneuralsk|Verkhnyaya\\ Pyshma|Verkhnyaya\\ Salda|Verkhnyaya\\ Tura|Verkhny\\ Tagil|Verkhny\\ Ufaley|Verkhoturye|Verkhoyansk|Verl|Vernashen|Vernon|Veroia|Verona|Versailles|Versmold|Vertou|Verviers|Vestmannaeyjar|Vesyegonsk|Veszpr\\\xe9m|Vetluga|Vetovo|Vetren|Vetschau\\/Spreewald|Veurne|Viareggio|Viborg|Vicenza|Vichuga|Vichy|Vicovu\\ de\\ Sus|Victoria|Victorville|Videle|Vidin|Vidnoye|Viek\\\x9aniai|Vienenburg|Vienna|Vienna|Vienne|Vientiane|Viersen|Vierzon|Viesite|Vi\\\xbaeu\\ de\\ Sus|Vievis|Vigevano|Vigneux\\-sur\\-Seine|Viitasaari|Vijayawada|Vikhorevka|Vilaka|Vilani|Viljandi|Vilkavi\\\x9akis|Vilkija|Villach|Villefranche\\-sur\\-Sa\\\xf4ne|Villejuif|Villemomble|Villenave\\-d\\'Ornon|Villeneuve\\ d\\'Ascq|Villeneuve\\-la\\-Garenne|Villeneuve\\-Saint\\-Georges|Villeneuve\\-sur\\-Lot|Villeparisis|Villepinte|Villeurbanne|Villiers\\-le\\-Bel|Villiers\\-sur\\-Marne|Villingen\\-Schwenningen|Vill\\\xe1ny|Vilnius|Vilnius|Vilvoorde|Vilyeyka\\ |Vilyuchinsk|Vilyuysk|Vincennes|Vinica|Vinkovci|Viransehir|Virbalis|Virginia\\ Beach|Virovitica|Virpazar|Virrat|Virton|Viry\\-Ch\\\xe2tillon|Visaginas|Visakhapatnam|Visalia|Vis|Vis\\\xc3\\\xa9|Visegr\\\xe1d|Visoko|Visselh\\\xc3\\\xb6vede|Viterbo|Vitez|Vitoria\\-Gasteiz|Vitrolles|Vitry\\-sur\\-Seine|Vitsyebsk\\ |Vittoria|Vizianagarm|V\\\xedk\\ \\\xed\\ M\\\xfdrdal|Vladikavkaz|Vladimir|Vladivostok|Vladivostok|V\\\xe3lenii\\ de\\ Munte|Vl\\\xe3hi\\\xfea|V\\\xe9lizy\\-Villacoublay|Vlor\\\xc3\\\xab|Vlotho|V\\\xe1mosp\\\xe9rcs|V\\\xe9nissieux|V\\\xe2nju\\ Mare|V\\\xc3\\\xb6cklabruck|Vodice|Vodnjan|Voerde|Vogar|Voghjaberd|Voghji|Vogtsburg\\ im\\ Kaiserstuhl|Vohburg\\ an\\ der\\ Donau|Vohenstrauss|Vohma|V\\\xc3\\\xb6hrenbach|V\\\xc3\\\xb6hringen|Voiron|Volchansk|Volgodonsk|Volgodonsk|Volgograd|Volgograd|Volgorechensk|Volkermarkt|Volkhov|V\\\xc3\\\xb6lklingen|Volodarsk|Vologda|Volokolamsk|Volosovo|Volos|Volsk|Voluntari|Volzhsk|Volzhsky|Vopnafj\\\xf6r\\?ur|Voranava\\ |Vor\\\xc3\\\xab|Vorkuta|Voronezh|Voronezh|Vorotan|Vorsma|Voru|Voskehask|Voskehat|Voskepar|Vosketap|Vosketas|Voskevan|Voskevaz|Voskresensk|Vostan|Votkinsk|Voula|Vouni|V\\\xe9p|Vratsa|Vrbovec|Vrbovsko|Vreden|Vretsia|\\\xc9vreux|Vrgorac|Vrilissia|Vrlika|V\\\xe1rpalota|\\\xc9vry|Vrysoules|Vsevolozhsk|V\\\xe1s\\\xe1rosnam\\\xe9ny|V\\\xe9szt\\\xf5|Vukovar|Vuktyl|Vulcan|Vulc\\\xe3ne\\\xbati|Vungtau|Vyalikaya\\ Byerastavitsa\\ |Vyatskiye\\ Polyany|Vyazemsky|Vyazma|Vyazniki|Vyborg|Vyerhnyadzvinsk\\ |Vyetka\\ |Vyksa|Vyronas|Vyshny\\ Volochyok|Vysokovsk|Vysotsk|Vytegra|Wachenheim\\ an\\ der\\ Weinstrasse|W\\\xc3\\\xa4chtersbach|Waco|Wadhwan|Wafangdian|Wagh\\\xc3\\\xa4usel|Wah\\ Cantonment|Wahlstedt|Waiblingen|Waibstadt|Waidhofen|Waischenfeld|Waitakere|Walcourt|Waldbr\\\xc3\\\xb6l|Waldenbuch|Waldenburg|Waldkirch|Waldkirchen|Waldkraiburg|Waldm\\\xc3\\\xbcnchen|Waldshut\\-Tiengen|Walldorf|Walld\\\xc3\\\xbcrn|Walsrode|Wals\\-Siezenheim|Waltershausen|Waltrop|Wangen\\ im\\ Allg\\\xc3\\\xa4u|Wanyuan|Wanzleben\\-B\\\xc3\\\xb6rde|Warangal|Warburg|Waregem|Waremme|Warendorf|Waren|Warin|Warren|Warrington|Warsaw|Warstein|Washington|Washington|Wassenberg|Wasserburg\\ am\\ Inn|Wassertr\\\xc3\\\xbcdingen|Waterbury|Waterford|Wattrelos|Wavre|Wedel|Weener|Wegberg|Wegeleben|Wehr|Weiden\\ in\\ der\\ Oberpfalz|Weifang|Weihai|Weikersheim|Weil\\ am\\ Rhein|Weil\\ der\\ Stadt|Weilheim\\ an\\ der\\ Teck|Weilheim\\ in\\ Oberbayern|Weinan|Weingarten|Weinheim|Weinsberg|Weinstadt|Weissenberg|Weissenburg\\ in\\ Bayern|Weissenfels|Weissenhorn|Weissensee|Weissenstadt|Weissenthurm|Weisswasser|Wels|Welzheim|Wendeng|Wendlingen\\ am\\ Neckar|Wenling|Wenzhou|Werben|Werder|Werdohl|Werl|Wermelskirchen|Wernau|Werne|Werneuchen|Wernigerode|Wertheim|Werther|Wervik|Wesel|Wesenberg|Wesselburen|Wesseling|West\\ Covina|Westerburg|Westerstede|West\\ Jordan|West\\ Lothian|West\\ Midlands|Westminster|West\\ Valley\\ City|West\\ Yorkshire|Wetter|Wetter|Wettin|Wichita\\ Falls|Wichita|Widdern|Wiehl|Wiener\\ Neustadt|Wiesbaden|Wiesensteig|Wiesloch|Wiesmoor|Wigan|Wildberg|Wildemann|Wildeshausen|Wilhelmshaven|Wilkau\\-Hasslau|Willebadessen|Willich|Wilmington|Wilster|Windhoek|Windischeschenbach|Winnenden|Winnipeg|Winsen|Winston\\-Salem|Winston\\-Salem|Winterberg|Wipperf\\\xc3\\\xbcrth|Wirges|Wismar|Wissen|Wittenberge|Wittenberg|Wittenburg|Witten|Wittingen|Wittlich|Wittmund|Wittstock\\/Dosse|Woldegk|Wolfach|Wolfenb\\\xc3\\\xbcttel|Wolframs\\-Eschenbach|Wolfratshausen|Wolfsberg|Wolfsburg|Wolfstein|Wolgast|Wolmirstedt|Worcester|Worcester|W\\\xc3\\\xb6rgl|W\\\xc3\\\xb6rlitz|Worms|W\\\xc3\\\xb6rth\\ am\\ Main|W\\\xc3\\\xb6rth\\ am\\ Rhein|W\\\xc3\\\xb6rth\\ an\\ der\\ Donau|Wriezen|Wroclaw|Wuan|Wuchang|Wuchuan|Wugang|Wuhan|Wuhu|Wujiang|Wujin|W\\\xc3\\\xbclfrath|Wunstorf|Wuppertal|W\\\xc3\\\xbcrselen|W\\\xc3\\\xbcrzburg|Wustrow|Wusu|Wuwei|Wuxian|Wuxi|Wuxue|Wuyishan|Wyk\\ auf\\ F\\\xc3\\\xb6hr|Xanten|Xanthi|Xeros|Xiamen|Xi\\'an|Xiangcheng|Xiangfan|Xiangtan|Xiangxiang|Xianning|Xiantao|Xianyang|Xiaogan|Xiaoshan|Xichang|Xilin\\'haote|Xingcheng|Xinghua|Xingning|Xingping|Xingtai|Xingyang|Xingyi|Xinhui|Xi\\'ning|Xinji|Xinmi|Xinmin|Xintai|Xinxiang|Xinyang|Xinyi|Xinyu|Xinzheng|Xishan|Xuancheng|Xuanwei|Xuzhou|Xylofagou|Xylotymbou|Yablanitsa|Yachiyo|Yadrin|Yaghdan|Yakhroma|Yakoruda|Yakutsk|Yalutorovsk|Yamaguchi|Yamato|Yambol|Yanaul|Yanbu\\ al\\-Bahr|Yancheng|Yangchun|Yangjiang|Yangon|Yangquan|Yangsan|Yangzhou|Yanshi|Yantai|Yaounde|Yaransk|Yardimly|Yaroslave|Yaroslavl|Yarovoye|Yartsevo|Yasnogorsk|Yasny|Yavatmal|Yefremov|Yegheg|Yeghegis|Yeghegnadzor|Yeghegnavan|Yeghegnut|Yeghipatrush|Yeghnik|Yeghvard|Yegoryevsk|Yekaterinburg|Yelabuga|Yelets|Yelizovo|Yelnya|Yelpin|Yelsk\\ |Yemanzhelinsk|Yemva|Yeniseysk|Yenokavan|Yeranos|Yeraskhahun|Yeraskh|Yerazgavors|Yerevan|Yernjatap|Yerres|Yershov|Yervandashat|Yessentuki|Yevlakh|Yeysk|Yibin|Yichang|Yicheng|Yichun|Yinchuan|Yingcheng|Yingde|Yingkou|Yingtan|Yiwu|Yixing|Yiyang|Yizheng|Yizhou|Ylivieska|Yl\\\xf6j\\\xe4rvi|Yokohama|Yonago|Yongcheng|Yongchuan|Yongkang|Yongzhou|Yonkers|Yonkers|Yoshkar\\-Ola|Ypres|Yuanjiang|Yubileyny|Yueyang|Yugorsk|Yuhang|Yukhnov|Yulin|Yumen|Yuncheng|Yunzhou|Yurga|Yuryevets|Yuryev\\-Polsky|Yuryuzan|Yushu|Yuyao|Yuzha|Yuzhno\\-Sakhalinsk|Yuzhno\\-Sakhalinsk|Yuzhno\\-Sukhokumsk|Yuzhnouralsk|Yuzhou|Zabok|Zabrze|Zadar|Zadonsk|Zagreb|Zahedan|Zahna|Zainsk|Zakamensk|Zalaegerszeg|Zalakaros|Zalal\\\xf6v\\\xf5|Zalaszentgr\\\xf3t|Zal\\\xe3u|Zamboanga|Zam\\\xe1rdi|Zangakatun|Zangilan|Zanzibar|Zaoyang|Zaozhuang|Zaozyorny|Zaozyorsk|Zapadnaya\\ Dvina|Zapolyarny|Zaporizhya|Zapre\\\xc5\\\xa1i\\\xc4\\\x87|Zaqatala|Zaragoza|Zar|Zarasai|Zaraysk|Zardab|Zarechny|Zarechny|Zaria|Zarinja|Zarinsk|Zarishat|Zaritap|Zarrentin\\ am\\ Schaalsee|Zartonk|Zaslawye\\ |Zavet|Zavidovi\\\xc4\\\x87i|Zavitinsk|Zavodoukovsk|Zavolzhsk|Zavolzhye|\\\xd3zd|Zedea|Zehdenick|Zeil\\ am\\ Main|Zeitz|Zelenika|Zelenodolsk|Zelenogorsk|Zelenogorsk|Zelenograd|Zelenogradsk|Zelenokumsk|Zella\\-Mehlis|Zell\\ am\\ Harmersbach|Zell\\ im\\ Wiesental|Zell|Zelva\\ |Zemen|Zengcheng|Zenica|Zenica|\\\xc5\\\xbdep\\\xc4\\\x8de|Zerbst|Zernograd|Zestafoni|Zeulenroda\\-Triebes|Zeya|Zhabinka\\ |Zhanaozen|Zhangjiagang|Zhangjiakou|Zhangqiu|Zhangshu|Zhangzhou|Zhanjiang|Zhaodong|Zhaotong|Zhaoyuan|Zhdanov|Zheleznodorozhny|Zheleznogorsk\\-Ilimsky|Zheleznogorsk|Zheleznogorsk|Zheleznovodsk|Zhengzhou|Zhenjiang|Zherdevka|Zhezkazgan|Zhigulyovsk|Zhirnovsk|Zhizdra|Zhlobin\\ |Zhodzina\\ |Zhongshan|Zhongxiang|Z\\\xe1hony|Zhoushan|Zhuanghe|Zhucheng|Zhuhai|Zhuji|Zhukovka|Zhukov|Zhukovsky|Zhuozhou|Zhuzhou|Zhytkavichy\\ |Zibo|Ziegenr\\\xc3\\\xbcck|Zigong|Ziguinchor|Zilupe|Zima|Zimnicea|Zirc|\\\xc5\\\xbdivinice|Ziyang|Zlatar|Zlataritsa|Zlatitsa|Zlatna|Zlatograd|Zlatoust|Zlatoust|Zl\\\xc3\\\xadn|Zlynka|Zmeinogorsk|Znamensk|Z\\\xc3\\\xb6blitz|Zodia|Zoetermeer|Zografou|Zolakar|Zorakert|Zoravan|Z\\\xc3\\\xb6rbig|Zottegem|Zoucheng|Zoutleeuw|Zovaber|Zovasar|Zovashen|Zovk|Zovuni|Z\\\xe3rne\\\xbati|Zs\\\xe1mb\\\xe9k|Zubtsov|Zugdidi|Z\\\xc3\\\xbclpich|Zunhua|Zunyi|\\\xc5\\\xbdupanja|Zuyevka|Zuygaghbyur|Zvenigorod|Zvenigovo|Zverevo|Zvornik|Zweibr\\\xc3\\\xbccken|Zwettl|Zwolle|Zw\\\xc3\\\xb6nitz|Zygi)(?![a-zA-Z0-9\\-])"
p2
I0
tRp3
.