(dp1
S'Chi\xbaineu-Cri\xba'
p2
(lp3
S'Romania'
p4
asS'Chaohu'
p5
(lp6
S'China'
p7
asS'Chanthaburi'
p8
(lp9
S'Thailand'
p10
asS'Cachoeiro de Itapemirim'
p11
(lp12
S'Brazil'
p13
asS'Chardzhou'
p14
(lp15
S'Turkmenistan'
p16
asS'Columbia'
p17
(lp18
S'United States'
p19
aS'United States'
p20
asS'Cupcini'
p21
(lp22
S'Moldova'
p23
asS'Ch\xe2teauroux'
p24
(lp25
S'France'
p26
asS'Changzhi'
p27
(lp28
S'China'
p29
asS'Comarnic'
p30
(lp31
S'Romania'
p32
asS'Caen'
p33
(lp34
S'France'
p35
asS'Chartres'
p36
(lp37
S'France'
p38
asS'Chiprovtsi'
p39
(lp40
S'Bulgaria'
p41
asS'Ch\xe2tenay-Malabry'
p42
(lp43
S'France'
p44
asS'Charlotte'
p45
(lp46
S'United States'
p47
aS'United States'
p48
asS'Cop\xbaa Mic\xe3'
p49
(lp50
S'Romania'
p51
asS'Clausthal-Zellerfeld'
p52
(lp53
S'Germany'
p54
asS'Celld\xf6m\xf6lk'
p55
(lp56
S'Hungary'
p57
asS'Camaragibe'
p58
(lp59
S'Brazil'
p60
asS'Cherbourg-Octeville'
p61
(lp62
S'France'
p63
asS'Calais'
p64
(lp65
S'France'
p66
asS'Cotia'
p67
(lp68
S'Brazil'
p69
asS'Curitiba'
p70
(lp71
S'Brazil'
p72
asS'Compiegne'
p73
(lp74
S'France'
p75
asS'Coste\xbati'
p76
(lp77
S'Romania'
p78
aS'Moldova'
p79
asS'Changle'
p80
(lp81
S'China'
p82
asS'Chi\xbain\xe3u'
p83
(lp84
S'Moldova'
p85
asS'Colorado Springs'
p86
(lp87
S'United States'
p88
asS'Chomutov'
p89
(lp90
S'Czech Republic'
p91
asS'Cherven Bryag'
p92
(lp93
S'Bulgaria'
p94
asS'Cernavod\xe3'
p95
(lp96
S'Romania'
p97
asS'Chennai'
p98
(lp99
S'India'
p100
asS'Carcassonne'
p101
(lp102
S'France'
p103
asS'Chiva'
p104
(lp105
S'Armenia'
p106
asS'Chirpan'
p107
(lp108
S'Bulgaria'
p109
asS'Courbevoie'
p110
(lp111
S'France'
p112
asS'C\xe2mpeni'
p113
(lp114
S'Romania'
p115
asS'C\xe3lim\xe3ne\xbati-C\xe3ciulata'
p116
(lp117
S'Romania'
p118
asS'Comrat'
p119
(lp120
S'Moldova'
p121
asS'Chania'
p122
(lp123
S'Greece'
p124
asS'Chlef'
p125
(lp126
S'Algeria'
p127
asS'Chaoyang'
p128
(lp129
S'China'
p130
asS'Chukhloma'
p131
(lp132
S'Russia'
p133
asS'Caluire-et-Cuire'
p134
(lp135
S'France'
p136
asS'Chongzhou'
p137
(lp138
S'China'
p139
asS'Cayenne'
p140
(lp141
S'France'
p142
asS'Clearwater'
p143
(lp144
S'United States'
p145
asS'C\xe2mpulung Moldovenesc'
p146
(lp147
S'Romania'
p148
asS'Caloocan'
p149
(lp150
S'Philippines'
p151
asS'Columbus'
p152
(lp153
S'United States'
p154
aS'United States'
p155
aS'United States'
p156
asS'Caransebe\xba'
p157
(lp158
S'Romania'
p159
asS'Coro'
p160
(lp161
S'Venezuela'
p162
asS'Chistopol'
p163
(lp164
S'Russia'
p165
asS'Cork'
p166
(lp167
S'Ireland'
p168
asS'Chernogolovka'
p169
(lp170
S'Russia'
p171
asS'Coswig'
p172
(lp173
S'Germany'
p174
asS'Chekhov'
p175
(lp176
S'Russia'
p177
asS'Chofu'
p178
(lp179
S'Japan'
p180
asS'Chapni'
p181
(lp182
S'Armenia'
p183
asS'Crikvenica'
p184
(lp185
S'Croatia'
p186
asS'Chittoor'
p187
(lp188
S'India'
p189
asS'Castanhal'
p190
(lp191
S'Brazil'
p192
asS'Chhindwara'
p193
(lp194
S'India'
p195
asS'Cormeilles-en-Parisis'
p196
(lp197
S'France'
p198
asS'Chyormoz'
p199
(lp200
S'Russia'
p201
asS'Costa Mesa'
p202
(lp203
S'United States'
p204
asS'C\xe2mpina'
p205
(lp206
S'Romania'
p207
asS'Casalnuovo di Napoli'
p208
(lp209
S'Italy'
p210
asS'Cottbus'
p211
(lp212
S'Germany'
p213
asS'Ciudad Delgado'
p214
(lp215
S'El Salvador'
p216
asS'Chiniot'
p217
(lp218
S'Pakistan'
p219
asS'Ciney'
p220
(lp221
S'Belgium'
p222
asS'Csepreg'
p223
(lp224
S'Hungary'
p225
asS'Chaumont'
p226
(lp227
S'France'
p228
asS'Clermont-Ferrand'
p229
(lp230
S'France'
p231
asS'Cosenza'
p232
(lp233
S'Italy'
p234
asS'Covasna'
p235
(lp236
S'Romania'
p237
asS'Castres'
p238
(lp239
S'France'
p240
asS'Carrollton'
p241
(lp242
S'United States'
p243
asS'Campo Grande'
p244
(lp245
S'Brazil'
p246
asS'Chashniki '
p247
(lp248
S'Belarus'
p249
asS'Chittagong'
p250
(lp251
S'Bangladesh'
p252
asS'Chattanooga'
p253
(lp254
S'United States'
p255
aS'United States'
p256
asS'Cuernavaca'
p257
(lp258
S'Mexico'
p259
asS'Chesapeake'
p260
(lp261
S'United States'
p262
aS'United States'
p263
asS'Campha'
p264
(lp265
S'Viet Nam'
p266
asS'Civitavecchia'
p267
(lp268
S'Italy'
p269
asS'Csan\xe1dpalota'
p270
(lp271
S'Hungary'
p272
asS'Cabo Frio'
p273
(lp274
S'Brazil'
p275
asS'Contagem'
p276
(lp277
S'Brazil'
p278
asS'Cartagena'
p279
(lp280
S'Colombia'
p281
aS'Spain'
p282
asS'Cisn\xe3die'
p283
(lp284
S'Romania'
p285
asS'Cetinje'
p286
(lp287
S'Montenegro'
p288
asS'Cienfuegos'
p289
(lp290
S'Cuba'
p291
asS'Cerignola'
p292
(lp293
S'Italy'
p294
asS'Chioggia'
p295
(lp296
S'Italy'
p297
asS'Chamb\xe9ry'
p298
(lp299
S'France'
p300
asS'Cotabato'
p301
(lp302
S'Philippines'
p303
asS'Cherykaw '
p304
(lp305
S'Belarus'
p306
asS'Catania'
p307
(lp308
S'Italy'
p309
asS'Calbayog'
p310
(lp311
S'Philippines'
p312
asS'Clogher[15]'
p313
(lp314
S'Ireland'
p315
asS'Colombes'
p316
(lp317
S'France'
p318
asS'Cesis'
p319
(lp320
S'Latvia'
p321
asS'Chalon-sur-Sa\xf4ne'
p322
(lp323
S'France'
p324
asS"Cava de' Tirreni"
p325
(lp326
S'Italy'
p327
asS'Chapra'
p328
(lp329
S'India'
p330
asS'Charleroi'
p331
(lp332
S'Belgium'
p333
asS'Charleville-M\xe9zieres'
p334
(lp335
S'France'
p336
asS'Chknagh'
p337
(lp338
S'Armenia'
p339
asS'Cairo'
p340
(lp341
S'Egypt'
p342
asS'Charenton-le-Pont'
p343
(lp344
S'France'
p345
asS'Chakaten'
p346
(lp347
S'Armenia'
p348
asS'challenged'
p349
(lp350
S'Armenia'
p351
asS'Changde'
p352
(lp353
S'China'
p354
asS'Csorna'
p355
(lp356
S'Hungary'
p357
asS'Calgary'
p358
(lp359
S'Canada'
p360
asS'Corne\xbati'
p361
(lp362
S'Moldova'
p363
asS'Choisy-le-Roi'
p364
(lp365
S'France'
p366
asS'Charentsavan'
p367
(lp368
S'Armenia'
p369
asS'Cimi\xbalia'
p370
(lp371
S'Moldova'
p372
asS'Carolina'
p373
(lp374
S'Puerto Rico'
p375
asS'Chebarkul'
p376
(lp377
S'Russia'
p378
asS'Cahul'
p379
(lp380
S'Moldova'
p381
asS'Comines-Warneton'
p382
(lp383
S'Belgium'
p384
asS'Coesfeld'
p385
(lp386
S'Germany'
p387
asS'Chiny'
p388
(lp389
S'Belgium'
p390
asS'C\xe2mpia Turzii'
p391
(lp392
S'Romania'
p393
asS'Corum'
p394
(lp395
S'Turkey'
p396
asS'Chloraka'
p397
(lp398
S'Cyprus'
p399
asS'Catanzaro'
p400
(lp401
S'Italy'
p402
asS'Castrop-Rauxel'
p403
(lp404
S'Germany'
p405
asS'Chenzhou'
p406
(lp407
S'China'
p408
asS'Cugir'
p409
(lp410
S'Romania'
p411
asS'Cuxhaven'
p412
(lp413
S'Germany'
p414
asS'Com\xe3ne\xbati'
p415
(lp416
S'Romania'
p417
asS'Chachersk '
p418
(lp419
S'Belarus'
p420
asS'Chirchik'
p421
(lp422
S'Uzbekistan'
p423
asS'Callao'
p424
(lp425
S'Peru'
p426
asS'Cabo de Santo Agostinho'
p427
(lp428
S'Brazil'
p429
asS'Chaiyaphum'
p430
(lp431
S'Thailand'
p432
asS'Cambridge'
p433
(lp434
S'United States'
p435
asS'Cazin'
p436
(lp437
S'Bosna'
p438
asS'Cantho'
p439
(lp440
S'Viet Nam'
p441
asS'Ciudad Guayana'
p442
(lp443
S'Venezuela'
p444
asS'Corbeil-Essonnes'
p445
(lp446
S'France'
p447
asS'Cajvana'
p448
(lp449
S'Romania'
p450
asS'Changyi'
p451
(lp452
S'China'
p453
asS'Chihuahua'
p454
(lp455
S'Mexico'
p456
asS'Chirokitia'
p457
(lp458
S'Cyprus'
p459
asS'C\xc3\xabrrik'
p460
(lp461
S'Albania'
p462
asS'Chegem'
p463
(lp464
S'Russia'
p465
asS'Conflans-Sainte-Honorine'
p466
(lp467
S'France'
p468
asS'C\xe3z\xe3ne\xbati'
p469
(lp470
S'Romania'
p471
asS'Cheongju'
p472
(lp473
S'South Korea'
p474
asS'cite'
p475
(lp476
S'Armenia'
p477
asS'Chambarak'
p478
(lp479
S'Armenia'
p480
asS'Coquimbo'
p481
(lp482
S'Chile'
p483
asS'Cherkessk'
p484
(lp485
S'Russia'
p486
asS'Colomiers'
p487
(lp488
S'France'
p489
asS'Cannes'
p490
(lp491
S'France'
p492
asS'C\xe3inari'
p493
(lp494
S'Moldova'
p495
asS'Charleston'
p496
(lp497
S'United States'
p498
asS'Cavaillon'
p499
(lp500
S'France'
p501
asS'Concord'
p502
(lp503
S'United States'
p504
asS'Cig\xe1nd'
p505
(lp506
S'Hungary'
p507
asS'C\xe3u\xbaeni'
p508
(lp509
S'Moldova'
p510
asS'Chicago'
p511
(lp512
S'United States'
p513
aS'United States'
p514
asS'Chudovo'
p515
(lp516
S'Russia'
p517
asS'Chernushka'
p518
(lp519
S'Russia'
p520
asS'Calw'
p521
(lp522
S'Germany'
p523
asS'Cali'
p524
(lp525
S'Colombia'
p526
asS'Cristuru Secuiesc'
p527
(lp528
S'Romania'
p529
asS'Chimay'
p530
(lp531
S'Belgium'
p532
asS'Chatou'
p533
(lp534
S'France'
p535
asS'Cherdyn'
p536
(lp537
S'Russia'
p538
asS'Chifeng'
p539
(lp540
S'China'
p541
asS'Chongqing'
p542
(lp543
S'China'
p544
asS'Chelles'
p545
(lp546
S'France'
p547
asS'Cluj-Napoca'
p548
(lp549
S'Romania'
p550
asS'Cochem'
p551
(lp552
S'Germany'
p553
asS'Changsha'
p554
(lp555
S'China'
p556
asS'Carpentras'
p557
(lp558
S'France'
p559
asS'Constan\xfea'
p560
(lp561
S'Romania'
p562
asS'Changshu'
p563
(lp564
S'China'
p565
asS'Creuzburg'
p566
(lp567
S'Germany'
p568
asS'Crailsheim'
p569
(lp570
S'Germany'
p571
asS'Cahors'
p572
(lp573
S'France'
p574
asS'Crawley'
p575
(lp576
S'United Kingdom'
p577
asS'Corpus Christi'
p578
(lp579
S'United States'
p580
asS'Caxias'
p581
(lp582
S'Brazil'
p583
asS'Caserta'
p584
(lp585
S'Italy'
p586
asS'Clarksville'
p587
(lp588
S'United States'
p589
asS'Cehu Silvaniei'
p590
(lp591
S'Romania'
p592
asS'Carei'
p593
(lp594
S'Romania'
p595
asS'Csorv\xe1s'
p596
(lp597
S'Hungary'
p598
asS'Cholet'
p599
(lp600
S'France'
p601
asS'Calafat'
p602
(lp603
S'Romania'
p604
asS'Cead\xe2r-Lunga'
p605
(lp606
S'Moldova'
p607
asS'Campinas'
p608
(lp609
S'Brazil'
p610
asS'Campobasso'
p611
(lp612
S'Italy'
p613
asS'Cesvaine'
p614
(lp615
S'Latvia'
p616
asS'Cegl\xe9d'
p617
(lp618
S'Hungary'
p619
asS'Cedar Rapids'
p620
(lp621
S'United States'
p622
asS'Combs-la-Ville'
p623
(lp624
S'France'
p625
asS'Champigny-sur-Marne'
p626
(lp627
S'France'
p628
asS'Chepelare'
p629
(lp630
S'Bulgaria'
p631
asS'Camenca'
p632
(lp633
S'Moldova'
p634
asS'Carrara'
p635
(lp636
S'Italy'
p637
asS'Conakry'
p638
(lp639
S'Guinea'
p640
asS'Clamart'
p641
(lp642
S'France'
p643
asS'Chula Vista'
p644
(lp645
S'United States'
p646
aS'United States'
p647
asS'Cenxi'
p648
(lp649
S'China'
p650
asS'Caracas'
p651
(lp652
S'Venezuela'
p653
asS'Cres'
p654
(lp655
S'Croatia'
p656
asS'Creil'
p657
(lp658
S'France'
p659
asS'Cenon'
p660
(lp661
S'France'
p662
asS'Caracal'
p663
(lp664
S'Romania'
p665
asS'Coral Springs'
p666
(lp667
S'United States'
p668
asS'Caltanissetta'
p669
(lp670
S'Italy'
p671
asS'Cholargos'
p672
(lp673
S'Greece'
p674
asS'Chingola'
p675
(lp676
S'Zambia'
p677
asS'Cadiz'
p678
(lp679
S'Philippines'
p680
asS'Chinari'
p681
(lp682
S'Armenia'
p683
asS'Chenghai'
p684
(lp685
S'China'
p686
asS'Cheboksary'
p687
(lp688
S'Russia'
p689
asS'Craiova'
p690
(lp691
S'Romania'
p692
asS'Crasnoe'
p693
(lp694
S'Moldova'
p695
asS'Champs-sur-Marne'
p696
(lp697
S'France'
p698
asS'Cabanatuan'
p699
(lp700
S'Philippines'
p701
asS'Centennial'
p702
(lp703
S'United States'
p704
asS'Ch\xe2tillon'
p705
(lp706
S'France'
p707
asS'Chelyabinsk'
p708
(lp709
S'Russia'
p710
aS'Russia'
p711
asS'Cavnic'
p712
(lp713
S'Romania'
p714
asS'Cary'
p715
(lp716
S'United States'
p717
asS'Cape Coral'
p718
(lp719
S'United States'
p720
asS'Cotonou'
p721
(lp722
S'Benin'
p723
asS'Criuleni'
p724
(lp725
S'Moldova'
p726
asS'Cagliari'
p727
(lp728
S'Italy'
p729
asS'Curtea de Arge\xba'
p730
(lp731
S'Romania'
p732
asS'Crotone'
p733
(lp734
S'Italy'
p735
asS'Chinchin'
p736
(lp737
S'Armenia'
p738
asS'Changge'
p739
(lp740
S'China'
p741
asS'Corinth'
p742
(lp743
S'Greece'
p744
asS'Comilla'
p745
(lp746
S'Bangladesh'
p747
asS'Chita'
p748
(lp749
S'Russia'
p750
asS'Chekalin'
p751
(lp752
S'Russia'
p753
asS'Cloppenburg'
p754
(lp755
S'Germany'
p756
asS'Chios'
p757
(lp758
S'Greece'
p759
asS'Canillo'
p760
(lp761
S'Andorra'
p762
asS'Creussen'
p763
(lp764
S'Germany'
p765
asS'Cape town'
p766
(lp767
S'South Africa'
p768
asS'Cergy'
p769
(lp770
S'France'
p771
asS'Cheremkhovo'
p772
(lp773
S'Russia'
p774
asS'Clichy-sous-Bois'
p775
(lp776
S'France'
p777
asS'Cleveland'
p778
(lp779
S'United States'
p780
asS'Chimoio'
p781
(lp782
S'Mozambique'
p783
asS'Chiba'
p784
(lp785
S'Japan'
p786
asS'Chkalovsk'
p787
(lp788
S'Russia'
p789
asS'Chandler'
p790
(lp791
S'United States'
p792
aS'United States'
p793
asS'Ch\xe2tellerault'
p794
(lp795
S'France'
p796
asS'Cesena'
p797
(lp798
S'Italy'
p799
asS'Crimmitschau'
p800
(lp801
S'Germany'
p802
asS'Colmar'
p803
(lp804
S'France'
p805
asS'Chaykovsky'
p806
(lp807
S'Russia'
p808
asS'Creglingen'
p809
(lp810
S'Germany'
p811
asS'Camacari'
p812
(lp813
S'Brazil'
p814
asS'Colombo'
p815
(lp816
S'Brazil'
p817
aS'Sri Lanka'
p818
asS'Chochkan'
p819
(lp820
S'Armenia'
p821
asS'Chaplygin'
p822
(lp823
S'Russia'
p824
asS'Collegno'
p825
(lp826
S'Italy'
p827
asS'Corabia'
p828
(lp829
S'Romania'
p830
asS'Ch\xc3\xa2telet'
p831
(lp832
S'Belgium'
p833
asS'Chervyen '
p834
(lp835
S'Belarus'
p836
asS'Codru'
p837
(lp838
S'Moldova'
p839
asS'Coudekerque-Branche'
p840
(lp841
S'France'
p842
asS'Calbe'
p843
(lp844
S'Germany'
p845
asS'Chusovoy'
p846
(lp847
S'Russia'
p848
asS'Corona'
p849
(lp850
S'United States'
p851
aS'United States'
p852
asS'Ch\xe2lons-en-Champagne'
p853
(lp854
S'France'
p855
asS'C\xe2mpulung'
p856
(lp857
S'Romania'
p858
asS'Csurg\xf3'
p859
(lp860
S'Hungary'
p861
asS'Chernogorsk'
p862
(lp863
S'Russia'
p864
asS'Cincinnati'
p865
(lp866
S'United States'
p867
asS'Casablanca'
p868
(lp869
S'Morocco'
p870
asS'Cologne'
p871
(lp872
S'Germany'
p873
asS'Cantemir'
p874
(lp875
S'Moldova'
p876
asS'Chandan Nagar'
p877
(lp878
S'India'
p879
asS'Colimas'
p880
(lp881
S'Mexico'
p882
asS'Cambrai'
p883
(lp884
S'France'
p885
asS'Cochabamba'
p886
(lp887
S'Bolivia'
p888
asS'Coimbatore'
p889
(lp890
S'India'
p891
asS'Codlea'
p892
(lp893
S'Romania'
p894
asS'Cinisello Balsamo'
p895
(lp896
S'Italy'
p897
asS'Chiatura'
p898
(lp899
S'Georgia'
p900
asS'Cuttack'
p901
(lp902
S'India'
p903
asS'Changzhou'
p904
(lp905
S'China'
p906
asS'Cabimas'
p907
(lp908
S'Venezuela'
p909
asS'Chieti'
p910
(lp911
S'Italy'
p912
asS'Croix'
p913
(lp914
S'France'
p915
asS'Cherepovets'
p916
(lp917
S'Russia'
p918
asS'Chigasaki'
p919
(lp920
S'Japan'
p921
asS'Corlu'
p922
(lp923
S'Turkey'
p924
asS'Chaidari'
p925
(lp926
S'Greece'
p927
asS'Cagnes-sur-Mer'
p928
(lp929
S'France'
p930
asS'Choratan'
p931
(lp932
S'Armenia'
p933
asS'Cartago'
p934
(lp935
S'Costa Rica'
p936
asS'Chernyakhovsk'
p937
(lp938
S'Russia'
p939
asS'Cashel'
p940
(lp941
S'Ireland'
p942
asS'Cebu'
p943
(lp944
S'Philippines'
p945
asS'Changning'
p946
(lp947
S'China'
p948
asS'Chongjin'
p949
(lp950
S'North Korea'
p951
asS'Crivitz'
p952
(lp953
S'Germany'
p954
asS'Chalandri'
p955
(lp956
S'Greece'
p957
asS'Cr\xe9teil'
p958
(lp959
S'France'
p960
asS'Cancun'
p961
(lp962
S'Mexico'
p963
asS'Como'
p964
(lp965
S'Italy'
p966
asS'Ciacova'
p967
(lp968
S'Romania'
p969
asS'Chungju'
p970
(lp971
S'South Korea'
p972
asS'Csenger'
p973
(lp974
S'Hungary'
p975
asS'Casoria'
p976
(lp977
S'Italy'
p978
asS'Clichy'
p979
(lp980
S'France'
p981
asS'Chizhou'
p982
(lp983
S'China'
p984
asS'Chitila'
p985
(lp986
S'Romania'
p987
asS'Cixi'
p988
(lp989
S'China'
p990
asS'Carpi'
p991
(lp992
S'Italy'
p993
asS'C\xe3lan'
p994
(lp995
S'Romania'
p996
asS'Caguas'
p997
(lp998
S'Puerto Rico'
p999
asS'Castellammare di Stabia'
p1000
(lp1001
S'Italy'
p1002
asS'Calama'
p1003
(lp1004
S'Chile'
p1005
asS'C\xe3l\xe3ra\xbai'
p1006
(lp1007
S'Romania'
p1008
aS'Moldova'
p1009
asS'Ciudad Del Carmen'
p1010
(lp1011
S'Mexico'
p1012
asS'Chandigarh'
p1013
(lp1014
S'India'
p1015
asS'Cuneo'
p1016
(lp1017
S'Italy'
p1018
asS'Changchun'
p1019
(lp1020
S'China'
p1021
asS'Chavusy '
p1022
(lp1023
S'Belarus'
p1024
asS'Copenhagena'
p1025
(lp1026
S'Denmark'
p1027
asS'Cherepanovo'
p1028
(lp1029
S'Russia'
p1030
asS'Chkalov'
p1031
(lp1032
S'Armenia'
p1033
asS'Chkalovka'
p1034
(lp1035
S'Armenia'
p1036
asS'Cremona'
p1037
(lp1038
S'Italy'
p1039
asS'Chon Buri'
p1040
(lp1041
S'Thailand'
p1042
asS'Cuddalore'
p1043
(lp1044
S'India'
p1045
asS'Chalcis'
p1046
(lp1047
S'Greece'
p1048
asS'Chapayevsk'
p1049
(lp1050
S'Russia'
p1051
asS'Chengdu'
p1052
(lp1053
S'China'
p1054
asS'Campeche'
p1055
(lp1056
S'Mexico'
p1057
asS'Couvin'
p1058
(lp1059
S'Belgium'
p1060
asS'Cricova'
p1061
(lp1062
S'Moldova'
p1063
asS'Chirala'
p1064
(lp1065
S'India'
p1066
asS'Chulym'
p1067
(lp1068
S'Russia'
p1069
asS'Cachan'
p1070
(lp1071
S'France'
p1072
asS'Csongr\xe1d'
p1073
(lp1074
S'Hungary'
p1075
asS'Curtici'
p1076
(lp1077
S'Romania'
p1078
asS'Chadan'
p1079
(lp1080
S'Russia'
p1081
as.