(lp1
S'Afghanistan'
p2
aS'Albania'
p3
aS'Algeria'
p4
aS'Andorra'
p5
aS'Angola'
p6
aS'Argentina'
p7
aS'Armenia'
p8
aS'Australia'
p9
aS'Austria'
p10
aS'Azerbaijan'
p11
aS'Bahamas'
p12
aS'Bahrain'
p13
aS'Bangladesh'
p14
aS'Belarus'
p15
aS'Belgium'
p16
aS'Benin'
p17
aS'Bolivia'
p18
aS'Bosna'
p19
aS'Bosnia and Herzegovina'
p20
aS'Brazil'
p21
aS'Bulgaria'
p22
aS'Burkina Faso'
p23
aS'Cambodia'
p24
aS'Cameroon'
p25
aS'Canada'
p26
aS'Chad'
p27
aS'Chile'
p28
aS'China'
p29
aS'Colombia'
p30
aS'Costa Rica'
p31
aS'Croatia'
p32
aS'Cuba'
p33
aS'Cyprus'
p34
aS'Czech Republic'
p35
aS'Dem Rep of Congo '
p36
aS'Denmark'
p37
aS'Dominican Republic'
p38
aS'Ecuador'
p39
aS'Egypt'
p40
aS'El Salvador'
p41
aS'Estonia'
p42
aS'Ethiopia'
p43
aS'Fiji'
p44
aS'Finland'
p45
aS'France'
p46
aS'Georgia'
p47
aS'Germany'
p48
aS'Ghana'
p49
aS'Greece'
p50
aS'Guatemala'
p51
aS'Guinea'
p52
aS'Guinea-Bissau'
p53
aS'Haiti'
p54
aS'Honduras'
p55
aS'Hong Kong'
p56
aS'Hungary'
p57
aS'Iceland'
p58
aS'India'
p59
aS'Indonesia'
p60
aS'Iran'
p61
aS'Iraq'
p62
aS'Ireland'
p63
aS'Israel'
p64
aS'Italy'
p65
aS'Jamaica'
p66
aS'Japan'
p67
aS'Jordan'
p68
aS'Kazakhstan'
p69
aS'Kenya'
p70
aS'Kuwait'
p71
aS'Kyrgyzstan'
p72
aS'Laos'
p73
aS'Latvia'
p74
aS'Libya'
p75
aS'Lithuania'
p76
aS'Macedonia'
p77
aS'Madagascar'
p78
aS'Malawi'
p79
aS'Malaysia'
p80
aS'Mali'
p81
aS'Malta'
p82
aS'Mauritania'
p83
aS'Mauritius'
p84
aS'Mexico'
p85
aS'Moldova'
p86
aS'Mongolia'
p87
aS'Montenegro'
p88
aS'Morocco'
p89
aS'Mozambique'
p90
aS'Myanmar '
p91
aS'Namibia'
p92
aS'Nepal'
p93
aS'Netherlands'
p94
aS'New Zealand'
p95
aS'Nicaragua'
p96
aS'Niger'
p97
aS'Nigeria'
p98
aS'North Korea'
p99
aS'Norway'
p100
aS'Oman'
p101
aS'Pakistan'
p102
aS'Palestine'
p103
aS'Paraguay'
p104
aS'Peru'
p105
aS'Philippines'
p106
aS'Poland'
p107
aS'Portugal'
p108
aS'Puerto Rico'
p109
aS'Romania'
p110
aS'Russia'
p111
aS'Rwanda'
p112
aS'Saudi Arabia'
p113
aS'Senegal'
p114
aS'Serbia'
p115
aS'Singapore'
p116
aS'Slovakia'
p117
aS'Somalia'
p118
aS'South Africa'
p119
aS'South Korea'
p120
aS'Spain'
p121
aS'Sri Lanka'
p122
aS'Sudan'
p123
aS'Sweden'
p124
aS'Switzerland'
p125
aS'Syria'
p126
aS'Tajikistan'
p127
aS'Tanzania'
p128
aS'Thailand'
p129
aS'Tunisia'
p130
aS'Turkey'
p131
aS'Turkmenistan'
p132
aS'Uganda'
p133
aS'Ukraine'
p134
aS'United Arab Emirates'
p135
aS'United Kingdom'
p136
aS'United Kingdom '
p137
aS'United States'
p138
aS'Uruguay'
p139
aS'Uzbekistan'
p140
aS'Venezuela'
p141
aS'Viet Nam'
p142
aS'Western Sahara'
p143
aS'Yemen'
p144
aS'Zambia'
p145
aS'Zimbabwe'
p146
a.