(dp1
S'Y\xc3\x9ckselov\xc3\x81'
p2
(lp3
S'0.0001'
p4
asS'Yassinov\xc3\x81'
p5
(lp6
S'0.0002'
p7
asS'Youngov\xc3\x81'
p8
(lp9
S'0.0003'
p10
asS'Yates'
p11
(lp12
S'0.0001'
p13
asS'Yousifov\xc3\x81'
p14
(lp15
S'0.0001'
p16
asS'Yonov\xc3\x81'
p17
(lp18
S'0.0001'
p19
asS'Yaghobov\xc3\x81'
p20
(lp21
S'0.0001'
p22
asS'Young'
p23
(lp24
S'0.0001'
p25
asS'Younesov\xc3\x81'
p26
(lp27
S'0.0001'
p28
asS'Yilmaz'
p29
(lp30
S'0.0001'
p31
asS'Yazdaniov\xc3\x81'
p32
(lp33
S'0.0001'
p34
asS'Youssefov\xc3\x81'
p35
(lp36
S'0.0001'
p37
as.