(dp1
S'Vitujov\xc3\x81'
p2
(lp3
S'0.0004'
p4
asS'Vaitov\xc3\x81'
p5
(lp6
S'0.0010'
p7
asS'Vrzalov\xc3\x81'
p8
(lp9
S'0.0183'
p10
asS'Volechov\xc3\x81'
p11
(lp12
S'0.0005'
p13
asS'Va\xc5\xa0\xc3\x81tov\xc3\x81'
p14
(lp15
S'0.0018'
p16
asS'Vond\xc5\x98ejcov\xc3\x81'
p17
(lp18
S'0.0014'
p19
asS'V\xc5\xaejtkov\xc3\x81'
p20
(lp21
S'0.0010'
p22
asS'Vandrov\xc3\x81'
p23
(lp24
S'0.0002'
p25
asS'Vosolov\xc3\x81'
p26
(lp27
S'0.0010'
p28
asS'Vdovcov\xc3\x81'
p29
(lp30
S'0.0002'
p31
asS'V\xc5\xaechov\xc3\x81'
p32
(lp33
S'0.0009'
p34
asS'Vasilevov\xc3\x81'
p35
(lp36
S'0.0008'
p37
asS'V\xc3\x81cov\xc3\x81'
p38
(lp39
S'0.0024'
p40
asS'Vrbsk\xc3\x81'
p41
(lp42
S'0.0021'
p43
asS'Vilknerov\xc3\x81'
p44
(lp45
S'0.0001'
p46
asS'Vajdjakov\xc3\x81'
p47
(lp48
S'0.0002'
p49
asS'Vos\xc3\x81lov\xc3\x81'
p50
(lp51
S'0.0002'
p52
asS'Vostrovsk\xc3\x81'
p53
(lp54
S'0.0031'
p55
asS'Venh\xc3\x81\xc4\x8cov\xc3\x81'
p56
(lp57
S'0.0005'
p58
asS'Vrckov\xc3\x81'
p59
(lp60
S'0.0001'
p61
asS'V\xc3\x8dkov\xc3\x81'
p62
(lp63
S'0.0007'
p64
asS'Vychodilov\xc3\x81'
p65
(lp66
S'0.0142'
p67
asS'Vybralov\xc3\x81'
p68
(lp69
S'0.0005'
p70
asS'Vo\xc5\xbddov\xc3\x81'
p71
(lp72
S'0.0011'
p73
asS'V\xc4\x9ane\xc4\x8ckov\xc3\x81'
p74
(lp75
S'0.0009'
p76
asS'Vykonalov\xc3\x81'
p77
(lp78
S'0.0002'
p79
asS'Vymyslick\xc3\x81'
p80
(lp81
S'0.0029'
p82
asS'Vopr\xc5\xa0\xc3\x81lov\xc3\x81'
p83
(lp84
S'0.0006'
p85
asS'Volmutov\xc3\x81'
p86
(lp87
S'0.0017'
p88
asS'Vycp\xc3\x81lkov\xc3\x81'
p89
(lp90
S'0.0023'
p91
asS'Vaing\xc3\x81tov\xc3\x81'
p92
(lp93
S'0.0002'
p94
asS'Vondrov\xc3\x81'
p95
(lp96
S'0.0309'
p97
asS'Vozdkov\xc3\x81'
p98
(lp99
S'0.0003'
p100
asS'Vozn\xc3\x8d\xc4\x8ckov\xc3\x81'
p101
(lp102
S'0.0002'
p103
asS'Vilingrov\xc3\x81'
p104
(lp105
S'0.0003'
p106
asS'Vachrlonov\xc3\x81'
p107
(lp108
S'0.0001'
p109
asS'Vernekov\xc3\x81'
p110
(lp111
S'0.0001'
p112
asS'Vystoupilov\xc3\x81'
p113
(lp114
S'0.0002'
p115
asS'Vodra\xc5\xa0kov\xc3\x81'
p116
(lp117
S'0.0001'
p118
asS'Vellechov\xc3\x81'
p119
(lp120
S'0.0003'
p121
asS'V\xc3\x9dravov\xc3\x81'
p122
(lp123
S'0.0004'
p124
asS'Vavr\xc3\x8dkov\xc3\x81'
p125
(lp126
S'0.0007'
p127
asS'Vja\xc4\x8ckov\xc3\x81'
p128
(lp129
S'0.0011'
p130
asS'Vozobulov\xc3\x81'
p131
(lp132
S'0.0008'
p133
asS'Vl\xc4\x8covsk\xc3\x81'
p134
(lp135
S'0.0001'
p136
asS'Vla\xc5\xa0icov\xc3\x81'
p137
(lp138
S'0.0044'
p139
asS'Vetr\xc3\x81kov\xc3\x81'
p140
(lp141
S'0.0018'
p142
asS'Vurstov\xc3\x81'
p143
(lp144
S'0.0003'
p145
asS'Vrbick\xc3\x81'
p146
(lp147
S'0.0065'
p148
asS'Vjaclovsk\xc3\x81'
p149
(lp150
S'0.0005'
p151
asS'Valevsk\xc3\x81'
p152
(lp153
S'0.0001'
p154
asS'Vujt\xc3\x8dkov\xc3\x81'
p155
(lp156
S'0.0001'
p157
asS'Vondrou\xc5\xa0ov\xc3\x81'
p158
(lp159
S'0.0060'
p160
asS'Volmuthov\xc3\x81'
p161
(lp162
S'0.0004'
p163
asS'Veisheiplov\xc3\x81'
p164
(lp165
S'0.0002'
p166
asS'Va\xc5\x87\xc3\x81tkov\xc3\x81'
p167
(lp168
S'0.0039'
p169
asS'Vejdov\xc3\x81'
p170
(lp171
S'0.0014'
p172
asS'Vondrysov\xc3\x81'
p173
(lp174
S'0.0008'
p175
asS'Vla\xc5\xbdn\xc3\x81'
p176
(lp177
S'0.0012'
p178
asS'Vypu\xc5\xa0\xc5\xa4\xc3\x81kov\xc3\x81'
p179
(lp180
S'0.0005'
p181
asS'Vejtasov\xc3\x81'
p182
(lp183
S'0.0025'
p184
asS'Vidrmanov\xc3\x81'
p185
(lp186
S'0.0007'
p187
asS'Vizinov\xc3\x81'
p188
(lp189
S'0.0009'
p190
asS'Vy\xc5\xa0ehradov\xc3\x81'
p191
(lp192
S'0.0003'
p193
asS'Vroubkov\xc3\x81'
p194
(lp195
S'0.0003'
p196
asS'Vachutkov\xc3\x81'
p197
(lp198
S'0.0024'
p199
asS'Vilmannov\xc3\x81'
p200
(lp201
S'0.0001'
p202
asS'Vachn\xc3\x8dkov\xc3\x81'
p203
(lp204
S'0.0004'
p205
asS'Velachov\xc3\x81'
p206
(lp207
S'0.0001'
p208
asS'V\xc5\x87ukov\xc3\x81'
p209
(lp210
S'0.0002'
p211
asS'Vimmerov\xc3\x81'
p212
(lp213
S'0.0027'
p214
asS'Verostov\xc3\x81'
p215
(lp216
S'0.0002'
p217
asS'Vatol\xc3\x8dkov\xc3\x81'
p218
(lp219
S'0.0001'
p220
asS'Verzichov\xc3\x81'
p221
(lp222
S'0.0008'
p223
asS'Vyl\xc3\x8dtov\xc3\x81'
p224
(lp225
S'0.0008'
p226
asS'Va\xc4\xbdkov\xc3\x81'
p227
(lp228
S'0.0003'
p229
asS'Vodalov\xc3\x81'
p230
(lp231
S'0.0002'
p232
asS'Vl\xc4\x8c\xc3\x81kov\xc3\x81'
p233
(lp234
S'0.0002'
p235
asS'Vo\xc5\x98\xc3\x8d\xc5\xa0kov\xc3\x81'
p236
(lp237
S'0.0200'
p238
asS'Vojtylov\xc3\x81'
p239
(lp240
S'0.0001'
p241
asS'Vav\xc5\x98in\xc4\x8c\xc3\x8dkov\xc3\x81'
p242
(lp243
S'0.0004'
p244
asS'V\xc3\x9dlupkov\xc3\x81'
p245
(lp246
S'0.0002'
p247
asS'Vojt\xc4\x9ack\xc3\x81'
p248
(lp249
S'0.0001'
p250
asS'Vinovsk\xc3\x81'
p251
(lp252
S'0.0004'
p253
asS'Venigerov\xc3\x81'
p254
(lp255
S'0.0006'
p256
asS'Vintrov\xc3\x81'
p257
(lp258
S'0.0113'
p259
asS'Valigursk\xc3\x81'
p260
(lp261
S'0.0007'
p262
asS'Varhul\xc3\x8dkov\xc3\x81'
p263
(lp264
S'0.0004'
p265
asS'V\xc5\xaeleov\xc3\x81'
p266
(lp267
S'0.0003'
p268
asS'Valdmanov\xc3\x81'
p269
(lp270
S'0.0044'
p271
asS'Vogltanzov\xc3\x81'
p272
(lp273
S'0.0002'
p274
asS'V\xc3\x81clavcov\xc3\x81'
p275
(lp276
S'0.0002'
p277
asS'Vole\xc4\x8ckov\xc3\x81'
p278
(lp279
S'0.0001'
p280
asS'Vagnerov\xc3\x81'
p281
(lp282
S'0.0045'
p283
asS'Vochom\xc5\xaerkov\xc3\x81'
p284
(lp285
S'0.0013'
p286
asS'V\xc3\x9dborn\xc3\x81'
p287
(lp288
S'0.0109'
p289
asS'Vlachynsk\xc3\x81'
p290
(lp291
S'0.0042'
p292
asS'Vost\xc5\x98ej\xc5\xa0ov\xc3\x81'
p293
(lp294
S'0.0001'
p295
asS'V\xc4\x9atrovcov\xc3\x81'
p296
(lp297
S'0.0103'
p298
asS'Vejrostov\xc3\x81'
p299
(lp300
S'0.0044'
p301
asS'Velagyiov\xc3\x81'
p302
(lp303
S'0.0001'
p304
asS'Vaj\xc3\x8dkov\xc3\x81'
p305
(lp306
S'0.0005'
p307
asS'Vi\xc5\xa0vaderov\xc3\x81'
p308
(lp309
S'0.0007'
p310
asS'Vranov\xc3\x81'
p311
(lp312
S'0.0033'
p313
asS'Vake\xc5\xa0ov\xc3\x81'
p314
(lp315
S'0.0007'
p316
asS'Vytla\xc4\x8cilov\xc3\x81'
p317
(lp318
S'0.0077'
p319
asS'V\xc3\x81clav\xc3\x8dkov\xc3\x81'
p320
(lp321
S'0.0456'
p322
asS'Vellekov\xc3\x81'
p323
(lp324
S'0.0003'
p325
asS'Venosov\xc3\x81'
p326
(lp327
S'0.0007'
p328
asS'Vojta\xc5\xa0ovi\xc4\x8cov\xc3\x81'
p329
(lp330
S'0.0001'
p331
asS'Vej\xc4\x8c\xc3\x8dkov\xc3\x81'
p332
(lp333
S'0.0002'
p334
asS'Vogalov\xc3\x81'
p335
(lp336
S'0.0005'
p337
asS'Vojvodi\xc4\x8cov\xc3\x81'
p338
(lp339
S'0.0001'
p340
asS'Vitu\xc5\xa0kov\xc3\x81'
p341
(lp342
S'0.0001'
p343
asS'Vochozkov\xc3\x81'
p344
(lp345
S'0.0027'
p346
asS'Val\xc4\x8cikevi\xc4\x8cov\xc3\x81'
p347
(lp348
S'0.0001'
p349
asS'Vyhn\xc3\x81tov\xc3\x81'
p350
(lp351
S'0.0001'
p352
asS'Valin\xc4\x8ci\xc4\x8cov\xc3\x81'
p353
(lp354
S'0.0001'
p355
asS'Vrdlovcov\xc3\x81'
p356
(lp357
S'0.0003'
p358
asS'Vonsov\xc3\x81'
p359
(lp360
S'0.0002'
p361
asS'V\xc3\x8dder\xc5\xa0perkov\xc3\x81'
p362
(lp363
S'0.0001'
p364
asS'Va\xc5\x87\xc3\x81\xc4\x8cov\xc3\x81'
p365
(lp366
S'0.0028'
p367
asS'Vajdlov\xc3\x81'
p368
(lp369
S'0.0008'
p370
asS'Va\xc5\xa0\xc3\x8dkov\xc3\x81'
p371
(lp372
S'0.0039'
p373
asS'Volovikov\xc3\x81'
p374
(lp375
S'0.0001'
p376
asS'Voverkov\xc3\x81'
p377
(lp378
S'0.0001'
p379
asS'Vla\xc5\xa0\xc3\x8dmsk\xc3\x81'
p380
(lp381
S'0.0003'
p382
asS'Vebrov\xc3\x81'
p383
(lp384
S'0.0061'
p385
asS'Varcopov\xc3\x81'
p386
(lp387
S'0.0002'
p388
asS'Vodicov\xc3\x81'
p389
(lp390
S'0.0012'
p391
asS'Veselovcov\xc3\x81'
p392
(lp393
S'0.0001'
p394
asS'Vaigelov\xc3\x81'
p395
(lp396
S'0.0001'
p397
asS'Vych\xc3\x81nkov\xc3\x81'
p398
(lp399
S'0.0002'
p400
asS'Vickov\xc3\x81'
p401
(lp402
S'0.0007'
p403
asS'Viktorov\xc3\x81'
p404
(lp405
S'0.0130'
p406
asS'Vojtkul\xc3\x81kov\xc3\x81'
p407
(lp408
S'0.0002'
p409
asS'Ve\xc4\x8ce\xc5\x98\xc3\x8dkov\xc3\x81'
p410
(lp411
S'0.0001'
p412
asS'Vitej\xc4\x8ckov\xc3\x81'
p413
(lp414
S'0.0004'
p415
asS'Vijov\xc3\x81'
p416
(lp417
S'0.0001'
p418
asS'Vraj\xc3\x8dkov\xc3\x81'
p419
(lp420
S'0.0008'
p421
asS'Verd\xc3\x81nov\xc3\x81'
p422
(lp423
S'0.0003'
p424
asS'Vondrovsk\xc3\x81'
p425
(lp426
S'0.0010'
p427
asS'Vincikov\xc3\x81'
p428
(lp429
S'0.0009'
p430
asS'Vosi\xc4\x8ckov\xc3\x81'
p431
(lp432
S'0.0013'
p433
asS'Va\xc5\x87ouskov\xc3\x81'
p434
(lp435
S'0.0017'
p436
asS'Viktorinov\xc3\x81'
p437
(lp438
S'0.0104'
p439
asS'Vy\xc5\xa0teinov\xc3\x81'
p440
(lp441
S'0.0002'
p442
asS'Vojslavsk\xc3\x81'
p443
(lp444
S'0.0003'
p445
asS'Vod\xc4\x9arack\xc3\x81'
p446
(lp447
S'0.0001'
p448
asS'Vokolkov\xc3\x81'
p449
(lp450
S'0.0018'
p451
asS'Vilu\xc5\xa0\xc3\x8dnsk\xc3\x81'
p452
(lp453
S'0.0003'
p454
asS'Vr\xc3\x81belov\xc3\x81'
p455
(lp456
S'0.0062'
p457
asS'Vysypalov\xc3\x81'
p458
(lp459
S'0.0001'
p460
asS'Vtelensk\xc3\x81'
p461
(lp462
S'0.0010'
p463
asS'Vyhnalov\xc3\x81'
p464
(lp465
S'0.0062'
p466
asS'Vrb\xc3\x8d\xc4\x8ckov\xc3\x81'
p467
(lp468
S'0.0006'
p469
asS'Vagdalov\xc3\x81'
p470
(lp471
S'0.0002'
p472
asS'Vajmarov\xc3\x81'
p473
(lp474
S'0.0001'
p475
asS'Vyda\xc5\x98el\xc3\x81'
p476
(lp477
S'0.0004'
p478
asS'Vinterov\xc3\x81'
p479
(lp480
S'0.0060'
p481
asS'Valkonyov\xc3\x81'
p482
(lp483
S'0.0002'
p484
asS'Vyrutov\xc3\x81'
p485
(lp486
S'0.0003'
p487
asS'Vep\xc5\x98\xc3\x8dkov\xc3\x81'
p488
(lp489
S'0.0006'
p490
asS'Vojkovsk\xc3\x81'
p491
(lp492
S'0.0040'
p493
asS'Vitoslavsk\xc3\x81'
p494
(lp495
S'0.0012'
p496
asS'Vejborn\xc3\x81'
p497
(lp498
S'0.0008'
p499
asS'Vansov\xc3\x81'
p500
(lp501
S'0.0010'
p502
asS'Vittekov\xc3\x81'
p503
(lp504
S'0.0007'
p505
asS'Volaufov\xc3\x81'
p506
(lp507
S'0.0003'
p508
asS'Valhodov\xc3\x81'
p509
(lp510
S'0.0002'
p511
asS'Vondr\xc5\xae'
p512
(lp513
S'0.0009'
p514
asS'Vosti\xc5\x87\xc3\x81kov\xc3\x81'
p515
(lp516
S'0.0002'
p517
asS'Vochtov\xc3\x81'
p518
(lp519
S'0.0003'
p520
asS'Veko\xc5\x87ov\xc3\x81'
p521
(lp522
S'0.0005'
p523
asS'Vildungov\xc3\x81'
p524
(lp525
S'0.0001'
p526
asS'Vidunov\xc3\x81'
p527
(lp528
S'0.0007'
p529
asS'Vydra\xc5\x98ov\xc3\x81'
p530
(lp531
S'0.0001'
p532
asS'Vildtov\xc3\x81'
p533
(lp534
S'0.0003'
p535
asS'V\xc5\xae\xc4\x8ckov\xc3\x81'
p536
(lp537
S'0.0001'
p538
asS'V\xc3\x96lfelov\xc3\x81'
p539
(lp540
S'0.0002'
p541
asS'Vokrouhl\xc3\x8dkov\xc3\x81'
p542
(lp543
S'0.0019'
p544
asS'Valu\xc5\xa0ov\xc3\x81'
p545
(lp546
S'0.0017'
p547
asS'Va\xc5\x87outov\xc3\x81'
p548
(lp549
S'0.0002'
p550
asS'Vinc\xc3\x8dkov\xc3\x81'
p551
(lp552
S'0.0013'
p553
asS'Vaickornov\xc3\x81'
p554
(lp555
S'0.0002'
p556
asS'Vart\xc3\x81\xc5\xa0ov\xc3\x81'
p557
(lp558
S'0.0002'
p559
asS'Velov\xc3\x81'
p560
(lp561
S'0.0032'
p562
asS'Vogeltanzov\xc3\x81'
p563
(lp564
S'0.0033'
p565
asS'V\xc3\x81chov\xc3\x81'
p566
(lp567
S'0.0405'
p568
asS'Vodh\xc3\x81nilov\xc3\x81'
p569
(lp570
S'0.0001'
p571
asS'Vizingerov\xc3\x81'
p572
(lp573
S'0.0005'
p574
asS'Vykopalov\xc3\x81'
p575
(lp576
S'0.0044'
p577
asS'Vylamov\xc3\x81'
p578
(lp579
S'0.0001'
p580
asS'Vol\xc3\x8dnov\xc3\x81'
p581
(lp582
S'0.0021'
p583
asS'Vito\xc5\x87ov\xc3\x81'
p584
(lp585
S'0.0014'
p586
asS'Vaigertov\xc3\x81'
p587
(lp588
S'0.0001'
p589
asS'Vojasov\xc3\x81'
p590
(lp591
S'0.0001'
p592
asS'Vadlejchov\xc3\x81'
p593
(lp594
S'0.0021'
p595
asS'Venen\xc3\x81'
p596
(lp597
S'0.0006'
p598
asS'Viktorynov\xc3\x81'
p599
(lp600
S'0.0002'
p601
asS'Vaninov\xc3\x81'
p602
(lp603
S'0.0002'
p604
asS'Vrl\xc3\x8d\xc4\x8ckov\xc3\x81'
p605
(lp606
S'0.0003'
p607
asS'Va\xc5\x87urov\xc3\x81'
p608
(lp609
S'0.0046'
p610
asS'Verme\xc5\xa0ov\xc3\x81'
p611
(lp612
S'0.0003'
p613
asS'Vojt\xc3\x8d\xc5\xa0kov\xc3\x81'
p614
(lp615
S'0.0228'
p616
asS'Vejmol\xc3\x81kov\xc3\x81'
p617
(lp618
S'0.0001'
p619
asS'Vrbiniakov\xc3\x81'
p620
(lp621
S'0.0002'
p622
asS'Vitov\xc3\x81'
p623
(lp624
S'0.0007'
p625
asS'Va\xc5\xa0tov\xc3\x81'
p626
(lp627
S'0.0012'
p628
asS'V\xc3\x9dznerov\xc3\x81'
p629
(lp630
S'0.0001'
p631
asS'Vitkovsk\xc3\x81'
p632
(lp633
S'0.0003'
p634
asS'Veinholdov\xc3\x81'
p635
(lp636
S'0.0004'
p637
asS'V\xc4\x8culkov\xc3\x81'
p638
(lp639
S'0.0002'
p640
asS'Valentejov\xc3\x81'
p641
(lp642
S'0.0002'
p643
asS'Vocilkov\xc3\x81'
p644
(lp645
S'0.0011'
p646
asS'Vozarov\xc3\x81'
p647
(lp648
S'0.0007'
p649
asS'Vold\xc5\x98ichov\xc3\x81'
p650
(lp651
S'0.0096'
p652
asS'Vernerov\xc3\x81'
p653
(lp654
S'0.0314'
p655
asS'Veranov\xc3\x81'
p656
(lp657
S'0.0001'
p658
asS'Va\xc4\x8eurov\xc3\x81'
p659
(lp660
S'0.0049'
p661
asS'Vohn\xc3\x8dkov\xc3\x81'
p662
(lp663
S'0.0003'
p664
asS'Vithov\xc3\x81'
p665
(lp666
S'0.0022'
p667
asS'Valigur\xc4\x8cinov\xc3\x81'
p668
(lp669
S'0.0002'
p670
asS'Va\xc5\x87harkov\xc3\x81'
p671
(lp672
S'0.0001'
p673
asS'Vojt\xc3\x81\xc5\xa0kov\xc3\x81'
p674
(lp675
S'0.0023'
p676
asS'Vol\xc4\x8ckov\xc3\x81'
p677
(lp678
S'0.0003'
p679
asS'Vrublov\xc3\x81'
p680
(lp681
S'0.0050'
p682
asS'Vyrtel\xc3\x81\xc5\x98ov\xc3\x81'
p683
(lp684
S'0.0001'
p685
asS'Vidov\xc3\x81'
p686
(lp687
S'0.0026'
p688
asS'Vi\xc5\x87arsk\xc3\x81'
p689
(lp690
S'0.0001'
p691
asS'Valicov\xc3\x81'
p692
(lp693
S'0.0009'
p694
asS'Vol\xc5\xa0ansk\xc3\x81'
p695
(lp696
S'0.0008'
p697
asS'Vydl\xc3\x81kov\xc3\x81'
p698
(lp699
S'0.0008'
p700
asS'Vaindlov\xc3\x81'
p701
(lp702
S'0.0005'
p703
asS'Velack\xc3\x81'
p704
(lp705
S'0.0001'
p706
asS'Voplakalov\xc3\x81'
p707
(lp708
S'0.0018'
p709
asS'V\xc5\x90lklov\xc3\x81'
p710
(lp711
S'0.0004'
p712
asS'V\xc3\x81\xc5\x87ov\xc3\x81'
p713
(lp714
S'0.0664'
p715
asS'V\xc3\x8dzeck\xc3\x81'
p716
(lp717
S'0.0001'
p718
asS'Vojk\xc5\xaevkov\xc3\x81'
p719
(lp720
S'0.0077'
p721
asS'Videti\xc4\x8cov\xc3\x81'
p722
(lp723
S'0.0001'
p724
asS'V\xc3\x81lkov\xc3\x81'
p725
(lp726
S'0.0613'
p727
asS'Vincenciov\xc3\x81'
p728
(lp729
S'0.0005'
p730
asS'Vol\xc3\x81nkov\xc3\x81'
p731
(lp732
S'0.0019'
p733
asS'Valatov\xc3\x81'
p734
(lp735
S'0.0001'
p736
asS'Velendorfov\xc3\x81'
p737
(lp738
S'0.0005'
p739
asS'Vyhlidalov\xc3\x81'
p740
(lp741
S'0.0001'
p742
asS'Velcov\xc3\x81'
p743
(lp744
S'0.0036'
p745
asS'Vr\xc3\x81\xc5\xbdkov\xc3\x81'
p746
(lp747
S'0.0009'
p748
asS'Valinov\xc3\x81'
p749
(lp750
S'0.0012'
p751
asS'Vegrichtov\xc3\x81'
p752
(lp753
S'0.0020'
p754
asS'Vidanov\xc3\x81'
p755
(lp756
S'0.0001'
p757
asS'Vost\xc5\x98e\xc5\xbdansk\xc3\x81'
p758
(lp759
S'0.0002'
p760
asS'Voroninov\xc3\x81'
p761
(lp762
S'0.0002'
p763
asS'Vil\xc3\x8dmcov\xc3\x81'
p764
(lp765
S'0.0013'
p766
asS'Vohl\xc3\x8ddkov\xc3\x81'
p767
(lp768
S'0.0004'
p769
asS'Vitou\xc5\xa0ov\xc3\x81'
p770
(lp771
S'0.0052'
p772
asS'Valensk\xc3\x81'
p773
(lp774
S'0.0001'
p775
asS'Vavrikov\xc3\x81'
p776
(lp777
S'0.0003'
p778
asS'Vichov\xc3\x81'
p779
(lp780
S'0.0014'
p781
asS'Vincurov\xc3\x81'
p782
(lp783
S'0.0004'
p784
asS'V\xc3\x8dznerov\xc3\x81'
p785
(lp786
S'0.0062'
p787
asS'Valdrov\xc3\x81'
p788
(lp789
S'0.0004'
p790
asS'V\xc5\xa0ahov\xc3\x81'
p791
(lp792
S'0.0002'
p793
asS'V\xc4\x9antusov\xc3\x81'
p794
(lp795
S'0.0012'
p796
asS'Valendov\xc3\x81'
p797
(lp798
S'0.0005'
p799
asS'Vachutov\xc3\x81'
p800
(lp801
S'0.0007'
p802
asS'V\xc3\x89rte\xc5\xa0iov\xc3\x81'
p803
(lp804
S'0.0002'
p805
asS'Vejvodi\xc4\x8cov\xc3\x81'
p806
(lp807
S'0.0003'
p808
asS'Vyhl\xc3\x8ddkov\xc3\x81'
p809
(lp810
S'0.0024'
p811
asS'Vachulkov\xc3\x81'
p812
(lp813
S'0.0020'
p814
asS'Vainov\xc3\x81'
p815
(lp816
S'0.0002'
p817
asS'Vitmayerov\xc3\x81'
p818
(lp819
S'0.0001'
p820
asS'Vospilov\xc3\x81'
p821
(lp822
S'0.0002'
p823
asS'Vinckov\xc3\x81'
p824
(lp825
S'0.0003'
p826
asS'Vad\xc3\x8dnsk\xc3\x81'
p827
(lp828
S'0.0001'
p829
asS'Vo\xc5\xa0al\xc3\x8dkov\xc3\x81'
p830
(lp831
S'0.0007'
p832
asS'V\xc3\x81gnerov\xc3\x81'
p833
(lp834
S'0.0367'
p835
asS'Von\xc4\x8cokov\xc3\x81'
p836
(lp837
S'0.0001'
p838
asS'Va\xc4\xb9kov\xc3\x81'
p839
(lp840
S'0.0003'
p841
asS'Vosolsob\xc4\x9a'
p842
(lp843
S'0.0003'
p844
asS'Van\xc4\x9arkov\xc3\x81'
p845
(lp846
S'0.0027'
p847
asS'Vala\xc5\xa0ikov\xc3\x81'
p848
(lp849
S'0.0001'
p850
asS'Vr\xc3\x81b\xc3\x8dkov\xc3\x81'
p851
(lp852
S'0.0008'
p853
asS'V\xc5\x98e\xc5\xa0\xc5\xa4\xc3\x81lov\xc3\x81'
p854
(lp855
S'0.0007'
p856
asS'V\xc3\x9dstupov\xc3\x81'
p857
(lp858
S'0.0013'
p859
asS'Vin\xc5\xa0ov\xc3\x81'
p860
(lp861
S'0.0163'
p862
asS'Vilhemov\xc3\x81'
p863
(lp864
S'0.0001'
p865
asS'Vytvarov\xc3\x81'
p866
(lp867
S'0.0005'
p868
asS'Veruz\xc3\x81bov\xc3\x81'
p869
(lp870
S'0.0001'
p871
asS'Vandriakov\xc3\x81'
p872
(lp873
S'0.0002'
p874
asS'Vacherlohnov\xc3\x81'
p875
(lp876
S'0.0002'
p877
asS'Vasiliadisov\xc3\x81'
p878
(lp879
S'0.0002'
p880
asS'Val\xc3\x9achov\xc3\x81'
p881
(lp882
S'0.0005'
p883
asS'Vojt\xc3\x81kov\xc3\x81'
p884
(lp885
S'0.0001'
p886
asS'V\xc4\x9atrovsk\xc3\x81'
p887
(lp888
S'0.0082'
p889
asS'Veleck\xc3\x81'
p890
(lp891
S'0.0076'
p892
asS'Vl\xc4\x8cnovsk\xc3\x81'
p893
(lp894
S'0.0012'
p895
asS'Va\xc5\xa0kujov\xc3\x81'
p896
(lp897
S'0.0002'
p898
asS'Vodstr\xc4\x8cilov\xc3\x81'
p899
(lp900
S'0.0009'
p901
asS'Volkmannov\xc3\x81'
p902
(lp903
S'0.0007'
p904
asS'Vackeov\xc3\x81'
p905
(lp906
S'0.0002'
p907
asS'Viczenov\xc3\x81'
p908
(lp909
S'0.0001'
p910
asS'Volansk\xc3\x81'
p911
(lp912
S'0.0005'
p913
asS'Voljansk\xc3\x81'
p914
(lp915
S'0.0001'
p916
asS'Vizv\xc3\x81ryov\xc3\x81'
p917
(lp918
S'0.0004'
p919
asS'Venhauerov\xc3\x81'
p920
(lp921
S'0.0014'
p922
asS'V\xc3\x9dravsk\xc3\x81'
p923
(lp924
S'0.0005'
p925
asS'Volo\xc5\xa0\xc4\x8cukov\xc3\x81'
p926
(lp927
S'0.0002'
p928
asS'Valehrachov\xc3\x81'
p929
(lp930
S'0.0029'
p931
asS'Vla\xc5\xa0imsk\xc3\x81'
p932
(lp933
S'0.0001'
p934
asS'Vystr\xc4\x8ckov\xc3\x81'
p935
(lp936
S'0.0001'
p937
asS'Vidurov\xc3\x81'
p938
(lp939
S'0.0005'
p940
asS'Vre\xc5\xa0tiakov\xc3\x81'
p941
(lp942
S'0.0002'
p943
asS'Vychterov\xc3\x81'
p944
(lp945
S'0.0002'
p946
asS'Vilikusov\xc3\x81'
p947
(lp948
S'0.0001'
p949
asS'Vurbsov\xc3\x81'
p950
(lp951
S'0.0007'
p952
asS'V\xc3\x81v\xc5\x98ov\xc3\x81'
p953
(lp954
S'0.0003'
p955
asS'Vozkov\xc3\x81'
p956
(lp957
S'0.0053'
p958
asS'Vlah\xc3\x81kov\xc3\x81'
p959
(lp960
S'0.0001'
p961
asS'Vidrnov\xc3\x81'
p962
(lp963
S'0.0004'
p964
asS'V\xc3\x8dgov\xc3\x81'
p965
(lp966
S'0.0001'
p967
asS'Va\xc5\xa0t\xc3\x8dkov\xc3\x81'
p968
(lp969
S'0.0011'
p970
asS'Vostoupalov\xc3\x81'
p971
(lp972
S'0.0008'
p973
asS'Vrasty\xc3\x81kov\xc3\x81'
p974
(lp975
S'0.0002'
p976
asS'Voj\xc3\x81\xc4\x8ckov\xc3\x81'
p977
(lp978
S'0.0297'
p979
asS'Vignati'
p980
(lp981
S'0.0001'
p982
asS'V\xc3\x81brov\xc3\x81'
p983
(lp984
S'0.0001'
p985
asS'Valig\xc5\xaerov\xc3\x81'
p986
(lp987
S'0.0001'
p988
asS'Vysokom\xc3\x9dtsk\xc3\x81'
p989
(lp990
S'0.0003'
p991
asS'Vo\xc5\xbden\xc3\x8dlkov\xc3\x81'
p992
(lp993
S'0.0081'
p994
asS'Vnu\xc4\x8ckov\xc3\x81'
p995
(lp996
S'0.0005'
p997
asS'Vodse\xc4\x8e\xc3\x81lkov\xc3\x81'
p998
(lp999
S'0.0019'
p1000
asS'Vojc\xc3\x8dkov\xc3\x81'
p1001
(lp1002
S'0.0003'
p1003
asS'Vodochodsk\xc3\x81'
p1004
(lp1005
S'0.0013'
p1006
asS'Viznerov\xc3\x81'
p1007
(lp1008
S'0.0011'
p1009
asS'Varnava'
p1010
(lp1011
S'0.0001'
p1012
asS'Vardanov\xc3\x81'
p1013
(lp1014
S'0.0006'
p1015
asS'Vanerov\xc3\x81'
p1016
(lp1017
S'0.0012'
p1018
asS'Va\xc5\x87k\xc3\x81tov\xc3\x81'
p1019
(lp1020
S'0.0054'
p1021
asS'Veisl\xc3\x8dkov\xc3\x81'
p1022
(lp1023
S'0.0003'
p1024
asS'Vajtrov\xc3\x81'
p1025
(lp1026
S'0.0006'
p1027
asS'Vosmansk\xc3\x81'
p1028
(lp1029
S'0.0007'
p1030
asS'Velanov\xc3\x81'
p1031
(lp1032
S'0.0015'
p1033
asS'Vil\xc3\x81mov\xc3\x81'
p1034
(lp1035
S'0.0001'
p1036
asS'Va\xc5\xa0\xc3\x8dnkov\xc3\x81'
p1037
(lp1038
S'0.0003'
p1039
asS'Viletov\xc3\x81'
p1040
(lp1041
S'0.0007'
p1042
asS'Vildomcov\xc3\x81'
p1043
(lp1044
S'0.0013'
p1045
asS'Vr\xc3\x8d\xc4\x8canov\xc3\x81'
p1046
(lp1047
S'0.0004'
p1048
asS'Viewegov\xc3\x81'
p1049
(lp1050
S'0.0001'
p1051
asS'Vr\xc5\xa0ov\xc3\x81'
p1052
(lp1053
S'0.0002'
p1054
asS'Vr\xc5\xa0insk\xc3\x81'
p1055
(lp1056
S'0.0004'
p1057
asS'Vzatkov\xc3\x81'
p1058
(lp1059
S'0.0004'
p1060
asS'Valsov\xc3\x81'
p1061
(lp1062
S'0.0024'
p1063
asS'Vadinov\xc3\x81'
p1064
(lp1065
S'0.0001'
p1066
asS'Viko\xc5\x87ov\xc3\x81'
p1067
(lp1068
S'0.0005'
p1069
asS'V\xc3\x8dt\xc5\xaevov\xc3\x81'
p1070
(lp1071
S'0.0001'
p1072
asS'Vosla\xc5\x98ov\xc3\x81'
p1073
(lp1074
S'0.0011'
p1075
asS'Vokr\xc3\x81\xc4\x8ckov\xc3\x81'
p1076
(lp1077
S'0.0007'
p1078
asS'Vondra\xc5\xa0ov\xc3\x81'
p1079
(lp1080
S'0.0022'
p1081
asS'Vop\xc5\x98adov\xc3\x81'
p1082
(lp1083
S'0.0004'
p1084
asS'Votradovcov\xc3\x81'
p1085
(lp1086
S'0.0001'
p1087
asS'Val\xc5\xaechov\xc3\x81'
p1088
(lp1089
S'0.0002'
p1090
asS'V\xc3\x9ddov\xc3\x81'
p1091
(lp1092
S'0.0003'
p1093
asS'Vasilovsk\xc3\x81'
p1094
(lp1095
S'0.0001'
p1096
asS'Vokn\xc4\x9arov\xc3\x81'
p1097
(lp1098
S'0.0008'
p1099
asS'Varmu\xc5\xbdov\xc3\x81'
p1100
(lp1101
S'0.0073'
p1102
asS'Vopr\xc5\xa0alov\xc3\x81'
p1103
(lp1104
S'0.0017'
p1105
asS'Vaterov\xc3\x81'
p1106
(lp1107
S'0.0002'
p1108
asS'Voli\xc4\x8cov\xc3\x81'
p1109
(lp1110
S'0.0001'
p1111
asS'Va\xc5\xa0\xc3\x81tkov\xc3\x81'
p1112
(lp1113
S'0.0057'
p1114
asS'Vola\xc5\x98\xc3\x8dkov\xc3\x81'
p1115
(lp1116
S'0.0014'
p1117
asS'Vuj\xc4\x8c\xc3\x8dkov\xc3\x81'
p1118
(lp1119
S'0.0001'
p1120
asS'Vistrov\xc3\x81'
p1121
(lp1122
S'0.0002'
p1123
asS'Vy\xc5\xbd\xc4\x8eurov\xc3\x81'
p1124
(lp1125
S'0.0005'
p1126
asS'Venusov\xc3\x81'
p1127
(lp1128
S'0.0005'
p1129
asS'Vetr\xc3\x8dkov\xc3\x81'
p1130
(lp1131
S'0.0001'
p1132
asS'Vitekov\xc3\x81'
p1133
(lp1134
S'0.0002'
p1135
asS'Videck\xc3\x81'
p1136
(lp1137
S'0.0017'
p1138
asS'Voln\xc3\x8dkov\xc3\x81'
p1139
(lp1140
S'0.0003'
p1141
asS'Venerov\xc3\x81'
p1142
(lp1143
S'0.0022'
p1144
asS'Vav\xc5\x98\xc3\x8dnov\xc3\x81'
p1145
(lp1146
S'0.0077'
p1147
asS'Vr\xc3\x81\xc5\xbdelov\xc3\x81'
p1148
(lp1149
S'0.0037'
p1150
asS'Viziblov\xc3\x81'
p1151
(lp1152
S'0.0001'
p1153
asS'Vnenkov\xc3\x81'
p1154
(lp1155
S'0.0015'
p1156
asS'Vyternov\xc3\x81'
p1157
(lp1158
S'0.0004'
p1159
asS'Vojti\xc5\xa0kov\xc3\x81'
p1160
(lp1161
S'0.0002'
p1162
asS'V\xc3\x8dt\xc4\x9azov\xc3\x81'
p1163
(lp1164
S'0.0002'
p1165
asS'Vacherlonov\xc3\x81'
p1166
(lp1167
S'0.0002'
p1168
asS'Viselkov\xc3\x81'
p1169
(lp1170
S'0.0001'
p1171
asS'Vom\xc3\x81\xc4\x8ckov\xc3\x81'
p1172
(lp1173
S'0.0121'
p1174
asS'Verb\xc3\x8d\xc5\x98ov\xc3\x81'
p1175
(lp1176
S'0.0004'
p1177
asS'Vend\xc3\x89gov\xc3\x81'
p1178
(lp1179
S'0.0002'
p1180
asS'Vytasilov\xc3\x81'
p1181
(lp1182
S'0.0007'
p1183
asS'Volankov\xc3\x81'
p1184
(lp1185
S'0.0002'
p1186
asS'Venturov\xc3\x81'
p1187
(lp1188
S'0.0020'
p1189
asS'Vikto\xc5\x98\xc3\x8dkov\xc3\x81'
p1190
(lp1191
S'0.0010'
p1192
asS'Vil\xc3\x8dmkov\xc3\x81'
p1193
(lp1194
S'0.0161'
p1195
asS'Viazanicov\xc3\x81'
p1196
(lp1197
S'0.0001'
p1198
asS'Vykrentov\xc3\x81'
p1199
(lp1200
S'0.0002'
p1201
asS'Vitovj\xc3\x81kov\xc3\x81'
p1202
(lp1203
S'0.0004'
p1204
asS'Vatov\xc3\x81'
p1205
(lp1206
S'0.0001'
p1207
asS'Vi\xc5\xa0\xc5\x87ovsk\xc3\x81'
p1208
(lp1209
S'0.0021'
p1210
asS'Vejdovcov\xc3\x81'
p1211
(lp1212
S'0.0004'
p1213
asS'Vozankov\xc3\x81'
p1214
(lp1215
S'0.0002'
p1216
asS'Vagalov\xc3\x81'
p1217
(lp1218
S'0.0002'
p1219
asS'Vajchartov\xc3\x81'
p1220
(lp1221
S'0.0001'
p1222
asS'Votlu\xc4\x8ckov\xc3\x81'
p1223
(lp1224
S'0.0008'
p1225
asS'Veru\xc5\x87\xc3\x81kov\xc3\x81'
p1226
(lp1227
S'0.0002'
p1228
asS'V\xc3\x8dtkovi\xc4\x8cov\xc3\x81'
p1229
(lp1230
S'0.0005'
p1231
asS'Vejmanov\xc3\x81'
p1232
(lp1233
S'0.0004'
p1234
asS'Vintikov\xc3\x81'
p1235
(lp1236
S'0.0002'
p1237
asS'Vackovcov\xc3\x81'
p1238
(lp1239
S'0.0001'
p1240
asS'Ver\xc5\xa0eck\xc3\x81'
p1241
(lp1242
S'0.0002'
p1243
asS'Vodr\xc3\x81\xc5\xa0kov\xc3\x81'
p1244
(lp1245
S'0.0003'
p1246
asS'Vlkovi\xc4\x8cov\xc3\x81'
p1247
(lp1248
S'0.0003'
p1249
asS'Vejskalov\xc3\x81'
p1250
(lp1251
S'0.0019'
p1252
asS'Vara\xc4\x8eov\xc3\x81'
p1253
(lp1254
S'0.0017'
p1255
asS'Vjaterov\xc3\x81'
p1256
(lp1257
S'0.0003'
p1258
asS'Vajdiakov\xc3\x81'
p1259
(lp1260
S'0.0002'
p1261
asS'Va\xc5\x87\xc3\x81\xc4\x8ckov\xc3\x81'
p1262
(lp1263
S'0.0014'
p1264
asS'Venglo\xc5\xa0ov\xc3\x81'
p1265
(lp1266
S'0.0001'
p1267
asS'Vukovi\xc4\x8cov\xc3\x81'
p1268
(lp1269
S'0.0001'
p1270
asS'Vajnlichov\xc3\x81'
p1271
(lp1272
S'0.0003'
p1273
asS'Vaczulkov\xc3\x81'
p1274
(lp1275
S'0.0001'
p1276
asS'Vidla\xc5\x98ov\xc3\x81'
p1277
(lp1278
S'0.0004'
p1279
asS'V\xc5\xa0et\xc3\x8d\xc4\x8ckov\xc3\x81'
p1280
(lp1281
S'0.0009'
p1282
asS'Vasi\xc4\xbdkov\xc3\x81'
p1283
(lp1284
S'0.0001'
p1285
asS'Vo\xc5\xa0ahl\xc3\x8dkov\xc3\x81'
p1286
(lp1287
S'0.0055'
p1288
asS'V\xc4\x8cela\xc5\x98\xc3\x8dkov\xc3\x81'
p1289
(lp1290
S'0.0005'
p1291
asS'Vichtov\xc3\x81'
p1292
(lp1293
S'0.0021'
p1294
asS'Vreckov\xc3\x81'
p1295
(lp1296
S'0.0005'
p1297
asS'Vundrov\xc3\x81'
p1298
(lp1299
S'0.0002'
p1300
asS'Vu'
p1301
(lp1302
S'0.0003'
p1303
asS'Vajzrov\xc3\x81'
p1304
(lp1305
S'0.0001'
p1306
asS'V\xc3\x8ddensk\xc3\x81'
p1307
(lp1308
S'0.0016'
p1309
asS'Vali\xc5\xa0kov\xc3\x81'
p1310
(lp1311
S'0.0006'
p1312
asS'Vosl\xc3\x81\xc4\x8ckov\xc3\x81'
p1313
(lp1314
S'0.0001'
p1315
asS'Vorlovsk\xc3\x81'
p1316
(lp1317
S'0.0002'
p1318
asS'Vronov\xc3\x81'
p1319
(lp1320
S'0.0002'
p1321
asS'Vy\xc5\xa0\xc3\x8dnov\xc3\x81'
p1322
(lp1323
S'0.0045'
p1324
asS'Vrko\xc4\x8cov\xc3\x81'
p1325
(lp1326
S'0.0043'
p1327
asS'Vosmekov\xc3\x81'
p1328
(lp1329
S'0.0011'
p1330
asS'Voloveck\xc3\x81'
p1331
(lp1332
S'0.0003'
p1333
asS'Vodinsk\xc3\x81'
p1334
(lp1335
S'0.0005'
p1336
asS'Vra\xc5\xa0tilov\xc3\x81'
p1337
(lp1338
S'0.0039'
p1339
asS'V\xc3\x96lflov\xc3\x81'
p1340
(lp1341
S'0.0006'
p1342
asS'Vognarov\xc3\x81'
p1343
(lp1344
S'0.0014'
p1345
asS'Vlkanov\xc3\x81'
p1346
(lp1347
S'0.0002'
p1348
asS'Voborn\xc3\x81'
p1349
(lp1350
S'0.0031'
p1351
asS'Va\xc4\x8e\xc3\x81kov\xc3\x81'
p1352
(lp1353
S'0.0001'
p1354
asS'Vymazalov\xc3\x81'
p1355
(lp1356
S'0.0162'
p1357
asS'Ve\xc5\xa0krnov\xc3\x81'
p1358
(lp1359
S'0.0032'
p1360
asS'Vitnerov\xc3\x81'
p1361
(lp1362
S'0.0040'
p1363
asS'Vack\xc3\x81'
p1364
(lp1365
S'0.0001'
p1366
asS'Vra\xc5\x87\xc3\x81kov\xc3\x81'
p1367
(lp1368
S'0.0002'
p1369
asS'Valarikov\xc3\x81'
p1370
(lp1371
S'0.0001'
p1372
asS'Vajsov\xc3\x81'
p1373
(lp1374
S'0.0026'
p1375
asS'Van\xc3\x8d\xc4\x8cek'
p1376
(lp1377
S'0.0001'
p1378
asS'Vomelov\xc3\x81'
p1379
(lp1380
S'0.0048'
p1381
asS'Vychop\xc5\x87ov\xc3\x81'
p1382
(lp1383
S'0.0013'
p1384
asS'V\xc3\x81ni\xc5\xa0ov\xc3\x81'
p1385
(lp1386
S'0.0007'
p1387
asS'Vokra\xc4\x8ckov\xc3\x81'
p1388
(lp1389
S'0.0001'
p1390
asS'Voh\xc3\x81nkov\xc3\x81'
p1391
(lp1392
S'0.0026'
p1393
asS'Vovre\xc4\x8ckov\xc3\x81'
p1394
(lp1395
S'0.0001'
p1396
asS'V\xc4\x8celn\xc3\x81'
p1397
(lp1398
S'0.0008'
p1399
asS'Vybulkov\xc3\x81'
p1400
(lp1401
S'0.0005'
p1402
asS'Vi\xc5\xa0n\xc4\x9avsk\xc3\x81'
p1403
(lp1404
S'0.0002'
p1405
asS'Vy\xc5\xa0lanov\xc3\x81'
p1406
(lp1407
S'0.0002'
p1408
asS'Vainertov\xc3\x81'
p1409
(lp1410
S'0.0002'
p1411
asS'V\xc3\x81clav\xc4\x8c\xc3\x8dkov\xc3\x81'
p1412
(lp1413
S'0.0001'
p1414
asS'Vlna\xc5\x98ov\xc3\x81'
p1415
(lp1416
S'0.0005'
p1417
asS'Vrtalov\xc3\x81'
p1418
(lp1419
S'0.0064'
p1420
asS'Vr\xc5\xa0ansk\xc3\x81'
p1421
(lp1422
S'0.0009'
p1423
asS'Vajdi\xc5\xa0ov\xc3\x81'
p1424
(lp1425
S'0.0003'
p1426
asS'Versbachov\xc3\x81'
p1427
(lp1428
S'0.0001'
p1429
asS'Vacenovsk\xc3\x81'
p1430
(lp1431
S'0.0022'
p1432
asS'Vav\xc5\x98inkov\xc3\x81'
p1433
(lp1434
S'0.0006'
p1435
asS'Vaisocherov\xc3\x81'
p1436
(lp1437
S'0.0002'
p1438
asS'Veithov\xc3\x81'
p1439
(lp1440
S'0.0025'
p1441
asS'V\xc3\x81mo\xc5\xa0ov\xc3\x81'
p1442
(lp1443
S'0.0004'
p1444
asS'Vyrostekov\xc3\x81'
p1445
(lp1446
S'0.0001'
p1447
asS'Voplatkov\xc3\x81'
p1448
(lp1449
S'0.0004'
p1450
asS'Vaverkov\xc3\x81'
p1451
(lp1452
S'0.0137'
p1453
asS'V\xc4\x8celi\xc5\xa0ov\xc3\x81'
p1454
(lp1455
S'0.0015'
p1456
asS'Vizv\xc3\x81riov\xc3\x81'
p1457
(lp1458
S'0.0003'
p1459
asS'Volekov\xc3\x81'
p1460
(lp1461
S'0.0001'
p1462
asS'Vadj\xc3\x81kov\xc3\x81'
p1463
(lp1464
S'0.0001'
p1465
asS'V\xc3\x9dplachov\xc3\x81'
p1466
(lp1467
S'0.0004'
p1468
asS'Vol\xc5\xa0ov\xc3\x81'
p1469
(lp1470
S'0.0009'
p1471
asS'Vy\xc5\xa0kovsk\xc3\x81'
p1472
(lp1473
S'0.0022'
p1474
asS'Vere\xc5\xa0\xc4\x8c\xc3\x81kov\xc3\x81'
p1475
(lp1476
S'0.0003'
p1477
asS'Vogri\xc4\x8cov\xc3\x81'
p1478
(lp1479
S'0.0001'
p1480
asS'Vla\xc5\xa0an\xc3\x81'
p1481
(lp1482
S'0.0002'
p1483
asS'V\xc3\x8dt\xc4\x9azn\xc3\x8dkov\xc3\x81'
p1484
(lp1485
S'0.0001'
p1486
asS'Vajd\xc3\x81kov\xc3\x81'
p1487
(lp1488
S'0.0012'
p1489
asS'Varlamovi\xc4\x8cov\xc3\x81'
p1490
(lp1491
S'0.0001'
p1492
asS'Valent\xc3\x8dny'
p1493
(lp1494
S'0.0001'
p1495
asS'Vary\xc5\xa0ov\xc3\x81'
p1496
(lp1497
S'0.0029'
p1498
asS'Vy\xc5\xa0tajnov\xc3\x81'
p1499
(lp1500
S'0.0001'
p1501
asS'Vykusov\xc3\x81'
p1502
(lp1503
S'0.0011'
p1504
asS'Ve\xc5\xa0icov\xc3\x81'
p1505
(lp1506
S'0.0001'
p1507
asS'Vohl\xc3\x8ddalov\xc3\x81'
p1508
(lp1509
S'0.0011'
p1510
asS'Vincourov\xc3\x81'
p1511
(lp1512
S'0.0022'
p1513
asS'Vi\xc5\xa0\xc3\x8dnov\xc3\x81'
p1514
(lp1515
S'0.0003'
p1516
asS'Vintrl\xc3\x8dkov\xc3\x81'
p1517
(lp1518
S'0.0036'
p1519
asS'Valikov\xc3\x81'
p1520
(lp1521
S'0.0001'
p1522
asS'Vollinov\xc3\x81'
p1523
(lp1524
S'0.0001'
p1525
asS'Viererov\xc3\x81'
p1526
(lp1527
S'0.0002'
p1528
asS'Valkov\xc3\x81'
p1529
(lp1530
S'0.0059'
p1531
asS'Valkusov\xc3\x81'
p1532
(lp1533
S'0.0002'
p1534
asS'Vairichov\xc3\x81'
p1535
(lp1536
S'0.0001'
p1537
asS'Vrt\xc3\x81lkov\xc3\x81'
p1538
(lp1539
S'0.0001'
p1540
asS'Vykrutov\xc3\x81'
p1541
(lp1542
S'0.0002'
p1543
asS'Vr\xc3\x9abelov\xc3\x81'
p1544
(lp1545
S'0.0001'
p1546
asS'Vac\xc3\x8dnov\xc3\x81'
p1547
(lp1548
S'0.0012'
p1549
asS'Valal\xc3\x8dkov\xc3\x81'
p1550
(lp1551
S'0.0001'
p1552
asS'Vi\xc5\xa0\xc5\x87ansk\xc3\x81'
p1553
(lp1554
S'0.0001'
p1555
asS'Vaj\xc4\x8cnerov\xc3\x81'
p1556
(lp1557
S'0.0032'
p1558
asS'Vykydalov\xc3\x81'
p1559
(lp1560
S'0.0134'
p1561
asS'Vejplachov\xc3\x81'
p1562
(lp1563
S'0.0005'
p1564
asS'Vavrejnov\xc3\x81'
p1565
(lp1566
S'0.0002'
p1567
asS'Vichrov\xc3\x81'
p1568
(lp1569
S'0.0055'
p1570
asS'Valsk\xc3\x81'
p1571
(lp1572
S'0.0008'
p1573
asS'Val\xc4\x8c\xc3\x81kov\xc3\x81'
p1574
(lp1575
S'0.0008'
p1576
asS'Vagenknechtov\xc3\x81'
p1577
(lp1578
S'0.0027'
p1579
asS'Vrti\xc5\xa0kov\xc3\x81'
p1580
(lp1581
S'0.0039'
p1582
asS'Vimerov\xc3\x81'
p1583
(lp1584
S'0.0005'
p1585
asS'Velcerov\xc3\x81'
p1586
(lp1587
S'0.0003'
p1588
asS'Vinterl\xc3\x8dkov\xc3\x81'
p1589
(lp1590
S'0.0007'
p1591
asS'Vi\xc4\x8c\xc3\x81nkov\xc3\x81'
p1592
(lp1593
S'0.0016'
p1594
asS'Vlachovsk\xc3\x81'
p1595
(lp1596
S'0.0021'
p1597
asS'Vidmanov\xc3\x81'
p1598
(lp1599
S'0.0006'
p1600
asS'Vitovsk\xc3\x81'
p1601
(lp1602
S'0.0018'
p1603
asS'Vete\xc4\x8cn\xc3\x8dkov\xc3\x81'
p1604
(lp1605
S'0.0002'
p1606
asS'Voblizov\xc3\x81'
p1607
(lp1608
S'0.0001'
p1609
asS'Vrti\xc5\xa0ov\xc3\x81'
p1610
(lp1611
S'0.0004'
p1612
asS'Vo\xc5\xa0tov\xc3\x81'
p1613
(lp1614
S'0.0035'
p1615
asS'Vil\xc3\x81\xc5\xa0kov\xc3\x81'
p1616
(lp1617
S'0.0033'
p1618
asS'Vondru\xc5\xa0ov\xc3\x81'
p1619
(lp1620
S'0.0018'
p1621
asS'Vir\xc3\x81gov\xc3\x81'
p1622
(lp1623
S'0.0051'
p1624
asS'Vrbi\xc4\x8canov\xc3\x81'
p1625
(lp1626
S'0.0001'
p1627
asS'Vonostr\xc3\x81nsk\xc3\x81'
p1628
(lp1629
S'0.0006'
p1630
asS'Vra\xc5\xbdinov\xc3\x81'
p1631
(lp1632
S'0.0002'
p1633
asS'Vr\xc5\xa0atov\xc3\x81'
p1634
(lp1635
S'0.0006'
p1636
asS'V\xc3\x8dzdalov\xc3\x81'
p1637
(lp1638
S'0.0011'
p1639
asS'Veicherov\xc3\x81'
p1640
(lp1641
S'0.0001'
p1642
asS'Virakov\xc3\x81'
p1643
(lp1644
S'0.0001'
p1645
asS'Vahan\xc4\x8c\xc3\x8dkov\xc3\x81'
p1646
(lp1647
S'0.0001'
p1648
asS'Vlnkov\xc3\x81'
p1649
(lp1650
S'0.0001'
p1651
asS'Va\xc5\xa0\xc3\x8d\xc4\x8ckov\xc3\x81'
p1652
(lp1653
S'0.0574'
p1654
asS'Volkmerov\xc3\x81'
p1655
(lp1656
S'0.0013'
p1657
asS'Vykysal\xc3\x81'
p1658
(lp1659
S'0.0017'
p1660
asS'Va\xc5\xa0ko'
p1661
(lp1662
S'0.0001'
p1663
asS'Vern\xc3\x8d\xc4\x8ckov\xc3\x81'
p1664
(lp1665
S'0.0001'
p1666
asS'Vojen\xc4\x8ciakov\xc3\x81'
p1667
(lp1668
S'0.0002'
p1669
asS'Virkovsk\xc3\x81'
p1670
(lp1671
S'0.0001'
p1672
asS'V\xc3\x81clachov\xc3\x81'
p1673
(lp1674
S'0.0001'
p1675
asS'Vom\xc5\xbdilov\xc3\x81'
p1676
(lp1677
S'0.0001'
p1678
asS'Volbrechtov\xc3\x81'
p1679
(lp1680
S'0.0002'
p1681
asS'Vitiskov\xc3\x81'
p1682
(lp1683
S'0.0003'
p1684
asS'Valachov\xc3\x81'
p1685
(lp1686
S'0.0133'
p1687
asS'Vlodarczykov\xc3\x81'
p1688
(lp1689
S'0.0001'
p1690
asS'Vackov\xc3\x81'
p1691
(lp1692
S'0.0987'
p1693
asS'Veckov\xc3\x81'
p1694
(lp1695
S'0.0054'
p1696
asS'Vabrou\xc5\xa0kov\xc3\x81'
p1697
(lp1698
S'0.0007'
p1699
asS'Vylimcov\xc3\x81'
p1700
(lp1701
S'0.0003'
p1702
asS'Volkov\xc3\x81'
p1703
(lp1704
S'0.0243'
p1705
asS'Verteti\xc4\x8cov\xc3\x81'
p1706
(lp1707
S'0.0001'
p1708
asS'V\xc3\x89berov\xc3\x81'
p1709
(lp1710
S'0.0003'
p1711
asS'Vetterov\xc3\x81'
p1712
(lp1713
S'0.0003'
p1714
asS'Voberov\xc3\x81'
p1715
(lp1716
S'0.0002'
p1717
asS'Vatterov\xc3\x81'
p1718
(lp1719
S'0.0005'
p1720
asS'Voharkov\xc3\x81'
p1721
(lp1722
S'0.0001'
p1723
asS'Va\xc5\xa0\xc5\xa0ov\xc3\x81'
p1724
(lp1725
S'0.0003'
p1726
asS'Voronov\xc3\x81'
p1727
(lp1728
S'0.0002'
p1729
asS'Vollerov\xc3\x81'
p1730
(lp1731
S'0.0001'
p1732
asS'Vo\xc4\x8celukov\xc3\x81'
p1733
(lp1734
S'0.0002'
p1735
asS'Velochov\xc3\x81'
p1736
(lp1737
S'0.0003'
p1738
asS'Vostradovsk\xc3\x81'
p1739
(lp1740
S'0.0013'
p1741
asS'V\xc3\x81\xc5\xbdanov\xc3\x81'
p1742
(lp1743
S'0.0007'
p1744
asS'Vanick\xc3\x81'
p1745
(lp1746
S'0.0044'
p1747
asS'Velasov\xc3\x81'
p1748
(lp1749
S'0.0013'
p1750
asS'V\xc3\x9dkrutov\xc3\x81'
p1751
(lp1752
S'0.0009'
p1753
asS'Vo\xc5\xa0tinkov\xc3\x81'
p1754
(lp1755
S'0.0002'
p1756
asS'Vachatov\xc3\x81'
p1757
(lp1758
S'0.0014'
p1759
asS'Vaculn\xc3\x81'
p1760
(lp1761
S'0.0001'
p1762
asS'Ve\xc4\x8ce\xc5\x98ov\xc3\x81'
p1763
(lp1764
S'0.0496'
p1765
asS'Vr\xc3\x81bl\xc3\x8dkov\xc3\x81'
p1766
(lp1767
S'0.0076'
p1768
asS'Vasiliakov\xc3\x81'
p1769
(lp1770
S'0.0002'
p1771
asS'V\xc3\x8dghov\xc3\x81'
p1772
(lp1773
S'0.0004'
p1774
asS'Voltrov\xc3\x81'
p1775
(lp1776
S'0.0055'
p1777
asS'Vlasov\xc3\x81'
p1778
(lp1779
S'0.0026'
p1780
asS'Vojt\xc4\x9achov\xc3\x81'
p1781
(lp1782
S'0.0262'
p1783
asS'Vrben\xc3\x8dkov\xc3\x81'
p1784
(lp1785
S'0.0003'
p1786
asS'Vachkov\xc3\x81'
p1787
(lp1788
S'0.0040'
p1789
asS'Veinlichov\xc3\x81'
p1790
(lp1791
S'0.0007'
p1792
asS'Veisov\xc3\x81'
p1793
(lp1794
S'0.0029'
p1795
asS'Vyrtychov\xc3\x81'
p1796
(lp1797
S'0.0002'
p1798
asS'Vi\xc5\xa0nievsk\xc3\x81'
p1799
(lp1800
S'0.0001'
p1801
asS'Va\xc5\x87asov\xc3\x81'
p1802
(lp1803
S'0.0005'
p1804
asS'Vejrostkov\xc3\x81'
p1805
(lp1806
S'0.0007'
p1807
asS'Vil\xc3\x8dmovsk\xc3\x81'
p1808
(lp1809
S'0.0016'
p1810
asS'Vyzr\xc3\x81lov\xc3\x81'
p1811
(lp1812
S'0.0002'
p1813
asS'Vegnerov\xc3\x81'
p1814
(lp1815
S'0.0019'
p1816
asS'Vocho\xc4\x8cov\xc3\x81'
p1817
(lp1818
S'0.0001'
p1819
asS'Va\xc4\x8cviricov\xc3\x81'
p1820
(lp1821
S'0.0001'
p1822
asS'Valentini'
p1823
(lp1824
S'0.0001'
p1825
asS'Vejsadov\xc3\x81'
p1826
(lp1827
S'0.0035'
p1828
asS'Va\xc5\xa0muciusov\xc3\x81'
p1829
(lp1830
S'0.0006'
p1831
asS'Vormov\xc3\x81'
p1832
(lp1833
S'0.0003'
p1834
asS'Vrabkov\xc3\x81'
p1835
(lp1836
S'0.0003'
p1837
asS'Viti\xc5\xa0ov\xc3\x81'
p1838
(lp1839
S'0.0004'
p1840
asS'Vostatkov\xc3\x81'
p1841
(lp1842
S'0.0032'
p1843
asS'Valigov\xc3\x81'
p1844
(lp1845
S'0.0003'
p1846
asS'Vyplelov\xc3\x81'
p1847
(lp1848
S'0.0013'
p1849
asS'Vinc\xc3\x9arov\xc3\x81'
p1850
(lp1851
S'0.0001'
p1852
asS'Vali\xc5\xa0ov\xc3\x81'
p1853
(lp1854
S'0.0124'
p1855
asS'Valent\xc3\x8dkov\xc3\x81'
p1856
(lp1857
S'0.0021'
p1858
asS'Vr\xc3\x81nkov\xc3\x81'
p1859
(lp1860
S'0.0070'
p1861
asS'Varva\xc5\xbdovsk\xc3\x81'
p1862
(lp1863
S'0.0004'
p1864
asS'Va\xc5\x87\xc3\x81skov\xc3\x81'
p1865
(lp1866
S'0.0054'
p1867
asS'Viziov\xc3\x81'
p1868
(lp1869
S'0.0002'
p1870
asS'Voroni\xc4\x8cov\xc3\x81'
p1871
(lp1872
S'0.0001'
p1873
asS'Vyh\xc5\x87\xc3\x81kov\xc3\x81'
p1874
(lp1875
S'0.0028'
p1876
asS'Vacov\xc3\x81'
p1877
(lp1878
S'0.0028'
p1879
asS'Vavr\xc3\x9d\xc4\x8ckov\xc3\x81'
p1880
(lp1881
S'0.0001'
p1882
asS'Valihrachov\xc3\x81'
p1883
(lp1884
S'0.0019'
p1885
asS'Vagounov\xc3\x81'
p1886
(lp1887
S'0.0002'
p1888
asS'Veiglerov\xc3\x81'
p1889
(lp1890
S'0.0001'
p1891
asS'Vorlov\xc3\x81'
p1892
(lp1893
S'0.0222'
p1894
asS'Vlahov\xc3\x81'
p1895
(lp1896
S'0.0006'
p1897
asS'Vilko\xc5\xa0ov\xc3\x81'
p1898
(lp1899
S'0.0002'
p1900
asS'Van\xc4\x8c\xc3\x81kov\xc3\x81'
p1901
(lp1902
S'0.0009'
p1903
asS'Vac\xc3\x81tkov\xc3\x81'
p1904
(lp1905
S'0.0018'
p1906
asS'Vojnikov\xc3\x81'
p1907
(lp1908
S'0.0001'
p1909
asS'V\xc4\x8celouchov\xc3\x81'
p1910
(lp1911
S'0.0002'
p1912
asS'Vejtrubov\xc3\x81'
p1913
(lp1914
S'0.0017'
p1915
asS'V\xc4\x9anckov\xc3\x81'
p1916
(lp1917
S'0.0004'
p1918
asS'V\xc3\x8dtochov\xc3\x81'
p1919
(lp1920
S'0.0003'
p1921
asS'Val\xc3\x8dkov\xc3\x81'
p1922
(lp1923
S'0.0073'
p1924
asS'Vegerov\xc3\x81'
p1925
(lp1926
S'0.0003'
p1927
asS'Vozd\xc4\x9akov\xc3\x81'
p1928
(lp1929
S'0.0002'
p1930
asS'Vel\xc3\x8dmov\xc3\x81'
p1931
(lp1932
S'0.0006'
p1933
asS'Vo\xc5\xbdniakov\xc3\x81'
p1934
(lp1935
S'0.0001'
p1936
asS'Vobr\xc3\x81tilov\xc3\x81'
p1937
(lp1938
S'0.0005'
p1939
asS'Vajsarov\xc3\x81'
p1940
(lp1941
S'0.0021'
p1942
asS'Volencov\xc3\x81'
p1943
(lp1944
S'0.0044'
p1945
asS'Vengl\xc3\x81\xc5\x98ov\xc3\x81'
p1946
(lp1947
S'0.0029'
p1948
asS'Vel\xc3\x8dskov\xc3\x81'
p1949
(lp1950
S'0.0022'
p1951
asS'Velkovov\xc3\x81'
p1952
(lp1953
S'0.0002'
p1954
asS'Verwalterov\xc3\x81'
p1955
(lp1956
S'0.0001'
p1957
asS'Vendi\xc5\xa0ov\xc3\x81'
p1958
(lp1959
S'0.0002'
p1960
asS'Velevov\xc3\x81'
p1961
(lp1962
S'0.0002'
p1963
asS'Voceov\xc3\x81'
p1964
(lp1965
S'0.0002'
p1966
asS'Vako\xc4\x8cov\xc3\x81'
p1967
(lp1968
S'0.0003'
p1969
asS'Vav\xc5\x98\xc3\x8dnkov\xc3\x81'
p1970
(lp1971
S'0.0036'
p1972
asS'Vailichov\xc3\x81'
p1973
(lp1974
S'0.0001'
p1975
asS'Valenov\xc3\x81'
p1976
(lp1977
S'0.0032'
p1978
asS'V\xc4\x8cel\xc3\x81kov\xc3\x81'
p1979
(lp1980
S'0.0042'
p1981
asS'Vosl\xc3\x81\xc5\x98ov\xc3\x81'
p1982
(lp1983
S'0.0016'
p1984
asS'Vilhelmov\xc3\x81'
p1985
(lp1986
S'0.0027'
p1987
asS'Vontszem\xc5\xb0ov\xc3\x81'
p1988
(lp1989
S'0.0002'
p1990
asS'Va\xc5\xa0kov\xc3\x81'
p1991
(lp1992
S'0.0555'
p1993
asS'Vavrouchov\xc3\x81'
p1994
(lp1995
S'0.0011'
p1996
asS'V\xc5\x90r\xc5\x90\xc5\xa0ov\xc3\x81'
p1997
(lp1998
S'0.0002'
p1999
asS'Virglov\xc3\x81'
p2000
(lp2001
S'0.0016'
p2002
asS'Va\xc5\xa0icov\xc3\x81'
p2003
(lp2004
S'0.0042'
p2005
asS'Vanyov\xc3\x81'
p2006
(lp2007
S'0.0006'
p2008
asS'Vandrovcov\xc3\x81'
p2009
(lp2010
S'0.0028'
p2011
asS'Vok\xc5\xaerkov\xc3\x81'
p2012
(lp2013
S'0.0026'
p2014
asS'Vrchov\xc3\x81'
p2015
(lp2016
S'0.0002'
p2017
asS'Valhov\xc3\x81'
p2018
(lp2019
S'0.0011'
p2020
asS'Vindi\xc5\xa0ov\xc3\x81'
p2021
(lp2022
S'0.0012'
p2023
asS'Vrajov\xc3\x81'
p2024
(lp2025
S'0.0020'
p2026
asS'Valenzov\xc3\x81'
p2027
(lp2028
S'0.0003'
p2029
asS'Viltavsk\xc3\x81'
p2030
(lp2031
S'0.0002'
p2032
asS'Vochov\xc3\x81'
p2033
(lp2034
S'0.0007'
p2035
asS'Vrta\xc5\x87ov\xc3\x81'
p2036
(lp2037
S'0.0002'
p2038
asS'Volgnerov\xc3\x81'
p2039
(lp2040
S'0.0001'
p2041
asS'Vitoulov\xc3\x81'
p2042
(lp2043
S'0.0023'
p2044
asS'Vatrtov\xc3\x81'
p2045
(lp2046
S'0.0003'
p2047
asS'V\xc3\x81halov\xc3\x81'
p2048
(lp2049
S'0.0020'
p2050
asS'Vajdov\xc3\x81'
p2051
(lp2052
S'0.0092'
p2053
asS'Vaculkov\xc3\x81'
p2054
(lp2055
S'0.0021'
p2056
asS'Volmov\xc3\x81'
p2057
(lp2058
S'0.0003'
p2059
asS'Varholov\xc3\x81'
p2060
(lp2061
S'0.0004'
p2062
asS'Viga\xc5\xa0ov\xc3\x81'
p2063
(lp2064
S'0.0002'
p2065
asS'Votrubov\xc3\x81'
p2066
(lp2067
S'0.0173'
p2068
asS'V\xc3\x81zalov\xc3\x81'
p2069
(lp2070
S'0.0001'
p2071
asS'Vajsk\xc3\x89brov\xc3\x81'
p2072
(lp2073
S'0.0002'
p2074
asS'V\xc3\x9dchodsk\xc3\x81'
p2075
(lp2076
S'0.0002'
p2077
asS'Valentrov\xc3\x81'
p2078
(lp2079
S'0.0001'
p2080
asS'V\xc3\x9dbochov\xc3\x81'
p2081
(lp2082
S'0.0006'
p2083
asS'Vale\xc5\xa0kov\xc3\x81'
p2084
(lp2085
S'0.0013'
p2086
asS'Valen\xc4\x8cinov\xc3\x81'
p2087
(lp2088
S'0.0001'
p2089
asS'Viternov\xc3\x81'
p2090
(lp2091
S'0.0007'
p2092
asS'Vo\xc5\xa0tiarov\xc3\x81'
p2093
(lp2094
S'0.0001'
p2095
asS'Vertichov\xc3\x81'
p2096
(lp2097
S'0.0002'
p2098
asS'Vy\xc5\xa0ehradsk\xc3\x81'
p2099
(lp2100
S'0.0005'
p2101
asS'Vran\xc3\x81kov\xc3\x81'
p2102
(lp2103
S'0.0001'
p2104
asS'V\xc3\x81lyiov\xc3\x81'
p2105
(lp2106
S'0.0001'
p2107
asS'Vyt\xc5\x98asov\xc3\x81'
p2108
(lp2109
S'0.0003'
p2110
asS'Vodrh\xc3\x81nkov\xc3\x81'
p2111
(lp2112
S'0.0003'
p2113
asS'Vand\xc3\x8drkov\xc3\x81'
p2114
(lp2115
S'0.0007'
p2116
asS'Vatechov\xc3\x81'
p2117
(lp2118
S'0.0003'
p2119
asS'Va\xc5\x98\xc3\x8dlkov\xc3\x81'
p2120
(lp2121
S'0.0015'
p2122
asS'Vitali\xc5\xa0ov\xc3\x81'
p2123
(lp2124
S'0.0001'
p2125
asS'Vrablov\xc3\x81'
p2126
(lp2127
S'0.0010'
p2128
asS'Vejm\xc4\x9alkov\xc3\x81'
p2129
(lp2130
S'0.0043'
p2131
asS'Vrb\xc4\x9ack\xc3\x81'
p2132
(lp2133
S'0.0012'
p2134
asS'Vyn\xc5\xa0ov\xc3\x81'
p2135
(lp2136
S'0.0005'
p2137
asS'Vodol\xc3\x81nov\xc3\x81'
p2138
(lp2139
S'0.0010'
p2140
asS'Vija\xc4\x8ckov\xc3\x81'
p2141
(lp2142
S'0.0004'
p2143
asS'Volgemutov\xc3\x81'
p2144
(lp2145
S'0.0004'
p2146
asS'Vachtov\xc3\x81'
p2147
(lp2148
S'0.0033'
p2149
asS'Vegrov\xc3\x81'
p2150
(lp2151
S'0.0002'
p2152
asS'Valtonenov\xc3\x81'
p2153
(lp2154
S'0.0001'
p2155
asS'Vichnarov\xc3\x81'
p2156
(lp2157
S'0.0005'
p2158
asS'Vedralov\xc3\x81'
p2159
(lp2160
S'0.0126'
p2161
asS'Vitingerov\xc3\x81'
p2162
(lp2163
S'0.0002'
p2164
asS'Vito\xc5\xa0ov\xc3\x81'
p2165
(lp2166
S'0.0005'
p2167
asS'Ventlukov\xc3\x81'
p2168
(lp2169
S'0.0008'
p2170
asS'Vendlbergerov\xc3\x81'
p2171
(lp2172
S'0.0002'
p2173
asS'Velk\xc3\x81'
p2174
(lp2175
S'0.0019'
p2176
asS'Vaishaitlov\xc3\x81'
p2177
(lp2178
S'0.0002'
p2179
asS'Voborov\xc3\x81'
p2180
(lp2181
S'0.0020'
p2182
asS'Veidenthalerov\xc3\x81'
p2183
(lp2184
S'0.0003'
p2185
asS'Valentovi\xc4\x8cov\xc3\x81'
p2186
(lp2187
S'0.0005'
p2188
asS'Vinick\xc3\x81'
p2189
(lp2190
S'0.0040'
p2191
asS'Velgov\xc3\x81'
p2192
(lp2193
S'0.0001'
p2194
asS'Von\xc5\xa0\xc3\x81kov\xc3\x81'
p2195
(lp2196
S'0.0002'
p2197
asS'Vi\xc5\xa0tejnov\xc3\x81'
p2198
(lp2199
S'0.0004'
p2200
asS'Val\xc3\x81\xc5\xa0kov\xc3\x81'
p2201
(lp2202
S'0.0352'
p2203
asS'Voln\xc3\x81'
p2204
(lp2205
S'0.0251'
p2206
asS'Vaga\xc5\xa0iov\xc3\x81'
p2207
(lp2208
S'0.0002'
p2209
asS'Veinerov\xc3\x81'
p2210
(lp2211
S'0.0004'
p2212
asS'Veny\xc5\xa0ov\xc3\x81'
p2213
(lp2214
S'0.0001'
p2215
asS'Voler\xc3\x81bov\xc3\x81'
p2216
(lp2217
S'0.0001'
p2218
asS'Varajov\xc3\x81'
p2219
(lp2220
S'0.0003'
p2221
asS'Vaidlov\xc3\x81'
p2222
(lp2223
S'0.0002'
p2224
asS'Valov\xc3\x81'
p2225
(lp2226
S'0.0380'
p2227
asS'Vej\xc5\xbdvaldov\xc3\x81'
p2228
(lp2229
S'0.0001'
p2230
asS'V\xc3\x9dchope\xc5\x87ov\xc3\x81'
p2231
(lp2232
S'0.0001'
p2233
asS'V\xc3\x81clov\xc3\x81'
p2234
(lp2235
S'0.0004'
p2236
asS'Valtarov\xc3\x81'
p2237
(lp2238
S'0.0002'
p2239
asS'Valch\xc3\x81\xc5\x98ov\xc3\x81'
p2240
(lp2241
S'0.0052'
p2242
asS'Vostrej\xc5\xbdov\xc3\x81'
p2243
(lp2244
S'0.0006'
p2245
asS'Vojnov\xc3\x81'
p2246
(lp2247
S'0.0015'
p2248
asS'Vajsh\xc3\x81rov\xc3\x81'
p2249
(lp2250
S'0.0002'
p2251
asS'Verbi\xc4\x8cov\xc3\x81'
p2252
(lp2253
S'0.0003'
p2254
asS'V\xc3\x8d\xc5\xa4azkov\xc3\x81'
p2255
(lp2256
S'0.0001'
p2257
asS'Vil\xc4\x8cinsk\xc3\x81'
p2258
(lp2259
S'0.0001'
p2260
asS'Velvarsk\xc3\x81'
p2261
(lp2262
S'0.0006'
p2263
asS'Vilingerov\xc3\x81'
p2264
(lp2265
S'0.0005'
p2266
asS'V\xc3\x8dtrov\xc3\x81'
p2267
(lp2268
S'0.0002'
p2269
asS'Valja\xc5\xa0kov\xc3\x81'
p2270
(lp2271
S'0.0001'
p2272
asS'Vr\xc3\x81nov\xc3\x81'
p2273
(lp2274
S'0.0634'
p2275
asS'Valciuov\xc3\x81'
p2276
(lp2277
S'0.0001'
p2278
asS'Vienckov\xc3\x81'
p2279
(lp2280
S'0.0001'
p2281
asS'Vithausov\xc3\x81'
p2282
(lp2283
S'0.0002'
p2284
asS'Va\xc5\xa0\xc5\xa4\xc3\x81kov\xc3\x81'
p2285
(lp2286
S'0.0010'
p2287
asS'Veg\xc5\xa0m\xc3\x8ddov\xc3\x81'
p2288
(lp2289
S'0.0002'
p2290
asS'Va\xc5\xa0\xc3\x8d\xc5\x98ov\xc3\x81'
p2291
(lp2292
S'0.0011'
p2293
asS'Vircov\xc3\x81'
p2294
(lp2295
S'0.0002'
p2296
asS'Van\xc4\x8ci\xc5\xa0inov\xc3\x81'
p2297
(lp2298
S'0.0002'
p2299
asS'Vampolov\xc3\x81'
p2300
(lp2301
S'0.0017'
p2302
asS'V\xc3\x8d\xc5\xa0ov\xc3\x81'
p2303
(lp2304
S'0.0015'
p2305
asS'V\xc4\x9atvi\xc4\x8ckov\xc3\x81'
p2306
(lp2307
S'0.0009'
p2308
asS'V\xc3\x89ghov\xc3\x81'
p2309
(lp2310
S'0.0013'
p2311
asS'V\xc3\x81clavovicov\xc3\x81'
p2312
(lp2313
S'0.0003'
p2314
asS'Vandasov\xc3\x81'
p2315
(lp2316
S'0.0042'
p2317
asS'Vocelkov\xc3\x81'
p2318
(lp2319
S'0.0012'
p2320
asS'V\xc3\x81clav\xc5\xae'
p2321
(lp2322
S'0.0008'
p2323
asS'Vodolanov\xc3\x81'
p2324
(lp2325
S'0.0006'
p2326
asS'Vond\xc5\x98ichov\xc3\x81'
p2327
(lp2328
S'0.0017'
p2329
asS'V\xc3\x81lkyov\xc3\x81'
p2330
(lp2331
S'0.0002'
p2332
asS'Viaterov\xc3\x81'
p2333
(lp2334
S'0.0001'
p2335
asS'V\xc5\x98esk\xc3\x81'
p2336
(lp2337
S'0.0008'
p2338
asS'Vrabcov\xc3\x81'
p2339
(lp2340
S'0.0216'
p2341
asS'Va\xc4\x8ck\xc3\x81\xc5\x98ov\xc3\x81'
p2342
(lp2343
S'0.0035'
p2344
asS'V\xc3\x81pov\xc3\x81'
p2345
(lp2346
S'0.0002'
p2347
asS'Vostruhov\xc3\x81'
p2348
(lp2349
S'0.0011'
p2350
asS'Venhodov\xc3\x81'
p2351
(lp2352
S'0.0026'
p2353
asS'Valu\xc5\xa0\xc3\x81kov\xc3\x81'
p2354
(lp2355
S'0.0001'
p2356
asS'Vrbin\xc4\x8c\xc3\x8dkov\xc3\x81'
p2357
(lp2358
S'0.0002'
p2359
asS'Vajcov\xc3\x81'
p2360
(lp2361
S'0.0019'
p2362
asS'V\xc3\x81clavkov\xc3\x81'
p2363
(lp2364
S'0.0203'
p2365
asS'Vypiorov\xc3\x81'
p2366
(lp2367
S'0.0002'
p2368
asS'Valdhauserov\xc3\x81'
p2369
(lp2370
S'0.0001'
p2371
asS'V\xc3\x8dto\xc5\x87ov\xc3\x81'
p2372
(lp2373
S'0.0001'
p2374
asS'Vr\xc3\x81tn\xc3\x8d\xc4\x8ckov\xc3\x81'
p2375
(lp2376
S'0.0002'
p2377
asS'Vil\xc3\x89mov\xc3\x81'
p2378
(lp2379
S'0.0021'
p2380
asS'Vol\xc5\xa0ick\xc3\x81'
p2381
(lp2382
S'0.0006'
p2383
asS'Vidmuchov\xc3\x81'
p2384
(lp2385
S'0.0004'
p2386
asS'Velartov\xc3\x81'
p2387
(lp2388
S'0.0012'
p2389
asS'Ver\xc4\x8cim\xc3\x81kov\xc3\x81'
p2390
(lp2391
S'0.0005'
p2392
asS'Vosykov\xc3\x81'
p2393
(lp2394
S'0.0063'
p2395
asS'Vyvialov\xc3\x81'
p2396
(lp2397
S'0.0046'
p2398
asS'Vadasov\xc3\x81'
p2399
(lp2400
S'0.0007'
p2401
asS'Vojti\xc4\x8ckov\xc3\x81'
p2402
(lp2403
S'0.0003'
p2404
asS'V\xc3\x9dsmekov\xc3\x81'
p2405
(lp2406
S'0.0005'
p2407
asS'V\xc5\xa0et\xc3\x9d\xc4\x8ckov\xc3\x81'
p2408
(lp2409
S'0.0003'
p2410
asS'Veinfurterov\xc3\x81'
p2411
(lp2412
S'0.0005'
p2413
asS'Vich\xc3\x81nkov\xc3\x81'
p2414
(lp2415
S'0.0001'
p2416
asS'Voz\xc3\x81kov\xc3\x81'
p2417
(lp2418
S'0.0022'
p2419
asS'Vrt\xc3\x8dkov\xc3\x81'
p2420
(lp2421
S'0.0004'
p2422
asS'Vasilov\xc3\x81'
p2423
(lp2424
S'0.0011'
p2425
asS'Vla\xc4\x8cu\xc5\xa0kov\xc3\x81'
p2426
(lp2427
S'0.0001'
p2428
asS'V\xc3\x81le\xc4\x8ckov\xc3\x81'
p2429
(lp2430
S'0.0010'
p2431
asS'Vu\xc4\x8cenovi\xc4\x8cov\xc3\x81'
p2432
(lp2433
S'0.0002'
p2434
asS'Verebov\xc3\x81'
p2435
(lp2436
S'0.0002'
p2437
asS'Vagask\xc3\x81'
p2438
(lp2439
S'0.0001'
p2440
asS'Valchov\xc3\x81'
p2441
(lp2442
S'0.0009'
p2443
asS'V\xc4\x9ackov\xc3\x81'
p2444
(lp2445
S'0.0004'
p2446
asS'Vozniakov\xc3\x81'
p2447
(lp2448
S'0.0002'
p2449
asS'Vobo\xc5\x98ilov\xc3\x81'
p2450
(lp2451
S'0.0148'
p2452
asS'Vorasick\xc3\x81'
p2453
(lp2454
S'0.0006'
p2455
asS'Vov\xc4\x8ci\xc4\x8ckov\xc3\x81'
p2456
(lp2457
S'0.0002'
p2458
asS'Vokrojov\xc3\x81'
p2459
(lp2460
S'0.0017'
p2461
asS'Vukadinovi\xc4\x8cov\xc3\x81'
p2462
(lp2463
S'0.0001'
p2464
asS'Vicjanov\xc3\x81'
p2465
(lp2466
S'0.0002'
p2467
asS'Va\xc5\x98e\xc5\xa0kov\xc3\x81'
p2468
(lp2469
S'0.0001'
p2470
asS'Valnohov\xc3\x81'
p2471
(lp2472
S'0.0024'
p2473
asS'Vidl\xc3\x81kov\xc3\x81'
p2474
(lp2475
S'0.0064'
p2476
asS'V\xc3\x9dskotov\xc3\x81'
p2477
(lp2478
S'0.0002'
p2479
asS'Vytou\xc5\xa0ov\xc3\x81'
p2480
(lp2481
S'0.0001'
p2482
asS'Vym\xc4\x9atalov\xc3\x81'
p2483
(lp2484
S'0.0099'
p2485
asS'Vach\xc3\x9atov\xc3\x81'
p2486
(lp2487
S'0.0002'
p2488
asS'Volenov\xc3\x81'
p2489
(lp2490
S'0.0015'
p2491
asS'Vajaiov\xc3\x81'
p2492
(lp2493
S'0.0002'
p2494
asS'V\xc4\x8c\xc3\x8dslov\xc3\x81'
p2495
(lp2496
S'0.0001'
p2497
asS'Vornayov\xc3\x81'
p2498
(lp2499
S'0.0001'
p2500
asS'Vidr\xc5\xa0perkov\xc3\x81'
p2501
(lp2502
S'0.0004'
p2503
asS'Vt\xc4\x9alensk\xc3\x81'
p2504
(lp2505
S'0.0001'
p2506
asS'Vyte\xc5\xa0n\xc3\x8dkov\xc3\x81'
p2507
(lp2508
S'0.0001'
p2509
asS'V\xc3\x8dchov\xc3\x81'
p2510
(lp2511
S'0.0279'
p2512
asS'Vyle\xc5\xbd\xc3\x8dkov\xc3\x81'
p2513
(lp2514
S'0.0013'
p2515
asS'Vej\xc5\xa0krabov\xc3\x81'
p2516
(lp2517
S'0.0002'
p2518
asS'Vokrouhleck\xc3\x81'
p2519
(lp2520
S'0.0003'
p2521
asS'Vo\xc5\xa0ti\xc5\x87\xc3\x81kov\xc3\x81'
p2522
(lp2523
S'0.0002'
p2524
asS'Voznicov\xc3\x81'
p2525
(lp2526
S'0.0040'
p2527
asS'Vondenov\xc3\x81'
p2528
(lp2529
S'0.0002'
p2530
asS'Vinc\xc3\x8dbrov\xc3\x81'
p2531
(lp2532
S'0.0004'
p2533
asS'Vejvodov\xc3\x81'
p2534
(lp2535
S'0.0212'
p2536
asS'Vran\xc3\x8dkov\xc3\x81'
p2537
(lp2538
S'0.0022'
p2539
asS'Vobr\xc3\x81tilkov\xc3\x81'
p2540
(lp2541
S'0.0002'
p2542
asS'V\xc3\x81radyov\xc3\x81'
p2543
(lp2544
S'0.0011'
p2545
asS'Vele\xc5\xa0\xc3\x8dnsk\xc3\x81'
p2546
(lp2547
S'0.0001'
p2548
asS'Va\xc5\xa0enkov\xc3\x81'
p2549
(lp2550
S'0.0009'
p2551
asS'Vel\xc3\x8dnov\xc3\x81'
p2552
(lp2553
S'0.0007'
p2554
asS'Vejpusk\xc3\x81'
p2555
(lp2556
S'0.0003'
p2557
asS'Viazani\xc4\x8ckov\xc3\x81'
p2558
(lp2559
S'0.0001'
p2560
asS'Vielkindov\xc3\x81'
p2561
(lp2562
S'0.0001'
p2563
asS'Vav\xc5\x98\xc3\x8d\xc4\x8ckov\xc3\x81'
p2564
(lp2565
S'0.0035'
p2566
asS'Vysu\xc5\xa0ilov\xc3\x81'
p2567
(lp2568
S'0.0017'
p2569
asS'Vihn\xc3\x81rov\xc3\x81'
p2570
(lp2571
S'0.0001'
p2572
asS'V\xc3\x9dlohov\xc3\x81'
p2573
(lp2574
S'0.0001'
p2575
asS'Van\xc4\x8eurkov\xc3\x81'
p2576
(lp2577
S'0.0007'
p2578
asS'Vohryzkov\xc3\x81'
p2579
(lp2580
S'0.0015'
p2581
asS'Von\xc5\xa0ovsk\xc3\x81'
p2582
(lp2583
S'0.0017'
p2584
asS'Varsamisov\xc3\x81'
p2585
(lp2586
S'0.0002'
p2587
asS'Vitverov\xc3\x81'
p2588
(lp2589
S'0.0008'
p2590
asS'Veszpremiov\xc3\x81'
p2591
(lp2592
S'0.0001'
p2593
asS'Vosmikov\xc3\x81'
p2594
(lp2595
S'0.0004'
p2596
asS'Viriusov\xc3\x81'
p2597
(lp2598
S'0.0001'
p2599
asS'Viesnerov\xc3\x81'
p2600
(lp2601
S'0.0011'
p2602
asS'Va\xc5\x87ourn\xc3\x81'
p2603
(lp2604
S'0.0001'
p2605
asS'Velhudov\xc3\x81'
p2606
(lp2607
S'0.0003'
p2608
asS'Virgovi\xc4\x8cov\xc3\x81'
p2609
(lp2610
S'0.0003'
p2611
asS'Vitinov\xc3\x81'
p2612
(lp2613
S'0.0002'
p2614
asS'Varchol\xc3\x81kov\xc3\x81'
p2615
(lp2616
S'0.0001'
p2617
asS'Verl\xc3\x8dkov\xc3\x81'
p2618
(lp2619
S'0.0005'
p2620
asS'Vach\xc3\x81nkov\xc3\x81'
p2621
(lp2622
S'0.0001'
p2623
asS'Va\xc5\x87ov\xc3\x81'
p2624
(lp2625
S'0.0027'
p2626
asS'Vachoutov\xc3\x81'
p2627
(lp2628
S'0.0006'
p2629
asS'Vanov\xc3\x81'
p2630
(lp2631
S'0.0003'
p2632
asS'Vach\xc5\xaetov\xc3\x81'
p2633
(lp2634
S'0.0003'
p2635
asS'Vrbeck\xc3\x81'
p2636
(lp2637
S'0.0016'
p2638
asS'Vychronov\xc3\x81'
p2639
(lp2640
S'0.0002'
p2641
asS'Vost\xc5\x98esov\xc3\x81'
p2642
(lp2643
S'0.0002'
p2644
asS'Va\xc5\xa0ov\xc3\x81'
p2645
(lp2646
S'0.0012'
p2647
asS'Volm\xc5\xaetov\xc3\x81'
p2648
(lp2649
S'0.0002'
p2650
asS'Vrtochov\xc3\x81'
p2651
(lp2652
S'0.0001'
p2653
asS'Vyrobikov\xc3\x81'
p2654
(lp2655
S'0.0001'
p2656
asS'Vighov\xc3\x81'
p2657
(lp2658
S'0.0005'
p2659
asS'Vychytov\xc3\x81'
p2660
(lp2661
S'0.0003'
p2662
asS'Vi\xc5\xa0insk\xc3\x81'
p2663
(lp2664
S'0.0003'
p2665
asS'Vidensk\xc3\x81'
p2666
(lp2667
S'0.0003'
p2668
asS'Verbergerov\xc3\x81'
p2669
(lp2670
S'0.0006'
p2671
asS'Vare\xc4\x8ckov\xc3\x81'
p2672
(lp2673
S'0.0002'
p2674
asS'Vavrov\xc3\x81'
p2675
(lp2676
S'0.0025'
p2677
asS'Vy\xc5\xa0ovanov\xc3\x81'
p2678
(lp2679
S'0.0001'
p2680
asS'Vasi\xc4\xbdov\xc3\x81'
p2681
(lp2682
S'0.0002'
p2683
asS'Vr\xc5\xa0ovsk\xc3\x81'
p2684
(lp2685
S'0.0018'
p2686
asS'Voj\xc3\x81kov\xc3\x81'
p2687
(lp2688
S'0.0016'
p2689
asS'Vyhle\xc4\x8ealov\xc3\x81'
p2690
(lp2691
S'0.0001'
p2692
asS'V\xc5\xaejkov\xc3\x81'
p2693
(lp2694
S'0.0001'
p2695
asS'Vit\xc3\x81lo\xc5\xa0ov\xc3\x81'
p2696
(lp2697
S'0.0002'
p2698
asS'Vrb\xc3\x8dkov\xc3\x81'
p2699
(lp2700
S'0.0041'
p2701
asS'Vykoupilov\xc3\x81'
p2702
(lp2703
S'0.0022'
p2704
asS'Vaigantov\xc3\x81'
p2705
(lp2706
S'0.0002'
p2707
asS'Vel\xc3\x8d\xc4\x8ckov\xc3\x81'
p2708
(lp2709
S'0.0001'
p2710
asS'Vitmajerov\xc3\x81'
p2711
(lp2712
S'0.0006'
p2713
asS'Valerianov\xc3\x81'
p2714
(lp2715
S'0.0004'
p2716
asS'Veseck\xc3\x81'
p2717
(lp2718
S'0.0058'
p2719
asS'Vranovsk\xc3\x81'
p2720
(lp2721
S'0.0011'
p2722
asS'Vystav\xc4\x9alov\xc3\x81'
p2723
(lp2724
S'0.0047'
p2725
asS'Va\xc5\x87ou\xc4\x8ckov\xc3\x81'
p2726
(lp2727
S'0.0020'
p2728
asS'Va\xc4\x8clenov\xc3\x81'
p2729
(lp2730
S'0.0006'
p2731
asS'Vavrou\xc5\xa0ov\xc3\x81'
p2732
(lp2733
S'0.0009'
p2734
asS'Vidli\xc4\x8ckov\xc3\x81'
p2735
(lp2736
S'0.0047'
p2737
asS'Var\xc5\xa0ov\xc3\x81'
p2738
(lp2739
S'0.0003'
p2740
asS'Vnou\xc4\x8ckov\xc3\x81'
p2741
(lp2742
S'0.0039'
p2743
asS'Vrzal\xc3\x8dkov\xc3\x81'
p2744
(lp2745
S'0.0007'
p2746
asS'Vi\xc5\xa0\xc4\x8corov\xc3\x81'
p2747
(lp2748
S'0.0003'
p2749
asS'Va\xc5\x87atov\xc3\x81'
p2750
(lp2751
S'0.0021'
p2752
asS'Verflov\xc3\x81'
p2753
(lp2754
S'0.0006'
p2755
asS'V\xc4\x9arn\xc3\x81'
p2756
(lp2757
S'0.0020'
p2758
asS'Valn\xc3\x81'
p2759
(lp2760
S'0.0034'
p2761
asS'Vlnat\xc3\x81'
p2762
(lp2763
S'0.0012'
p2764
asS'Varclov\xc3\x81'
p2765
(lp2766
S'0.0002'
p2767
asS'V\xc3\x81\xc5\xbdkov\xc3\x81'
p2768
(lp2769
S'0.0001'
p2770
asS'V\xc5\xa0evidov\xc3\x81'
p2771
(lp2772
S'0.0001'
p2773
asS'V\xc3\x81genknechtov\xc3\x81'
p2774
(lp2775
S'0.0014'
p2776
asS'Vrabelov\xc3\x81'
p2777
(lp2778
S'0.0010'
p2779
asS'Va\xc5\x98echov\xc3\x81'
p2780
(lp2781
S'0.0028'
p2782
asS'Vildumetzov\xc3\x81'
p2783
(lp2784
S'0.0002'
p2785
asS'Vencelidesov\xc3\x81'
p2786
(lp2787
S'0.0007'
p2788
asS'Veikov\xc3\x81'
p2789
(lp2790
S'0.0003'
p2791
asS'Vel\xc3\x81tov\xc3\x81'
p2792
(lp2793
S'0.0017'
p2794
asS'Vose\xc4\x8ckov\xc3\x81'
p2795
(lp2796
S'0.0007'
p2797
asS'Vop\xc3\x81leck\xc3\x81'
p2798
(lp2799
S'0.0003'
p2800
asS'Vudkov\xc3\x81'
p2801
(lp2802
S'0.0003'
p2803
asS'Vrankov\xc3\x81'
p2804
(lp2805
S'0.0031'
p2806
asS'Vykou\xc5\x98ilov\xc3\x81'
p2807
(lp2808
S'0.0018'
p2809
asS'Vin\xc4\x8carov\xc3\x81'
p2810
(lp2811
S'0.0004'
p2812
asS'V\xc3\x96r\xc3\x96\xc5\xa0ov\xc3\x81'
p2813
(lp2814
S'0.0018'
p2815
asS'Vikusov\xc3\x81'
p2816
(lp2817
S'0.0001'
p2818
asS'Vanke'
p2819
(lp2820
S'0.0001'
p2821
asS'Valovi\xc4\x8cov\xc3\x81'
p2822
(lp2823
S'0.0016'
p2824
asS'Ve\xc5\xa0t\xc5\xa0\xc3\x8dkov\xc3\x81'
p2825
(lp2826
S'0.0001'
p2827
asS'V\xc4\x9astinsk\xc3\x81'
p2828
(lp2829
S'0.0001'
p2830
asS'Vost\xc3\x81lov\xc3\x81'
p2831
(lp2832
S'0.0014'
p2833
asS'Volo\xc5\xa0ynov\xc3\x81'
p2834
(lp2835
S'0.0001'
p2836
asS'Vietorisov\xc3\x81'
p2837
(lp2838
S'0.0001'
p2839
asS'Votrubcov\xc3\x81'
p2840
(lp2841
S'0.0057'
p2842
asS'Vete\xc5\xa0kov\xc3\x81'
p2843
(lp2844
S'0.0009'
p2845
asS'Vereck\xc3\x81'
p2846
(lp2847
S'0.0006'
p2848
asS'Vohankov\xc3\x81'
p2849
(lp2850
S'0.0010'
p2851
asS'Vilimcov\xc3\x81'
p2852
(lp2853
S'0.0004'
p2854
asS'Vypla\xc5\xa0ilov\xc3\x81'
p2855
(lp2856
S'0.0009'
p2857
asS'Valmov\xc3\x81'
p2858
(lp2859
S'0.0004'
p2860
asS'Vaga\xc4\x8cov\xc3\x81'
p2861
(lp2862
S'0.0003'
p2863
asS'Vondryskov\xc3\x81'
p2864
(lp2865
S'0.0018'
p2866
asS'Vyrubal\xc3\x8dkov\xc3\x81'
p2867
(lp2868
S'0.0004'
p2869
asS'Van\xc3\x8dkov\xc3\x81'
p2870
(lp2871
S'0.0071'
p2872
asS'Vacinov\xc3\x81'
p2873
(lp2874
S'0.0005'
p2875
asS'Val\xc3\x81bkov\xc3\x81'
p2876
(lp2877
S'0.0002'
p2878
asS'Volochov\xc3\x81'
p2879
(lp2880
S'0.0005'
p2881
asS'V\xc3\x8dtkovsk\xc3\x81'
p2882
(lp2883
S'0.0013'
p2884
asS'Vejpravov\xc3\x81'
p2885
(lp2886
S'0.0003'
p2887
asS'Valianov\xc3\x81'
p2888
(lp2889
S'0.0004'
p2890
asS'Vystydov\xc3\x81'
p2891
(lp2892
S'0.0008'
p2893
asS'Vrchotov\xc3\x81'
p2894
(lp2895
S'0.0047'
p2896
asS'Vetterlov\xc3\x81'
p2897
(lp2898
S'0.0002'
p2899
asS'Vakermanov\xc3\x81'
p2900
(lp2901
S'0.0003'
p2902
asS'Vod\xc3\x8dnsk\xc3\x81'
p2903
(lp2904
S'0.0001'
p2905
asS'Vatkov\xc3\x81'
p2906
(lp2907
S'0.0003'
p2908
asS'Vosejpkov\xc3\x81'
p2909
(lp2910
S'0.0010'
p2911
asS'Vojt\xc3\x81\xc4\x8ckov\xc3\x81'
p2912
(lp2913
S'0.0001'
p2914
asS'Valdeck\xc3\x81'
p2915
(lp2916
S'0.0002'
p2917
asS'Vodh\xc3\x81n\xc4\x9alov\xc3\x81'
p2918
(lp2919
S'0.0009'
p2920
asS'Veringrov\xc3\x81'
p2921
(lp2922
S'0.0001'
p2923
asS'Vodeni\xc4\x8carovov\xc3\x81'
p2924
(lp2925
S'0.0001'
p2926
asS'Vrublovsk\xc3\x81'
p2927
(lp2928
S'0.0002'
p2929
asS'Vet\xc3\x8d\xc5\xa0kov\xc3\x81'
p2930
(lp2931
S'0.0002'
p2932
asS'Vintrichov\xc3\x81'
p2933
(lp2934
S'0.0005'
p2935
asS'Via\xc4\x8ckov\xc3\x81'
p2936
(lp2937
S'0.0003'
p2938
asS'Vermouskov\xc3\x81'
p2939
(lp2940
S'0.0001'
p2941
asS'Vopelkov\xc3\x81'
p2942
(lp2943
S'0.0028'
p2944
asS'Varousov\xc3\x81'
p2945
(lp2946
S'0.0005'
p2947
asS'Varhov\xc3\x81'
p2948
(lp2949
S'0.0002'
p2950
asS'Vacikarov\xc3\x81'
p2951
(lp2952
S'0.0006'
p2953
asS'Vojt\xc4\x9ask\xc3\x81'
p2954
(lp2955
S'0.0001'
p2956
asS'Vejchodsk\xc3\x81'
p2957
(lp2958
S'0.0003'
p2959
asS'Vidrmov\xc3\x81'
p2960
(lp2961
S'0.0003'
p2962
asS'Vodv\xc3\x81rkov\xc3\x81'
p2963
(lp2964
S'0.0032'
p2965
asS'Valcov\xc3\x81'
p2966
(lp2967
S'0.0006'
p2968
asS'Vunderlov\xc3\x81'
p2969
(lp2970
S'0.0001'
p2971
asS'Vondr\xc3\x81kov\xc3\x81'
p2972
(lp2973
S'0.0260'
p2974
asS'Va\xc5\x87ousov\xc3\x81'
p2975
(lp2976
S'0.0080'
p2977
asS'Vachunkov\xc3\x81'
p2978
(lp2979
S'0.0001'
p2980
asS'Valjentov\xc3\x81'
p2981
(lp2982
S'0.0012'
p2983
asS'Ve\xc4\xb9k\xc3\x81'
p2984
(lp2985
S'0.0001'
p2986
asS'Vejslavov\xc3\x81'
p2987
(lp2988
S'0.0002'
p2989
asS'Valcuchov\xc3\x81'
p2990
(lp2991
S'0.0001'
p2992
asS'V\xc3\x89lov\xc3\x81'
p2993
(lp2994
S'0.0018'
p2995
asS'Vedrov\xc3\x81'
p2996
(lp2997
S'0.0035'
p2998
asS'V\xc5\x98es\xc5\x87\xc3\x81kov\xc3\x81'
p2999
(lp3000
S'0.0001'
p3001
asS'Vedlichov\xc3\x81'
p3002
(lp3003
S'0.0004'
p3004
asS'Vavro\xc5\xa0ov\xc3\x81'
p3005
(lp3006
S'0.0033'
p3007
asS'Vohnick\xc3\x81'
p3008
(lp3009
S'0.0019'
p3010
asS'Vilgock\xc3\x81'
p3011
(lp3012
S'0.0002'
p3013
asS'V\xc3\x8drov\xc3\x81'
p3014
(lp3015
S'0.0005'
p3016
asS'Vizingrov\xc3\x81'
p3017
(lp3018
S'0.0007'
p3019
asS'Vold\xc3\x81nov\xc3\x81'
p3020
(lp3021
S'0.0055'
p3022
asS'Vinklov\xc3\x81'
p3023
(lp3024
S'0.0006'
p3025
asS'Valto\xc5\xa0ov\xc3\x81'
p3026
(lp3027
S'0.0004'
p3028
asS'Vratislavov\xc3\x81'
p3029
(lp3030
S'0.0004'
p3031
asS'Vod\xc5\xbd\xc3\x81kov\xc3\x81'
p3032
(lp3033
S'0.0001'
p3034
asS'Vettermannov\xc3\x81'
p3035
(lp3036
S'0.0001'
p3037
asS'Varcabov\xc3\x81'
p3038
(lp3039
S'0.0003'
p3040
asS'Vyhnanovsk\xc3\x81'
p3041
(lp3042
S'0.0009'
p3043
asS'Vilhanov\xc3\x81'
p3044
(lp3045
S'0.0007'
p3046
asS'V\xc3\x8dt\xc3\x81mv\xc3\x81sov\xc3\x81'
p3047
(lp3048
S'0.0023'
p3049
asS'V\xc5\xa0iansk\xc3\x81'
p3050
(lp3051
S'0.0021'
p3052
asS'Vav\xc5\x98inov\xc3\x81'
p3053
(lp3054
S'0.0127'
p3055
asS'Vok\xc5\x98\xc3\x81lov\xc3\x81'
p3056
(lp3057
S'0.0037'
p3058
asS'Vekrbauerov\xc3\x81'
p3059
(lp3060
S'0.0004'
p3061
asS'Va\xc5\xa0kebov\xc3\x81'
p3062
(lp3063
S'0.0003'
p3064
asS'Vandov\xc3\x81'
p3065
(lp3066
S'0.0029'
p3067
asS'Vejskrabov\xc3\x81'
p3068
(lp3069
S'0.0007'
p3070
asS'Vaicenbacherov\xc3\x81'
p3071
(lp3072
S'0.0003'
p3073
asS'Vale\xc4\x8ckov\xc3\x81'
p3074
(lp3075
S'0.0077'
p3076
asS'V\xc3\x81gaiov\xc3\x81'
p3077
(lp3078
S'0.0011'
p3079
asS'Vitkov\xc3\x81'
p3080
(lp3081
S'0.0016'
p3082
asS'Vitulov\xc3\x81'
p3083
(lp3084
S'0.0032'
p3085
asS'Villnerov\xc3\x81'
p3086
(lp3087
S'0.0003'
p3088
asS'Vorbergerov\xc3\x81'
p3089
(lp3090
S'0.0001'
p3091
asS'Vachou\xc5\xa0kov\xc3\x81'
p3092
(lp3093
S'0.0016'
p3094
asS'Vidnerov\xc3\x81'
p3095
(lp3096
S'0.0018'
p3097
asS'Vaclachov\xc3\x81'
p3098
(lp3099
S'0.0008'
p3100
asS'Vop\xc3\x81lkov\xc3\x81'
p3101
(lp3102
S'0.0035'
p3103
asS'Verbichov\xc3\x81'
p3104
(lp3105
S'0.0002'
p3106
asS'Vidurkov\xc3\x81'
p3107
(lp3108
S'0.0002'
p3109
asS'Vysokomensk\xc3\x81'
p3110
(lp3111
S'0.0005'
p3112
asS'Valcha\xc5\x98ov\xc3\x81'
p3113
(lp3114
S'0.0017'
p3115
asS'Visztov\xc3\x81'
p3116
(lp3117
S'0.0001'
p3118
asS'Valesov\xc3\x81'
p3119
(lp3120
S'0.0001'
p3121
asS'V\xc4\x9akov\xc3\x81'
p3122
(lp3123
S'0.0001'
p3124
asS'Va\xc5\xa0\xc5\x87ovsk\xc3\x81'
p3125
(lp3126
S'0.0002'
p3127
asS'Vete\xc5\xa0n\xc3\x8dkov\xc3\x81'
p3128
(lp3129
S'0.0050'
p3130
asS'Vr\xc3\x81tilov\xc3\x81'
p3131
(lp3132
S'0.0049'
p3133
asS'Vyvijalov\xc3\x81'
p3134
(lp3135
S'0.0003'
p3136
asS'Vildov\xc3\x81'
p3137
(lp3138
S'0.0111'
p3139
asS'Va\xc5\xa0alovsk\xc3\x81'
p3140
(lp3141
S'0.0002'
p3142
asS'V\xc3\x84terov\xc3\x81'
p3143
(lp3144
S'0.0001'
p3145
asS'Vidimsk\xc3\x81'
p3146
(lp3147
S'0.0004'
p3148
asS'Varn\xc3\x8d\xc4\x8ckov\xc3\x81'
p3149
(lp3150
S'0.0001'
p3151
asS'Verknerov\xc3\x81'
p3152
(lp3153
S'0.0001'
p3154
asS'Vank\xc3\x81tov\xc3\x81'
p3155
(lp3156
S'0.0003'
p3157
asS'Volprechtov\xc3\x81'
p3158
(lp3159
S'0.0008'
p3160
asS'Vyhnisov\xc3\x81'
p3161
(lp3162
S'0.0007'
p3163
asS'Vilgusov\xc3\x81'
p3164
(lp3165
S'0.0001'
p3166
asS'Vylegalov\xc3\x81'
p3167
(lp3168
S'0.0005'
p3169
asS'Vicendov\xc3\x81'
p3170
(lp3171
S'0.0002'
p3172
asS'Vyziblov\xc3\x81'
p3173
(lp3174
S'0.0004'
p3175
asS'Vot\xc3\x81pkov\xc3\x81'
p3176
(lp3177
S'0.0034'
p3178
asS'Ve\xc4\x8cerkov\xc3\x81'
p3179
(lp3180
S'0.0193'
p3181
asS'Vysoudilov\xc3\x81'
p3182
(lp3183
S'0.0043'
p3184
asS'Varbanovov\xc3\x81'
p3185
(lp3186
S'0.0002'
p3187
asS'Vo\xc5\xbd\xc5\x87\xc3\x81kov\xc3\x81'
p3188
(lp3189
S'0.0001'
p3190
asS'V\xc3\x81vrovsk\xc3\x81'
p3191
(lp3192
S'0.0009'
p3193
asS'V\xc3\x9drostov\xc3\x81'
p3194
(lp3195
S'0.0003'
p3196
asS'Vajgarov\xc3\x81'
p3197
(lp3198
S'0.0003'
p3199
asS'Ve\xc5\xbdranovsk\xc3\x81'
p3200
(lp3201
S'0.0002'
p3202
asS'Vit\xc3\x8dkov\xc3\x81'
p3203
(lp3204
S'0.0022'
p3205
asS'Vallov\xc3\x81'
p3206
(lp3207
S'0.0039'
p3208
asS'Vosp\xc4\x9alov\xc3\x81'
p3209
(lp3210
S'0.0012'
p3211
asS'Vozat\xc3\x81rov\xc3\x81'
p3212
(lp3213
S'0.0002'
p3214
asS'Vafkov\xc3\x81'
p3215
(lp3216
S'0.0017'
p3217
asS'Vosov\xc3\x81'
p3218
(lp3219
S'0.0001'
p3220
asS'Vessel\xc3\x81'
p3221
(lp3222
S'0.0001'
p3223
asS'Vincencov\xc3\x81'
p3224
(lp3225
S'0.0046'
p3226
asS'Veberov\xc3\x81'
p3227
(lp3228
S'0.0057'
p3229
asS'Vinkl\xc3\x81rkov\xc3\x81'
p3230
(lp3231
S'0.0080'
p3232
asS'Vencbauerov\xc3\x81'
p3233
(lp3234
S'0.0002'
p3235
asS'Vinczeov\xc3\x81'
p3236
(lp3237
S'0.0008'
p3238
asS'Vychov\xc3\x81'
p3239
(lp3240
S'0.0003'
p3241
asS'Vil\xc5\xa0erov\xc3\x81'
p3242
(lp3243
S'0.0003'
p3244
asS'Vrbatov\xc3\x81'
p3245
(lp3246
S'0.0051'
p3247
asS'Violov\xc3\x81'
p3248
(lp3249
S'0.0015'
p3250
asS'Vaniov\xc3\x81'
p3251
(lp3252
S'0.0002'
p3253
asS'Vaisochrov\xc3\x81'
p3254
(lp3255
S'0.0002'
p3256
asS'Vejvalkov\xc3\x81'
p3257
(lp3258
S'0.0011'
p3259
asS'Vonzov\xc3\x81'
p3260
(lp3261
S'0.0002'
p3262
asS'Vysock\xc3\x81'
p3263
(lp3264
S'0.0018'
p3265
asS'Vinckerov\xc3\x81'
p3266
(lp3267
S'0.0006'
p3268
asS'Vimpelov\xc3\x81'
p3269
(lp3270
S'0.0001'
p3271
asS'Vl\xc3\x81\xc4\x8celov\xc3\x81'
p3272
(lp3273
S'0.0003'
p3274
asS'Vr\xc3\x81covsk\xc3\x81'
p3275
(lp3276
S'0.0004'
p3277
asS'Vajd\xc3\x8dkov\xc3\x81'
p3278
(lp3279
S'0.0046'
p3280
asS'V\xc3\x8dde\xc5\x87sk\xc3\x81'
p3281
(lp3282
S'0.0020'
p3283
asS'Vep\xc5\x98kov\xc3\x81'
p3284
(lp3285
S'0.0051'
p3286
asS'V\xc4\x8cislakov\xc3\x81'
p3287
(lp3288
S'0.0001'
p3289
asS'Varcholov\xc3\x81'
p3290
(lp3291
S'0.0007'
p3292
asS'Vavrou\xc5\xa0kov\xc3\x81'
p3293
(lp3294
S'0.0051'
p3295
asS'V\xc3\x81lekov\xc3\x81'
p3296
(lp3297
S'0.0003'
p3298
asS'Vavre\xc4\x8ckov\xc3\x81'
p3299
(lp3300
S'0.0110'
p3301
asS'Valdesov\xc3\x81'
p3302
(lp3303
S'0.0001'
p3304
asS'Vajglov\xc3\x81'
p3305
(lp3306
S'0.0034'
p3307
asS'Voni\xc4\x8ckov\xc3\x81'
p3308
(lp3309
S'0.0004'
p3310
asS'Vensk\xc3\x81'
p3311
(lp3312
S'0.0007'
p3313
asS'Va\xc5\x98e\xc4\x8ckov\xc3\x81'
p3314
(lp3315
S'0.0025'
p3316
asS'Vejdovsk\xc3\x81'
p3317
(lp3318
S'0.0017'
p3319
asS'Vnen\xc4\x8c\xc3\x81kov\xc3\x81'
p3320
(lp3321
S'0.0004'
p3322
asS'Velehradsk\xc3\x81'
p3323
(lp3324
S'0.0009'
p3325
asS'Voldr\xc3\x81bov\xc3\x81'
p3326
(lp3327
S'0.0003'
p3328
asS'Vigl\xc3\x81\xc5\xa0ov\xc3\x81'
p3329
(lp3330
S'0.0003'
p3331
asS'Vojcov\xc3\x81'
p3332
(lp3333
S'0.0001'
p3334
asS'Va\xc5\x98enkov\xc3\x81'
p3335
(lp3336
S'0.0003'
p3337
asS'Vytrvalov\xc3\x81'
p3338
(lp3339
S'0.0001'
p3340
asS'V\xc3\x81clahovsk\xc3\x81'
p3341
(lp3342
S'0.0006'
p3343
asS'Volejn\xc3\x8dkov\xc3\x81'
p3344
(lp3345
S'0.0105'
p3346
asS'Vopat\xc5\x98ilov\xc3\x81'
p3347
(lp3348
S'0.0004'
p3349
asS'Vetch\xc3\x81'
p3350
(lp3351
S'0.0022'
p3352
asS'V\xc3\x9dstrkov\xc3\x81'
p3353
(lp3354
S'0.0003'
p3355
asS'V\xc5\xa0eti\xc4\x8ckov\xc3\x81'
p3356
(lp3357
S'0.0047'
p3358
asS'Vesperov\xc3\x81'
p3359
(lp3360
S'0.0001'
p3361
asS'Varadov\xc3\x81'
p3362
(lp3363
S'0.0002'
p3364
asS'Valderov\xc3\x81'
p3365
(lp3366
S'0.0006'
p3367
asS'Vajnerov\xc3\x81'
p3368
(lp3369
S'0.0034'
p3370
asS'Velebnovsk\xc3\x81'
p3371
(lp3372
S'0.0001'
p3373
asS'Vytopilov\xc3\x81'
p3374
(lp3375
S'0.0014'
p3376
asS'Valterov\xc3\x81'
p3377
(lp3378
S'0.0086'
p3379
asS'V\xc4\x9acht\xc3\x8dkov\xc3\x81'
p3380
(lp3381
S'0.0007'
p3382
asS'Vohnoutov\xc3\x81'
p3383
(lp3384
S'0.0041'
p3385
asS'Vrtan\xc3\x8dkov\xc3\x81'
p3386
(lp3387
S'0.0003'
p3388
asS'V\xc3\x8dzkov\xc3\x81'
p3389
(lp3390
S'0.0036'
p3391
asS'Vihanov\xc3\x81'
p3392
(lp3393
S'0.0007'
p3394
asS'Vylet\xc4\x9alkov\xc3\x81'
p3395
(lp3396
S'0.0002'
p3397
asS'Vilikovsk\xc3\x81'
p3398
(lp3399
S'0.0004'
p3400
asS'Vyklick\xc3\x81'
p3401
(lp3402
S'0.0025'
p3403
asS'V\xc4\x9a\xc5\xbdensk\xc3\x81'
p3404
(lp3405
S'0.0002'
p3406
asS'V\xc3\x81radiov\xc3\x81'
p3407
(lp3408
S'0.0022'
p3409
asS'Vyor\xc3\x81lkov\xc3\x81'
p3410
(lp3411
S'0.0020'
p3412
asS'Vytouchov\xc3\x81'
p3413
(lp3414
S'0.0001'
p3415
asS'Volkmanov\xc3\x81'
p3416
(lp3417
S'0.0004'
p3418
asS'Vym\xc4\x9atal\xc3\x8dkov\xc3\x81'
p3419
(lp3420
S'0.0034'
p3421
asS'Vlachinsk\xc3\x81'
p3422
(lp3423
S'0.0003'
p3424
asS'Vachlov\xc3\x81'
p3425
(lp3426
S'0.0007'
p3427
asS'Vokelov\xc3\x81'
p3428
(lp3429
S'0.0002'
p3430
asS'V\xc3\x89nosov\xc3\x81'
p3431
(lp3432
S'0.0009'
p3433
asS'Vol\xc5\xa0anov\xc3\x81'
p3434
(lp3435
S'0.0004'
p3436
asS'Van\xc4\x8catov\xc3\x81'
p3437
(lp3438
S'0.0027'
p3439
asS'Vo\xc5\xbdick\xc3\x81'
p3440
(lp3441
S'0.0005'
p3442
asS'V\xc5\xa0elichov\xc3\x81'
p3443
(lp3444
S'0.0004'
p3445
asS'Vichterov\xc3\x81'
p3446
(lp3447
S'0.0001'
p3448
asS'Vildnerov\xc3\x81'
p3449
(lp3450
S'0.0004'
p3451
asS'Veselkovov\xc3\x81'
p3452
(lp3453
S'0.0001'
p3454
asS'Voha\xc5\x87kov\xc3\x81'
p3455
(lp3456
S'0.0002'
p3457
asS'Valertov\xc3\x81'
p3458
(lp3459
S'0.0001'
p3460
asS'V\xc3\x9dkrut\xc3\x8dkov\xc3\x81'
p3461
(lp3462
S'0.0004'
p3463
asS'Vehovsk\xc3\x81'
p3464
(lp3465
S'0.0021'
p3466
asS'Ve\xc5\x98t\xc3\x81tov\xc3\x81'
p3467
(lp3468
S'0.0008'
p3469
asS'Vilgo\xc5\xa0ov\xc3\x81'
p3470
(lp3471
S'0.0002'
p3472
asS'Vot\xc3\x8dpkov\xc3\x81'
p3473
(lp3474
S'0.0018'
p3475
asS'Valk\xc3\x93v\xc3\x81'
p3476
(lp3477
S'0.0002'
p3478
asS'Vaccov\xc3\x81'
p3479
(lp3480
S'0.0002'
p3481
asS'Vavrincov\xc3\x81'
p3482
(lp3483
S'0.0011'
p3484
asS'V\xc3\x81chalov\xc3\x81'
p3485
(lp3486
S'0.0082'
p3487
asS'Vilimsk\xc3\x81'
p3488
(lp3489
S'0.0001'
p3490
asS'Vav\xc3\x8drkov\xc3\x81'
p3491
(lp3492
S'0.0002'
p3493
asS'Vracovsk\xc3\x81'
p3494
(lp3495
S'0.0011'
p3496
asS'Vuongov\xc3\x81'
p3497
(lp3498
S'0.0002'
p3499
asS'Vojancov\xc3\x81'
p3500
(lp3501
S'0.0013'
p3502
asS'Vozn\xc3\x8dkov\xc3\x81'
p3503
(lp3504
S'0.0007'
p3505
asS'Val\xc4\x8cuhov\xc3\x81'
p3506
(lp3507
S'0.0013'
p3508
asS'Vandirkov\xc3\x81'
p3509
(lp3510
S'0.0001'
p3511
asS'Vaszilkievi\xc4\x8cov\xc3\x81'
p3512
(lp3513
S'0.0002'
p3514
asS'Vin\xc4\x8c\xc3\x81lkov\xc3\x81'
p3515
(lp3516
S'0.0010'
p3517
asS'Varhan\xc3\x8d\xc4\x8ckov\xc3\x81'
p3518
(lp3519
S'0.0004'
p3520
asS'Vajsejtlov\xc3\x81'
p3521
(lp3522
S'0.0009'
p3523
asS'Vinceov\xc3\x81'
p3524
(lp3525
S'0.0007'
p3526
asS'Vylet\xc4\x9alov\xc3\x81'
p3527
(lp3528
S'0.0010'
p3529
asS'Venou\xc5\xa0ov\xc3\x81'
p3530
(lp3531
S'0.0001'
p3532
asS'Vyslou\xc5\xbdilov\xc3\x81'
p3533
(lp3534
S'0.0199'
p3535
asS'Va\xc5\x98buchtov\xc3\x81'
p3536
(lp3537
S'0.0005'
p3538
asS'Virecov\xc3\x81'
p3539
(lp3540
S'0.0003'
p3541
asS'Vina\xc5\x98ick\xc3\x81'
p3542
(lp3543
S'0.0002'
p3544
asS'Vykro\xc4\x8cilov\xc3\x81'
p3545
(lp3546
S'0.0007'
p3547
asS'Vicanyov\xc3\x81'
p3548
(lp3549
S'0.0002'
p3550
asS'Vov\xc4\x8c\xc3\x81kov\xc3\x81'
p3551
(lp3552
S'0.0001'
p3553
asS'Vladim\xc3\x8drov\xc3\x81'
p3554
(lp3555
S'0.0001'
p3556
asS'Velenov\xc3\x81'
p3557
(lp3558
S'0.0009'
p3559
asS'Viltov\xc3\x81'
p3560
(lp3561
S'0.0017'
p3562
asS'Venkrbcov\xc3\x81'
p3563
(lp3564
S'0.0018'
p3565
asS'Voksov\xc3\x81'
p3566
(lp3567
S'0.0011'
p3568
asS'Vietzov\xc3\x81'
p3569
(lp3570
S'0.0003'
p3571
asS'Vienerov\xc3\x81'
p3572
(lp3573
S'0.0002'
p3574
asS'Vr\xc5\xa0anov\xc3\x81'
p3575
(lp3576
S'0.0016'
p3577
asS'Vomastov\xc3\x81'
p3578
(lp3579
S'0.0004'
p3580
asS'V\xc3\x9d\xc5\xa0kov\xc3\x81'
p3581
(lp3582
S'0.0019'
p3583
asS'Vy\xc5\xa0\xc3\x8dnsk\xc3\x81'
p3584
(lp3585
S'0.0005'
p3586
asS'Vobeck\xc3\x81'
p3587
(lp3588
S'0.0027'
p3589
asS'Vane\xc5\xa0ov\xc3\x81'
p3590
(lp3591
S'0.0005'
p3592
asS'Vor\xc4\x8c\xc3\x81kov\xc3\x81'
p3593
(lp3594
S'0.0001'
p3595
asS'Veldov\xc3\x81'
p3596
(lp3597
S'0.0004'
p3598
asS'Vachtlov\xc3\x81'
p3599
(lp3600
S'0.0019'
p3601
asS'Volosov\xc3\x81'
p3602
(lp3603
S'0.0002'
p3604
asS'Vordov\xc3\x81'
p3605
(lp3606
S'0.0002'
p3607
asS'Vendolsk\xc3\x81'
p3608
(lp3609
S'0.0016'
p3610
asS'Vilamov\xc3\x81'
p3611
(lp3612
S'0.0006'
p3613
asS'Vala\xc5\xa0\xc3\x8dkov\xc3\x81'
p3614
(lp3615
S'0.0006'
p3616
asS'Vido\xc5\x87ov\xc3\x81'
p3617
(lp3618
S'0.0002'
p3619
asS'Vrablecov\xc3\x81'
p3620
(lp3621
S'0.0003'
p3622
asS'Va\xc5\xa0e\xc4\x8ckov\xc3\x81'
p3623
(lp3624
S'0.0002'
p3625
asS'Velimsk\xc3\x81'
p3626
(lp3627
S'0.0001'
p3628
asS'Vobejdov\xc3\x81'
p3629
(lp3630
S'0.0030'
p3631
asS'Vuov\xc3\x81'
p3632
(lp3633
S'0.0018'
p3634
asS'Vinzenzov\xc3\x81'
p3635
(lp3636
S'0.0003'
p3637
asS'Vrecn\xc3\x8dkov\xc3\x81'
p3638
(lp3639
S'0.0001'
p3640
asS'Veletov\xc3\x81'
p3641
(lp3642
S'0.0042'
p3643
asS'V\xc4\x9achtov\xc3\x81'
p3644
(lp3645
S'0.0026'
p3646
asS'V\xc3\x8dde\xc5\x87ov\xc3\x81'
p3647
(lp3648
S'0.0003'
p3649
asS'V\xc4\x9a\xc4\x8corkov\xc3\x81'
p3650
(lp3651
S'0.0005'
p3652
asS'Vy\xc4\x8cesalov\xc3\x81'
p3653
(lp3654
S'0.0001'
p3655
asS'Vi\xc5\xa0nick\xc3\x81'
p3656
(lp3657
S'0.0001'
p3658
asS'Veti\xc5\xa0kov\xc3\x81'
p3659
(lp3660
S'0.0006'
p3661
asS'Vrdsk\xc3\x81'
p3662
(lp3663
S'0.0002'
p3664
asS'Vicenecov\xc3\x81'
p3665
(lp3666
S'0.0005'
p3667
asS'Vorbisov\xc3\x81'
p3668
(lp3669
S'0.0005'
p3670
asS'Vejmolov\xc3\x81'
p3671
(lp3672
S'0.0035'
p3673
asS'Valt\xc3\x9d\xc5\x98ov\xc3\x81'
p3674
(lp3675
S'0.0002'
p3676
asS'Vudmaskov\xc3\x81'
p3677
(lp3678
S'0.0002'
p3679
asS'Vejmelkov\xc3\x81'
p3680
(lp3681
S'0.0052'
p3682
asS'V\xc3\x8dvodov\xc3\x81'
p3683
(lp3684
S'0.0002'
p3685
asS'Va\xc5\x87ou\xc5\xa0kov\xc3\x81'
p3686
(lp3687
S'0.0002'
p3688
asS'Volfsonov\xc3\x81'
p3689
(lp3690
S'0.0001'
p3691
asS'Vidovi\xc4\x8cov\xc3\x81'
p3692
(lp3693
S'0.0003'
p3694
asS'Vohradsk\xc3\x81'
p3695
(lp3696
S'0.0023'
p3697
asS'Vulterinov\xc3\x81'
p3698
(lp3699
S'0.0001'
p3700
asS'Volinsk\xc3\x81'
p3701
(lp3702
S'0.0001'
p3703
asS'Vylobov\xc3\x81'
p3704
(lp3705
S'0.0001'
p3706
asS'Vogt'
p3707
(lp3708
S'0.0001'
p3709
asS'Veselou\xc5\xa0ov\xc3\x81'
p3710
(lp3711
S'0.0003'
p3712
asS'Vosick\xc3\x81'
p3713
(lp3714
S'0.0007'
p3715
asS'Vargov\xc4\x8c\xc3\x8dkov\xc3\x81'
p3716
(lp3717
S'0.0002'
p3718
asS'Van\xc3\x9dskov\xc3\x81'
p3719
(lp3720
S'0.0005'
p3721
asS'Vyt\xc3\x81\xc4\x8ckov\xc3\x81'
p3722
(lp3723
S'0.0002'
p3724
asS'Vobn\xc3\x81\xc5\xa0ilov\xc3\x81'
p3725
(lp3726
S'0.0005'
p3727
asS'Vodeck\xc3\x81'
p3728
(lp3729
S'0.0002'
p3730
asS'Vyhn\xc3\x81nkov\xc3\x81'
p3731
(lp3732
S'0.0081'
p3733
asS'Vlachopulosov\xc3\x81'
p3734
(lp3735
S'0.0011'
p3736
asS'Vojtajov\xc3\x81'
p3737
(lp3738
S'0.0002'
p3739
asS'Vidergotov\xc3\x81'
p3740
(lp3741
S'0.0002'
p3742
asS'Vala\xc5\xa0\xc4\x8c\xc3\x8dkov\xc3\x81'
p3743
(lp3744
S'0.0002'
p3745
asS'Vovesn\xc3\x81'
p3746
(lp3747
S'0.0014'
p3748
asS'Varhan\xc3\x8dkov\xc3\x81'
p3749
(lp3750
S'0.0029'
p3751
asS'Vondrl\xc3\x8dkov\xc3\x81'
p3752
(lp3753
S'0.0003'
p3754
asS'Vukeli\xc4\x8cov\xc3\x81'
p3755
(lp3756
S'0.0001'
p3757
asS'Va\xc5\xa0ul\xc3\x8dnov\xc3\x81'
p3758
(lp3759
S'0.0016'
p3760
asS'Ve\xc4\x8ce\xc5\x98\xc3\x8dlkov\xc3\x81'
p3761
(lp3762
S'0.0005'
p3763
asS'Vyvle\xc4\x8ckov\xc3\x81'
p3764
(lp3765
S'0.0027'
p3766
asS'Vinti\xc5\xa0kov\xc3\x81'
p3767
(lp3768
S'0.0003'
p3769
asS'Vr\xc3\x81bov\xc3\x81'
p3770
(lp3771
S'0.0002'
p3772
asS'Vr\xc3\x81tn\xc3\x81'
p3773
(lp3774
S'0.0103'
p3775
asS'Vieweghov\xc3\x81'
p3776
(lp3777
S'0.0005'
p3778
asS'Vi\xc5\xa0kov\xc3\x81'
p3779
(lp3780
S'0.0006'
p3781
asS'Vondrakov\xc3\x81'
p3782
(lp3783
S'0.0001'
p3784
asS'Voced\xc3\x81lkov\xc3\x81'
p3785
(lp3786
S'0.0002'
p3787
asS'Vyvozilov\xc3\x81'
p3788
(lp3789
S'0.0006'
p3790
asS'Vl\xc4\x8canov\xc3\x81'
p3791
(lp3792
S'0.0007'
p3793
asS'Vep\xc5\x98ovsk\xc3\x81'
p3794
(lp3795
S'0.0015'
p3796
asS'Vondrou\xc5\xa0kov\xc3\x81'
p3797
(lp3798
S'0.0003'
p3799
asS'Vidtmanov\xc3\x81'
p3800
(lp3801
S'0.0001'
p3802
asS'Vu\xc5\xa0kov\xc3\x81'
p3803
(lp3804
S'0.0004'
p3805
asS'Vendov\xc3\x81'
p3806
(lp3807
S'0.0004'
p3808
asS'Vyml\xc3\x81tilov\xc3\x81'
p3809
(lp3810
S'0.0031'
p3811
asS'Vykov\xc3\x81'
p3812
(lp3813
S'0.0004'
p3814
asS'Vaculov\xc3\x81'
p3815
(lp3816
S'0.0145'
p3817
asS'Vrabl\xc3\x8dkov\xc3\x81'
p3818
(lp3819
S'0.0008'
p3820
asS'Vojtas\xc3\x8dkov\xc3\x81'
p3821
(lp3822
S'0.0004'
p3823
asS'Voov\xc3\x81'
p3824
(lp3825
S'0.0002'
p3826
asS'Vaver\xc4\x8c\xc3\x81kov\xc3\x81'
p3827
(lp3828
S'0.0002'
p3829
asS'Vindemanov\xc3\x81'
p3830
(lp3831
S'0.0002'
p3832
asS'Va\xc5\xa0tylov\xc3\x81'
p3833
(lp3834
S'0.0002'
p3835
asS'Vrtilov\xc3\x81'
p3836
(lp3837
S'0.0003'
p3838
asS'Vacul\xc4\x8c\xc3\x8dkov\xc3\x81'
p3839
(lp3840
S'0.0017'
p3841
asS'Vyoralov\xc3\x81'
p3842
(lp3843
S'0.0101'
p3844
asS'V\xc3\x81\xc5\xa0kov\xc3\x81'
p3845
(lp3846
S'0.0010'
p3847
asS'Va\xc5\xa0\xc3\x8drovsk\xc3\x81'
p3848
(lp3849
S'0.0002'
p3850
asS'Vondrejsov\xc3\x81'
p3851
(lp3852
S'0.0001'
p3853
asS'Veismanov\xc3\x81'
p3854
(lp3855
S'0.0001'
p3856
asS'Vyzinov\xc3\x81'
p3857
(lp3858
S'0.0008'
p3859
asS'Vismekov\xc3\x81'
p3860
(lp3861
S'0.0001'
p3862
asS'Ve\xc4\x8ce\xc5\x98\xc3\x81kov\xc3\x81'
p3863
(lp3864
S'0.0001'
p3865
asS'Vinklarov\xc3\x81'
p3866
(lp3867
S'0.0006'
p3868
asS'Vost\xc5\x98\xc3\x81kov\xc3\x81'
p3869
(lp3870
S'0.0031'
p3871
asS'Vl\xc4\x8cov\xc3\x81'
p3872
(lp3873
S'0.0007'
p3874
asS'Vovs\xc3\x8dkov\xc3\x81'
p3875
(lp3876
S'0.0015'
p3877
asS'Vodi\xc4\x8ckov\xc3\x81'
p3878
(lp3879
S'0.0553'
p3880
asS'Vechetov\xc3\x81'
p3881
(lp3882
S'0.0013'
p3883
asS'V\xc4\x9ast\xc3\x8dnsk\xc3\x81'
p3884
(lp3885
S'0.0001'
p3886
asS'Valigurov\xc3\x81'
p3887
(lp3888
S'0.0035'
p3889
asS'Vic\xc3\x81nyov\xc3\x81'
p3890
(lp3891
S'0.0001'
p3892
asS'Vilkov\xc3\x81'
p3893
(lp3894
S'0.0006'
p3895
asS'Vatrov\xc3\x81'
p3896
(lp3897
S'0.0002'
p3898
asS'V\xc4\x9atr\xc3\x81kov\xc3\x81'
p3899
(lp3900
S'0.0001'
p3901
asS'Vyd\xc5\x98ihostov\xc3\x81'
p3902
(lp3903
S'0.0001'
p3904
asS'Vagovi\xc4\x8cov\xc3\x81'
p3905
(lp3906
S'0.0001'
p3907
asS'Vok\xc3\x81lov\xc3\x81'
p3908
(lp3909
S'0.0090'
p3910
asS'Velemanov\xc3\x81'
p3911
(lp3912
S'0.0004'
p3913
asS'Vagr\xc4\x8ckov\xc3\x81'
p3914
(lp3915
S'0.0003'
p3916
asS'Valerov\xc3\x81'
p3917
(lp3918
S'0.0012'
p3919
asS'Viskupov\xc3\x81'
p3920
(lp3921
S'0.0009'
p3922
asS'Vronsk\xc3\x81'
p3923
(lp3924
S'0.0006'
p3925
asS'Vrz\xc3\x81\xc4\x8ckov\xc3\x81'
p3926
(lp3927
S'0.0021'
p3928
asS'Vastlov\xc3\x81'
p3929
(lp3930
S'0.0014'
p3931
asS'Vi\xc5\xa0icov\xc3\x81'
p3932
(lp3933
S'0.0001'
p3934
asS'Vochoskov\xc3\x81'
p3935
(lp3936
S'0.0003'
p3937
asS'Vrl\xc3\x8dkov\xc3\x81'
p3938
(lp3939
S'0.0016'
p3940
asS'Vechov\xc3\x81'
p3941
(lp3942
S'0.0005'
p3943
asS'V\xc3\x9dhodov\xc3\x81'
p3944
(lp3945
S'0.0001'
p3946
asS'Vacurov\xc3\x81'
p3947
(lp3948
S'0.0007'
p3949
asS'Vitalov\xc3\x81'
p3950
(lp3951
S'0.0002'
p3952
asS'Vopaskov\xc3\x81'
p3953
(lp3954
S'0.0004'
p3955
asS'Vy\xc5\xbdralov\xc3\x81'
p3956
(lp3957
S'0.0004'
p3958
asS'Vo\xc5\xbdehov\xc3\x81'
p3959
(lp3960
S'0.0007'
p3961
asS'Ve\xc4\x8clov\xc3\x81'
p3962
(lp3963
S'0.0002'
p3964
asS'Vy\xc5\xa0atov\xc3\x81'
p3965
(lp3966
S'0.0034'
p3967
asS'Vantuchov\xc3\x81'
p3968
(lp3969
S'0.0029'
p3970
asS'Voldanov\xc3\x81'
p3971
(lp3972
S'0.0003'
p3973
asS'Venenyov\xc3\x81'
p3974
(lp3975
S'0.0003'
p3976
asS'Venc\xc3\x81lkov\xc3\x81'
p3977
(lp3978
S'0.0028'
p3979
asS'Valachyov\xc3\x81'
p3980
(lp3981
S'0.0001'
p3982
asS'Vanekov\xc3\x81'
p3983
(lp3984
S'0.0003'
p3985
asS'Vencl\xc3\x8dkov\xc3\x81'
p3986
(lp3987
S'0.0051'
p3988
asS'Vengla\xc5\x98ov\xc3\x81'
p3989
(lp3990
S'0.0004'
p3991
asS'Vystrkov\xc3\x81'
p3992
(lp3993
S'0.0002'
p3994
asS'Vinohradsk\xc3\x81'
p3995
(lp3996
S'0.0007'
p3997
asS'Vr\xc5\x87\xc3\x81kov\xc3\x81'
p3998
(lp3999
S'0.0027'
p4000
asS'Voliansk\xc3\x81'
p4001
(lp4002
S'0.0001'
p4003
asS'Veli\xc4\x8ckov\xc3\x81'
p4004
(lp4005
S'0.0097'
p4006
asS'Valnerov\xc3\x81'
p4007
(lp4008
S'0.0001'
p4009
asS'Va\xc5\x98ilov\xc3\x81'
p4010
(lp4011
S'0.0012'
p4012
asS'Vidimov\xc3\x81'
p4013
(lp4014
S'0.0009'
p4015
asS'Vondr\xc3\x81\xc4\x8ckov\xc3\x81'
p4016
(lp4017
S'0.0487'
p4018
asS'V\xc3\x8dtovsk\xc3\x81'
p4019
(lp4020
S'0.0015'
p4021
asS'V\xc5\xa0etulov\xc3\x81'
p4022
(lp4023
S'0.0025'
p4024
asS'V\xc4\x9a\xc5\x98\xc3\x8d\xc5\xa0ov\xc3\x81'
p4025
(lp4026
S'0.0029'
p4027
asS'Vard\xc5\xbd\xc3\x81kov\xc3\x81'
p4028
(lp4029
S'0.0005'
p4030
asS'Venglo\xc5\x98ov\xc3\x81'
p4031
(lp4032
S'0.0002'
p4033
asS'Vici\xc3\x81nov\xc3\x81'
p4034
(lp4035
S'0.0002'
p4036
asS'Voz\xc5\x87\xc3\x81kov\xc3\x81'
p4037
(lp4038
S'0.0019'
p4039
asS'V\xc3\x81clavovi\xc4\x8cov\xc3\x81'
p4040
(lp4041
S'0.0008'
p4042
asS'Venutov\xc3\x81'
p4043
(lp4044
S'0.0006'
p4045
asS'Vachov\xc3\x81'
p4046
(lp4047
S'0.0119'
p4048
asS'Vyrob\xc3\x8dkov\xc3\x81'
p4049
(lp4050
S'0.0002'
p4051
asS'Vojarov\xc3\x81'
p4052
(lp4053
S'0.0006'
p4054
asS'Vargasov\xc3\x81'
p4055
(lp4056
S'0.0001'
p4057
asS'V\xc3\x81ro\xc5\xa0ov\xc3\x81'
p4058
(lp4059
S'0.0006'
p4060
asS'Vakov\xc3\x81'
p4061
(lp4062
S'0.0008'
p4063
asS'Vavru\xc5\xa0\xc3\x81kov\xc3\x81'
p4064
(lp4065
S'0.0003'
p4066
asS'Val\xc4\x8cevsk\xc3\x81'
p4067
(lp4068
S'0.0001'
p4069
asS'Vellerov\xc3\x81'
p4070
(lp4071
S'0.0001'
p4072
asS'Vrtkov\xc3\x81'
p4073
(lp4074
S'0.0012'
p4075
asS'Vasserbauerov\xc3\x81'
p4076
(lp4077
S'0.0002'
p4078
asS'Val\xc5\xa0\xc3\x8dkov\xc3\x81'
p4079
(lp4080
S'0.0002'
p4081
asS'Vol\xc3\x81\xc4\x8ckov\xc3\x81'
p4082
(lp4083
S'0.0001'
p4084
asS'V\xc4\x9acovsk\xc3\x81'
p4085
(lp4086
S'0.0001'
p4087
asS'V\xc4\x8celicov\xc3\x81'
p4088
(lp4089
S'0.0003'
p4090
asS'Vilasov\xc3\x81'
p4091
(lp4092
S'0.0005'
p4093
asS'Varguli\xc4\x8cov\xc3\x81'
p4094
(lp4095
S'0.0002'
p4096
asS'Vojtanov\xc3\x81'
p4097
(lp4098
S'0.0001'
p4099
asS'Viterov\xc3\x81'
p4100
(lp4101
S'0.0011'
p4102
asS'Vi\xc5\xa0inkov\xc3\x81'
p4103
(lp4104
S'0.0004'
p4105
asS'Vortnerov\xc3\x81'
p4106
(lp4107
S'0.0002'
p4108
asS'Veningerov\xc3\x81'
p4109
(lp4110
S'0.0002'
p4111
asS'Valent\xc3\x8dnyov\xc3\x81'
p4112
(lp4113
S'0.0001'
p4114
asS'Vor\xc3\x81lov\xc3\x81'
p4115
(lp4116
S'0.0001'
p4117
asS'Voj\xc4\x8cekov\xc3\x81'
p4118
(lp4119
S'0.0001'
p4120
asS'Vasi\xc4\x8c\xc3\x81kov\xc3\x81'
p4121
(lp4122
S'0.0001'
p4123
asS'Vevjorkov\xc3\x81'
p4124
(lp4125
S'0.0001'
p4126
asS'Vatlachov\xc3\x81'
p4127
(lp4128
S'0.0001'
p4129
asS'Vontrobov\xc3\x81'
p4130
(lp4131
S'0.0007'
p4132
asS'Volevikov\xc3\x81'
p4133
(lp4134
S'0.0001'
p4135
asS'Vragov\xc3\x81'
p4136
(lp4137
S'0.0002'
p4138
asS'Vina\xc5\x98sk\xc3\x81'
p4139
(lp4140
S'0.0003'
p4141
asS'Vav\xc5\x98in\xc3\x8dkov\xc3\x81'
p4142
(lp4143
S'0.0013'
p4144
asS'Veigertov\xc3\x81'
p4145
(lp4146
S'0.0005'
p4147
asS'Vond\xc5\x98\xc3\x8d\xc4\x8ckov\xc3\x81'
p4148
(lp4149
S'0.0002'
p4150
asS'Vejvan\xc4\x8cick\xc3\x81'
p4151
(lp4152
S'0.0008'
p4153
asS'Vostr\xc4\x8cilov\xc3\x81'
p4154
(lp4155
S'0.0015'
p4156
asS'Vrchotick\xc3\x81'
p4157
(lp4158
S'0.0004'
p4159
asS'Valenc\xc3\x8dnov\xc3\x81'
p4160
(lp4161
S'0.0001'
p4162
asS'Valn\xc3\x8d\xc4\x8ckov\xc3\x81'
p4163
(lp4164
S'0.0018'
p4165
asS'V\xc3\x8dde\xc5\x87kov\xc3\x81'
p4166
(lp4167
S'0.0001'
p4168
asS'Veselovsk\xc3\x81'
p4169
(lp4170
S'0.0045'
p4171
asS'Viglask\xc3\x81'
p4172
(lp4173
S'0.0005'
p4174
asS'Voseck\xc3\x81'
p4175
(lp4176
S'0.0050'
p4177
asS'Vrtn\xc3\x81'
p4178
(lp4179
S'0.0007'
p4180
asS'Vor\xc3\x81\xc4\x8ckov\xc3\x81'
p4181
(lp4182
S'0.0202'
p4183
asS'Vo\xc5\xa0lajerov\xc3\x81'
p4184
(lp4185
S'0.0009'
p4186
asS'Volo\xc5\xa0\xc3\x8dnov\xc3\x81'
p4187
(lp4188
S'0.0005'
p4189
asS'Vidi\xc5\xa0evsk\xc3\x81'
p4190
(lp4191
S'0.0003'
p4192
asS'Venzh\xc5\x90ferov\xc3\x81'
p4193
(lp4194
S'0.0003'
p4195
asS'Vec\xc3\x81nov\xc3\x81'
p4196
(lp4197
S'0.0001'
p4198
asS'Vele\xc5\xa0\xc3\x8dkov\xc3\x81'
p4199
(lp4200
S'0.0017'
p4201
asS'Voclo\xc5\x87ov\xc3\x81'
p4202
(lp4203
S'0.0001'
p4204
asS'Vojtovi\xc4\x8cov\xc3\x81'
p4205
(lp4206
S'0.0013'
p4207
asS'Veja\xc4\x8ckov\xc3\x81'
p4208
(lp4209
S'0.0001'
p4210
asS'Vajchrov\xc3\x81'
p4211
(lp4212
S'0.0002'
p4213
asS'Vasiliadu'
p4214
(lp4215
S'0.0001'
p4216
asS'Vorreiterov\xc3\x81'
p4217
(lp4218
S'0.0003'
p4219
asS'V\xc3\x81clav\xc3\x8dnkov\xc3\x81'
p4220
(lp4221
S'0.0005'
p4222
asS'Vala\xc5\xa0\xc5\xa4anov\xc3\x81'
p4223
(lp4224
S'0.0001'
p4225
asS'Valutov\xc3\x81'
p4226
(lp4227
S'0.0002'
p4228
asS'Vej\xc5\xa0ick\xc3\x81'
p4229
(lp4230
S'0.0011'
p4231
asS'Venu\xc5\xa0ov\xc3\x81'
p4232
(lp4233
S'0.0005'
p4234
asS'Veltrubsk\xc3\x81'
p4235
(lp4236
S'0.0002'
p4237
asS'Vitochov\xc3\x81'
p4238
(lp4239
S'0.0009'
p4240
asS'Vo\xc5\xa0m\xc3\x8dkov\xc3\x81'
p4241
(lp4242
S'0.0004'
p4243
asS'Veru\xc5\x87kov\xc3\x81'
p4244
(lp4245
S'0.0006'
p4246
asS'V\xc3\x81pen\xc3\x8dkov\xc3\x81'
p4247
(lp4248
S'0.0079'
p4249
asS'V\xc3\x89dlov\xc3\x81'
p4250
(lp4251
S'0.0002'
p4252
asS'Vyle\xc5\xbdichov\xc3\x81'
p4253
(lp4254
S'0.0001'
p4255
asS'Varnerov\xc3\x81'
p4256
(lp4257
S'0.0003'
p4258
asS'Vrbkov\xc3\x81'
p4259
(lp4260
S'0.0120'
p4261
asS'Vachlerov\xc3\x81'
p4262
(lp4263
S'0.0001'
p4264
asS'Viskotov\xc3\x81'
p4265
(lp4266
S'0.0005'
p4267
asS'Vit\xc3\x81mv\xc3\x81sov\xc3\x81'
p4268
(lp4269
S'0.0015'
p4270
asS'Volejnikov\xc3\x81'
p4271
(lp4272
S'0.0002'
p4273
asS'Vanclov\xc3\x81'
p4274
(lp4275
S'0.0041'
p4276
asS'Vukli\xc5\xa0evi\xc4\x8cov\xc3\x81'
p4277
(lp4278
S'0.0002'
p4279
asS'Vohral\xc3\x8dkov\xc3\x81'
p4280
(lp4281
S'0.0054'
p4282
asS'Vo\xc5\x98echov\xc3\x81'
p4283
(lp4284
S'0.0015'
p4285
asS'Vojtilov\xc3\x81'
p4286
(lp4287
S'0.0003'
p4288
asS'Verb\xc3\x8dkov\xc3\x81'
p4289
(lp4290
S'0.0027'
p4291
asS'Vojkov\xc3\x81'
p4292
(lp4293
S'0.0001'
p4294
asS'Vach\xc5\xaenkov\xc3\x81'
p4295
(lp4296
S'0.0001'
p4297
asS'Vankov\xc3\x81'
p4298
(lp4299
S'0.0031'
p4300
asS'Vainlichov\xc3\x81'
p4301
(lp4302
S'0.0002'
p4303
asS'Vo\xc5\x98echovsk\xc3\x81'
p4304
(lp4305
S'0.0016'
p4306
asS'Vi\xc4\x8carov\xc3\x81'
p4307
(lp4308
S'0.0049'
p4309
asS'Valochov\xc3\x81'
p4310
(lp4311
S'0.0002'
p4312
asS'V\xc4\x9at\xc5\x98ilov\xc3\x81'
p4313
(lp4314
S'0.0003'
p4315
asS'Valu\xc5\xa0t\xc3\x8dkov\xc3\x81'
p4316
(lp4317
S'0.0001'
p4318
asS'Vassov\xc3\x81'
p4319
(lp4320
S'0.0010'
p4321
asS'Valu\xc5\xa0kov\xc3\x81'
p4322
(lp4323
S'0.0015'
p4324
asS'Vy\xc5\xa0enkov\xc3\x81'
p4325
(lp4326
S'0.0001'
p4327
asS'Vajsochrov\xc3\x81'
p4328
(lp4329
S'0.0006'
p4330
asS'Vajov\xc3\x81'
p4331
(lp4332
S'0.0014'
p4333
asS'Valancov\xc3\x81'
p4334
(lp4335
S'0.0002'
p4336
asS'Vaumundov\xc3\x81'
p4337
(lp4338
S'0.0002'
p4339
asS'Vasiljevi\xc4\x8cov\xc3\x81'
p4340
(lp4341
S'0.0001'
p4342
asS'Vorlick\xc3\x81'
p4343
(lp4344
S'0.0026'
p4345
asS'Vaclavikov\xc3\x81'
p4346
(lp4347
S'0.0001'
p4348
asS'V\xc3\x8d\xc5\xa0kov\xc3\x81'
p4349
(lp4350
S'0.0174'
p4351
asS'Vr\xc5\xa4ov\xc3\x81'
p4352
(lp4353
S'0.0003'
p4354
asS'Videmanov\xc3\x81'
p4355
(lp4356
S'0.0009'
p4357
asS'Varcho\xc4\xbd\xc3\x81kov\xc3\x81'
p4358
(lp4359
S'0.0001'
p4360
asS'Va\xc5\x98ej\xc4\x8ckov\xc3\x81'
p4361
(lp4362
S'0.0014'
p4363
asS'Vorekov\xc3\x81'
p4364
(lp4365
S'0.0001'
p4366
asS'Va\xc5\xbdansk\xc3\x81'
p4367
(lp4368
S'0.0002'
p4369
asS'Velebn\xc3\x81'
p4370
(lp4371
S'0.0020'
p4372
asS'Von\xc3\x81skov\xc3\x81'
p4373
(lp4374
S'0.0016'
p4375
asS'Voc\xc3\x81skov\xc3\x81'
p4376
(lp4377
S'0.0069'
p4378
asS'Vrt\xc3\x8dlkov\xc3\x81'
p4379
(lp4380
S'0.0025'
p4381
asS'Voithov\xc3\x81'
p4382
(lp4383
S'0.0005'
p4384
asS'Vimrov\xc3\x81'
p4385
(lp4386
S'0.0040'
p4387
asS'Vito\xc5\xa0kov\xc3\x81'
p4388
(lp4389
S'0.0002'
p4390
asS'Vondru\xc5\xa0kov\xc3\x81'
p4391
(lp4392
S'0.0123'
p4393
asS'Veselsk\xc3\x81'
p4394
(lp4395
S'0.0122'
p4396
asS'Vobinu\xc5\xa0kov\xc3\x81'
p4397
(lp4398
S'0.0006'
p4399
asS'Vorl\xc3\x8d\xc4\x8ckov\xc3\x81'
p4400
(lp4401
S'0.0190'
p4402
asS'Volf\xc3\x8dkov\xc3\x81'
p4403
(lp4404
S'0.0016'
p4405
asS'V\xc4\x9at\xc5\x98\xc3\x8d\xc5\xa0kov\xc3\x81'
p4406
(lp4407
S'0.0007'
p4408
asS'Vatrasov\xc3\x81'
p4409
(lp4410
S'0.0002'
p4411
asS'Vodrlindov\xc3\x81'
p4412
(lp4413
S'0.0002'
p4414
asS'V\xc3\x81\xc5\xbdn\xc3\x81'
p4415
(lp4416
S'0.0010'
p4417
asS'Vokuli\xc4\x8cov\xc3\x81'
p4418
(lp4419
S'0.0003'
p4420
asS'Vidmochov\xc3\x81'
p4421
(lp4422
S'0.0003'
p4423
asS'Vo\xc5\xbdn\xc3\x8dkov\xc3\x81'
p4424
(lp4425
S'0.0001'
p4426
asS'V\xc3\x81vrov\xc3\x81'
p4427
(lp4428
S'0.1190'
p4429
asS'Vicenov\xc3\x81'
p4430
(lp4431
S'0.0008'
p4432
asS'Vojanov\xc3\x81'
p4433
(lp4434
S'0.0004'
p4435
asS'V\xc5\xa0echovsk\xc3\x81'
p4436
(lp4437
S'0.0005'
p4438
asS'Volicerov\xc3\x81'
p4439
(lp4440
S'0.0002'
p4441
asS'Va\xc5\xa0k\xc5\xae'
p4442
(lp4443
S'0.0034'
p4444
asS'Viochnov\xc3\x81'
p4445
(lp4446
S'0.0005'
p4447
asS'Vrt\xc4\x9anov\xc3\x81'
p4448
(lp4449
S'0.0012'
p4450
asS'Vohradn\xc3\x8dkov\xc3\x81'
p4451
(lp4452
S'0.0022'
p4453
asS'Vartov\xc3\x81'
p4454
(lp4455
S'0.0010'
p4456
asS'Vachalovsk\xc3\x81'
p4457
(lp4458
S'0.0004'
p4459
asS'Va\xc5\xa0ekov\xc3\x81'
p4460
(lp4461
S'0.0002'
p4462
asS'Vasili\xc5\xa0inov\xc3\x81'
p4463
(lp4464
S'0.0002'
p4465
asS'Vaszilov\xc3\x81'
p4466
(lp4467
S'0.0001'
p4468
asS'Velgosov\xc3\x81'
p4469
(lp4470
S'0.0002'
p4471
asS'V\xc3\x81verkov\xc3\x81'
p4472
(lp4473
S'0.0012'
p4474
asS'Vdoviakov\xc3\x81'
p4475
(lp4476
S'0.0003'
p4477
asS'Votoupalov\xc3\x81'
p4478
(lp4479
S'0.0021'
p4480
asS'Vok\xc3\x81lkov\xc3\x81'
p4481
(lp4482
S'0.0020'
p4483
asS'Vasiov\xc3\x81'
p4484
(lp4485
S'0.0002'
p4486
asS'Voj\xc3\x8d\xc5\x98ov\xc3\x81'
p4487
(lp4488
S'0.0057'
p4489
asS'Vlosinsk\xc3\x81'
p4490
(lp4491
S'0.0001'
p4492
asS'Varadiov\xc3\x81'
p4493
(lp4494
S'0.0010'
p4495
asS'Vakulov\xc3\x81'
p4496
(lp4497
S'0.0005'
p4498
asS'Vysly\xc5\xa0elov\xc3\x81'
p4499
(lp4500
S'0.0003'
p4501
asS'Virglerov\xc3\x81'
p4502
(lp4503
S'0.0008'
p4504
asS'Vittkov\xc3\x81'
p4505
(lp4506
S'0.0002'
p4507
asS'Vaidov\xc3\x81'
p4508
(lp4509
S'0.0005'
p4510
asS'Vajzov\xc3\x81'
p4511
(lp4512
S'0.0002'
p4513
asS'V\xc3\x8dt\xc5\xae'
p4514
(lp4515
S'0.0063'
p4516
asS'Vlach\xc3\x81'
p4517
(lp4518
S'0.0012'
p4519
asS'Vrb\xc5\x87\xc3\x81kov\xc3\x81'
p4520
(lp4521
S'0.0004'
p4522
asS'Vege\xc5\xa0ov\xc3\x81'
p4523
(lp4524
S'0.0003'
p4525
asS'Vudiov\xc3\x81'
p4526
(lp4527
S'0.0001'
p4528
asS'Vagayov\xc3\x81'
p4529
(lp4530
S'0.0001'
p4531
asS'Vot\xc3\x8dnsk\xc3\x81'
p4532
(lp4533
S'0.0001'
p4534
asS'Vinzensov\xc3\x81'
p4535
(lp4536
S'0.0005'
p4537
asS'Vavra\xc4\x8cov\xc3\x81'
p4538
(lp4539
S'0.0006'
p4540
asS'Vedl\xc3\x8dkov\xc3\x81'
p4541
(lp4542
S'0.0002'
p4543
asS'Velikovsk\xc3\x81'
p4544
(lp4545
S'0.0016'
p4546
asS'Velechov\xc3\x81'
p4547
(lp4548
S'0.0008'
p4549
asS'Veitlov\xc3\x81'
p4550
(lp4551
S'0.0001'
p4552
asS'Varadyov\xc3\x81'
p4553
(lp4554
S'0.0005'
p4555
asS'Veltrusk\xc3\x81'
p4556
(lp4557
S'0.0022'
p4558
asS'Va\xc5\xa0kovsk\xc3\x81'
p4559
(lp4560
S'0.0004'
p4561
asS'V\xc3\x96hnlov\xc3\x81'
p4562
(lp4563
S'0.0001'
p4564
asS'V\xc3\x81pen\xc3\x8d\xc4\x8ckov\xc3\x81'
p4565
(lp4566
S'0.0003'
p4567
asS'Vajde\xc4\x8ckov\xc3\x81'
p4568
(lp4569
S'0.0003'
p4570
asS'Ve\xc4\x8cerov\xc3\x81'
p4571
(lp4572
S'0.0003'
p4573
asS'Vyda\xc5\x98il\xc3\x81'
p4574
(lp4575
S'0.0001'
p4576
asS'Vybran\xc4\x8c\xc3\x8dkov\xc3\x81'
p4577
(lp4578
S'0.0003'
p4579
asS'Vlastn\xc3\x8dkov\xc3\x81'
p4580
(lp4581
S'0.0041'
p4582
asS'Voclonov\xc3\x81'
p4583
(lp4584
S'0.0002'
p4585
asS'Va\xc5\xa0\xc4\x8cukov\xc3\x81'
p4586
(lp4587
S'0.0002'
p4588
asS'Vl\xc4\x8c\xc3\x8dkov\xc3\x81'
p4589
(lp4590
S'0.0002'
p4591
asS'Vos\xc3\x81dkov\xc3\x81'
p4592
(lp4593
S'0.0001'
p4594
asS'Vyhodov\xc3\x81'
p4595
(lp4596
S'0.0001'
p4597
asS'Vojnarov\xc3\x81'
p4598
(lp4599
S'0.0024'
p4600
asS'V\xc3\x81clavi\xc4\x8cov\xc3\x81'
p4601
(lp4602
S'0.0001'
p4603
asS'Varmu\xc5\xbdkov\xc3\x81'
p4604
(lp4605
S'0.0006'
p4606
asS'Vandl\xc3\x8d\xc4\x8ckov\xc3\x81'
p4607
(lp4608
S'0.0005'
p4609
asS'Vitonsk\xc3\x81'
p4610
(lp4611
S'0.0003'
p4612
asS'Vep\xc5\x98ekov\xc3\x81'
p4613
(lp4614
S'0.0048'
p4615
asS'Vysko\xc4\x8cov\xc3\x81'
p4616
(lp4617
S'0.0003'
p4618
asS'Valkovi\xc4\x8cov\xc3\x81'
p4619
(lp4620
S'0.0016'
p4621
asS'Varadinov\xc3\x81'
p4622
(lp4623
S'0.0002'
p4624
asS'Vyb\xc3\x8dhalov\xc3\x81'
p4625
(lp4626
S'0.0056'
p4627
asS'Vazdov\xc3\x81'
p4628
(lp4629
S'0.0006'
p4630
asS'Vejborov\xc3\x81'
p4631
(lp4632
S'0.0005'
p4633
asS'Vokrov\xc3\x81'
p4634
(lp4635
S'0.0001'
p4636
asS'Vybra\xc5\x87cov\xc3\x81'
p4637
(lp4638
S'0.0001'
p4639
asS'Vlko\xc5\xa0ov\xc3\x81'
p4640
(lp4641
S'0.0003'
p4642
asS'Vy\xc5\xbdr\xc3\x81lkov\xc3\x81'
p4643
(lp4644
S'0.0013'
p4645
asS'Vortelov\xc3\x81'
p4646
(lp4647
S'0.0010'
p4648
asS'Velkoborsk\xc3\x81'
p4649
(lp4650
S'0.0013'
p4651
asS'Vrtilkov\xc3\x81'
p4652
(lp4653
S'0.0004'
p4654
asS'Valdaufov\xc3\x81'
p4655
(lp4656
S'0.0005'
p4657
asS'Vinklerov\xc3\x81'
p4658
(lp4659
S'0.0113'
p4660
asS'Varnu\xc5\xa0kov\xc3\x81'
p4661
(lp4662
S'0.0005'
p4663
asS'V\xc5\x98etonkov\xc3\x81'
p4664
(lp4665
S'0.0001'
p4666
asS'Vydomusov\xc3\x81'
p4667
(lp4668
S'0.0002'
p4669
asS'Vrbov\xc3\x81'
p4670
(lp4671
S'0.0696'
p4672
asS'Vy\xc5\xa0n\xc3\x81'
p4673
(lp4674
S'0.0003'
p4675
asS'Vycudil\xc3\x8dkov\xc3\x81'
p4676
(lp4677
S'0.0019'
p4678
asS'Viznarov\xc3\x81'
p4679
(lp4680
S'0.0005'
p4681
asS'Vrab\xc3\x8dkov\xc3\x81'
p4682
(lp4683
S'0.0001'
p4684
asS'Velem\xc3\x8dnsk\xc3\x81'
p4685
(lp4686
S'0.0002'
p4687
asS'Visto\xc5\x98\xc3\x8dnov\xc3\x81'
p4688
(lp4689
S'0.0001'
p4690
asS'Vilimovsk\xc3\x81'
p4691
(lp4692
S'0.0021'
p4693
asS'Vrkotov\xc3\x81'
p4694
(lp4695
S'0.0012'
p4696
asS'Vrablcov\xc3\x81'
p4697
(lp4698
S'0.0003'
p4699
asS'Vignerov\xc3\x81'
p4700
(lp4701
S'0.0004'
p4702
asS'Vali\xc4\x8ckov\xc3\x81'
p4703
(lp4704
S'0.0014'
p4705
asS'Vrchovsk\xc3\x81'
p4706
(lp4707
S'0.0018'
p4708
asS'Vangelov\xc3\x81'
p4709
(lp4710
S'0.0001'
p4711
asS'Vasilievov\xc3\x81'
p4712
(lp4713
S'0.0001'
p4714
asS'Vagerov\xc3\x81'
p4715
(lp4716
S'0.0001'
p4717
asS'Vodehnalov\xc3\x81'
p4718
(lp4719
S'0.0050'
p4720
asS'Vitamv\xc3\x81sov\xc3\x81'
p4721
(lp4722
S'0.0006'
p4723
asS'Vidersperkov\xc3\x81'
p4724
(lp4725
S'0.0001'
p4726
asS'Vod\xc4\x9arov\xc3\x81'
p4727
(lp4728
S'0.0008'
p4729
asS'Vachal\xc3\x8dkov\xc3\x81'
p4730
(lp4731
S'0.0006'
p4732
asS'Vodv\xc3\x81\xc5\x98kov\xc3\x81'
p4733
(lp4734
S'0.0026'
p4735
asS'Vart\xc3\x9d\xc5\x98ov\xc3\x81'
p4736
(lp4737
S'0.0004'
p4738
asS'Vina\xc5\x98ov\xc3\x81'
p4739
(lp4740
S'0.0029'
p4741
asS'Voz\xc3\x81balov\xc3\x81'
p4742
(lp4743
S'0.0016'
p4744
asS'Vaistauerov\xc3\x81'
p4745
(lp4746
S'0.0003'
p4747
asS'Vlasjukov\xc3\x81'
p4748
(lp4749
S'0.0001'
p4750
asS'Vasil\xc4\x8cinov\xc3\x81'
p4751
(lp4752
S'0.0001'
p4753
asS'Vokasov\xc3\x81'
p4754
(lp4755
S'0.0004'
p4756
asS'Vurbalov\xc3\x81'
p4757
(lp4758
S'0.0003'
p4759
asS'Vit\xc3\x81\xc4\x8ckov\xc3\x81'
p4760
(lp4761
S'0.0018'
p4762
asS'V\xc3\x89vodov\xc3\x81'
p4763
(lp4764
S'0.0050'
p4765
asS'Vohrabalov\xc3\x81'
p4766
(lp4767
S'0.0003'
p4768
asS'Vyskotov\xc3\x81'
p4769
(lp4770
S'0.0010'
p4771
asS'Vlochov\xc3\x81'
p4772
(lp4773
S'0.0002'
p4774
asS'Vitti\xc5\xa0ov\xc3\x81'
p4775
(lp4776
S'0.0002'
p4777
asS'Vrati\xc5\xa0ovsk\xc3\x81'
p4778
(lp4779
S'0.0002'
p4780
asS'Venclovsk\xc3\x81'
p4781
(lp4782
S'0.0009'
p4783
asS'Val\xc4\x8cukov\xc3\x81'
p4784
(lp4785
S'0.0001'
p4786
asS'V\xc3\x9dskalov\xc3\x81'
p4787
(lp4788
S'0.0013'
p4789
asS'Va\xc5\x87ourkov\xc3\x81'
p4790
(lp4791
S'0.0028'
p4792
asS'Ve\xc5\x98mi\xc5\x98ovsk\xc3\x81'
p4793
(lp4794
S'0.0019'
p4795
asS'Vahal\xc3\x8dkov\xc3\x81'
p4796
(lp4797
S'0.0024'
p4798
asS'Vob\xc5\xaerkov\xc3\x81'
p4799
(lp4800
S'0.0010'
p4801
asS'Va\xc4\x8curov\xc3\x81'
p4802
(lp4803
S'0.0001'
p4804
asS'Vorderwinklerov\xc3\x81'
p4805
(lp4806
S'0.0001'
p4807
asS'Val\xc3\x8dnov\xc3\x81'
p4808
(lp4809
S'0.0006'
p4810
asS'Vy\xc5\xa0\xc5\x87ovsk\xc3\x81'
p4811
(lp4812
S'0.0003'
p4813
asS'Volhejnov\xc3\x81'
p4814
(lp4815
S'0.0028'
p4816
asS'Valentkov\xc3\x81'
p4817
(lp4818
S'0.0001'
p4819
asS'Van\xc5\xa0urov\xc3\x81'
p4820
(lp4821
S'0.0002'
p4822
asS'Vyso\xc4\x8cansk\xc3\x81'
p4823
(lp4824
S'0.0001'
p4825
asS'Vadinsk\xc3\x81'
p4826
(lp4827
S'0.0009'
p4828
asS'Vichtereyov\xc3\x81'
p4829
(lp4830
S'0.0003'
p4831
asS'V\xc3\x8dtovcov\xc3\x81'
p4832
(lp4833
S'0.0092'
p4834
asS'Vondalov\xc3\x81'
p4835
(lp4836
S'0.0003'
p4837
asS'Vovorsk\xc3\x81'
p4838
(lp4839
S'0.0001'
p4840
asS'Voltov\xc3\x81'
p4841
(lp4842
S'0.0005'
p4843
asS'Voz\xc3\x81ryov\xc3\x81'
p4844
(lp4845
S'0.0002'
p4846
asS'Veinarov\xc3\x81'
p4847
(lp4848
S'0.0001'
p4849
asS'Volejn\xc3\x8d\xc4\x8ckov\xc3\x81'
p4850
(lp4851
S'0.0010'
p4852
asS'Verov\xc3\x81'
p4853
(lp4854
S'0.0002'
p4855
asS'Vendrick\xc3\x81'
p4856
(lp4857
S'0.0001'
p4858
asS'V\xc3\x81clavovsk\xc3\x81'
p4859
(lp4860
S'0.0004'
p4861
asS'Vopatov\xc3\x81'
p4862
(lp4863
S'0.0084'
p4864
asS'Vokounov\xc3\x81'
p4865
(lp4866
S'0.0154'
p4867
asS'Vilh\xc3\x81mov\xc3\x81'
p4868
(lp4869
S'0.0001'
p4870
asS'Velnerov\xc3\x81'
p4871
(lp4872
S'0.0005'
p4873
asS'V\xc4\x9achetov\xc3\x81'
p4874
(lp4875
S'0.0015'
p4876
asS'Vrbjarov\xc3\x81'
p4877
(lp4878
S'0.0001'
p4879
asS'Vav\xc5\x98ichov\xc3\x81'
p4880
(lp4881
S'0.0025'
p4882
asS'Vahalov\xc3\x81'
p4883
(lp4884
S'0.0030'
p4885
asS'Vr\xc5\x87atov\xc3\x81'
p4886
(lp4887
S'0.0020'
p4888
asS'Vetern\xc3\x8dkov\xc3\x81'
p4889
(lp4890
S'0.0001'
p4891
asS'Vi\xc5\x87ansk\xc3\x81'
p4892
(lp4893
S'0.0001'
p4894
asS'Vindov\xc3\x81'
p4895
(lp4896
S'0.0001'
p4897
asS'Va\xc5\xbd\xc3\x8dkov\xc3\x81'
p4898
(lp4899
S'0.0007'
p4900
asS'Vla\xc5\xa0kovsk\xc3\x81'
p4901
(lp4902
S'0.0001'
p4903
asS'Visnyaiov\xc3\x81'
p4904
(lp4905
S'0.0002'
p4906
asS'Vigla\xc5\xa0ov\xc3\x81'
p4907
(lp4908
S'0.0001'
p4909
asS'Vrbinsk\xc3\x81'
p4910
(lp4911
S'0.0001'
p4912
asS'Vrane\xc5\xa0icov\xc3\x81'
p4913
(lp4914
S'0.0004'
p4915
asS'Vi\xc5\xa0\xc4\x8c\xc3\x81kov\xc3\x81'
p4916
(lp4917
S'0.0001'
p4918
asS'Vykoukalov\xc3\x81'
p4919
(lp4920
S'0.0095'
p4921
asS'Vojt\xc3\x81skov\xc3\x81'
p4922
(lp4923
S'0.0004'
p4924
asS'Varadzinov\xc3\x81'
p4925
(lp4926
S'0.0002'
p4927
asS'Vetrov\xc3\x81'
p4928
(lp4929
S'0.0012'
p4930
asS'Voce\xc4\x8e\xc3\x81lkov\xc3\x81'
p4931
(lp4932
S'0.0001'
p4933
asS'Vendlerov\xc3\x81'
p4934
(lp4935
S'0.0008'
p4936
asS'Vt\xc3\x8dpilov\xc3\x81'
p4937
(lp4938
S'0.0036'
p4939
asS'Velimov\xc3\x81'
p4940
(lp4941
S'0.0001'
p4942
asS'Voc\xc5\xae'
p4943
(lp4944
S'0.0008'
p4945
asS'Valiov\xc3\x81'
p4946
(lp4947
S'0.0001'
p4948
asS'Vinikarov\xc3\x81'
p4949
(lp4950
S'0.0001'
p4951
asS'Vachalcov\xc3\x81'
p4952
(lp4953
S'0.0008'
p4954
asS'Valasov\xc3\x81'
p4955
(lp4956
S'0.0015'
p4957
asS'Vykoukov\xc3\x81'
p4958
(lp4959
S'0.0023'
p4960
asS'Vysu\xc4\x8ckov\xc3\x81'
p4961
(lp4962
S'0.0002'
p4963
asS'Vond\xc3\x81lov\xc3\x81'
p4964
(lp4965
S'0.0021'
p4966
asS'Val\xc3\x81rikov\xc3\x81'
p4967
(lp4968
S'0.0001'
p4969
asS'Vyhnal\xc3\x8dkov\xc3\x81'
p4970
(lp4971
S'0.0018'
p4972
asS'Valdov\xc3\x81'
p4973
(lp4974
S'0.0047'
p4975
asS'Vicen\xc3\x8dkov\xc3\x81'
p4976
(lp4977
S'0.0033'
p4978
asS'Vasov\xc3\x81'
p4979
(lp4980
S'0.0003'
p4981
asS'Vingral\xc4\x8c\xc3\x8dkov\xc3\x81'
p4982
(lp4983
S'0.0002'
p4984
asS'Vnukov\xc3\x81'
p4985
(lp4986
S'0.0027'
p4987
asS'Vrt\xc3\x81\xc4\x8ckov\xc3\x81'
p4988
(lp4989
S'0.0005'
p4990
asS'Vondrusov\xc3\x81'
p4991
(lp4992
S'0.0010'
p4993
asS'Vilitov\xc3\x81'
p4994
(lp4995
S'0.0001'
p4996
asS'Vittvarov\xc3\x81'
p4997
(lp4998
S'0.0001'
p4999
asS'Vojt\xc3\x8dkov\xc3\x81'
p5000
(lp5001
S'0.0024'
p5002
asS'Vla\xc5\xa0\xc3\x81nkov\xc3\x81'
p5003
(lp5004
S'0.0014'
p5005
asS'Varausov\xc3\x81'
p5006
(lp5007
S'0.0005'
p5008
asS'Vrhelov\xc3\x81'
p5009
(lp5010
S'0.0023'
p5011
asS'Vili\xc5\xa0ov\xc3\x81'
p5012
(lp5013
S'0.0024'
p5014
asS'Veisenpacherov\xc3\x81'
p5015
(lp5016
S'0.0001'
p5017
asS'V\xc3\x8ddr\xc5\xa0perkov\xc3\x81'
p5018
(lp5019
S'0.0002'
p5020
asS'Vegov\xc3\x81'
p5021
(lp5022
S'0.0002'
p5023
asS'Vildmanov\xc3\x81'
p5024
(lp5025
S'0.0011'
p5026
asS'Vigov\xc3\x81'
p5027
(lp5028
S'0.0003'
p5029
asS'Vidmarov\xc3\x81'
p5030
(lp5031
S'0.0001'
p5032
asS'Varmusov\xc3\x81'
p5033
(lp5034
S'0.0008'
p5035
asS'Vrubelov\xc3\x81'
p5036
(lp5037
S'0.0021'
p5038
asS'Vra\xc5\x87anov\xc3\x81'
p5039
(lp5040
S'0.0004'
p5041
asS'Vasiljevov\xc3\x81'
p5042
(lp5043
S'0.0002'
p5044
asS'Vlnov\xc3\x81'
p5045
(lp5046
S'0.0029'
p5047
asS'Vondrovicov\xc3\x81'
p5048
(lp5049
S'0.0015'
p5050
asS'Vacul\xc3\x8dkov\xc3\x81'
p5051
(lp5052
S'0.0343'
p5053
asS'Vysogladov\xc3\x81'
p5054
(lp5055
S'0.0004'
p5056
asS'Valachovi\xc4\x8cov\xc3\x81'
p5057
(lp5058
S'0.0024'
p5059
asS'Vesele\xc5\x87\xc3\x81kov\xc3\x81'
p5060
(lp5061
S'0.0005'
p5062
asS'Vajlikov\xc3\x81'
p5063
(lp5064
S'0.0001'
p5065
asS'Vobrubov\xc3\x81'
p5066
(lp5067
S'0.0018'
p5068
asS'Vojnovi\xc4\x8cov\xc3\x81'
p5069
(lp5070
S'0.0001'
p5071
asS'Vavry\xc4\x8cukov\xc3\x81'
p5072
(lp5073
S'0.0001'
p5074
asS'Veitov\xc3\x81'
p5075
(lp5076
S'0.0035'
p5077
asS'Vochy\xc3\x81nov\xc3\x81'
p5078
(lp5079
S'0.0010'
p5080
asS'Vrablicov\xc3\x81'
p5081
(lp5082
S'0.0009'
p5083
asS'Ver\xc3\x89bov\xc3\x81'
p5084
(lp5085
S'0.0002'
p5086
asS'Varcholkov\xc3\x81'
p5087
(lp5088
S'0.0001'
p5089
asS'Vachalov\xc3\x81'
p5090
(lp5091
S'0.0018'
p5092
asS'Vasukov\xc3\x81'
p5093
(lp5094
S'0.0001'
p5095
asS'Vopravilov\xc3\x81'
p5096
(lp5097
S'0.0023'
p5098
asS'Visskov\xc3\x81'
p5099
(lp5100
S'0.0001'
p5101
asS'V\xc4\x9a\xc5\x98bov\xc3\x81'
p5102
(lp5103
S'0.0001'
p5104
asS'Vilmanov\xc3\x81'
p5105
(lp5106
S'0.0001'
p5107
asS'Va\xc5\x87u\xc5\xa0ov\xc3\x81'
p5108
(lp5109
S'0.0002'
p5110
asS'Varko\xc4\x8ckov\xc3\x81'
p5111
(lp5112
S'0.0008'
p5113
asS'Vajgertov\xc3\x81'
p5114
(lp5115
S'0.0003'
p5116
asS'Votypkov\xc3\x81'
p5117
(lp5118
S'0.0002'
p5119
asS'Vidrov\xc3\x81'
p5120
(lp5121
S'0.0006'
p5122
asS'V\xc3\x8dtk\xc5\xae'
p5123
(lp5124
S'0.0001'
p5125
asS'Vogelov\xc3\x81'
p5126
(lp5127
S'0.0059'
p5128
asS'Vedejov\xc3\x81'
p5129
(lp5130
S'0.0005'
p5131
asS'Va\xc5\xa0tagov\xc3\x81'
p5132
(lp5133
S'0.0004'
p5134
asS'Volopichov\xc3\x81'
p5135
(lp5136
S'0.0003'
p5137
asS'Vostalov\xc3\x81'
p5138
(lp5139
S'0.0032'
p5140
asS'Vavrochov\xc3\x81'
p5141
(lp5142
S'0.0030'
p5143
asS'Vol\xc5\xa0t\xc3\x81tov\xc3\x81'
p5144
(lp5145
S'0.0011'
p5146
asS'Vejsov\xc3\x81'
p5147
(lp5148
S'0.0015'
p5149
asS'Vajbarov\xc3\x81'
p5150
(lp5151
S'0.0022'
p5152
asS'Vaicov\xc3\x81'
p5153
(lp5154
S'0.0029'
p5155
asS'Vy\xc5\xa0inkov\xc3\x81'
p5156
(lp5157
S'0.0012'
p5158
asS'Vi\xc5\xa0\xc5\x87arov\xc3\x81'
p5159
(lp5160
S'0.0002'
p5161
asS'Vavre\xc4\x8canov\xc3\x81'
p5162
(lp5163
S'0.0003'
p5164
asS'Vada\xc5\xa0ov\xc3\x81'
p5165
(lp5166
S'0.0001'
p5167
asS'Vinkl\xc3\x81tov\xc3\x81'
p5168
(lp5169
S'0.0007'
p5170
asS'Vocetkov\xc3\x81'
p5171
(lp5172
S'0.0026'
p5173
asS'Vytej\xc4\x8ckov\xc3\x81'
p5174
(lp5175
S'0.0011'
p5176
asS'Varhol\xc3\x8dkov\xc3\x81'
p5177
(lp5178
S'0.0003'
p5179
asS'Vl\xc4\x8ckov\xc3\x81'
p5180
(lp5181
S'0.1419'
p5182
asS'Vobickov\xc3\x81'
p5183
(lp5184
S'0.0001'
p5185
asS'Van\xc4\x9arov\xc3\x81'
p5186
(lp5187
S'0.0001'
p5188
asS'Velkov\xc3\x81'
p5189
(lp5190
S'0.0078'
p5191
asS'V\xc3\x81clavikov\xc3\x81'
p5192
(lp5193
S'0.0007'
p5194
asS'Vonak\xc3\x81'
p5195
(lp5196
S'0.0002'
p5197
asS'Voj\xc3\x8dkov\xc3\x81'
p5198
(lp5199
S'0.0040'
p5200
asS'Vyhn\xc3\x81lkov\xc3\x81'
p5201
(lp5202
S'0.0113'
p5203
asS'Vil\xc4\x8cov\xc3\x81'
p5204
(lp5205
S'0.0007'
p5206
asS'Vymetalov\xc3\x81'
p5207
(lp5208
S'0.0004'
p5209
asS'Vi\xc5\xa0novsk\xc3\x81'
p5210
(lp5211
S'0.0003'
p5212
asS'Vr\xc5\xa4\xc3\x81tkov\xc3\x81'
p5213
(lp5214
S'0.0005'
p5215
asS'Veitsov\xc3\x81'
p5216
(lp5217
S'0.0003'
p5218
asS'Va\xc5\x98ejkov\xc3\x81'
p5219
(lp5220
S'0.0023'
p5221
asS'Vorbov\xc3\x81'
p5222
(lp5223
S'0.0013'
p5224
asS'Vy\xc4\x8cichlov\xc3\x81'
p5225
(lp5226
S'0.0028'
p5227
asS'Vodkov\xc3\x81'
p5228
(lp5229
S'0.0001'
p5230
asS'Vitk\xc5\xae'
p5231
(lp5232
S'0.0001'
p5233
asS'Vychope\xc5\x87ov\xc3\x81'
p5234
(lp5235
S'0.0004'
p5236
asS'Vavro\xc5\x87ov\xc3\x81'
p5237
(lp5238
S'0.0008'
p5239
asS'Voh\xc3\x81kov\xc3\x81'
p5240
(lp5241
S'0.0001'
p5242
asS'Vylitov\xc3\x81'
p5243
(lp5244
S'0.0006'
p5245
asS'Vichtorov\xc3\x81'
p5246
(lp5247
S'0.0005'
p5248
asS'Valent\xc3\x8dnov\xc3\x81'
p5249
(lp5250
S'0.0002'
p5251
asS'Va\xc5\x98ekov\xc3\x81'
p5252
(lp5253
S'0.0107'
p5254
asS'Vierikov\xc3\x81'
p5255
(lp5256
S'0.0003'
p5257
asS'Ve\xc5\xa4kov\xc3\x81'
p5258
(lp5259
S'0.0002'
p5260
asS'Vondr\xc3\x81\xc5\xa0ov\xc3\x81'
p5261
(lp5262
S'0.0003'
p5263
asS'V\xc5\xa0ete\xc4\x8ckov\xc3\x81'
p5264
(lp5265
S'0.0091'
p5266
asS'Vogtov\xc3\x81'
p5267
(lp5268
S'0.0010'
p5269
asS'Vroblov\xc3\x81'
p5270
(lp5271
S'0.0026'
p5272
asS'Vasilenkov\xc3\x81'
p5273
(lp5274
S'0.0004'
p5275
asS'Velichov\xc3\x81'
p5276
(lp5277
S'0.0036'
p5278
asS'Vejd\xc4\x9alkov\xc3\x81'
p5279
(lp5280
S'0.0033'
p5281
asS'Volo\xc5\xa0ov\xc3\x81'
p5282
(lp5283
S'0.0002'
p5284
asS'Vinikl\xc3\x81\xc5\x98ov\xc3\x81'
p5285
(lp5286
S'0.0001'
p5287
asS'Verfelov\xc3\x81'
p5288
(lp5289
S'0.0001'
p5290
asS'Voz\xc3\x81bov\xc3\x81'
p5291
(lp5292
S'0.0029'
p5293
asS'Vyktorinov\xc3\x81'
p5294
(lp5295
S'0.0002'
p5296
asS'Vostarkov\xc3\x81'
p5297
(lp5298
S'0.0010'
p5299
asS'Votroubkov\xc3\x81'
p5300
(lp5301
S'0.0043'
p5302
asS'Va\xc5\xa0endov\xc3\x81'
p5303
(lp5304
S'0.0025'
p5305
asS'Vacl\xc3\x8dkov\xc3\x81'
p5306
(lp5307
S'0.0014'
p5308
asS'Velebilov\xc3\x81'
p5309
(lp5310
S'0.0045'
p5311
asS'Vomastkov\xc3\x81'
p5312
(lp5313
S'0.0020'
p5314
asS'Vot\xc3\x9dpkov\xc3\x81'
p5315
(lp5316
S'0.0060'
p5317
asS'Vetl\xc3\x81'
p5318
(lp5319
S'0.0002'
p5320
asS'Vo\xc5\xa0oustov\xc3\x81'
p5321
(lp5322
S'0.0008'
p5323
asS'Virtov\xc3\x81'
p5324
(lp5325
S'0.0030'
p5326
asS'Vit\xc3\x81skov\xc3\x81'
p5327
(lp5328
S'0.0156'
p5329
asS'Voh\xc3\x81rov\xc3\x81'
p5330
(lp5331
S'0.0003'
p5332
asS'Vulcov\xc3\x81'
p5333
(lp5334
S'0.0003'
p5335
asS'Vicencov\xc3\x81'
p5336
(lp5337
S'0.0012'
p5338
asS'Vrz\xc3\x81kov\xc3\x81'
p5339
(lp5340
S'0.0047'
p5341
asS'Vinklarkov\xc3\x81'
p5342
(lp5343
S'0.0002'
p5344
asS'Voku\xc5\xa0ov\xc3\x81'
p5345
(lp5346
S'0.0002'
p5347
asS'Vilhumov\xc3\x81'
p5348
(lp5349
S'0.0003'
p5350
asS'Vengrinov\xc3\x81'
p5351
(lp5352
S'0.0002'
p5353
asS'Versteegov\xc3\x81'
p5354
(lp5355
S'0.0001'
p5356
asS'Valendinov\xc3\x81'
p5357
(lp5358
S'0.0002'
p5359
asS'Vos\xc3\x81tkov\xc3\x81'
p5360
(lp5361
S'0.0085'
p5362
asS'Venzh\xc3\x96ferov\xc3\x81'
p5363
(lp5364
S'0.0006'
p5365
asS'Vymislick\xc3\x81'
p5366
(lp5367
S'0.0002'
p5368
asS'Vancov\xc3\x81'
p5369
(lp5370
S'0.0025'
p5371
asS'Vav\xc5\x98a\xc4\x8cov\xc3\x81'
p5372
(lp5373
S'0.0013'
p5374
asS'Vermachov\xc3\x81'
p5375
(lp5376
S'0.0006'
p5377
asS'Vav\xc5\x98incov\xc3\x81'
p5378
(lp5379
S'0.0033'
p5380
asS'Vrbovcov\xc3\x81'
p5381
(lp5382
S'0.0011'
p5383
asS'Vi\xc4\x8eourkov\xc3\x81'
p5384
(lp5385
S'0.0002'
p5386
asS'Vlas\xc3\x81kov\xc3\x81'
p5387
(lp5388
S'0.0488'
p5389
asS'Vernarov\xc3\x81'
p5390
(lp5391
S'0.0001'
p5392
asS'V\xc3\x81v\xc5\x98\xc3\x8dkov\xc3\x81'
p5393
(lp5394
S'0.0001'
p5395
asS'Viedemannov\xc3\x81'
p5396
(lp5397
S'0.0003'
p5398
asS'Virkov\xc3\x81'
p5399
(lp5400
S'0.0001'
p5401
asS'Valdmannov\xc3\x81'
p5402
(lp5403
S'0.0005'
p5404
asS'Vrbasov\xc3\x81'
p5405
(lp5406
S'0.0028'
p5407
asS'Vi\xc5\xbddov\xc3\x81'
p5408
(lp5409
S'0.0001'
p5410
asS'Vo\xc5\xa0mikov\xc3\x81'
p5411
(lp5412
S'0.0015'
p5413
asS'Valiskov\xc3\x81'
p5414
(lp5415
S'0.0003'
p5416
asS'Vnent\xc5\x98\xc3\x81kov\xc3\x81'
p5417
(lp5418
S'0.0004'
p5419
asS'Vl\xc3\x81skov\xc3\x81'
p5420
(lp5421
S'0.0018'
p5422
asS'V\xc4\x9a\xc5\xa0\xc3\x8dnov\xc3\x81'
p5423
(lp5424
S'0.0006'
p5425
asS'Vohrnov\xc3\x81'
p5426
(lp5427
S'0.0005'
p5428
asS'Volo\xc5\xa0inov\xc3\x81'
p5429
(lp5430
S'0.0006'
p5431
asS'Va\xc5\xa0novsk\xc3\x81'
p5432
(lp5433
S'0.0007'
p5434
asS'Vachtar\xc4\x8c\xc3\x8dkov\xc3\x81'
p5435
(lp5436
S'0.0004'
p5437
asS'Viatrov\xc3\x81'
p5438
(lp5439
S'0.0004'
p5440
asS'Volf\xc5\xa0icov\xc3\x81'
p5441
(lp5442
S'0.0002'
p5443
asS'Vespalcov\xc3\x81'
p5444
(lp5445
S'0.0027'
p5446
asS'Voleveck\xc3\x81'
p5447
(lp5448
S'0.0005'
p5449
asS'Vre\xc4\x8ckov\xc3\x81'
p5450
(lp5451
S'0.0006'
p5452
asS'Velik\xc3\x81'
p5453
(lp5454
S'0.0011'
p5455
asS'Vajskebrov\xc3\x81'
p5456
(lp5457
S'0.0004'
p5458
asS'Vachunov\xc3\x81'
p5459
(lp5460
S'0.0007'
p5461
asS'Vondriskov\xc3\x81'
p5462
(lp5463
S'0.0001'
p5464
asS'Vel\xc4\x8cevov\xc3\x81'
p5465
(lp5466
S'0.0004'
p5467
asS'Vystr\xc4\x8cilov\xc3\x81'
p5468
(lp5469
S'0.0104'
p5470
asS'Viererblov\xc3\x81'
p5471
(lp5472
S'0.0001'
p5473
asS'Van\xc4\x9a\xc4\x8ckov\xc3\x81'
p5474
(lp5475
S'0.0330'
p5476
asS'Vojtov\xc3\x81'
p5477
(lp5478
S'0.0313'
p5479
asS'Virusov\xc3\x81'
p5480
(lp5481
S'0.0001'
p5482
asS'Vovsov\xc3\x81'
p5483
(lp5484
S'0.0063'
p5485
asS'Vol\xc3\x81kov\xc3\x81'
p5486
(lp5487
S'0.0107'
p5488
asS'Vranikov\xc3\x81'
p5489
(lp5490
S'0.0001'
p5491
asS'Vytiskov\xc3\x81'
p5492
(lp5493
S'0.0057'
p5494
asS'Vel\xc3\x8dmsk\xc3\x81'
p5495
(lp5496
S'0.0002'
p5497
asS'Vytonsk\xc3\x81'
p5498
(lp5499
S'0.0001'
p5500
asS'Venderov\xc3\x81'
p5501
(lp5502
S'0.0013'
p5503
asS'Vejrov\xc3\x81'
p5504
(lp5505
S'0.0027'
p5506
asS'Vetelsk\xc3\x81'
p5507
(lp5508
S'0.0002'
p5509
asS'Vejnoskov\xc3\x81'
p5510
(lp5511
S'0.0004'
p5512
asS'Vysko\xc4\x8cilov\xc3\x81'
p5513
(lp5514
S'0.0332'
p5515
asS'Vingrov\xc3\x81'
p5516
(lp5517
S'0.0001'
p5518
asS'Vov\xc4\x8cenkov\xc3\x81'
p5519
(lp5520
S'0.0002'
p5521
asS'Vegerbauerov\xc3\x81'
p5522
(lp5523
S'0.0001'
p5524
asS'Verbick\xc3\x81'
p5525
(lp5526
S'0.0002'
p5527
asS'Vale\xc5\xa0ov\xc3\x81'
p5528
(lp5529
S'0.0287'
p5530
asS'Vydr\xc3\x81\xc5\x98ov\xc3\x81'
p5531
(lp5532
S'0.0008'
p5533
asS'Vavru\xc5\x87kov\xc3\x81'
p5534
(lp5535
S'0.0003'
p5536
asS'Valeck\xc3\x81'
p5537
(lp5538
S'0.0007'
p5539
asS'Vysekalov\xc3\x81'
p5540
(lp5541
S'0.0005'
p5542
asS'Vy\xc4\x8c\xc3\x8dtalov\xc3\x81'
p5543
(lp5544
S'0.0049'
p5545
asS'Vencov\xc3\x81'
p5546
(lp5547
S'0.0042'
p5548
asS'Vainarov\xc3\x81'
p5549
(lp5550
S'0.0008'
p5551
asS'Vraniakov\xc3\x81'
p5552
(lp5553
S'0.0001'
p5554
asS'Vyhl\xc3\x8ddalov\xc3\x81'
p5555
(lp5556
S'0.0101'
p5557
asS'V\xc5\x98etionkov\xc3\x81'
p5558
(lp5559
S'0.0001'
p5560
asS'Vach\xc5\xaenov\xc3\x81'
p5561
(lp5562
S'0.0002'
p5563
asS'Vok\xc5\xa0ick\xc3\x81'
p5564
(lp5565
S'0.0002'
p5566
asS'Ve\xc5\xbdn\xc3\x8dkov\xc3\x81'
p5567
(lp5568
S'0.0002'
p5569
asS'Vor\xc3\x81lkov\xc3\x81'
p5570
(lp5571
S'0.0022'
p5572
asS'Vladekov\xc3\x81'
p5573
(lp5574
S'0.0004'
p5575
asS'Vyletov\xc3\x81'
p5576
(lp5577
S'0.0034'
p5578
asS'Vladykov\xc3\x81'
p5579
(lp5580
S'0.0081'
p5581
asS'Vrbensk\xc3\x81'
p5582
(lp5583
S'0.0018'
p5584
asS'Velzelov\xc3\x81'
p5585
(lp5586
S'0.0002'
p5587
asS'Vri\xc4\x8canov\xc3\x81'
p5588
(lp5589
S'0.0004'
p5590
asS'Venha\xc4\x8cov\xc3\x81'
p5591
(lp5592
S'0.0001'
p5593
asS'Voigtsov\xc3\x81'
p5594
(lp5595
S'0.0001'
p5596
asS'Vlachov\xc3\x81'
p5597
(lp5598
S'0.0537'
p5599
asS'Valentinov\xc3\x81'
p5600
(lp5601
S'0.0016'
p5602
asS'Vyso\xc4\x8canov\xc3\x81'
p5603
(lp5604
S'0.0006'
p5605
asS'Vencl\xc3\x8d\xc4\x8ckov\xc3\x81'
p5606
(lp5607
S'0.0010'
p5608
asS'Vr\xc5\xa0it\xc3\x81'
p5609
(lp5610
S'0.0003'
p5611
asS'Val\xc4\x8c\xc3\x8dkov\xc3\x81'
p5612
(lp5613
S'0.0065'
p5614
asS'Vusov\xc3\x81'
p5615
(lp5616
S'0.0001'
p5617
asS'Vorochtov\xc3\x81'
p5618
(lp5619
S'0.0001'
p5620
asS'Velfelov\xc3\x81'
p5621
(lp5622
S'0.0001'
p5623
asS'V\xc3\x9dtvarov\xc3\x81'
p5624
(lp5625
S'0.0004'
p5626
asS'V\xc3\x8dglask\xc3\x81'
p5627
(lp5628
S'0.0001'
p5629
asS'V\xc4\x9a\xc5\xbdn\xc3\x8dkov\xc3\x81'
p5630
(lp5631
S'0.0041'
p5632
asS'Vysok\xc3\x81'
p5633
(lp5634
S'0.0039'
p5635
asS'Vra\xc5\xbdbov\xc3\x81'
p5636
(lp5637
S'0.0001'
p5638
asS'Valouchov\xc3\x81'
p5639
(lp5640
S'0.0089'
p5641
asS'Vitolov\xc3\x81'
p5642
(lp5643
S'0.0001'
p5644
asS'Vasile\xc4\x8ckov\xc3\x81'
p5645
(lp5646
S'0.0001'
p5647
asS'Veselkov\xc3\x81'
p5648
(lp5649
S'0.0132'
p5650
asS'Vydiolkov\xc3\x81'
p5651
(lp5652
S'0.0001'
p5653
asS'V\xc4\x8cel\xc3\x8dkov\xc3\x81'
p5654
(lp5655
S'0.0007'
p5656
asS'Vu\xc4\x8ckov\xc3\x81'
p5657
(lp5658
S'0.0002'
p5659
asS'Vojtylkov\xc3\x81'
p5660
(lp5661
S'0.0002'
p5662
asS'Vand\xc3\x81kov\xc3\x81'
p5663
(lp5664
S'0.0003'
p5665
asS'Vr\xc3\x81blov\xc3\x81'
p5666
(lp5667
S'0.0034'
p5668
asS'Vir\xc4\x8c\xc3\x8dkov\xc3\x81'
p5669
(lp5670
S'0.0004'
p5671
asS'Veli\xc5\xa0ov\xc3\x81'
p5672
(lp5673
S'0.0002'
p5674
asS'Vojtasov\xc3\x81'
p5675
(lp5676
S'0.0010'
p5677
asS'V\xc3\x9dprachtick\xc3\x81'
p5678
(lp5679
S'0.0009'
p5680
asS'Velclov\xc3\x81'
p5681
(lp5682
S'0.0008'
p5683
asS'Velick\xc3\x81'
p5684
(lp5685
S'0.0023'
p5686
asS'Vejlov\xc3\x81'
p5687
(lp5688
S'0.0002'
p5689
asS'Vr\xc3\x81be\xc4\xbdov\xc3\x81'
p5690
(lp5691
S'0.0001'
p5692
asS'Vok\xc3\x81\xc4\x8ckov\xc3\x81'
p5693
(lp5694
S'0.0005'
p5695
asS'Vod\xc5\x87ansk\xc3\x81'
p5696
(lp5697
S'0.0020'
p5698
asS'Vili\xc4\x8ckov\xc3\x81'
p5699
(lp5700
S'0.0002'
p5701
asS'Vos\xc3\x81hlov\xc3\x81'
p5702
(lp5703
S'0.0110'
p5704
asS'Velekov\xc3\x81'
p5705
(lp5706
S'0.0009'
p5707
asS'Ventr\xc4\x8cov\xc3\x81'
p5708
(lp5709
S'0.0008'
p5710
asS'Vongrejov\xc3\x81'
p5711
(lp5712
S'0.0002'
p5713
asS'Vane\xc4\x8ckov\xc3\x81'
p5714
(lp5715
S'0.0004'
p5716
asS'Vackov\xc3\x81-vesel\xc3\x81'
p5717
(lp5718
S'0.0003'
p5719
asS'Venigrov\xc3\x81'
p5720
(lp5721
S'0.0002'
p5722
asS'V\xc3\x9dchov\xc3\x81'
p5723
(lp5724
S'0.0003'
p5725
asS'Va\xc5\x87halov\xc3\x81'
p5726
(lp5727
S'0.0002'
p5728
asS'Val\xc3\x9a\xc5\xa0kov\xc3\x81'
p5729
(lp5730
S'0.0001'
p5731
asS'Vottov\xc3\x81'
p5732
(lp5733
S'0.0003'
p5734
asS'Vy\xc5\xa0ohl\xc3\x8ddov\xc3\x81'
p5735
(lp5736
S'0.0025'
p5737
asS'Ve\xc5\x98tatov\xc3\x81'
p5738
(lp5739
S'0.0006'
p5740
asS'Vodslo\xc5\x87ov\xc3\x81'
p5741
(lp5742
S'0.0001'
p5743
asS'Vel\xc5\xa0m\xc3\x8ddov\xc3\x81'
p5744
(lp5745
S'0.0001'
p5746
asS'V\xc3\x9dletov\xc3\x81'
p5747
(lp5748
S'0.0035'
p5749
asS'Voltem\xc3\x81rov\xc3\x81'
p5750
(lp5751
S'0.0002'
p5752
asS'Voj\xc4\x8ciniakov\xc3\x81'
p5753
(lp5754
S'0.0001'
p5755
asS'Vihn\xc3\x81likov\xc3\x81'
p5756
(lp5757
S'0.0001'
p5758
asS'Vladovov\xc3\x81'
p5759
(lp5760
S'0.0002'
p5761
asS'Vach\xc3\x81lkov\xc3\x81'
p5762
(lp5763
S'0.0003'
p5764
asS'Va\xc5\x87harov\xc3\x81'
p5765
(lp5766
S'0.0042'
p5767
asS'Vejra\xc5\xa0kov\xc3\x81'
p5768
(lp5769
S'0.0002'
p5770
asS'Veiserov\xc3\x81'
p5771
(lp5772
S'0.0007'
p5773
asS'Veirov\xc3\x81'
p5774
(lp5775
S'0.0001'
p5776
asS'Vov\xc4\x8ckov\xc3\x81'
p5777
(lp5778
S'0.0001'
p5779
asS'Votkov\xc3\x81'
p5780
(lp5781
S'0.0002'
p5782
asS'V\xc4\x9atrov\xc3\x81'
p5783
(lp5784
S'0.0003'
p5785
asS'Valsamisov\xc3\x81'
p5786
(lp5787
S'0.0001'
p5788
asS'Vrkoslavov\xc3\x81'
p5789
(lp5790
S'0.0026'
p5791
asS'Versichov\xc3\x81'
p5792
(lp5793
S'0.0001'
p5794
asS'Van\xc4\x8cu\xc5\x98\xc3\x8dkov\xc3\x81'
p5795
(lp5796
S'0.0005'
p5797
asS'Valgov\xc3\x81'
p5798
(lp5799
S'0.0002'
p5800
asS'Venglovi\xc4\x8cov\xc3\x81'
p5801
(lp5802
S'0.0003'
p5803
asS'Vero\xc5\x87kov\xc3\x81'
p5804
(lp5805
S'0.0005'
p5806
asS'Voxov\xc3\x81'
p5807
(lp5808
S'0.0003'
p5809
asS'Vyt\xc3\x81skov\xc3\x81'
p5810
(lp5811
S'0.0009'
p5812
asS'Val\xc4\x8ci\xc5\xa0ov\xc3\x81'
p5813
(lp5814
S'0.0002'
p5815
asS'Vitouchov\xc3\x81'
p5816
(lp5817
S'0.0018'
p5818
asS'Vol\xc5\xa0insk\xc3\x81'
p5819
(lp5820
S'0.0001'
p5821
asS'Vojtanovsk\xc3\x81'
p5822
(lp5823
S'0.0001'
p5824
asS'Valen\xc4\x8c\xc3\x8dkov\xc3\x81'
p5825
(lp5826
S'0.0007'
p5827
asS'Vonder\xc4\x8c\xc3\x8dkov\xc3\x81'
p5828
(lp5829
S'0.0001'
p5830
asS'Vedlov\xc3\x81'
p5831
(lp5832
S'0.0002'
p5833
asS'Vrasp\xc3\x8drov\xc3\x81'
p5834
(lp5835
S'0.0041'
p5836
asS'Vety\xc5\xa0kov\xc3\x81'
p5837
(lp5838
S'0.0008'
p5839
asS'Valtrov\xc3\x81'
p5840
(lp5841
S'0.0086'
p5842
asS'Vojt\xc4\x9a\xc5\xa0kov\xc3\x81'
p5843
(lp5844
S'0.0032'
p5845
asS'Vand\xc5\xbdurov\xc3\x81'
p5846
(lp5847
S'0.0001'
p5848
asS'Volfsch\xc3\x9ctzov\xc3\x81'
p5849
(lp5850
S'0.0001'
p5851
asS'Vogni\xc4\x8cov\xc3\x81'
p5852
(lp5853
S'0.0001'
p5854
asS'Vop\xc3\x81lensk\xc3\x81'
p5855
(lp5856
S'0.0032'
p5857
asS'V\xc3\x9dchop\xc5\x87ov\xc3\x81'
p5858
(lp5859
S'0.0015'
p5860
asS'Valosov\xc3\x81'
p5861
(lp5862
S'0.0001'
p5863
asS'Varh\xc3\x81nkov\xc3\x81'
p5864
(lp5865
S'0.0002'
p5866
asS'Vro\xc5\xbdinov\xc3\x81'
p5867
(lp5868
S'0.0007'
p5869
asS'Vikturnov\xc3\x81'
p5870
(lp5871
S'0.0004'
p5872
asS'Vindu\xc5\xa0kov\xc3\x81'
p5873
(lp5874
S'0.0036'
p5875
asS'Vitou\xc5\xa0kov\xc3\x81'
p5876
(lp5877
S'0.0017'
p5878
asS'Viez\xc3\x81nov\xc3\x81'
p5879
(lp5880
S'0.0002'
p5881
asS'Vani\xc5\xa0ov\xc3\x81'
p5882
(lp5883
S'0.0091'
p5884
asS'Vikukov\xc3\x81'
p5885
(lp5886
S'0.0003'
p5887
asS'Val\xc5\xa0t\xc3\x9dnov\xc3\x81'
p5888
(lp5889
S'0.0002'
p5890
asS'Vi\xc5\xa0\xc5\x87ov\xc3\x81'
p5891
(lp5892
S'0.0007'
p5893
asS'Varhoutov\xc3\x81'
p5894
(lp5895
S'0.0001'
p5896
asS'Vopinkov\xc3\x81'
p5897
(lp5898
S'0.0002'
p5899
asS'Valeri\xc3\x81nov\xc3\x81'
p5900
(lp5901
S'0.0030'
p5902
asS'Vite\xc5\xa0n\xc3\x8dkov\xc3\x81'
p5903
(lp5904
S'0.0005'
p5905
asS'Vostrack\xc3\x81'
p5906
(lp5907
S'0.0010'
p5908
asS'Veishaiplov\xc3\x81'
p5909
(lp5910
S'0.0002'
p5911
asS'Vonderkov\xc3\x81'
p5912
(lp5913
S'0.0013'
p5914
asS'Vadelov\xc3\x81'
p5915
(lp5916
S'0.0002'
p5917
asS'Va\xc5\xbdanov\xc3\x81'
p5918
(lp5919
S'0.0005'
p5920
asS'Vasilkov\xc3\x81'
p5921
(lp5922
S'0.0003'
p5923
asS'Vr\xc3\x81gov\xc3\x81'
p5924
(lp5925
S'0.0019'
p5926
asS'Vymet\xc3\x81lkov\xc3\x81'
p5927
(lp5928
S'0.0006'
p5929
asS'V\xc3\x9dmolov\xc3\x81'
p5930
(lp5931
S'0.0044'
p5932
asS'Ve\xc5\xa0kr\xc5\x87ov\xc3\x81'
p5933
(lp5934
S'0.0002'
p5935
asS'Van\xc4\x8cov\xc3\x81'
p5936
(lp5937
S'0.0042'
p5938
asS'Vohnoutkov\xc3\x81'
p5939
(lp5940
S'0.0004'
p5941
asS'Va\xc5\x87kov\xc3\x81'
p5942
(lp5943
S'0.1582'
p5944
asS'Veisg\xc3\x84rberov\xc3\x81'
p5945
(lp5946
S'0.0001'
p5947
asS'Va\xc5\xa0korov\xc3\x81'
p5948
(lp5949
S'0.0003'
p5950
asS'Vil\xc4\x8c\xc3\x81kov\xc3\x81'
p5951
(lp5952
S'0.0004'
p5953
asS'Vachovcov\xc3\x81'
p5954
(lp5955
S'0.0019'
p5956
asS'Vojtalov\xc3\x81'
p5957
(lp5958
S'0.0001'
p5959
asS'Vol\xc4\x8c\xc3\x8dkov\xc3\x81'
p5960
(lp5961
S'0.0021'
p5962
asS'Vok\xc5\x98\xc3\x8dnkov\xc3\x81'
p5963
(lp5964
S'0.0020'
p5965
asS'Val\xc5\xae\xc5\xa0kov\xc3\x81'
p5966
(lp5967
S'0.0010'
p5968
asS'Vykutilov\xc3\x81'
p5969
(lp5970
S'0.0004'
p5971
asS'Vizentov\xc3\x81'
p5972
(lp5973
S'0.0001'
p5974
asS'V\xc5\xaejtov\xc3\x81'
p5975
(lp5976
S'0.0003'
p5977
asS'Vittov\xc3\x81'
p5978
(lp5979
S'0.0004'
p5980
asS'V\xc4\x8cela\xc5\x98ov\xc3\x81'
p5981
(lp5982
S'0.0011'
p5983
asS'Veszelkov\xc3\x81'
p5984
(lp5985
S'0.0001'
p5986
asS'Venzlov\xc3\x81'
p5987
(lp5988
S'0.0001'
p5989
asS'Vakrmanov\xc3\x81'
p5990
(lp5991
S'0.0002'
p5992
asS'Votick\xc3\x81'
p5993
(lp5994
S'0.0002'
p5995
asS'Vodn\xc3\x81rkov\xc3\x81'
p5996
(lp5997
S'0.0003'
p5998
asS'Vav\xc3\x81kov\xc3\x81'
p5999
(lp6000
S'0.0013'
p6001
asS'Vole\xc5\xa0ov\xc3\x81'
p6002
(lp6003
S'0.0006'
p6004
asS'Vl\xc3\x81senkov\xc3\x81'
p6005
(lp6006
S'0.0002'
p6007
asS'V\xc3\x8dcenov\xc3\x81'
p6008
(lp6009
S'0.0007'
p6010
asS'V\xc3\x81lalov\xc3\x81'
p6011
(lp6012
S'0.0008'
p6013
asS'Vo\xc5\x87kov\xc3\x81'
p6014
(lp6015
S'0.0055'
p6016
asS'Vr\xc5\xaeblov\xc3\x81'
p6017
(lp6018
S'0.0002'
p6019
asS'Vostrej\xc5\xa0ov\xc3\x81'
p6020
(lp6021
S'0.0006'
p6022
asS'Vit\xc4\x9akov\xc3\x81'
p6023
(lp6024
S'0.0002'
p6025
asS'Vod\xc4\x9arkov\xc3\x81'
p6026
(lp6027
S'0.0006'
p6028
asS'Valentov\xc3\x81'
p6029
(lp6030
S'0.1198'
p6031
asS'Vokat\xc3\x81'
p6032
(lp6033
S'0.0053'
p6034
asS'Vineck\xc3\x81'
p6035
(lp6036
S'0.0010'
p6037
asS'Vidrmertov\xc3\x81'
p6038
(lp6039
S'0.0005'
p6040
asS'Voj\xc4\x8c\xc3\x81kov\xc3\x81'
p6041
(lp6042
S'0.0003'
p6043
asS'Vot\xc3\x8dkov\xc3\x81'
p6044
(lp6045
S'0.0023'
p6046
asS'Varinsk\xc3\x81'
p6047
(lp6048
S'0.0003'
p6049
asS'Vaizov\xc3\x81'
p6050
(lp6051
S'0.0003'
p6052
asS'Vrchoveck\xc3\x81'
p6053
(lp6054
S'0.0006'
p6055
asS'V\xc3\x81\xc5\xa0ov\xc3\x81'
p6056
(lp6057
S'0.0077'
p6058
asS'Valihorov\xc3\x81'
p6059
(lp6060
S'0.0001'
p6061
asS'Vystavilov\xc3\x81'
p6062
(lp6063
S'0.0001'
p6064
asS'Vyt\xc5\x98ensov\xc3\x81'
p6065
(lp6066
S'0.0002'
p6067
asS'Vel\xc3\x81nov\xc3\x81'
p6068
(lp6069
S'0.0005'
p6070
asS'V\xc3\x9dtiskov\xc3\x81'
p6071
(lp6072
S'0.0045'
p6073
asS'Vo\xc4\x8cadlov\xc3\x81'
p6074
(lp6075
S'0.0021'
p6076
asS'Vla\xc5\xa0\xc3\x8dnov\xc3\x81'
p6077
(lp6078
S'0.0017'
p6079
asS'Ving\xc3\x81rkov\xc3\x81'
p6080
(lp6081
S'0.0003'
p6082
asS'Vomo\xc4\x8cilov\xc3\x81'
p6083
(lp6084
S'0.0029'
p6085
asS'Vyl\xc3\x81\xc5\xa0kov\xc3\x81'
p6086
(lp6087
S'0.0003'
p6088
asS'Vilkusov\xc3\x81'
p6089
(lp6090
S'0.0012'
p6091
asS'V\xc3\x8dcov\xc3\x81'
p6092
(lp6093
S'0.0002'
p6094
asS'Vejnarov\xc3\x81'
p6095
(lp6096
S'0.0050'
p6097
asS'Vel\xc3\x8dkov\xc3\x81'
p6098
(lp6099
S'0.0027'
p6100
asS'Virostkov\xc3\x81'
p6101
(lp6102
S'0.0003'
p6103
asS'Volav\xc3\x81'
p6104
(lp6105
S'0.0007'
p6106
asS'Volfov\xc3\x81'
p6107
(lp6108
S'0.0660'
p6109
asS'Vi\xc5\xa0\xc5\x87\xc3\x81kov\xc3\x81'
p6110
(lp6111
S'0.0014'
p6112
asS'Vencelov\xc3\x81'
p6113
(lp6114
S'0.0007'
p6115
asS'Va\xc5\x87\xc3\x81kov\xc3\x81'
p6116
(lp6117
S'0.0028'
p6118
asS'Vosobov\xc3\x81'
p6119
(lp6120
S'0.0003'
p6121
asS'Vozn\xc3\x81'
p6122
(lp6123
S'0.0003'
p6124
asS'Vone\xc5\xa0ov\xc3\x81'
p6125
(lp6126
S'0.0031'
p6127
asS'Vontorov\xc3\x81'
p6128
(lp6129
S'0.0007'
p6130
asS'Varad\xc3\x8dnkov\xc3\x81'
p6131
(lp6132
S'0.0007'
p6133
asS'Veinhauerov\xc3\x81'
p6134
(lp6135
S'0.0003'
p6136
asS'Vov\xc4\x8cekov\xc3\x81'
p6137
(lp6138
S'0.0002'
p6139
asS'Va\xc5\x87kovsk\xc3\x81'
p6140
(lp6141
S'0.0002'
p6142
asS'Van\xc4\x8curov\xc3\x81'
p6143
(lp6144
S'0.0263'
p6145
asS'Vaiglov\xc3\x81'
p6146
(lp6147
S'0.0020'
p6148
asS'Venglov\xc3\x81'
p6149
(lp6150
S'0.0002'
p6151
asS'Vlkojanov\xc3\x81'
p6152
(lp6153
S'0.0003'
p6154
asS'Vrz\xc3\x81\xc5\x87ov\xc3\x81'
p6155
(lp6156
S'0.0007'
p6157
asS'V\xc3\x81vrovcov\xc3\x81'
p6158
(lp6159
S'0.0003'
p6160
asS'V\xc3\x8dsnerov\xc3\x81'
p6161
(lp6162
S'0.0008'
p6163
asS'Vaidi\xc5\xa0ov\xc3\x81'
p6164
(lp6165
S'0.0010'
p6166
asS'Va\xc5\xa0\xc4\x8c\xc3\x81kov\xc3\x81'
p6167
(lp6168
S'0.0004'
p6169
asS'Vykysalov\xc3\x81'
p6170
(lp6171
S'0.0006'
p6172
asS'Vy\xc5\xa0ansk\xc3\x81'
p6173
(lp6174
S'0.0007'
p6175
asS'Vostr\xc3\x81'
p6176
(lp6177
S'0.0086'
p6178
asS'Vr\xc5\xa0\xc3\x8dnsk\xc3\x81'
p6179
(lp6180
S'0.0005'
p6181
asS'V\xc5\xa0iv\xc3\x81kov\xc3\x81'
p6182
(lp6183
S'0.0002'
p6184
asS'Vorbachov\xc3\x81'
p6185
(lp6186
S'0.0004'
p6187
asS'Vys\xc5\xae\xc4\x8ckov\xc3\x81'
p6188
(lp6189
S'0.0003'
p6190
asS'Vondr\xc3\x81tov\xc3\x81'
p6191
(lp6192
S'0.0002'
p6193
asS'Vankeov\xc3\x81'
p6194
(lp6195
S'0.0002'
p6196
asS'Vav\xc5\x98i\xc4\x8ckov\xc3\x81'
p6197
(lp6198
S'0.0074'
p6199
asS'Veinfurtov\xc3\x81'
p6200
(lp6201
S'0.0002'
p6202
asS'Vangorov\xc3\x81'
p6203
(lp6204
S'0.0003'
p6205
asS'Vlasat\xc3\x8dkov\xc3\x81'
p6206
(lp6207
S'0.0007'
p6208
asS'V\xc5\xa0elkov\xc3\x81'
p6209
(lp6210
S'0.0002'
p6211
asS'Vanatov\xc3\x81'
p6212
(lp6213
S'0.0001'
p6214
asS'Vintrychov\xc3\x81'
p6215
(lp6216
S'0.0002'
p6217
asS'V\xc3\x9drkov\xc3\x81'
p6218
(lp6219
S'0.0001'
p6220
asS'Vod\xc3\x81rkov\xc3\x81'
p6221
(lp6222
S'0.0012'
p6223
asS'Va\xc5\x98\xc3\x81kov\xc3\x81'
p6224
(lp6225
S'0.0045'
p6226
asS'Vel\xc3\x8dnsk\xc3\x81'
p6227
(lp6228
S'0.0016'
p6229
asS'Vel\xc4\x8cick\xc3\x81'
p6230
(lp6231
S'0.0005'
p6232
asS'Valdhansov\xc3\x81'
p6233
(lp6234
S'0.0015'
p6235
asS'Vavrekov\xc3\x81'
p6236
(lp6237
S'0.0030'
p6238
asS'Venclov\xc3\x81'
p6239
(lp6240
S'0.0141'
p6241
asS'Vaisharov\xc3\x81'
p6242
(lp6243
S'0.0002'
p6244
asS'Veirauchov\xc3\x81'
p6245
(lp6246
S'0.0001'
p6247
asS'Vovesov\xc3\x81'
p6248
(lp6249
S'0.0004'
p6250
asS'Velflov\xc3\x81'
p6251
(lp6252
S'0.0011'
p6253
asS'Vislock\xc3\x81'
p6254
(lp6255
S'0.0002'
p6256
asS'Vejr\xc3\x81\xc5\xbdkov\xc3\x81'
p6257
(lp6258
S'0.0010'
p6259
asS'Vinc\xc5\xaerkov\xc3\x81'
p6260
(lp6261
S'0.0002'
p6262
asS'Vainerov\xc3\x81'
p6263
(lp6264
S'0.0012'
p6265
asS'Vavru\xc5\xa0ov\xc3\x81'
p6266
(lp6267
S'0.0064'
p6268
asS'Voh\xc3\x81\xc5\x87kov\xc3\x81'
p6269
(lp6270
S'0.0017'
p6271
asS'Vikt\xc5\xaerkov\xc3\x81'
p6272
(lp6273
S'0.0003'
p6274
asS'Vavrousov\xc3\x81'
p6275
(lp6276
S'0.0004'
p6277
asS'Vadkertiov\xc3\x81'
p6278
(lp6279
S'0.0003'
p6280
asS'Vin\xc5\xa0\xc3\x81lkov\xc3\x81'
p6281
(lp6282
S'0.0003'
p6283
asS'Vorobelov\xc3\x81'
p6284
(lp6285
S'0.0002'
p6286
asS'Van\xc3\x81tov\xc3\x81'
p6287
(lp6288
S'0.0001'
p6289
asS'Vorrethov\xc3\x81'
p6290
(lp6291
S'0.0003'
p6292
asS'Vugrincov\xc3\x81'
p6293
(lp6294
S'0.0002'
p6295
asS'Varcollerov\xc3\x81'
p6296
(lp6297
S'0.0001'
p6298
asS'Vrchotkov\xc3\x81'
p6299
(lp6300
S'0.0004'
p6301
asS'Veklincov\xc3\x81'
p6302
(lp6303
S'0.0001'
p6304
asS'Vlnie\xc5\xa0kov\xc3\x81'
p6305
(lp6306
S'0.0002'
p6307
asS'Vomlelov\xc3\x81'
p6308
(lp6309
S'0.0017'
p6310
asS'Vejrychov\xc3\x81'
p6311
(lp6312
S'0.0019'
p6313
asS'Vo\xc5\x87avkov\xc3\x81'
p6314
(lp6315
S'0.0016'
p6316
asS'Vl\xc3\x81\xc4\x8cilov\xc3\x81'
p6317
(lp6318
S'0.0068'
p6319
asS'Vurmov\xc3\x81'
p6320
(lp6321
S'0.0029'
p6322
asS'Vi\xc5\xbd\xc4\x8eov\xc3\x81'
p6323
(lp6324
S'0.0007'
p6325
asS'Vronkov\xc3\x81'
p6326
(lp6327
S'0.0009'
p6328
asS'Vergosov\xc3\x81'
p6329
(lp6330
S'0.0002'
p6331
asS'Vodenkov\xc3\x81'
p6332
(lp6333
S'0.0030'
p6334
asS'Vetenglov\xc3\x81'
p6335
(lp6336
S'0.0005'
p6337
asS'V\xc4\x9ali\xc4\x8ckov\xc3\x81'
p6338
(lp6339
S'0.0001'
p6340
asS'Vasick\xc3\x81'
p6341
(lp6342
S'0.0005'
p6343
asS'Vla\xc4\x8cihov\xc3\x81'
p6344
(lp6345
S'0.0018'
p6346
asS'Valock\xc3\x81'
p6347
(lp6348
S'0.0003'
p6349
asS'Vidie\xc4\x8canov\xc3\x81'
p6350
(lp6351
S'0.0005'
p6352
asS'Viktor\xc3\x9dnov\xc3\x81'
p6353
(lp6354
S'0.0012'
p6355
asS'Vincenecov\xc3\x81'
p6356
(lp6357
S'0.0008'
p6358
asS'Vodr\xc3\x81\xc5\xbdkov\xc3\x81'
p6359
(lp6360
S'0.0184'
p6361
asS'V\xc3\x89gs\xc3\x96ov\xc3\x81'
p6362
(lp6363
S'0.0001'
p6364
asS'V\xc3\x89brov\xc3\x81'
p6365
(lp6366
S'0.0035'
p6367
asS'V\xc3\x89varov\xc3\x81'
p6368
(lp6369
S'0.0002'
p6370
asS'Vasilikov\xc3\x81'
p6371
(lp6372
S'0.0001'
p6373
asS'Voncov\xc3\x81'
p6374
(lp6375
S'0.0002'
p6376
asS'Vintnerov\xc3\x81'
p6377
(lp6378
S'0.0002'
p6379
asS'V\xc3\x8dravov\xc3\x81'
p6380
(lp6381
S'0.0003'
p6382
asS'Velackov\xc3\x81'
p6383
(lp6384
S'0.0003'
p6385
asS'V\xc5\xa0ol\xc3\x81kov\xc3\x81'
p6386
(lp6387
S'0.0002'
p6388
asS'Va\xc5\xa0\xc3\x81kov\xc3\x81'
p6389
(lp6390
S'0.0152'
p6391
asS'V\xc3\x81mo\xc5\xa0iov\xc3\x81'
p6392
(lp6393
S'0.0001'
p6394
asS'Vol\xc5\xa0i\xc4\x8ckov\xc3\x81'
p6395
(lp6396
S'0.0016'
p6397
asS'Vachudov\xc3\x81'
p6398
(lp6399
S'0.0013'
p6400
asS'Vr\xc3\x81\xc5\xbddilov\xc3\x81'
p6401
(lp6402
S'0.0002'
p6403
asS'Vohoskov\xc3\x81'
p6404
(lp6405
S'0.0001'
p6406
asS'V\xc3\x81bererov\xc3\x81'
p6407
(lp6408
S'0.0001'
p6409
asS'Volovsk\xc3\x81'
p6410
(lp6411
S'0.0002'
p6412
asS'Vachu\xc5\xa0kov\xc3\x81'
p6413
(lp6414
S'0.0010'
p6415
asS'Vlhov\xc3\x81'
p6416
(lp6417
S'0.0017'
p6418
asS'Vavreinov\xc3\x81'
p6419
(lp6420
S'0.0003'
p6421
asS'Vysluchov\xc3\x81'
p6422
(lp6423
S'0.0002'
p6424
asS'Victorinov\xc3\x81'
p6425
(lp6426
S'0.0001'
p6427
asS'Vlasan\xc3\x81'
p6428
(lp6429
S'0.0002'
p6430
asS'Vaclav\xc3\x8dkov\xc3\x81'
p6431
(lp6432
S'0.0004'
p6433
asS'Vost\xc5\x98ezov\xc3\x81'
p6434
(lp6435
S'0.0010'
p6436
asS'V\xc3\x81clavsk\xc3\x81'
p6437
(lp6438
S'0.0014'
p6439
asS'Vod\xc3\x81\xc4\x8ckov\xc3\x81'
p6440
(lp6441
S'0.0010'
p6442
asS'Vob\xc4\x9arkov\xc3\x81'
p6443
(lp6444
S'0.0007'
p6445
asS'Vejrkov\xc3\x81'
p6446
(lp6447
S'0.0006'
p6448
asS'Vyskupov\xc3\x81'
p6449
(lp6450
S'0.0005'
p6451
asS'Varhanov\xc3\x81'
p6452
(lp6453
S'0.0003'
p6454
asS'Vermouzkov\xc3\x81'
p6455
(lp6456
S'0.0002'
p6457
asS'Vic\xc3\x81nov\xc3\x81'
p6458
(lp6459
S'0.0006'
p6460
asS'V\xc3\x81kov\xc3\x81'
p6461
(lp6462
S'0.0006'
p6463
asS'Vole\xc5\xa0\xc3\x81kov\xc3\x81'
p6464
(lp6465
S'0.0012'
p6466
asS'Verbov\xc3\x81'
p6467
(lp6468
S'0.0002'
p6469
asS'Valu\xc5\xa0iakov\xc3\x81'
p6470
(lp6471
S'0.0002'
p6472
asS'Valkounov\xc3\x81'
p6473
(lp6474
S'0.0022'
p6475
asS'V\xc3\x9dst\xc5\x98elov\xc3\x81'
p6476
(lp6477
S'0.0003'
p6478
asS'Vamberov\xc3\x81'
p6479
(lp6480
S'0.0020'
p6481
asS'Vou\xc4\x8cokov\xc3\x81'
p6482
(lp6483
S'0.0001'
p6484
asS'Vrculov\xc3\x81'
p6485
(lp6486
S'0.0002'
p6487
asS'Vilimov\xc3\x81'
p6488
(lp6489
S'0.0005'
p6490
asS'Vajasov\xc3\x81'
p6491
(lp6492
S'0.0001'
p6493
asS'Vintrochov\xc3\x81'
p6494
(lp6495
S'0.0004'
p6496
asS'Vojn\xc3\x8dkov\xc3\x81'
p6497
(lp6498
S'0.0002'
p6499
asS'Vestf\xc3\x81lov\xc3\x81'
p6500
(lp6501
S'0.0018'
p6502
asS'V\xc4\x9at\xc4\x9achov\xc3\x81'
p6503
(lp6504
S'0.0002'
p6505
asS'Van\xc5\xa0ov\xc3\x81'
p6506
(lp6507
S'0.0001'
p6508
asS'Vernarsk\xc3\x81'
p6509
(lp6510
S'0.0002'
p6511
asS'Vr\xc5\xa0kov\xc3\x81'
p6512
(lp6513
S'0.0050'
p6514
asS'Vopel\xc3\x81kov\xc3\x81'
p6515
(lp6516
S'0.0008'
p6517
asS'Vindy\xc5\xa0ov\xc3\x81'
p6518
(lp6519
S'0.0006'
p6520
asS'Vopaleck\xc3\x81'
p6521
(lp6522
S'0.0029'
p6523
asS'Voburkov\xc3\x81'
p6524
(lp6525
S'0.0002'
p6526
asS'Vojta\xc5\xa0kov\xc3\x81'
p6527
(lp6528
S'0.0002'
p6529
asS'Vrzo\xc5\x87ov\xc3\x81'
p6530
(lp6531
S'0.0004'
p6532
asS'Vorudov\xc3\x81'
p6533
(lp6534
S'0.0004'
p6535
asS'V\xc4\x8celov\xc3\x81'
p6536
(lp6537
S'0.0008'
p6538
asS'Vychro\xc5\x87ov\xc3\x81'
p6539
(lp6540
S'0.0002'
p6541
asS'Vochalov\xc3\x81'
p6542
(lp6543
S'0.0005'
p6544
asS'Vo\xc5\xa0kov\xc3\x81'
p6545
(lp6546
S'0.0001'
p6547
asS'Van\xc3\x8d\xc4\x8ckov\xc3\x81'
p6548
(lp6549
S'0.0429'
p6550
asS'Vidomusov\xc3\x81'
p6551
(lp6552
S'0.0004'
p6553
asS'Vil\xc4\x8cekov\xc3\x81'
p6554
(lp6555
S'0.0006'
p6556
asS'Veszpr\xc3\x89miov\xc3\x81'
p6557
(lp6558
S'0.0005'
p6559
asS'V\xc3\x81penkov\xc3\x81'
p6560
(lp6561
S'0.0007'
p6562
asS'Vorl\xc3\x8dkov\xc3\x81'
p6563
(lp6564
S'0.0020'
p6565
asS'Vlad\xc3\x8dkov\xc3\x81'
p6566
(lp6567
S'0.0026'
p6568
asS'Vaibarov\xc3\x81'
p6569
(lp6570
S'0.0002'
p6571
asS'Van\xc4\x8c\xc3\x81tov\xc3\x81'
p6572
(lp6573
S'0.0006'
p6574
asS'Valluchov\xc3\x81'
p6575
(lp6576
S'0.0001'
p6577
asS'Vacu\xc5\xa0kov\xc3\x81'
p6578
(lp6579
S'0.0006'
p6580
asS'V\xc3\x81nikov\xc3\x81'
p6581
(lp6582
S'0.0001'
p6583
asS'Vatalov\xc3\x81'
p6584
(lp6585
S'0.0003'
p6586
asS'Vran\xc4\x8c\xc3\x8dkov\xc3\x81'
p6587
(lp6588
S'0.0003'
p6589
asS'Vachnov\xc3\x81'
p6590
(lp6591
S'0.0001'
p6592
asS'Vavrdov\xc3\x81'
p6593
(lp6594
S'0.0018'
p6595
asS'Vo\xc5\xa0vrdov\xc3\x81'
p6596
(lp6597
S'0.0026'
p6598
asS'Vani\xc5\xa0tov\xc3\x81'
p6599
(lp6600
S'0.0002'
p6601
asS'Vy\xc5\x87uchalov\xc3\x81'
p6602
(lp6603
S'0.0006'
p6604
asS'V\xc3\x89molov\xc3\x81'
p6605
(lp6606
S'0.0018'
p6607
asS'Visnerov\xc3\x81'
p6608
(lp6609
S'0.0002'
p6610
asS'Voct\xc3\x81\xc5\x98ov\xc3\x81'
p6611
(lp6612
S'0.0002'
p6613
asS'Vajrauchov\xc3\x81'
p6614
(lp6615
S'0.0011'
p6616
asS'Vlnasov\xc3\x81'
p6617
(lp6618
S'0.0014'
p6619
asS'Veckerov\xc3\x81'
p6620
(lp6621
S'0.0001'
p6622
asS'Vand\xc3\x8dkov\xc3\x81'
p6623
(lp6624
S'0.0003'
p6625
asS'Valo\xc5\xa0kov\xc3\x81'
p6626
(lp6627
S'0.0040'
p6628
asS'Vo\xc5\xa0ick\xc3\x81'
p6629
(lp6630
S'0.0062'
p6631
asS'Vond\xc5\x98i\xc4\x8ckov\xc3\x81'
p6632
(lp6633
S'0.0011'
p6634
asS'Vydr\xc5\xbdalov\xc3\x81'
p6635
(lp6636
S'0.0006'
p6637
asS'Vel\xc3\x8d\xc5\xa0kov\xc3\x81'
p6638
(lp6639
S'0.0095'
p6640
asS'Vot\xc5\x98elov\xc3\x81'
p6641
(lp6642
S'0.0011'
p6643
asS'Va\xc5\x87a\xc4\x8cov\xc3\x81'
p6644
(lp6645
S'0.0006'
p6646
asS'Vanduchov\xc3\x81'
p6647
(lp6648
S'0.0010'
p6649
asS'Volingerov\xc3\x81'
p6650
(lp6651
S'0.0001'
p6652
asS'Vons\xc3\x8dkov\xc3\x81'
p6653
(lp6654
S'0.0001'
p6655
asS'Vencourov\xc3\x81'
p6656
(lp6657
S'0.0007'
p6658
asS'Vaza\xc4\x8cov\xc3\x81'
p6659
(lp6660
S'0.0027'
p6661
asS'Voltemarov\xc3\x81'
p6662
(lp6663
S'0.0002'
p6664
asS'Vencl\xc3\x81kov\xc3\x81'
p6665
(lp6666
S'0.0010'
p6667
asS'Vl\xc4\x8cinsk\xc3\x81'
p6668
(lp6669
S'0.0002'
p6670
asS'Vojvodov\xc3\x81'
p6671
(lp6672
S'0.0005'
p6673
asS'Veldamonov\xc3\x81'
p6674
(lp6675
S'0.0004'
p6676
asS'Vydrov\xc3\x81'
p6677
(lp6678
S'0.0179'
p6679
asS'Vondr\xc3\x81\xc5\xa0kov\xc3\x81'
p6680
(lp6681
S'0.0131'
p6682
asS'Va\xc5\x87hov\xc3\x81'
p6683
(lp6684
S'0.0036'
p6685
asS'Vargov\xc3\x81'
p6686
(lp6687
S'0.0253'
p6688
asS'Va\xc4\x8ciljov\xc3\x81'
p6689
(lp6690
S'0.0001'
p6691
asS'Vokurkov\xc3\x81'
p6692
(lp6693
S'0.0131'
p6694
asS'Vorobljevov\xc3\x81'
p6695
(lp6696
S'0.0001'
p6697
asS'Veiszov\xc3\x81'
p6698
(lp6699
S'0.0001'
p6700
asS'Vondrkov\xc3\x81'
p6701
(lp6702
S'0.0020'
p6703
asS'Var\xc3\x81\xc4\x8ckov\xc3\x81'
p6704
(lp6705
S'0.0001'
p6706
asS'Veli\xc4\x8cov\xc3\x81'
p6707
(lp6708
S'0.0004'
p6709
asS'Vil\xc4\x8ckov\xc3\x81'
p6710
(lp6711
S'0.0014'
p6712
asS'Vendrov\xc3\x81'
p6713
(lp6714
S'0.0002'
p6715
asS'Vendlov\xc3\x81'
p6716
(lp6717
S'0.0021'
p6718
asS'Vagelov\xc3\x81'
p6719
(lp6720
S'0.0001'
p6721
asS'Vecseyov\xc3\x81'
p6722
(lp6723
S'0.0002'
p6724
asS'Velhartick\xc3\x81'
p6725
(lp6726
S'0.0011'
p6727
asS'Vyv\xc3\x81\xc5\xbdilov\xc3\x81'
p6728
(lp6729
S'0.0010'
p6730
asS'Vrab\xc4\x8cekov\xc3\x81'
p6731
(lp6732
S'0.0004'
p6733
asS'Volnerov\xc3\x81'
p6734
(lp6735
S'0.0002'
p6736
asS'Vitanovsk\xc3\x81'
p6737
(lp6738
S'0.0004'
p6739
asS'Vost\xc3\x81rkov\xc3\x81'
p6740
(lp6741
S'0.0046'
p6742
asS'Volk\xc3\x81nov\xc3\x81'
p6743
(lp6744
S'0.0006'
p6745
asS'Viplerov\xc3\x81'
p6746
(lp6747
S'0.0004'
p6748
asS'Vyr\xc5\xaebal\xc3\x8dkov\xc3\x81'
p6749
(lp6750
S'0.0002'
p6751
asS'Vrlov\xc3\x81'
p6752
(lp6753
S'0.0023'
p6754
asS'Vojtenkov\xc3\x81'
p6755
(lp6756
S'0.0001'
p6757
asS'Vajrychov\xc3\x81'
p6758
(lp6759
S'0.0005'
p6760
asS'Veigendov\xc3\x81'
p6761
(lp6762
S'0.0005'
p6763
asS'Viragov\xc3\x81'
p6764
(lp6765
S'0.0006'
p6766
asS'Votipkov\xc3\x81'
p6767
(lp6768
S'0.0001'
p6769
asS'Vajshaitlov\xc3\x81'
p6770
(lp6771
S'0.0001'
p6772
asS'Vebers\xc3\x8dkov\xc3\x81'
p6773
(lp6774
S'0.0001'
p6775
asS'Vratislavsk\xc3\x81'
p6776
(lp6777
S'0.0006'
p6778
asS'Va\xc5\xa0i\xc4\x8ckov\xc3\x81'
p6779
(lp6780
S'0.0019'
p6781
asS'Vasasov\xc3\x81'
p6782
(lp6783
S'0.0001'
p6784
asS'Vladovi\xc4\x8cov\xc3\x81'
p6785
(lp6786
S'0.0002'
p6787
asS'Vlah\xc3\x81\xc4\x8cov\xc3\x81'
p6788
(lp6789
S'0.0002'
p6790
asS'Veringerov\xc3\x81'
p6791
(lp6792
S'0.0005'
p6793
asS'Veissov\xc3\x81'
p6794
(lp6795
S'0.0001'
p6796
asS'Voltnerov\xc3\x81'
p6797
(lp6798
S'0.0007'
p6799
asS'V\xc4\x9ancekov\xc3\x81'
p6800
(lp6801
S'0.0001'
p6802
asS'Vrobelov\xc3\x81'
p6803
(lp6804
S'0.0034'
p6805
asS'Vavrysov\xc3\x81'
p6806
(lp6807
S'0.0020'
p6808
asS'Voc\xc3\x8dlkov\xc3\x81'
p6809
(lp6810
S'0.0021'
p6811
asS'Vitekerov\xc3\x81'
p6812
(lp6813
S'0.0001'
p6814
asS'Vejpustkov\xc3\x81'
p6815
(lp6816
S'0.0015'
p6817
asS'Vicherkov\xc3\x81'
p6818
(lp6819
S'0.0043'
p6820
asS'Vachulov\xc3\x81'
p6821
(lp6822
S'0.0007'
p6823
asS'Vyhl\xc3\x8ddov\xc3\x81'
p6824
(lp6825
S'0.0006'
p6826
asS'Verun\xc3\x81\xc4\x8cov\xc3\x81'
p6827
(lp6828
S'0.0005'
p6829
asS'Vere\xc5\xa0ov\xc3\x81'
p6830
(lp6831
S'0.0035'
p6832
asS'Ve\xc4\xbdk\xc3\x81'
p6833
(lp6834
S'0.0002'
p6835
asS'Vojnarovi\xc4\x8cov\xc3\x81'
p6836
(lp6837
S'0.0001'
p6838
asS'Val\xc3\x8d\xc5\xa0kov\xc3\x81'
p6839
(lp6840
S'0.0001'
p6841
asS'Volecov\xc3\x81'
p6842
(lp6843
S'0.0001'
p6844
asS'V\xc3\x81clavov\xc3\x81'
p6845
(lp6846
S'0.0040'
p6847
asS'Vondra\xc4\x8ckov\xc3\x81'
p6848
(lp6849
S'0.0001'
p6850
asS'V\xc4\x9artel\xc3\x81\xc5\x98ov\xc3\x81'
p6851
(lp6852
S'0.0003'
p6853
asS'Vdovi\xc4\x8c\xc3\x8dkov\xc3\x81'
p6854
(lp6855
S'0.0001'
p6856
asS'Vajlichov\xc3\x81'
p6857
(lp6858
S'0.0001'
p6859
asS'Voz\xc3\x81rikov\xc3\x81'
p6860
(lp6861
S'0.0003'
p6862
asS'Vundrlov\xc3\x81'
p6863
(lp6864
S'0.0001'
p6865
asS'V\xc3\x96lklov\xc3\x81'
p6866
(lp6867
S'0.0003'
p6868
asS'Vit\xc3\x81kov\xc3\x81'
p6869
(lp6870
S'0.0050'
p6871
asS'Venhudov\xc3\x81'
p6872
(lp6873
S'0.0009'
p6874
asS'Vodn\xc3\x81'
p6875
(lp6876
S'0.0010'
p6877
asS'V\xc3\x89rostov\xc3\x81'
p6878
(lp6879
S'0.0011'
p6880
asS'Vla\xc4\x8cuhov\xc3\x81'
p6881
(lp6882
S'0.0011'
p6883
asS'Vinopalov\xc3\x81'
p6884
(lp6885
S'0.0018'
p6886
asS'Veng\xc5\x98\xc3\x8dnov\xc3\x81'
p6887
(lp6888
S'0.0002'
p6889
asS'Vanderov\xc3\x81'
p6890
(lp6891
S'0.0002'
p6892
asS'Vagundov\xc3\x81-drg\xc3\x81\xc4\x8cov\xc3\x81'
p6893
(lp6894
S'0.0001'
p6895
asS'Vyvadilov\xc3\x81'
p6896
(lp6897
S'0.0012'
p6898
asS'Vlahovi\xc4\x8cov\xc3\x81'
p6899
(lp6900
S'0.0003'
p6901
asS'Vymerov\xc3\x81'
p6902
(lp6903
S'0.0004'
p6904
asS'Vi\xc5\xa0enkov\xc3\x81'
p6905
(lp6906
S'0.0002'
p6907
asS'Vejsl\xc3\x8dkov\xc3\x81'
p6908
(lp6909
S'0.0002'
p6910
asS'Vej\xc5\x98\xc3\x8dkov\xc3\x81'
p6911
(lp6912
S'0.0004'
p6913
asS'Vajshajplov\xc3\x81'
p6914
(lp6915
S'0.0001'
p6916
asS'Vara\xc4\x8ckov\xc3\x81'
p6917
(lp6918
S'0.0005'
p6919
asS'Vopolkov\xc3\x81'
p6920
(lp6921
S'0.0002'
p6922
asS'Vavru\xc5\xa0kov\xc3\x81'
p6923
(lp6924
S'0.0073'
p6925
asS'Vengr\xc3\x8dnov\xc3\x81'
p6926
(lp6927
S'0.0002'
p6928
asS'Vojt\xc3\x8d\xc4\x8ckov\xc3\x81'
p6929
(lp6930
S'0.0002'
p6931
asS'Vaverov\xc3\x81'
p6932
(lp6933
S'0.0035'
p6934
asS'Vrlikov\xc3\x81'
p6935
(lp6936
S'0.0002'
p6937
asS'Vanturov\xc3\x81'
p6938
(lp6939
S'0.0002'
p6940
asS'Vyhlasov\xc3\x81'
p6941
(lp6942
S'0.0016'
p6943
asS'Vajnrajchov\xc3\x81'
p6944
(lp6945
S'0.0002'
p6946
asS'Vosp\xc3\x81lkov\xc3\x81'
p6947
(lp6948
S'0.0010'
p6949
asS'Vo\xc5\xa0keru\xc5\xa0ov\xc3\x81'
p6950
(lp6951
S'0.0008'
p6952
asS'Vannayov\xc3\x81'
p6953
(lp6954
S'0.0001'
p6955
asS'Vanderkov\xc3\x81'
p6956
(lp6957
S'0.0011'
p6958
asS'Vil\xc3\x8dmsk\xc3\x81'
p6959
(lp6960
S'0.0002'
p6961
asS'Vorovkov\xc3\x81'
p6962
(lp6963
S'0.0001'
p6964
asS'Vitebsk\xc3\x81'
p6965
(lp6966
S'0.0001'
p6967
asS'Vojtekov\xc3\x81'
p6968
(lp6969
S'0.0024'
p6970
asS'Valo'
p6971
(lp6972
S'0.0001'
p6973
asS'Vagaiov\xc3\x81'
p6974
(lp6975
S'0.0004'
p6976
asS'Van\xc4\x8cuchov\xc3\x81'
p6977
(lp6978
S'0.0001'
p6979
asS'Vesel\xc3\x81kov\xc3\x81'
p6980
(lp6981
S'0.0015'
p6982
asS'Von\xc3\x81\xc5\xa0kov\xc3\x81'
p6983
(lp6984
S'0.0038'
p6985
asS'Videmannov\xc3\x81'
p6986
(lp6987
S'0.0002'
p6988
asS'Vo\xc4\x8ckov\xc3\x81'
p6989
(lp6990
S'0.0017'
p6991
asS'Vl\xc3\x81dkov\xc3\x81'
p6992
(lp6993
S'0.0005'
p6994
asS'Vaszilyov\xc3\x81'
p6995
(lp6996
S'0.0002'
p6997
asS'Vandl\xc3\x8dkov\xc3\x81'
p6998
(lp6999
S'0.0003'
p7000
asS'Vr\xc5\xa0\xc5\xa4alov\xc3\x81'
p7001
(lp7002
S'0.0011'
p7003
asS'Vrancov\xc3\x81'
p7004
(lp7005
S'0.0002'
p7006
asS'Varkondov\xc3\x81'
p7007
(lp7008
S'0.0002'
p7009
asS'Vrbovsk\xc3\x81'
p7010
(lp7011
S'0.0015'
p7012
asS'Volaninov\xc3\x81'
p7013
(lp7014
S'0.0002'
p7015
asS'Vac\xc3\x8d\xc5\x98ov\xc3\x81'
p7016
(lp7017
S'0.0009'
p7018
asS'Vysopalov\xc3\x81'
p7019
(lp7020
S'0.0002'
p7021
asS'V\xc4\x9ar\xc4\x8c\xc3\x81kov\xc3\x81'
p7022
(lp7023
S'0.0003'
p7024
asS'V\xc3\x8dcen\xc3\x8dkov\xc3\x81'
p7025
(lp7026
S'0.0002'
p7027
asS'Vac\xc3\x8dnkov\xc3\x81'
p7028
(lp7029
S'0.0006'
p7030
asS'Vopa\xc5\x98ilov\xc3\x81'
p7031
(lp7032
S'0.0022'
p7033
asS'Vor\xc3\x81\xc4\x8cov\xc3\x81'
p7034
(lp7035
S'0.0091'
p7036
asS'Vosikov\xc3\x81'
p7037
(lp7038
S'0.0017'
p7039
asS'Vykukov\xc3\x81'
p7040
(lp7041
S'0.0002'
p7042
asS'V\xc3\x81lov\xc3\x81'
p7043
(lp7044
S'0.0096'
p7045
asS'V\xc3\x8dtoslavsk\xc3\x81'
p7046
(lp7047
S'0.0002'
p7048
asS'Vrback\xc3\x81'
p7049
(lp7050
S'0.0011'
p7051
asS'Vagov\xc3\x81'
p7052
(lp7053
S'0.0004'
p7054
asS'Vidourkov\xc3\x81'
p7055
(lp7056
S'0.0007'
p7057
asS'Vychytilov\xc3\x81'
p7058
(lp7059
S'0.0032'
p7060
asS'Vl\xc3\x81\xc5\xa0kov\xc3\x81'
p7061
(lp7062
S'0.0112'
p7063
asS'Vinsk\xc3\x81'
p7064
(lp7065
S'0.0002'
p7066
asS'Vojtu\xc5\xa0ov\xc3\x81'
p7067
(lp7068
S'0.0013'
p7069
asS'V\xc3\x8dlov\xc3\x81'
p7070
(lp7071
S'0.0003'
p7072
asS'Vatahov\xc3\x81'
p7073
(lp7074
S'0.0003'
p7075
asS'Valyiov\xc3\x81'
p7076
(lp7077
S'0.0001'
p7078
asS'Vincov\xc3\x81'
p7079
(lp7080
S'0.0004'
p7081
asS'Vastagov\xc3\x81'
p7082
(lp7083
S'0.0004'
p7084
asS'Vejchodov\xc3\x81'
p7085
(lp7086
S'0.0013'
p7087
asS'Vozdov\xc3\x81'
p7088
(lp7089
S'0.0003'
p7090
asS'V\xc3\x81zlerov\xc3\x81'
p7091
(lp7092
S'0.0016'
p7093
asS'Vasileva'
p7094
(lp7095
S'0.0002'
p7096
asS'Videnkov\xc3\x81'
p7097
(lp7098
S'0.0006'
p7099
asS'Vyp\xc3\x81skov\xc3\x81'
p7100
(lp7101
S'0.0001'
p7102
asS'V\xc5\xa0olkov\xc3\x81'
p7103
(lp7104
S'0.0002'
p7105
asS'V\xc3\x8dte\xc4\x8ckov\xc3\x81'
p7106
(lp7107
S'0.0024'
p7108
asS'Vasmansk\xc3\x81'
p7109
(lp7110
S'0.0003'
p7111
asS'Vlodar\xc4\x8c\xc3\x8dkov\xc3\x81'
p7112
(lp7113
S'0.0002'
p7114
asS'Va\xc5\x87atkov\xc3\x81'
p7115
(lp7116
S'0.0010'
p7117
asS'Vovkov\xc3\x81'
p7118
(lp7119
S'0.0002'
p7120
asS'Vlada\xc5\x98ov\xc3\x81'
p7121
(lp7122
S'0.0047'
p7123
asS'Vontorkov\xc3\x81'
p7124
(lp7125
S'0.0003'
p7126
asS'Vr\xc3\x81blikov\xc3\x81'
p7127
(lp7128
S'0.0011'
p7129
asS'V\xc3\x81clav\xc3\x8d\xc4\x8ckov\xc3\x81'
p7130
(lp7131
S'0.0026'
p7132
asS'Volerov\xc3\x81'
p7133
(lp7134
S'0.0003'
p7135
asS'Vanou\xc5\xa0kov\xc3\x81'
p7136
(lp7137
S'0.0001'
p7138
asS'V\xc3\x8dtov\xc3\x81'
p7139
(lp7140
S'0.0418'
p7141
asS'Vzientkov\xc3\x81'
p7142
(lp7143
S'0.0001'
p7144
asS'V\xc3\x8dtek'
p7145
(lp7146
S'0.0001'
p7147
asS'Vaignerov\xc3\x81'
p7148
(lp7149
S'0.0001'
p7150
asS'Vuchtrlov\xc3\x81'
p7151
(lp7152
S'0.0002'
p7153
asS'V\xc5\x90r\xc5\x90sov\xc3\x81'
p7154
(lp7155
S'0.0006'
p7156
asS'Va\xc5\xa0atov\xc3\x81'
p7157
(lp7158
S'0.0057'
p7159
asS'Vaigeltov\xc3\x81'
p7160
(lp7161
S'0.0001'
p7162
asS'Vavr\xc4\x8c\xc3\x8dkov\xc3\x81'
p7163
(lp7164
S'0.0003'
p7165
asS'Vojvod\xc3\x8dkov\xc3\x81'
p7166
(lp7167
S'0.0023'
p7168
asS'Velechovsk\xc3\x81'
p7169
(lp7170
S'0.0048'
p7171
asS'Voto\xc4\x8ckov\xc3\x81'
p7172
(lp7173
S'0.0078'
p7174
asS'Vokalov\xc3\x81'
p7175
(lp7176
S'0.0009'
p7177
asS'Vall\xc3\x81\xc5\xa0ov\xc3\x81'
p7178
(lp7179
S'0.0001'
p7180
asS'Vln\xc3\x8dkov\xc3\x81'
p7181
(lp7182
S'0.0001'
p7183
asS'Vyb\xc3\x8dralov\xc3\x81'
p7184
(lp7185
S'0.0288'
p7186
asS'V\xc4\x8colkov\xc3\x81'
p7187
(lp7188
S'0.0001'
p7189
asS'Vil\xc3\x8dtov\xc3\x81'
p7190
(lp7191
S'0.0001'
p7192
asS'Velinsk\xc3\x81'
p7193
(lp7194
S'0.0021'
p7195
asS'Vo\xc5\xa0tin\xc3\x81rov\xc3\x81'
p7196
(lp7197
S'0.0002'
p7198
asS'Vol\xc3\x81rov\xc3\x81'
p7199
(lp7200
S'0.0005'
p7201
asS'Vajgantov\xc3\x81'
p7202
(lp7203
S'0.0002'
p7204
asS'Veskov\xc3\x81'
p7205
(lp7206
S'0.0005'
p7207
asS'Vojt\xc3\x81\xc5\xa0ov\xc3\x81'
p7208
(lp7209
S'0.0001'
p7210
asS'Vlkov\xc3\x81'
p7211
(lp7212
S'0.0664'
p7213
asS'Verbovsk\xc3\x81'
p7214
(lp7215
S'0.0003'
p7216
asS'Vagundov\xc3\x81'
p7217
(lp7218
S'0.0002'
p7219
asS'Viktor\xc3\x8dnov\xc3\x81'
p7220
(lp7221
S'0.0014'
p7222
asS'Va\xc5\xa0inkov\xc3\x81'
p7223
(lp7224
S'0.0015'
p7225
asS'Ventov\xc3\x81'
p7226
(lp7227
S'0.0016'
p7228
asS'Velensk\xc3\x81'
p7229
(lp7230
S'0.0006'
p7231
asS'Valou\xc5\xa0kov\xc3\x81'
p7232
(lp7233
S'0.0066'
p7234
asS'Venkov\xc3\x81'
p7235
(lp7236
S'0.0002'
p7237
asS'Vodopivcov\xc3\x81'
p7238
(lp7239
S'0.0001'
p7240
asS'Vyle\xc5\xa4alov\xc3\x81'
p7241
(lp7242
S'0.0032'
p7243
asS'Vor\xc5\xa0ilkov\xc3\x81'
p7244
(lp7245
S'0.0004'
p7246
asS'Viehmannov\xc3\x81'
p7247
(lp7248
S'0.0003'
p7249
asS'Von\xc5\xa0\xc3\x8dkov\xc3\x81'
p7250
(lp7251
S'0.0003'
p7252
asS'Vundererov\xc3\x81'
p7253
(lp7254
S'0.0002'
p7255
asS'V\xc3\x9db\xc4\x9arov\xc3\x81'
p7256
(lp7257
S'0.0002'
p7258
asS'Volterov\xc3\x81'
p7259
(lp7260
S'0.0005'
p7261
asS'Va\xc5\xa0ourkov\xc3\x81'
p7262
(lp7263
S'0.0004'
p7264
asS'Veindlov\xc3\x81'
p7265
(lp7266
S'0.0002'
p7267
asS'Vitmanov\xc3\x81'
p7268
(lp7269
S'0.0005'
p7270
asS'Vyletalov\xc3\x81'
p7271
(lp7272
S'0.0001'
p7273
asS'V\xc4\x9arnochov\xc3\x81'
p7274
(lp7275
S'0.0004'
p7276
asS'Vrt\xc4\x9alkov\xc3\x81'
p7277
(lp7278
S'0.0012'
p7279
asS'Vojtelov\xc3\x81'
p7280
(lp7281
S'0.0004'
p7282
asS'V\xc3\x9drutov\xc3\x81'
p7283
(lp7284
S'0.0008'
p7285
asS'Vr\xc3\x81bkov\xc3\x81'
p7286
(lp7287
S'0.0007'
p7288
asS'Voglov\xc3\x81'
p7289
(lp7290
S'0.0085'
p7291
asS'Vere\xc5\xa0pejov\xc3\x81'
p7292
(lp7293
S'0.0003'
p7294
asS'Vidermanov\xc3\x81'
p7295
(lp7296
S'0.0001'
p7297
asS'V\xc3\x9dduchov\xc3\x81'
p7298
(lp7299
S'0.0004'
p7300
asS'Vikartovsk\xc3\x81'
p7301
(lp7302
S'0.0004'
p7303
asS'Vars\xc3\x81nyiov\xc3\x81'
p7304
(lp7305
S'0.0004'
p7306
asS'Vank\xc3\x93ov\xc3\x81'
p7307
(lp7308
S'0.0001'
p7309
asS'Vosolilov\xc3\x81'
p7310
(lp7311
S'0.0001'
p7312
asS'Veng\xc5\x98inov\xc3\x81'
p7313
(lp7314
S'0.0001'
p7315
asS'Vocelov\xc3\x81'
p7316
(lp7317
S'0.0015'
p7318
asS'Vod\xc3\x81kov\xc3\x81'
p7319
(lp7320
S'0.0142'
p7321
asS'V\xc3\x81vr\xc5\xae'
p7322
(lp7323
S'0.0027'
p7324
asS'V\xc3\x96r\xc3\x96sov\xc3\x81'
p7325
(lp7326
S'0.0017'
p7327
asS'Va\xc5\xa0utov\xc3\x81'
p7328
(lp7329
S'0.0105'
p7330
asS'Vedmochov\xc3\x81'
p7331
(lp7332
S'0.0005'
p7333
asS'Vrecionov\xc3\x81'
p7334
(lp7335
S'0.0002'
p7336
asS'Vozabulov\xc3\x81'
p7337
(lp7338
S'0.0006'
p7339
asS'Va\xc5\xa0urov\xc3\x81'
p7340
(lp7341
S'0.0003'
p7342
asS'Vyzulov\xc3\x81'
p7343
(lp7344
S'0.0002'
p7345
asS'Vicianov\xc3\x81'
p7346
(lp7347
S'0.0009'
p7348
asS'Vil\xc3\x8dmov\xc3\x81'
p7349
(lp7350
S'0.0103'
p7351
asS'Vi\xc4\x8c\xc3\x8dkov\xc3\x81'
p7352
(lp7353
S'0.0027'
p7354
asS'Vet\xc3\x9d\xc5\xa0kov\xc3\x81'
p7355
(lp7356
S'0.0008'
p7357
asS'Vo\xc5\xa0terov\xc3\x81'
p7358
(lp7359
S'0.0007'
p7360
asS'Vajtov\xc3\x81'
p7361
(lp7362
S'0.0001'
p7363
asS'Vyt\xc5\x98\xc3\x8dsalov\xc3\x81'
p7364
(lp7365
S'0.0011'
p7366
asS'Vulganov\xc3\x81'
p7367
(lp7368
S'0.0002'
p7369
asS'Vyparinov\xc3\x81'
p7370
(lp7371
S'0.0003'
p7372
asS'Vor\xc5\xbd\xc3\x81\xc4\x8ckov\xc3\x81'
p7373
(lp7374
S'0.0002'
p7375
asS'Vl\xc3\x81hov\xc3\x81'
p7376
(lp7377
S'0.0003'
p7378
asS'Vaculovi\xc4\x8cov\xc3\x81'
p7379
(lp7380
S'0.0015'
p7381
asS'Vyj\xc3\x8dd\xc3\x81\xc4\x8ckov\xc3\x81'
p7382
(lp7383
S'0.0009'
p7384
asS'Vosk\xc3\x81rov\xc3\x81'
p7385
(lp7386
S'0.0001'
p7387
asS'Vavricov\xc3\x81'
p7388
(lp7389
S'0.0004'
p7390
asS'Vlkavcov\xc3\x81'
p7391
(lp7392
S'0.0004'
p7393
asS'Vobi\xc5\xa0ov\xc3\x81'
p7394
(lp7395
S'0.0001'
p7396
asS'Ven\xc4\x8covsk\xc3\x81'
p7397
(lp7398
S'0.0002'
p7399
asS'Vi\xc4\x8canov\xc3\x81'
p7400
(lp7401
S'0.0029'
p7402
asS'Vakr\xc4\x8ckov\xc3\x81'
p7403
(lp7404
S'0.0002'
p7405
asS'Valvodov\xc3\x81'
p7406
(lp7407
S'0.0018'
p7408
asS'Vir\xc5\xa0\xc3\x8dkov\xc3\x81'
p7409
(lp7410
S'0.0001'
p7411
asS'Vyb\xc3\x8dral\xc3\x8dkov\xc3\x81'
p7412
(lp7413
S'0.0009'
p7414
asS'V\xc3\x81gov\xc3\x81'
p7415
(lp7416
S'0.0001'
p7417
asS'Visnarov\xc3\x81'
p7418
(lp7419
S'0.0001'
p7420
asS'V\xc3\x9dpustov\xc3\x81'
p7421
(lp7422
S'0.0001'
p7423
asS'Vad\xc3\x81szov\xc3\x81'
p7424
(lp7425
S'0.0002'
p7426
asS'Vo\xc5\xa0\xc4\x8cekov\xc3\x81'
p7427
(lp7428
S'0.0001'
p7429
asS'Votinsk\xc3\x81'
p7430
(lp7431
S'0.0001'
p7432
asS'Vontszem\xc3\x9cov\xc3\x81'
p7433
(lp7434
S'0.0004'
p7435
asS'Vy\xc5\xa0insk\xc3\x81'
p7436
(lp7437
S'0.0006'
p7438
asS'Va\xc5\xa0\xc5\xa4atkov\xc3\x81'
p7439
(lp7440
S'0.0002'
p7441
asS'V\xc3\x81jov\xc3\x81'
p7442
(lp7443
S'0.0006'
p7444
asS'Vildmonov\xc3\x81'
p7445
(lp7446
S'0.0002'
p7447
asS'Vogn\xc3\x81rkov\xc3\x81'
p7448
(lp7449
S'0.0002'
p7450
asS'Vost\xc5\x98elov\xc3\x81'
p7451
(lp7452
S'0.0045'
p7453
asS'Volkovov\xc3\x81'
p7454
(lp7455
S'0.0002'
p7456
asS'Vytinov\xc3\x81'
p7457
(lp7458
S'0.0002'
p7459
asS'Vejrochov\xc3\x81'
p7460
(lp7461
S'0.0002'
p7462
asS'Vilnerov\xc3\x81'
p7463
(lp7464
S'0.0001'
p7465
asS'Viklick\xc3\x81'
p7466
(lp7467
S'0.0008'
p7468
asS'Velingerov\xc3\x81'
p7469
(lp7470
S'0.0005'
p7471
asS'Veiglov\xc3\x81'
p7472
(lp7473
S'0.0010'
p7474
asS'Volavkov\xc3\x81'
p7475
(lp7476
S'0.0039'
p7477
asS'Vrbicov\xc3\x81'
p7478
(lp7479
S'0.0007'
p7480
asS'Vac\xc3\x8dkov\xc3\x81'
p7481
(lp7482
S'0.0093'
p7483
asS'Vinarsk\xc3\x81'
p7484
(lp7485
S'0.0002'
p7486
asS'Veningrov\xc3\x81'
p7487
(lp7488
S'0.0001'
p7489
asS'Vacovsk\xc3\x81'
p7490
(lp7491
S'0.0028'
p7492
asS'Volkovjakov\xc3\x81'
p7493
(lp7494
S'0.0001'
p7495
asS'Ve\xc4\x8c\xc3\x8drkov\xc3\x81'
p7496
(lp7497
S'0.0001'
p7498
asS'Vlkanovov\xc3\x81'
p7499
(lp7500
S'0.0001'
p7501
asS'Vop\xc3\x81tkov\xc3\x81'
p7502
(lp7503
S'0.0011'
p7504
asS'Vinkl\xc3\x81\xc5\x98ov\xc3\x81'
p7505
(lp7506
S'0.0021'
p7507
asS'Vadovi\xc4\x8cov\xc3\x81'
p7508
(lp7509
S'0.0005'
p7510
asS'V\xc3\x9dborov\xc3\x81'
p7511
(lp7512
S'0.0003'
p7513
asS'Vat\xc4\x9arov\xc3\x81'
p7514
(lp7515
S'0.0002'
p7516
asS'Vincentov\xc3\x81'
p7517
(lp7518
S'0.0006'
p7519
asS'V\xc4\x8calov\xc3\x81'
p7520
(lp7521
S'0.0005'
p7522
asS'Vozandychov\xc3\x81'
p7523
(lp7524
S'0.0002'
p7525
asS'Vaj\xc4\x8e\xc3\x81kov\xc3\x81'
p7526
(lp7527
S'0.0015'
p7528
asS'Vrt\xc4\x9alov\xc3\x81'
p7529
(lp7530
S'0.0026'
p7531
asS'Virthov\xc3\x81'
p7532
(lp7533
S'0.0002'
p7534
asS'Vravkov\xc3\x81'
p7535
(lp7536
S'0.0002'
p7537
asS'Vadro\xc5\x87ov\xc3\x81'
p7538
(lp7539
S'0.0003'
p7540
asS'Venzarov\xc3\x81'
p7541
(lp7542
S'0.0021'
p7543
asS'Vyl\xc3\x8d\xc4\x8cilov\xc3\x81'
p7544
(lp7545
S'0.0018'
p7546
asS'Vo\xc5\xbdechov\xc3\x81'
p7547
(lp7548
S'0.0005'
p7549
asS'Valia\xc5\xa0kov\xc3\x81'
p7550
(lp7551
S'0.0002'
p7552
asS'Vack\xc3\x81\xc5\x98ov\xc3\x81'
p7553
(lp7554
S'0.0001'
p7555
asS'Vopr\xc5\xa0\xc3\x81lkov\xc3\x81'
p7556
(lp7557
S'0.0002'
p7558
asS'Vode\xc5\xa0ilov\xc3\x81'
p7559
(lp7560
S'0.0003'
p7561
asS'Villinov\xc3\x81'
p7562
(lp7563
S'0.0001'
p7564
asS'V\xc4\x9azdov\xc3\x81'
p7565
(lp7566
S'0.0005'
p7567
asS'Vejhonkov\xc3\x81'
p7568
(lp7569
S'0.0002'
p7570
asS'Voj\xc4\x8ci\xc5\x87\xc3\x81kov\xc3\x81'
p7571
(lp7572
S'0.0001'
p7573
asS'Ve\xc4\x8cern\xc3\x8dkov\xc3\x81'
p7574
(lp7575
S'0.0025'
p7576
asS'Vltavsk\xc3\x81'
p7577
(lp7578
S'0.0042'
p7579
asS'Viskupi\xc4\x8cov\xc3\x81'
p7580
(lp7581
S'0.0002'
p7582
asS'Vos\xc3\x9dnkov\xc3\x81'
p7583
(lp7584
S'0.0002'
p7585
asS'Vobrov\xc3\x81'
p7586
(lp7587
S'0.0033'
p7588
asS'Vlazlov\xc3\x81'
p7589
(lp7590
S'0.0001'
p7591
asS'Vlkovsk\xc3\x81'
p7592
(lp7593
S'0.0004'
p7594
asS'Vot\xc3\x81nkov\xc3\x81'
p7595
(lp7596
S'0.0007'
p7597
asS'Va\xc5\x98achov\xc3\x81'
p7598
(lp7599
S'0.0003'
p7600
asS'Vencovsk\xc3\x81'
p7601
(lp7602
S'0.0035'
p7603
asS'Vatralov\xc3\x81'
p7604
(lp7605
S'0.0002'
p7606
asS'V\xc3\x89gov\xc3\x81'
p7607
(lp7608
S'0.0001'
p7609
asS'Veinertov\xc3\x81'
p7610
(lp7611
S'0.0001'
p7612
asS'Vla\xc4\x8cihovsk\xc3\x81'
p7613
(lp7614
S'0.0002'
p7615
asS'Vingr\xc3\x81lkov\xc3\x81'
p7616
(lp7617
S'0.0004'
p7618
asS'Vorschneiderov\xc3\x81'
p7619
(lp7620
S'0.0002'
p7621
asS'Voclov\xc3\x81'
p7622
(lp7623
S'0.0007'
p7624
asS'Vydaren\xc3\x81'
p7625
(lp7626
S'0.0003'
p7627
asS'Venzerov\xc3\x81'
p7628
(lp7629
S'0.0002'
p7630
asS'Vra\xc5\xa0tiakov\xc3\x81'
p7631
(lp7632
S'0.0005'
p7633
asS'Vasil\xc3\x8dkov\xc3\x81'
p7634
(lp7635
S'0.0001'
p7636
asS'Vit\xc3\x89zov\xc3\x81'
p7637
(lp7638
S'0.0002'
p7639
asS'Valuchov\xc3\x81'
p7640
(lp7641
S'0.0021'
p7642
asS'Vozdeck\xc3\x81'
p7643
(lp7644
S'0.0040'
p7645
asS'Volmanov\xc3\x81'
p7646
(lp7647
S'0.0012'
p7648
asS'Voborn\xc3\x8dkov\xc3\x81'
p7649
(lp7650
S'0.0118'
p7651
asS'Vacul\xc3\x8dnov\xc3\x81'
p7652
(lp7653
S'0.0029'
p7654
asS'Voralov\xc3\x81'
p7655
(lp7656
S'0.0009'
p7657
asS'Verichov\xc3\x81'
p7658
(lp7659
S'0.0003'
p7660
asS'Vo\xc5\xa0merov\xc3\x81'
p7661
(lp7662
S'0.0016'
p7663
asS'Varva\xc5\x98ovsk\xc3\x81'
p7664
(lp7665
S'0.0017'
p7666
asS'Vlastov\xc3\x81'
p7667
(lp7668
S'0.0008'
p7669
asS'Vovolkov\xc3\x81'
p7670
(lp7671
S'0.0002'
p7672
asS'Vajgrtov\xc3\x81'
p7673
(lp7674
S'0.0002'
p7675
asS'Velenovsk\xc3\x81'
p7676
(lp7677
S'0.0004'
p7678
asS'Vambersk\xc3\x81'
p7679
(lp7680
S'0.0021'
p7681
asS'Virtelov\xc3\x81'
p7682
(lp7683
S'0.0001'
p7684
asS'Van\xc5\xbdurov\xc3\x81'
p7685
(lp7686
S'0.0038'
p7687
asS'Vakoljov\xc3\x81'
p7688
(lp7689
S'0.0001'
p7690
asS'Venckov\xc3\x81'
p7691
(lp7692
S'0.0002'
p7693
asS'Vavrlov\xc3\x81'
p7694
(lp7695
S'0.0014'
p7696
asS'Vlaschinsk\xc3\x81'
p7697
(lp7698
S'0.0002'
p7699
asS'Veitzov\xc3\x81'
p7700
(lp7701
S'0.0002'
p7702
asS'V\xc3\x9drostkov\xc3\x81'
p7703
(lp7704
S'0.0007'
p7705
asS'Vinohradn\xc3\x8dkov\xc3\x81'
p7706
(lp7707
S'0.0004'
p7708
asS'Vr\xc3\x81tn\xc3\x8dkov\xc3\x81'
p7709
(lp7710
S'0.0021'
p7711
asS'Vochvestov\xc3\x81'
p7712
(lp7713
S'0.0002'
p7714
asS'Vikov\xc3\x81'
p7715
(lp7716
S'0.0104'
p7717
asS'Vynikalov\xc3\x81'
p7718
(lp7719
S'0.0009'
p7720
asS'Vaskov\xc3\x81'
p7721
(lp7722
S'0.0020'
p7723
asS'Vil\xc3\x81nkov\xc3\x81'
p7724
(lp7725
S'0.0005'
p7726
asS'V\xc3\x9dvodov\xc3\x81'
p7727
(lp7728
S'0.0015'
p7729
asS'Vantrubov\xc3\x81'
p7730
(lp7731
S'0.0002'
p7732
asS'Vin\xc3\x81rkov\xc3\x81'
p7733
(lp7734
S'0.0008'
p7735
asS'Vajayov\xc3\x81'
p7736
(lp7737
S'0.0002'
p7738
asS'Vozihnojov\xc3\x81'
p7739
(lp7740
S'0.0013'
p7741
asS'Vothov\xc3\x81'
p7742
(lp7743
S'0.0001'
p7744
asS'V\xc4\x8celi\xc4\x8ckov\xc3\x81'
p7745
(lp7746
S'0.0005'
p7747
asS'Vl\xc3\x81\xc4\x8cil\xc3\x8dkov\xc3\x81'
p7748
(lp7749
S'0.0008'
p7750
asS'Vonkov\xc3\x81'
p7751
(lp7752
S'0.0026'
p7753
asS'V\xc4\x9at\xc5\x98\xc3\x8d\xc4\x8ckov\xc3\x81'
p7754
(lp7755
S'0.0007'
p7756
asS'Vopi\xc4\x8ckov\xc3\x81'
p7757
(lp7758
S'0.0028'
p7759
asS'Vejb\xc4\x9arov\xc3\x81'
p7760
(lp7761
S'0.0008'
p7762
asS'Vopavov\xc3\x81'
p7763
(lp7764
S'0.0011'
p7765
asS'Vejn\xc3\x81rkov\xc3\x81'
p7766
(lp7767
S'0.0002'
p7768
asS'V\xc4\x9atrn\xc3\x8dkov\xc3\x81'
p7769
(lp7770
S'0.0002'
p7771
asS'Vicherov\xc3\x81'
p7772
(lp7773
S'0.0013'
p7774
asS'Vorkov\xc3\x81'
p7775
(lp7776
S'0.0005'
p7777
asS'Vojtechov\xc3\x81'
p7778
(lp7779
S'0.0003'
p7780
asS'Vrane\xc4\x8ckov\xc3\x81'
p7781
(lp7782
S'0.0001'
p7783
asS'Vok\xc3\x81\xc4\x8cov\xc3\x81'
p7784
(lp7785
S'0.0119'
p7786
asS'Val\xc5\xa0ubov\xc3\x81'
p7787
(lp7788
S'0.0003'
p7789
asS'Vesel\xc3\x8dkov\xc3\x81'
p7790
(lp7791
S'0.0027'
p7792
asS'Velikani\xc4\x8cov\xc3\x81'
p7793
(lp7794
S'0.0001'
p7795
asS'Visurov\xc3\x81'
p7796
(lp7797
S'0.0002'
p7798
asS'Vichorcov\xc3\x81'
p7799
(lp7800
S'0.0002'
p7801
asS'Vodov\xc3\x81'
p7802
(lp7803
S'0.0080'
p7804
asS'V\xc5\xaejt\xc4\x9achov\xc3\x81'
p7805
(lp7806
S'0.0011'
p7807
asS'Van\xc3\x81kov\xc3\x81'
p7808
(lp7809
S'0.0001'
p7810
asS'Vosm\xc3\x8dkov\xc3\x81'
p7811
(lp7812
S'0.0029'
p7813
asS'Vrchlavsk\xc3\x81'
p7814
(lp7815
S'0.0012'
p7816
asS'Vachelov\xc3\x81'
p7817
(lp7818
S'0.0009'
p7819
asS'Vavrisov\xc3\x81'
p7820
(lp7821
S'0.0003'
p7822
asS'Vojkuvkov\xc3\x81'
p7823
(lp7824
S'0.0001'
p7825
asS'Vejvarov\xc3\x81'
p7826
(lp7827
S'0.0022'
p7828
asS'Veihandov\xc3\x81'
p7829
(lp7830
S'0.0002'
p7831
asS'Vansk\xc3\x81'
p7832
(lp7833
S'0.0002'
p7834
asS'Vestfalov\xc3\x81'
p7835
(lp7836
S'0.0004'
p7837
asS'Vyj\xc3\x8dd\xc3\x81kov\xc3\x81'
p7838
(lp7839
S'0.0006'
p7840
asS'Vitvarov\xc3\x81'
p7841
(lp7842
S'0.0057'
p7843
asS'Verebelyov\xc3\x81'
p7844
(lp7845
S'0.0001'
p7846
asS'Vign\xc3\x81tov\xc3\x81'
p7847
(lp7848
S'0.0004'
p7849
asS'Volen\xc3\x8dkov\xc3\x81'
p7850
(lp7851
S'0.0014'
p7852
asS'Vajshajtlov\xc3\x81'
p7853
(lp7854
S'0.0004'
p7855
asS'Vasi\xc4\x86ov\xc3\x81'
p7856
(lp7857
S'0.0001'
p7858
asS'V\xc3\x9dpalov\xc3\x81'
p7859
(lp7860
S'0.0002'
p7861
asS'Vyroubalov\xc3\x81'
p7862
(lp7863
S'0.0093'
p7864
asS'V\xc3\x8dtkov\xc3\x81'
p7865
(lp7866
S'0.0963'
p7867
asS'Vora\xc4\x8ckov\xc3\x81'
p7868
(lp7869
S'0.0003'
p7870
asS'Vaisarov\xc3\x81'
p7871
(lp7872
S'0.0009'
p7873
asS'Voitov\xc3\x81'
p7874
(lp7875
S'0.0003'
p7876
asS'Voloszcukov\xc3\x81'
p7877
(lp7878
S'0.0001'
p7879
asS'Velebov\xc3\x81'
p7880
(lp7881
S'0.0090'
p7882
asS'Vonzinov\xc3\x81'
p7883
(lp7884
S'0.0002'
p7885
asS'Veverov\xc3\x81'
p7886
(lp7887
S'0.0021'
p7888
asS'Vy\xc5\xa0tejnov\xc3\x81'
p7889
(lp7890
S'0.0012'
p7891
asS'Va\xc5\xa0inov\xc3\x81'
p7892
(lp7893
S'0.0121'
p7894
asS'V\xc4\x8celkov\xc3\x81'
p7895
(lp7896
S'0.0015'
p7897
asS'Vantov\xc3\x81'
p7898
(lp7899
S'0.0004'
p7900
asS'Var\xc4\x8cokov\xc3\x81'
p7901
(lp7902
S'0.0001'
p7903
asS'Volsk\xc3\x81'
p7904
(lp7905
S'0.0004'
p7906
asS'Valtov\xc3\x81'
p7907
(lp7908
S'0.0062'
p7909
asS'Vinzencov\xc3\x81'
p7910
(lp7911
S'0.0001'
p7912
asS'Vrb\xc3\x81ck\xc3\x81'
p7913
(lp7914
S'0.0001'
p7915
asS'Vejn\xc3\x81rov\xc3\x81'
p7916
(lp7917
S'0.0001'
p7918
asS'Volemanov\xc3\x81'
p7919
(lp7920
S'0.0020'
p7921
asS'Va\xc5\xa0kov\xc3\x9dch'
p7922
(lp7923
S'0.0015'
p7924
asS'Vejlupkov\xc3\x81'
p7925
(lp7926
S'0.0026'
p7927
asS'Vydr\xc5\xbdelov\xc3\x81'
p7928
(lp7929
S'0.0015'
p7930
asS'Vichterlov\xc3\x81'
p7931
(lp7932
S'0.0001'
p7933
asS'V\xc3\x81rkov\xc3\x81'
p7934
(lp7935
S'0.0002'
p7936
asS'Volkeov\xc3\x81'
p7937
(lp7938
S'0.0002'
p7939
asS'Vr\xc5\xa0n\xc3\x8dkov\xc3\x81'
p7940
(lp7941
S'0.0008'
p7942
asS'Voglerov\xc3\x81'
p7943
(lp7944
S'0.0004'
p7945
asS'Va\xc5\xa0kovi\xc4\x8cov\xc3\x81'
p7946
(lp7947
S'0.0013'
p7948
asS'Vasilesk\xc3\x81'
p7949
(lp7950
S'0.0001'
p7951
asS'Voj\xc4\x8cov\xc3\x81'
p7952
(lp7953
S'0.0016'
p7954
asS'Vel\xc5\xa0ov\xc3\x81'
p7955
(lp7956
S'0.0007'
p7957
asS'Vojt\xc4\x9achovsk\xc3\x81'
p7958
(lp7959
S'0.0057'
p7960
asS'Ventrubov\xc3\x81'
p7961
(lp7962
S'0.0019'
p7963
asS'Vali\xc4\x8cov\xc3\x81'
p7964
(lp7965
S'0.0006'
p7966
asS'V\xc3\x81\xc5\xbdansk\xc3\x81'
p7967
(lp7968
S'0.0007'
p7969
asS'Vol\xc3\x8dkov\xc3\x81'
p7970
(lp7971
S'0.0001'
p7972
asS'Vav\xc5\x98enov\xc3\x81'
p7973
(lp7974
S'0.0012'
p7975
asS'Vacardov\xc3\x81'
p7976
(lp7977
S'0.0009'
p7978
asS'Vdole\xc4\x8ckov\xc3\x81'
p7979
(lp7980
S'0.0006'
p7981
asS'Viturkov\xc3\x81'
p7982
(lp7983
S'0.0003'
p7984
asS'Visingerov\xc3\x81'
p7985
(lp7986
S'0.0025'
p7987
asS'Voigtov\xc3\x81'
p7988
(lp7989
S'0.0011'
p7990
asS'Vejstrkov\xc3\x81'
p7991
(lp7992
S'0.0004'
p7993
asS'Val\xc3\x8dmov\xc3\x81'
p7994
(lp7995
S'0.0001'
p7996
asS'Vajdi\xc4\x8cov\xc3\x81'
p7997
(lp7998
S'0.0001'
p7999
asS'Vetechov\xc3\x81'
p8000
(lp8001
S'0.0002'
p8002
asS'Vacatov\xc3\x81'
p8003
(lp8004
S'0.0015'
p8005
asS'Vol\xc5\xa0\xc3\x8dkov\xc3\x81'
p8006
(lp8007
S'0.0008'
p8008
asS'Vjatr\xc3\x81kov\xc3\x81'
p8009
(lp8010
S'0.0003'
p8011
asS'Valtusov\xc3\x81'
p8012
(lp8013
S'0.0001'
p8014
asS'Vendelbergerov\xc3\x81'
p8015
(lp8016
S'0.0002'
p8017
asS'V\xc4\x9aja\xc4\x8ckov\xc3\x81'
p8018
(lp8019
S'0.0003'
p8020
asS'V\xc3\x81hov\xc3\x81'
p8021
(lp8022
S'0.0001'
p8023
asS'Vavrovi\xc4\x8cov\xc3\x81'
p8024
(lp8025
S'0.0002'
p8026
asS'Vran\xc3\x81'
p8027
(lp8028
S'0.0082'
p8029
asS'Va\xc5\x87\xc3\x81tov\xc3\x81'
p8030
(lp8031
S'0.0002'
p8032
asS'V\xc3\x81nsk\xc3\x81'
p8033
(lp8034
S'0.0006'
p8035
asS'Vi\xc5\xa0teinov\xc3\x81'
p8036
(lp8037
S'0.0002'
p8038
asS'Vognerov\xc3\x81'
p8039
(lp8040
S'0.0001'
p8041
asS'Va\xc5\x87h\xc3\x81tov\xc3\x81'
p8042
(lp8043
S'0.0003'
p8044
asS'Va\xc5\xa0k\xc5\xaejov\xc3\x81'
p8045
(lp8046
S'0.0009'
p8047
asS'Vav\xc3\x81\xc4\x8ckov\xc3\x81'
p8048
(lp8049
S'0.0002'
p8050
asS'Vajnarov\xc3\x81'
p8051
(lp8052
S'0.0014'
p8053
asS'Veverkov\xc3\x81'
p8054
(lp8055
S'0.0381'
p8056
asS'Vozni\xc4\x8ckov\xc3\x81'
p8057
(lp8058
S'0.0010'
p8059
asS'Votavov\xc3\x81'
p8060
(lp8061
S'0.0325'
p8062
asS'Voj\xc4\x8c\xc3\x8dkov\xc3\x81'
p8063
(lp8064
S'0.0004'
p8065
asS'Va\xc4\x8ckov\xc3\x81'
p8066
(lp8067
S'0.0003'
p8068
asS'Va\xc5\xa0\xc3\x8dnov\xc3\x81'
p8069
(lp8070
S'0.0008'
p8071
asS'Vespremiov\xc3\x81'
p8072
(lp8073
S'0.0001'
p8074
asS'Vlasat\xc3\x81'
p8075
(lp8076
S'0.0049'
p8077
asS'Vid\xc3\x8dmov\xc3\x81'
p8078
(lp8079
S'0.0010'
p8080
asS'Vandalov\xc3\x81'
p8081
(lp8082
S'0.0001'
p8083
asS'Vlad\xc3\x81rov\xc3\x81'
p8084
(lp8085
S'0.0004'
p8086
asS'Va\xc5\xa0ulkov\xc3\x81'
p8087
(lp8088
S'0.0018'
p8089
asS'Vandrolov\xc3\x81'
p8090
(lp8091
S'0.0002'
p8092
asS'Voborsk\xc3\x81'
p8093
(lp8094
S'0.0046'
p8095
asS'Vilcsekov\xc3\x81'
p8096
(lp8097
S'0.0001'
p8098
asS'Vecelov\xc3\x81'
p8099
(lp8100
S'0.0001'
p8101
asS'Val\xc3\x8d\xc4\x8ckov\xc3\x81'
p8102
(lp8103
S'0.0118'
p8104
asS'Vosinkov\xc3\x81'
p8105
(lp8106
S'0.0001'
p8107
asS'Vykyp\xc4\x9alov\xc3\x81'
p8108
(lp8109
S'0.0014'
p8110
asS'Varechov\xc3\x81'
p8111
(lp8112
S'0.0013'
p8113
asS'Valesk\xc3\x81'
p8114
(lp8115
S'0.0002'
p8116
asS'Vimmrov\xc3\x81'
p8117
(lp8118
S'0.0002'
p8119
asS'Vani\xc4\x8ckov\xc3\x81'
p8120
(lp8121
S'0.0003'
p8122
asS'Visingrov\xc3\x81'
p8123
(lp8124
S'0.0003'
p8125
asS'Vel\xc4\x8covsk\xc3\x81'
p8126
(lp8127
S'0.0055'
p8128
asS'Vujkov\xc3\x81'
p8129
(lp8130
S'0.0001'
p8131
asS'Vidl\xc3\x81\xc5\x98ov\xc3\x81'
p8132
(lp8133
S'0.0017'
p8134
asS'Vand\xc4\x9al\xc3\x8dkov\xc3\x81'
p8135
(lp8136
S'0.0010'
p8137
asS'Vesel\xc3\x81'
p8138
(lp8139
S'0.2639'
p8140
asS'Villertov\xc3\x81'
p8141
(lp8142
S'0.0001'
p8143
asS'Vyn\xc3\x81hlovsk\xc3\x81'
p8144
(lp8145
S'0.0002'
p8146
asS'Vav\xc5\x98i\xc5\x87\xc3\x81kov\xc3\x81'
p8147
(lp8148
S'0.0002'
p8149
asS'Vr\xc5\xa0eck\xc3\x81'
p8150
(lp8151
S'0.0068'
p8152
asS'Vop\xc4\x9ankov\xc3\x81'
p8153
(lp8154
S'0.0031'
p8155
asS'Vejra\xc5\xbdkov\xc3\x81'
p8156
(lp8157
S'0.0030'
p8158
asS'Vincourkov\xc3\x81'
p8159
(lp8160
S'0.0008'
p8161
asS'Vencl\xc5\xae'
p8162
(lp8163
S'0.0008'
p8164
asS'Vrchlabsk\xc3\x81'
p8165
(lp8166
S'0.0003'
p8167
asS'Vav\xc5\x98inovsk\xc3\x81'
p8168
(lp8169
S'0.0001'
p8170
asS'Volr\xc3\x81bov\xc3\x81'
p8171
(lp8172
S'0.0024'
p8173
asS'Vaisov\xc3\x81'
p8174
(lp8175
S'0.0052'
p8176
asS'Voskov\xc3\x81'
p8177
(lp8178
S'0.0031'
p8179
asS'Va\xc5\xa0\xc4\x8c\xc3\x8dkov\xc3\x81'
p8180
(lp8181
S'0.0002'
p8182
asS'V\xc5\xa0edn\xc3\x8d'
p8183
(lp8184
S'0.0002'
p8185
asS'Vaclov\xc3\x81'
p8186
(lp8187
S'0.0014'
p8188
asS'Volcov\xc3\x81'
p8189
(lp8190
S'0.0007'
p8191
asS'Visock\xc3\x81'
p8192
(lp8193
S'0.0001'
p8194
asS'Varteck\xc3\x81'
p8195
(lp8196
S'0.0005'
p8197
asS'Vytrhl\xc3\x8dkov\xc3\x81'
p8198
(lp8199
S'0.0013'
p8200
asS'Vochocov\xc3\x81'
p8201
(lp8202
S'0.0004'
p8203
asS'Vali\xc3\x81nov\xc3\x81'
p8204
(lp8205
S'0.0004'
p8206
asS'Va\xc5\xa0kovicov\xc3\x81'
p8207
(lp8208
S'0.0003'
p8209
asS'Vav\xc5\x98\xc3\x8dkov\xc3\x81'
p8210
(lp8211
S'0.0175'
p8212
asS'Vicanov\xc3\x81'
p8213
(lp8214
S'0.0025'
p8215
asS'Verbn\xc3\x81'
p8216
(lp8217
S'0.0005'
p8218
asS'Vla\xc5\xa0i\xc4\x8cov\xc3\x81'
p8219
(lp8220
S'0.0003'
p8221
asS'Vobrou\xc4\x8ckov\xc3\x81'
p8222
(lp8223
S'0.0005'
p8224
asS'Voz\xc3\x81rov\xc3\x81'
p8225
(lp8226
S'0.0034'
p8227
asS'V\xc3\x81bkov\xc3\x81'
p8228
(lp8229
S'0.0003'
p8230
asS'Volesk\xc3\x81'
p8231
(lp8232
S'0.0034'
p8233
asS'Van-lulov\xc3\x81'
p8234
(lp8235
S'0.0002'
p8236
asS'Vohar\xc4\x8c\xc3\x8dkov\xc3\x81'
p8237
(lp8238
S'0.0003'
p8239
asS'Vojtkov\xc3\x81'
p8240
(lp8241
S'0.0173'
p8242
asS'Van\xc4\x8c\xc3\x8dkov\xc3\x81'
p8243
(lp8244
S'0.0014'
p8245
asS'Vr\xc3\x81b\xc4\xbdov\xc3\x81'
p8246
(lp8247
S'0.0002'
p8248
asS'Voitlov\xc3\x81'
p8249
(lp8250
S'0.0003'
p8251
asS'Valekov\xc3\x81'
p8252
(lp8253
S'0.0004'
p8254
as.