cre
_compile
p1
(S"(?<![a-zA-Z0-9\\-])(Andorra|United\\ Arab\\ Emirates|Afghanistan|Antigua\\ And\\ Barbuda|Anguilla|Albania|Armenia|Netherlands\\ Antilles|Angola|Argentina|American\\ Samoa|Austria|Australia|Aruba|Azerbaijan|Bosnia\\ And\\ Herzegovina|Barbados|Bangladesh|Belgium|Burkina\\ Faso|Bulgaria|Bahrain|Burundi|Benin|Saint\\ Barthelemy|Bermuda|Brunei|Brunei\\ Darussalam|Plurinational\\ State\\ Of\\ Bolivia|Bolivia|Bolivia\\,\\ Plurinational\\ State\\ Of|Brazil|Bahamas|Bhutan|Botswana|Belarus|Belize|Canada|Cocos\\ \\(Keeling\\)\\ Islands|Cocos\\ Islands|Keeling\\ Islands|The\\ Democratic\\ Republic\\ Of\\ The\\ Congo|Congo\\,\\ The\\ Democratic\\ Republic\\ Of\\ The|Central\\ African\\ Republic|Congo|Switzerland|Ivory\\ Coast|Cook\\ Islands|Chile|Cameroon|China|Colombia|Costa\\ Rica|Cuba|Cape\\ Verde|Christmas\\ Island|Cyprus|Czech\\ Republic|Germany|Deutschland|Djibouti|Denmark|Dominica|Dominican\\ Republic|Algeria|Ecuador|Estonia|Egypt|Western\\ Sahara|Eritrea|Spain|Ethiopia|Finland|Fiji|Falkland\\ Islands|Malvinas|Falkland\\ Islands\\ \\(Malvinas\\)|Federated\\ States\\ Of\\ Micronesia|Micronesia|Micronesia\\,\\ Federated\\ States\\ Of|Faroe\\ Islands|France|Gabon|United\\ Kingdom|Great\\ Britain|Grenada|Georgia|French\\ Guiana|Ghana|Gibraltar|Greenland|Gambia|Guinea|Guadeloupe|Equatorial\\ Guinea|Greece|South\\ Georgia\\ And\\ The\\ South\\ Sandwich\\ Islands|Guatemala|Guam|Guinea\\-Bissau|Guyana|Hong\\ Kong|Honduras|Croatia|Haiti|Hungary|Indonesia|Ireland|Israel|India|Iraq|Islamic\\ Republic\\ Of\\ Iran|Iran|Iran\\,\\ Islamic\\ Republic\\ Of|Iceland|Italy|Jamaica|Jordan|Japan|Kenya|Kyrgyzstan|Cambodia|Kiribati|Comoros|Saint\\ Kitts\\ And\\ Nevis|Democratic\\ People\\'s\\ Republic\\ Of\\ Korea|North\\ Korea|Korea\\,\\ Democratic\\ People\\'s\\ Republic\\ Of|Republic\\ Of\\ Korea|South\\ Korea|Korea\\,\\ Republic\\ Of|Kuwait|Cayman\\ Islands|Kazakhstan|Laos|Lebanon|Saint\\ Lucia|Liechtenstein|Liberia|Lesotho|Lithuania|Luxembourg|Latvia|Libyan\\ Arab\\ Jamahiriya|Libya|Morocco|Monaco|Republic\\ Of\\ Moldova|Moldova|Moldova\\,\\ Republic\\ Of|Moldavia|Montenegro|Madagascar|Marshall\\ Islands|Macedonia|The\\ Former\\ Yugoslav\\ Republic\\ Of\\ Macedonia|Macedonia\\,\\ The\\ Former\\ Yugoslav\\ Republic\\ Of|Mali|Myanmar|Burma|Mongolia|Macao|Martinique|Mauritania|Montserrat|Malta|Mauritius|Maldives|Malawi|Mexico|Malaysia|Mozambique|Namibia|Niger|Norfolk\\ Island|Nigeria|Nicaragua|Netherlands|New\\ Caledonia|New\\ Zealand|Norway|Nepal|Niue|Oman|Panama|Peru|French\\ Polynesia|Papua\\ New\\ Guinea|Philippines|Pakistan|Poland|Pitcairn|Puerto\\ Rico|Occupied\\ Palestinian\\ Territory|Palestina|Palestinian\\ Territory\\,\\ Occupied|Portugal|Palau|Paraguay|Qatar|Reunion|Romania|Serbia|Russian\\ Federation|Russia|Rwanda|Saudi\\ Arabia|San\\ Marino|Sao\\ Tome|Solomon\\ Islands|Seychelles|Sudan|Sweden|Singapore|Saint\\ Helena\\,\\ Ascension\\ And\\ Tristan\\ Da\\ Cunha|Saint\\ Helena|Slovenia|Svalbard\\ And\\ Jan\\ Mayen|Slovak\\ Republic|Slovakia|Sierra\\ Leone|Senegal|Somalia|Sri\\ Lanka|Suriname|El\\ Salvador|Salvador|Syrian\\ Arab\\ Republic|Syria|Swaziland|Turks\\ And\\ Caicos\\ Islands|Chad|Togo|Thailand|Tajikistan|Timor\\-Leste|Turkmenistan|Tunisia|Tonga|Turkey|Trinidad\\ And\\ Tobago|Tuvalu|Taiwan\\,\\ Province\\ Of\\ China|Taiwan|United\\ Republic\\ Of\\ Tanzania|Tanzania|Tanzania\\,\\ United\\ Republic\\ Of|Ukraine|Uganda|United\\ States|Usa|Uruguay|Uzbekistan|Holy\\ See\\ \\(Vatican\\ City\\ State\\)|Holy\\ See|Vatican\\ City\\ State|Vatican\\ City|Vatican|Saint\\ Vincent\\ And\\ The\\ Grenadines|Bolivarian\\ Republic\\ Of\\ Venezuela|Venezuela|Venezuela\\,\\ Bolivarian\\ Republic\\ Of|British\\ Virgin\\ Islands|Virgin\\ Islands\\,\\ British|United\\ States\\ Virgin\\ Islands|Us\\ Virgin\\ Islands|Virgin\\ Islands\\,\\ U\\.S\\.|Virgin\\ Islands\\,\\ Us|U\\.S\\.\\ Virgin\\ Islands|Viet\\ Nam|Vietnam|Vanuatu|Samoa|Yemen|Mayotte|South\\ Africa|Zambia|Zimbabwe)(?![a-zA-Z0-9\\-])"
p2
I0
tRp3
.