(dp1
S'Kyrgyzstan'
p2
(lp3
S'23424864'
p4
asS'Kuwait'
p5
(lp6
S'23424870'
p7
asS'Korea, Republic Of'
p8
(lp9
S'23424868'
p10
asS'Keeling Islands'
p11
(lp12
S'23424784'
p13
asS'Kiribati'
p14
(lp15
S'23424867'
p16
asS"Korea, Democratic People's Republic Of"
p17
(lp18
S'23424865'
p19
asS'Kenya'
p20
(lp21
S'23424863'
p22
asS'Kazakhstan'
p23
(lp24
S'23424871'
p25
as.