(dp1
S'Eritrea'
p2
(lp3
S'23424806'
p4
asS'Estonia'
p5
(lp6
S'23424805'
p7
asS'Equatorial Guinea'
p8
(lp9
S'23424804'
p10
asS'Egypt'
p11
(lp12
S'23424802'
p13
asS'Ethiopia'
p14
(lp15
S'23424808'
p16
asS'Ecuador'
p17
(lp18
S'23424801'
p19
asS'El Salvador'
p20
(lp21
S'23424807'
p22
as.