(dp1
S'Libyan Arab Jamahiriya'
p2
(lp3
S'23424882'
p4
asS'Liberia'
p5
(lp6
S'23424876'
p7
asS'Libya'
p8
(lp9
S'23424882'
p10
asS'Lebanon'
p11
(lp12
S'23424873'
p13
asS'Lithuania'
p14
(lp15
S'23424875'
p16
asS'Luxembourg'
p17
(lp18
S'23424881'
p19
asS'Lesotho'
p20
(lp21
S'23424880'
p22
asS'Liechtenstein'
p23
(lp24
S'23424879'
p25
asS'Latvia'
p26
(lp27
S'23424874'
p28
asS'Laos'
p29
(lp30
S'23424872'
p31
as.