(dp1
S'Falkland Islands'
p2
(lp3
S'23424814'
p4
asS'Federated States Of Micronesia'
p5
(lp6
S'23424815'
p7
asS'Faroe Islands'
p8
(lp9
S'23424816'
p10
asS'Finland'
p11
(lp12
S'23424812'
p13
asS'French Polynesia'
p14
(lp15
S'23424817'
p16
asS'France'
p17
(lp18
S'23424819'
p19
asS'Falkland Islands (Malvinas)'
p20
(lp21
S'23424814'
p22
asS'French Guiana'
p23
(lp24
S'23424811'
p25
asS'Fiji'
p26
(lp27
S'23424813'
p28
as.