(dp1
S'Eritrea'
p2
(lp3
S'Africa'
p4
asS'Ethiopia'
p5
(lp6
S'Africa'
p7
asS'Estonia'
p8
(lp9
S'Europe'
p10
asS'Equatorial Guinea'
p11
(lp12
S'Africa'
p13
asS'Egypt'
p14
(lp15
S'Africa'
p16
asS'El Salvador'
p17
(lp18
S'North America'
p19
asS'Ecuador'
p20
(lp21
S'South America'
p22
as.