(dp1
S'Honduras'
p2
(lp3
S'North America'
p4
asS'Holy See (Vatican City State)'
p5
(lp6
S'Europe'
p7
asS'Heard Island and McDonald Islands'
p8
(lp9
S'Antarctica'
p10
asS'Hungary'
p11
(lp12
S'Europe'
p13
asS'Haiti'
p14
(lp15
S'North America'
p16
asS'Hong Kong'
p17
(lp18
S'Asia'
p19
as.