(dp1
S'Kernel project on impact of transport telematics on the environment'
p2
(lp3
S'KITE'
p4
asS'KINETICS AND MECHANISMS OF ACID GENERATION IN CLOUDS AND PRECIPITATION'
p5
(lp6
S'None'
p7
asS'Knowledge sharing and decision support for healthcare professionals'
p8
(lp9
S'DOC@HAND'
p10
a(lp11
S'DOC@HAND'
p12
aasS'Keramische schneidwerkzeuge fur die holzbearbeitung'
p13
(lp14
S'None'
p15
asS'Kids and science'
p16
(lp17
S'KAS'
p18
asS'Knowledge - based radical innovation surfacing for tribology and advanced lubrication'
p19
(lp20
S'KRISTAL'
p21
asS'KONDITIONIERUNG VON HULLMATERIAL VERBRAUCHTER BRENNSTOFFSTABE'
p22
(lp23
S'None'
p24
asS'K-theory, non-commutative geometry, homology theories, homotopy theory, operator and normed algebras'
p25
(lp26
S'INTAS 2006-1000017-8609'
p27
asS'Knowledge and need assessment on pharmaceutical product in environmental waters'
p28
(lp29
S'KNAPPE'
p30
asS'KONINUIERLICHE ENZYMATISCHE UMWANDLUNG VON GLUCOSE-FRUCTOSE- GEMISCHEN IN GLUCONSAURE-LACTON'
p31
(lp32
S'None'
p33
asS'KENYA RIFT INTERNATIONAL SEISMIC PROJECT'
p34
(lp35
S'None'
p36
asS'Knowledge Based Bio-Economy towards 2020 conference: turning challenges into opportunities'
p37
(lp38
S'KBBECONFERENCE2010'
p39
asS'Keratin Intermediate filaments as regulators of epithelial intracellular organization keratin intermediate filaments are cytoskeletal proteins regulating the polarity and intracellular organization'
p40
(lp41
S'KIFREIO'
p42
asS'K-Homology and M-Theory physics'
p43
(lp44
S'M-THEORY PHYSICS'
p45
asS'Knowledge space of semantic inference for automatic annotation and retrieval of multimedia content'
p46
(lp47
S'K-SPACE'
p48
a(lp49
S'K-SPACE'
p50
aasS'KEYSTONE ARCHITECTURE REQUIRED FOR EUROPEAN NETWORKS'
p51
(lp52
S'KAREN'
p53
asS'Knowledge-based maintenance for SMEs'
p54
(lp55
S'None'
p56
asS'Knowledge-based multi-scale modelling of metal-oxide-polymer interface behaviour for micro- and nanoelectronics'
p57
(lp58
S'NANOINTERFACE'
p59
asS'Knowledge based Manufacturing strategy and methods for foundries (SMART FOUNDRY)'
p60
(lp61
S'SMART FOUNDRY'
p62
asS'Knowledge Economy Indicators: Development of Innovative and Reliable Indicator Systems'
p63
(lp64
S'KEI'
p65
asS'Key aerodynamic technologies for aircraft performance improvement'
p66
(lp67
S'KATNET'
p68
asS'Knowledge base for RTD competencies'
p69
(lp70
S'IST WORLD'
p71
a(lp72
S'IST WORLD'
p73
aasS'Knowledge Based Process planning and Design for Additive Layer Manufacturing'
p74
(lp75
S'KARMA'
p76
asS'KNOWLEDGE-BASED SYSTEM FOR CONSISTENCY IN BIBLIOGRAPHIC DATABASES'
p77
(lp78
S'KSYSERROR'
p79
asS'Kinetic evaluation for combustion using experimental and numerical expertise (KEENEX)'
p80
(lp81
S'None'
p82
asS'KONSTRUKTION XYLOSE-FERMENTIERENDER HEFESTAEMME'
p83
(lp84
S'None'
p85
asS'Knowledge and Decision Support for Material Handling Systems'
p86
(lp87
S'None'
p88
asS'Knowledge-Based Materials: Training Courses & Web Portal'
p89
(lp90
S'NATURESMATSCI'
p91
asS'Knowledge, growth and globalisation - science and technology policy as a growth factor in smaller economies'
p92
(lp93
S'KNOGG'
p94
asS'Knowledge-based Multicomponent Materials for Durable and Safe Performance'
p95
(lp96
S'KMM-NOE'
p97
asS'Kinetics in Soft Molecular Layers - from interstellar ices to polymorph control'
p98
(lp99
S'KISMOL'
p100
asS'KINETICS OF GASEOUS RADICAL-RADICAL REACTIONS AT VERY LOW TEMPERATURES'
p101
(lp102
S'None'
p103
asS'KARBONZYCLUS - TEIL I : ROLLE DES OCEANS'
p104
(lp105
S'None'
p106
asS'KNOWLEDGE BASE FOR MODELLING SOIL AND GROUNDWATER CONTAMINATION'
p107
(lp108
S'None'
p109
asS'Knowledge capture for advanced supervision of water distribution networks'
p110
(lp111
S'WATERNET'
p112
asS'Knowledge-Based System for consistency in Bibliographic Databases'
p113
(lp114
S'KSYSERROR'
p115
asS'KINETIC STUDY OF THE DEPOSITION PROCESS OF GLOW DISCHARGE A-SI:H FOR HIGH EFFICIENCY SORAL CELLSLAR CELLS'
p116
(lp117
S'None'
p118
asS'Kinetics, mollar mechanisms and free radicals in the production and modification of cellulose and its fibres (among them those of annual plants)'
p119
(lp120
S'None'
p121
asS'Kinetics and mechanism of ignition/combustion initiated by electronically excited Singlet Oxygen'
p122
(lp123
S'INTAS 2003-51-4736'
p124
asS'Knitwear/crochet industry training enhancement'
p125
(lp126
S'KITE'
p127
asS'Ketone body mediated modulation of gabaergic signaling: mechanisms and consequences'
p128
(lp129
S'KBMMGABA'
p130
asS'KINETICS AND MECHANISM FOR THE REACTIONS OF HALOGENATED ORGANIC COMPOUNDS IN THE TROPOSPHERE'
p131
(lp132
S'None'
p133
asS'Knowledge for international traders'
p134
(lp135
S'KIT'
p136
asS'Kristineberg marine research station'
p137
(lp138
S'RI-KMRS'
p139
asS'Kinetics of Combustion Assisted by Electronically Excited Oxygen'
p140
(lp141
S'None'
p142
asS'Knowledge information network dynamic related event decision systems processes in real-time information technology'
p143
(lp144
S'SME AWARD'
p145
a(lp146
S'SME AWARD'
p147
aasS'K-Theorie et ses applications en geometrie, en arithmetique, en topologie eten analyse'
p148
(lp149
S'None'
p150
asS'Kinetochore-microtubule Interaction and Chromosome Instability'
p151
(lp152
S'KINETOCHORE AND CANCER'
p153
asS'KENT STRATEGIC INITIATIVE FOR INNOVATION AND TECHNOLOGY TRANSFER'
p154
(lp155
S'None'
p156
asS'KNOwledge from Science to SOcitieS'
p157
(lp158
S'KNOSSOS'
p159
asS'Keratinocytes and Matrix metalloproteinases: Driving force of skin wound contraction?'
p160
(lp161
S'WOUND CONTRACTION'
p162
asS'Knowledge Acquisition and Use in Dynamic Task Environments'
p163
(lp164
S'KAUDYTE'
p165
asS'Knowledge shared XPS-based research network using multi-agent systems'
p166
(lp167
S'KNIXMAS'
p168
asS'Knowledge Helper for Medical and Other Information users'
p169
(lp170
S'KHRESMOI'
p171
a(lp172
S'KHRESMOI'
p173
aasS'Knowledgable SErvice Robots for Aging'
p174
(lp175
S'KSERA'
p176
a(lp177
S'KSERA'
p178
aasS'Kinetics of globular proteins-crystallization versus gel formation from molecular simulations.'
p179
(lp180
S'GEORGE BOULOUGOURIS'
p181
a(lp182
S'GEORGE BOULOUGOURIS'
p183
aasS'Keeping emulation environments portable'
p184
(lp185
S'KEEP'
p186
asS'Knowledge-Based User-Friendly System For the Utilisation of Information Bases'
p187
(lp188
S'KIWI'
p189
asS'Knowledge-based intelligent design assistant'
p190
(lp191
S'ASSIST'
p192
asS'Knowledge-Based Real-Time Supervision in CIM'
p193
(lp194
S'None'
p195
asS'Knowledge management with intranet technologies'
p196
(lp197
S'KNOWNET'
p198
asS'KNOWLEDGE APPLICATIONS FOR COLLABORATIVE ORGANISATIONAL NETWORKS'
p199
(lp200
S'KNOWLABORATION'
p201
a(lp202
S'KNOWLABORATION'
p203
aasS'Kinetics of induced precipitation in HSLA steels'
p204
(lp205
S'None'
p206
asS'KERNEL OF ADVANCED MACHINE TOOLS'
p207
(lp208
S'None'
p209
asS'Keys for quality performance management of the care of older persons in Europe'
p210
(lp211
S'CAREKEYS'
p212
asS'Knowledge-based system for improved operation of steelworks pollution control plant'
p213
(lp214
S'None'
p215
asS'Knowledge, heresy and political culture in the Islamic West. Eighth-fifteenth centuries'
p216
(lp217
S'KOHEPOCU'
p218
asS'Knowledge and Exploration in Science and Technology'
p219
(lp220
S'None'
p221
asS'KNOT THEORY AND DYNAMICAL SYSTEMS'
p222
(lp223
S'None'
p224
asS'KNOWLEDGE-ON-DEMAND'
p225
(lp226
S'KOD'
p227
a(lp228
S'KOD'
p229
aasS'KNOWLEDGE ASSURANCE IN MULTIMEDIA PUBLISHING'
p230
(lp231
S'KAMP'
p232
asS'KORROSIONSUNTERSUCHUNGEN FUER HOCHAKTIVE ABFAELLE INKLUSIVE IN-SITUTESTS'
p233
(lp234
S'None'
p235
asS'Knowledge environment for Interacting ROBOt SWARMs'
p236
(lp237
S'ROBOSWARM'
p238
a(lp239
S'ROBOSWARM'
p240
aasS'Kinetics and phase coherence phenomena in trapped ultra-cold gases'
p241
(lp242
S'None'
p243
asS'Knowledge-Based Intelligent Traffic Control Systems'
p244
(lp245
S'KITS'
p246
asS"Knowledge-belief structures and 'knowing the model'."
p247
(lp248
S'None'
p249
a(lp250
S'None'
p251
aasS'Knowledge and Information Stimulating Technology'
p252
(lp253
S'KIST'
p254
a(lp255
S'KIST'
p256
aasS'Knowledge and information transfer of electronic commerce'
p257
(lp258
S'KITE'
p259
asS'KINETICS AND MECHANISM OF ATMOSPHERIC OXIDATION OF FORMALDEHYDE'
p260
(lp261
S'None'
p262
asS'Knowledge Representation and Inference Techniques in Industrial Control'
p263
(lp264
S'KRITIC'
p265
asS'Kainate receptors and neuronal growth'
p266
(lp267
S'KRANG'
p268
asS"Kids'.TV Multimedia Information Network"
p269
(lp270
S"KIDS'TVMINE"
p271
asS'Kid mechanism of action in human cells-links to apoptosis'
p272
(lp273
S'None'
p274
asS'Knowledge for ignition, acoustics and instabilities'
p275
(lp276
S'KIAI'
p277
asS'KNITTING FABRICS AND GOODS FOR SPORT AND LEISURE.'
p278
(lp279
S'None'
p280
asS'Kinetic and emission processes in hypersonic flows. Experimental research, development of theoretical models and their validation'
p281
(lp282
S'None'
p283
asS'Kant and the problem of war'
p284
(lp285
S'KAPROW'
p286
asS'Knowledge Investment Strategies on Local Level.'
p287
(lp288
S'KISOLL'
p289
asS'KINETIC STUDY OF THE DEPOSITION PROCESS OF GLOW DISCHARGE HYDROGENATED SI FOR HIGH EFFICIENCY SOLAR CELLS.'
p290
(lp291
S'None'
p292
asS'Knowledge-based planning systems for autonomous agents - cognitive robotics at work'
p293
(lp294
S'None'
p295
asS'Knowledge to Enhance the Endurance of PEM fuel cells by Accelerated LIfetime Verification Experiments'
p296
(lp297
S'KEEPEMALIVE'
p298
asS'Key Performance Factor Assessment and Valorisation for Successful EU-FP Project Participation of innovative SMEs in the Area of HEALTH'
p299
(lp300
S'KAPPA-HEALTH'
p301
asS'Knowledge Acquisition for Normative Reasoning Systems'
p302
(lp303
S'NOMOS'
p304
asS'Kernfysisch versneller institut'
p305
(lp306
S'LIFE/KVI'
p307
a(lp308
S'LIFE/KVI'
p309
aasS'Knowledge Processing System development'
p310
(lp311
S'KPS'
p312
asS'Key elements for application of microreactors in multiphasic catalytic chemistries'
p313
(lp314
S'KEMICC'
p315
asS'KINETICS AND MECHANISM OF ELEMENTARY CHEMICAL PROCESSES OF IMPORTANCE IN COMBUSTION'
p316
(lp317
S'None'
p318
a(lp319
S'None'
p320
aa(lp321
S'None'
p322
aa(lp323
S'None'
p324
aasS'KD-ubiq - a blueprint for ubiquitous knowledge discovery systems'
p325
(lp326
S'KD-UBIQ'
p327
a(lp328
S'KD-UBIQ'
p329
aasS'Knowledge/sensor based quality and process control for concrete products manufacturing'
p330
(lp331
S'SECCO'
p332
a(lp333
S'SECCO'
p334
aasS'Knowledge-based management of European native crayfishes'
p335
(lp336
S'None'
p337
asS'Knowledge-Based Real-Time Systems for Fault Diagnosis of Flexible Manufacturing Systems'
p338
(lp339
S'KNOBA'
p340
asS'KAPLAN TURBINE WITH INNOVATIVE BLADE REGULATION SYSTEM AND NEWLY DEVELOPED GUIDE BEARING'
p341
(lp342
S'None'
p343
asS'Keep animals healthy'
p344
(lp345
S'None'
p346
asS'Key Interventions for Sustainable Employment in the Information Society for Disadvantaged Groups'
p347
(lp348
S'KISEIS'
p349
a(lp350
S'KISEIS'
p351
aasS'Knowledge-Based Control Operation of Industrial Productive Bioprocessess'
p352
(lp353
S'None'
p354
asS'Knowledge and information transfer system'
p355
(lp356
S'KITS'
p357
a(lp358
S'KITS'
p359
aasS'Knowing how to act and to guide: integrated laboratory for literacy skills'
p360
(lp361
S'HAGI'
p362
asS'Kfki-condensed matter research centre'
p363
(lp364
S'None'
p365
asS'Kaizen information system and management support'
p366
(lp367
S'KISS'
p368
asS'Karlsruhe, Rhone-Alpes, Emilia Romagna, and Oxfordshire Finance and Management Development Project'
p369
(lp370
S'KREO-FMD'
p371
asS'Knowledge based user friendly interfaces for the utilization of information bases'
p372
(lp373
S'None'
p374
asS'KINETICS AND MECHANISM OF ELEMENTARY PROCESSES OF IMPORTANCE IN COMBUSTION.'
p375
(lp376
S'None'
p377
asS'Knowledge based Gasifier Control for Clean Coal Power Generation'
p378
(lp379
S'None'
p380
asS'KnowLedge for Life Long Learning'
p381
(lp382
S'4L'
p383
a(lp384
S'4L'
p385
aasS"Kinetic theory with newton's interaction"
p386
(lp387
S'COLM CONNAUGHTON'
p388
a(lp389
S'COLM CONNAUGHTON'
p390
aasS'Knowledge extraction for statistical offices'
p391
(lp392
S'KESO'
p393
asS'Kidney, body fluids and hypertension'
p394
(lp395
S'None'
p396
asS'Knowledge mapping on IT competencies in Mediterranean countries and dialogue fostering'
p397
(lp398
S'MAP-IT!'
p399
a(lp400
S'MAP-IT!'
p401
aasS'Kiosk-based Integrated Multimedia Service Access for Citizens'
p402
(lp403
S'KIMSAC'
p404
asS'Knowledge assessment on sustainable water resources Management for irrigation'
p405
(lp406
S'KASWARMI'
p407
asS'Knowledge-on-demand for ubiquitous learning'
p408
(lp409
S'LOGOS'
p410
a(lp411
S'LOGOS'
p412
aasS'Knowledge Based Virtual Facilitator in Team Working'
p413
(lp414
S'ANGELO'
p415
a(lp416
S'ANGELO'
p417
aasS'Knowledge networks in Oncology: Weavers of medical innovation'
p418
(lp419
S'KNOWMI'
p420
asS'Knowledge yielding ontologies for transition-based organization'
p421
(lp422
S'KYOTO'
p423
asS'KRAB - an Intelligent Document Management and Workflow System'
p424
(lp425
S'KRAB'
p426
a(lp427
S'KRAB'
p428
aasS'KOSTEN UND ART DER FINANZIERUNG DER ENDLAGERUNG RADIOAKTIVERABFAELLE'
p429
(lp430
S'None'
p431
asS'Knowledge support for legal enquiry'
p432
(lp433
S'ADD-WIJZER'
p434
asS'Knowledge in a Wiki'
p435
(lp436
S'KIWI'
p437
asS'Kainate receptors role on the generation and maintenance of gamma oscillations in vitro'
p438
(lp439
S'KAINATE OSCILLATIONS'
p440
asS'KNOWLEDGE SYSTEMATIZATION: CONFIGURATION SYSTEMS FOR DESIGN AND MANUFACTURING'
p441
(lp442
S'GNOSIS'
p443
asS'KOMBINIERTE GLEICHSTROM UND ELEKTROMAGNETISCHE MESSUNGEN FUER GEOELEKTRISCHE TIEFENSONDIERUNGEN'
p444
(lp445
S'None'
p446
asS'KARBONZYKLUS - TEILVORHABEN 3: VERNETZTER KARBONZYKLUS'
p447
(lp448
S'None'
p449
asS'Kinship and social security'
p450
(lp451
S'KASS'
p452
asS'Key factors influencing economic relationships and communication in European food chains'
p453
(lp454
S'FOODCOMM'
p455
asS'KINDAS programme and database for metallurgical problem solving'
p456
(lp457
S'None'
p458
asS'Knowledge-Based Real-Time Diagnosis and Repair for a Complete Robotised Handling and Storage System'
p459
(lp460
S'DIREK'
p461
asS'Kinetic cellular theory of the immune system - modeling, experiments and simulation'
p462
(lp463
S'None'
p464
asS'Knowledge integration and network expertise'
p465
(lp466
S'KINX'
p467
asS'Knowledge Politics and New Converging Technologies'
p468
(lp469
S'KNOWLEDGE NBIC'
p470
asS'KWKA ZARTEN'
p471
(lp472
S'None'
p473
asS'Key coastal processes in the mesotrophic Skagerrak and the oligotrophic Northern Aegean : a comparative study'
p474
(lp475
S'KEYCOP'
p476
asS'Knowledge Management for Help Desk Operators'
p477
(lp478
S'ASSIST'
p479
a(lp480
S'ASSIST'
p481
aasS'Key issues in nuclear reactor safety'
p482
(lp483
S'None'
p484
asS'Knowledge-Based Real-Time CIM Controllers for Distributed Factory Supervision'
p485
(lp486
S'None'
p487
asS'Knowledge based process control system to optimize needle performance for high added-value needle-punched nonwovens'
p488
(lp489
S'NEEDLES'
p490
asS'Keys to optical packet switching'
p491
(lp492
S'KEOPS'
p493
asS'Krakow geometry in mathematical physics'
p494
(lp495
S'KRAGEOMP'
p496
asS'Key Issues in Solar Thermal'
p497
(lp498
S'None'
p499
asS'KOBRA project'
p500
(lp501
S'None'
p502
asS'Key Aerodynamic Technologies to meet the Vision 2020 Challenges'
p503
(lp504
S'KATNET II'
p505
asS'Kinetic and mechanistic studies on the ozonolysis of alkenes under atmospheric conditions'
p506
(lp507
S'None'
p508
asS'Knowledge based system for the design of forming sequences and tools in cold forging of fasteners for the automotive industry'
p509
(lp510
S'None'
p511
asS'Knowledge-Based Information Management'
p512
(lp513
S'KIM'
p514
asS'KEPC - Knowledge engineering with eersonal computers'
p515
(lp516
S'None'
p517
asS'Kyoto mechanism expert network (KEEN)'
p518
(lp519
S'KEEN'
p520
asS"Key Elements for electronic Local Authorities' Networks"
p521
(lp522
S'KEELAN'
p523
a(lp524
S'KEELAN'
p525
aasS'Kakapo, a cytoskeletal linker protein involved in integrin-mediated adhesion'
p526
(lp527
S'None'
p528
a(lp529
S'None'
p530
aasS'Knowledge-Based Assistant for Electromyography'
p531
(lp532
S'EMG'
p533
asS'Key european research in food, nutrition and health for life'
p534
(lp535
S'FOOD&HEALTH CONGRESS'
p536
asS'Knowledge networks and e-learning'
p537
(lp538
S'None'
p539
asS'KONDITIONIERUNG HOCHAKTIVER RUECKSTAENDE AUS DER VORBEHANDLUNGMITTELAKTIVER FLUESSIGABFAELLE'
p540
(lp541
S'None'
p542
asS'Kth music acoustics group: eu training site'
p543
(lp544
S'None'
p545
a(lp546
S'None'
p547
aasS'Knowledge investment strategies on local level'
p548
(lp549
S'KISOLL'
p550
asS'Knowledge intensive entrepreneurship in networks'
p551
(lp552
S'None'
p553
a(lp554
S'None'
p555
aasS'Knowledge-Based Design Assistant for Modular VLSI Design'
p556
(lp557
S'None'
p558
asS'Knowledge of the traffic loads and actions on steel orthotropic deck bridges and application for fatigue studies'
p559
(lp560
S'None'
p561
asS'Knowledge-Based Multi-Sensor Systems in CIM Applications'
p562
(lp563
S'KB-MUSICA'
p564
asS'Knowledge desktop environment'
p565
(lp566
S'KDE'
p567
asS'KONDITIONIERUNG VON BRENNSTOFFHUELLEN DURCH EINBETTUNG IN ALUMINIUM-LEGIERUNG UND GRAPHIT-MATRIX'
p568
(lp569
S'None'
p570
asS'Kinetic and mechanistic studies of heterogeneous reactions with atmospheric relevance on aerosols and thin-films.'
p571
(lp572
S'ALLANIC ARNAUD'
p573
asS'Kinetic studies on the reduction of dinitrogen by nitrogenase exploiting thealtered reactivity of heterologous enzyme systems'
p574
(lp575
S'None'
p576
asS'KOOPERATIONSINITIATIVE HOCHSCHULE-WIRTSCHAFT EUREGIO'
p577
(lp578
S'None'
p579
asS'Knowledge transfer for digitisation of cultural and scientific heritage in Bulgaria'
p580
(lp581
S'KT-DIGICULT-BG'
p582
asS'Key Parameters for Space Weather'
p583
(lp584
S'None'
p585
asS'KLONIERUNG VON X-AMYLASE IN STAPHYLICOCCUS CARNOSU'
p586
(lp587
S'None'
p588
asS'Knowledge and Co-operation based Engineering for Die & Mould making SMEs'
p589
(lp590
S'KNOW-COM'
p591
a(lp592
S'KNOW-COM'
p593
aasS'KNOWLEDGE-BASED MODELLING AND DESIGN ON NOVEL PROTEINS'
p594
(lp595
S'None'
p596
asS'KINETIC ASPECTS OF RADIOCAESIUM UPTAKE AND DISTRIBUTION IN WHEAT WITH SPECIAL REFERENCE TO THE EFFECTS OF POTASSIUM'
p597
(lp598
S'None'
p599
asS'Key competences - new methods and anticipation of the evolution of qualifications in the metal sector due to industrial change and their mutual recognition Euro-meta-key'
p600
(lp601
S'EURO-META-CLES'
p602
asS'Knowledge Acquisition, Visualization and Assessment System'
p603
(lp604
S'KAVAS'
p605
asS'Knowledge discovery in enterprise information management systems'
p606
(lp607
S'INFOMAN'
p608
asS'Knowledge sharing and generic technology management in the field of medicine'
p609
(lp610
S'MEDTERM'
p611
asS'Knowledge-based Interactive Signal monitoring System'
p612
(lp613
S'KISS'
p614
asS'KINETIC AND SPECTROSCOPIC STUDIES OF SINGLET MOLECULAR OXYGEN'
p615
(lp616
S'None'
p617
asS'Knowledge based functional surfaces and films'
p618
(lp619
S'SURFILM'
p620
asS'KORROSIONSUNTERSUCHUNGEN AN VERPACKUNGSMATERIALIEN FUER DIEENDLAGERUNG HOCHAKTIVER ABFAELLE'
p621
(lp622
S'None'
p623
asS'Knowledge Transfer and Innovations in European Cross Border Regions'
p624
(lp625
S'KTIECBR'
p626
asS'Knowledge acquisition and sharing for requirement engineering'
p627
(lp628
S'KARE'
p629
asS'Knowledge transfer of technological innovation in the Weser-Ems region'
p630
(lp631
S'TOTIER'
p632
asS'Knowledge Integration and Management Systems'
p633
(lp634
S'None'
p635
asS'Knowledge sharing and reuse across Media'
p636
(lp637
S'X_MEDIA'
p638
a(lp639
S'X_MEDIA'
p640
aasS'KWI Planungs- und Beratungsgesellschaft mbH & Co KG'
p641
(lp642
S'PROMISE'
p643
asS'Knowledge Based Customized Services for Traditional Manufacturing Sectors Provided by a Network of High Tech SMEs'
p644
(lp645
S'KOBAS'
p646
asS'Knowledge of the information society for SMEs and electronic trade'
p647
(lp648
S'KISMET'
p649
asS'Knowledge-based homecare eServices for an ageing Europe'
p650
(lp651
S'K4CARE'
p652
a(lp653
S'K4CARE'
p654
aasS'Knowledge e-Publishing Tools'
p655
(lp656
S'KEPT'
p657
a(lp658
S'KEPT'
p659
aasS'Knowledge, Institutions and Gender: an East-West comparative study'
p660
(lp661
S'KNOWING'
p662
a(lp663
S'KNOWING'
p664
aasS'Knowledge and Augmented Reality Management Assistance'
p665
(lp666
S'KARMA2'
p667
a(lp668
S'KARMA2'
p669
aasS'Key Competences in Vocational Education and Training Towards the 21st Century (level III) Promoting Mobility'
p670
(lp671
S'None'
p672
asS'Knowledge Needs of Investment and Finance for Enterprise'
p673
(lp674
S'KNIFE'
p675
asS'Kinetics of enzyme catalysis in microheterogeneous environment of surfactants and apolar organic solvents'
p676
(lp677
S'None'
p678
asS'Knowledge Assessment and Sharing on Sustainable Agriculture'
p679
(lp680
S'KASSA'
p681
asS'Knowledge- based regions and levels of governance'
p682
(lp683
S'KBRALOG'
p684
a(lp685
S'KBRALOG'
p686
aasS'Kids-lab designing with children'
p687
(lp688
S'KIDS LAB'
p689
asS"Knowledge-based sustainable management for Europe's seas"
p690
(lp691
S'KNOWSEAS'
p692
asS'Kinetic phenomena in cold atomic ensembles'
p693
(lp694
S'INTAS 2006-1000013-9427'
p695
asS'Klasorden 42 Mw'
p696
(lp697
S'CLOWEBS-2000'
p698
asS'Kinetics and Mechanism of Ignition/Combustion Initiated by Electronically Excited Singlet Oxygen'
p699
(lp700
S'None'
p701
asS'Key nutrient transport mechanisms important for the prediction of nutrient and p hytoplankton concentrations in european standing waters'
p702
(lp703
S'BUFFER'
p704
asS'Korea-EU science and technology cooperation advancement programme'
p705
(lp706
S'KESTCAP'
p707
asS'K-theory and homology of linear groups for local rings'
p708
(lp709
S'None'
p710
a(lp711
S'None'
p712
aasS'Kinetics of excited state proton transfer and electron transfer photoreactions in homogeneous and organized molecular systems'
p713
(lp714
S'None'
p715
asS'Kainate and ampa receptor trafficking and recycling at brain synapses (KAR-TRAP)'
p716
(lp717
S'KAR-TRAP'
p718
asS'Knowledge-Based Planning and Control in Manufacturing Environments'
p719
(lp720
S'FLEXPLAN'
p721
asS'Kamchatka: scientific investigation and protection of unique hydrothermal phenomena'
p722
(lp723
S'None'
p724
asS'KALCIVAL'
p725
(lp726
S'KALCIVAL'
p727
asS'KNOWLEDGE BASED DIALOGUE SYSTEM FOR PLANT ENVIRONMENT'
p728
(lp729
S'None'
p730
asS'Knowledge in fisheries management'
p731
(lp732
S'KNOWFISH'
p733
asS'Keeping the spindle in shape: identification and characterization of new components involved for spindle formation'
p734
(lp735
S'SPINDLE ASSEMBLY'
p736
asS'Kinetics and mechanism of germline methylation imprints'
p737
(lp738
S'None'
p739
asS'KNOWLEDGE-BASED ENTREPRENEURSHIP: INNOVATION, NETWORKS ANS SYSTEMS'
p740
(lp741
S'KEINS'
p742
asS'Knowledge management in research and technology organisations: policies and practices to make your rto competitive in the 21st century'
p743
(lp744
S'None'
p745
asS'Knowledge and learnings environments for European and creative organizations'
p746
(lp747
S'KLEECO'
p748
asS'KOALA SMOKELESS FUELS WASTE TO ENERGY PROJECT'
p749
(lp750
S'None'
p751
asS'Knowledge-driven batch production'
p752
(lp753
S'None'
p754
a(lp755
S'None'
p756
aasS'KONDITIONIERUNG DER HOCHAKTIVEN RUECKSTANDE AUS DER VORBEHANDLUNGMITTELAKTIVER FLUESSIGABFALLE UNTER EINSATZ EINES WALZENTROCKNERS'
p757
(lp758
S'None'
p759
asS'Knowledge Workers Intelligently Collecting, Coordinating and Consulting Knowledge'
p760
(lp761
S'KWICK'
p762
asS'Knowledge and excellence in european nanotechnology - regions'
p763
(lp764
S'KEEN-REGIONS'
p765
asS'Kernel Methods for Images and Text'
p766
(lp767
S'KERMIT'
p768
a(lp769
S'KERMIT'
p770
aasS'Knowledge Management for Smart Technology Transfer Enterprises Advanced ExperiMent'
p771
(lp772
S'SMART2EAM'
p773
a(lp774
S'SMART2EAM'
p775
aasS'Knowledge, Awareness and Prediction of Man, Machine, Material and Method in Manufacturing'
p776
(lp777
S'KAP'
p778
a(lp779
S'KAP'
p780
aasS'K2: knowledge square'
p781
(lp782
S'K2'
p783
a(lp784
S'K2'
p785
aasS'Knowledge-based Workflow System for Grid Applications'
p786
(lp787
S'K-WF GRID'
p788
a(lp789
S'K-WF GRID'
p790
aasS'KNOWLEDGE OF TOXIC AND DANGEROUS WASTES AND THEIR TREATABILITY.'
p791
(lp792
S'None'
p793
asS'KIMASI'
p794
(lp795
S'KIMASI'
p796
asS'KERAMISCHE WERKSTOFFE AUF DER BASIS VON SI-AL-O-N UNTER MITE INBEZIEHUNG VON SIC UND/ODER SI3N4 - WHISKERN BZW. FASERN SO WIE VON ZRO2 ZUSAETZEN ZUR OPTIMIERUNG DES EINSATZVERHALTENS'
p797
(lp798
S'None'
p799
asS'KINETICS AND MECHANISM OF ELEMENTARY CHEMICAL PROCESSES OF IMPORTANCE IN COMBUSTION.'
p800
(lp801
S'None'
p802
as.