(dp1
S'Xiv. international plant nutrition colloquium'
p2
(lp3
S'None'
p4
asS'XIX International Conference on Magnetic Resonance in Biological Systems'
p5
(lp6
S'None'
p7
a(lp8
S'None'
p9
aasS'Xii international symposium on calcium binding proteins and calcium function in health and disease (CBPS 2001)'
p10
(lp11
S'CBPS 2001'
p12
asS'X-ray studies of nearby galaxies'
p13
(lp14
S'X-RAY-GAL'
p15
asS'X-ray and electrochemical studies on solid Oxide fuel cells and related materials'
p16
(lp17
S'HITEMPECHEM'
p18
asS'X-ray expert system for electronic films quality improvement (ESQUI)'
p19
(lp20
S'ESQUI'
p21
asS'X-ray probing of the structural evolution of matter'
p22
(lp23
S'None'
p24
a(lp25
S'None'
p26
aasS'Xenopus comparative genomics: coordinating integrated and comparative functional genomics for understanding normal and pathologic development'
p27
(lp28
S'X-OMICS'
p29
asS'X-ray spectroscopy and radiative transfer in laser-produced plasmas'
p30
(lp31
S'None'
p32
asS'Xiphinema americanum-group virus-vector nematodes: development of a diagnostic protocol'
p33
(lp34
S'None'
p35
asS'XVI-th International Symposium on Glycoconjugates'
p36
(lp37
S'None'
p38
asS'X.500 PILOT DIRECTORY SERVICE FOR ADMINISTRATIONS IN EUROPE'
p39
(lp40
S'EUROVIEW'
p41
asS'XXI. IVR World Congress in Legal and Social Philosophy'
p42
(lp43
S'None'
p44
asS'XVI Polish Peptide Symposium'
p45
(lp46
S'None'
p47
asS'X-ray diffraction studies of advanced materials'
p48
(lp49
S'None'
p50
a(lp51
S'None'
p52
aasS'X-RAY VOLUDENSITOMETRY, APPLICATION TO THE TESTING OF TECHNICAL CERAMICS'
p53
(lp54
S'None'
p55
asS'X-ray pump-probe spectroscopies - new tools to study ultrafast surface dynamics'
p56
(lp57
S'X-RAY PUMP-PROBE'
p58
asS'X-RAY PHOTOABSORPTION SPECTROMETRY IN 800-4000eV ENERGY RANG E BY SYNCHROTRON RADIATION EXPERIMENTAL & THEORETICAL STUDY OF HIGH RESOLUTION INNER SHELL ABSORPTION STRUCTURE'
p59
(lp60
S'None'
p61
asS'Xenobiotic degradation by bacteria'
p62
(lp63
S'None'
p64
asS'X-ray and Neutron Optics'
p65
(lp66
S'None'
p67
asS'XPS Spectral Intensity Data Bank'
p68
(lp69
S'None'
p70
asS'X-ray structure analysis of pullulanases from hyperthermophilic archaea and bacteria'
p71
(lp72
S'JOYCE HELEN GERALDIN'
p73
asS'XXth International Conference on Yeast Genetics and Molecular Biology'
p74
(lp75
S'None'
p76
asS'X-ray micro-fluorescence measurement of macro-segregations by direct local analysis of solid samples'
p77
(lp78
S'None'
p79
asS'X-ray studies of the structure and electronic properties of magnetic materials'
p80
(lp81
S'None'
p82
asS'XHC-free precleaning for environmentally conscious coating processes: a solution for job-coaters'
p83
(lp84
S'None'
p85
asS'X-LOC CONNECTOR CHARACTERIZATION - NORTH SEA'
p86
(lp87
S'None'
p88
asS'XXth International Conference on Neutrino Physics and Astrophysics (Neutrino-2002)'
p89
(lp90
S'None'
p91
a(lp92
S'None'
p93
aasS'X/y-ray instrumentation for the study of the high-energy universe'
p94
(lp95
S'None'
p96
a(lp97
S'None'
p98
aasS'X-rays detectors for the large installation facilities'
p99
(lp100
S'None'
p101
asS'Xxxvii coconut technical panel (cocotech) meeting/ international coconut conference (icc) 2000'
p102
(lp103
S'None'
p104
asS'XUV-High Order Harmonic Metrology tools for novel Spectroscopic applications'
p105
(lp106
S'X-HOMES'
p107
asS'X-ray Resonant Anisotropy and Gyrotropy in Crystals'
p108
(lp109
S'None'
p110
asS'XML Based Modelling Language for Simulation of Technical Networks'
p111
(lp112
S'XNETMOD'
p113
a(lp114
S'XNETMOD'
p115
aasS'XXI Century Gateway'
p116
(lp117
S'None'
p118
asS'Xith international symposium on cholinergic mechanisms - function and dysfunction'
p119
(lp120
S'None'
p121
asS'X-ray phase-contrast imaging for biomedical applications'
p122
(lp123
S'X-RAY-BIOIMAGING'
p124
asS'X-chromosome inactivation and plasticity in pre-implantation mouse embryo'
p125
(lp126
S'XCIP'
p127
asS'Xenotransplantation - strategies for the prevention of carbohydrate related (hyperacute) rejection'
p128
(lp129
S'None'
p130
asS'X-RAY LOG SCANNER'
p131
(lp132
S'None'
p133
asS'X-ray generation through laser-irradiation of clusters and liquid droplets.'
p134
(lp135
S'None'
p136
a(lp137
S'None'
p138
aasS'XDSL NON INTRUSIVE SIGNAL METER AND FULL DUPLEX TESTER DESIGN'
p139
(lp140
S'SME AWARD'
p141
a(lp142
S'SME AWARD'
p143
aasS'X-Ray studies of the structure and electronic properties of magnetic materials'
p144
(lp145
S'None'
p146
asS'Xenopus axis determination - control of the spatial expression of the siamoishomeobox gene'
p147
(lp148
S'None'
p149
asS'X-ray spectroscopic diagnosis of intense electric fields in short-living plasmas'
p150
(lp151
S'None'
p152
a(lp153
S'None'
p154
aasS'X-linked Adrenoleukodystrophy (X-ALD): pathogenesis, animal models and therapy'
p155
(lp156
S'X-ALD'
p157
asS'XYLOPASS'
p158
(lp159
S'XYLOPASS'
p160
asS'X-ray spectromicroscopy studies of semiconductor heterostructures'
p161
(lp162
S'None'
p163
asS'XML-based Mediator for Knowledge Extraction and Brokering'
p164
(lp165
S'XML-KM'
p166
a(lp167
S'XML-KM'
p168
aasS'X-RAY DIFFRACTION STUDY OF CRIMPING TEXTURE IN CALCIFIED/ UNACALCIFIED COLLAGEN'
p169
(lp170
S'None'
p171
asS'X-ray structure of actin-gelsolin complexes'
p172
(lp173
S'None'
p174
asS'X-ray multiple ionization of impulsively aligned molecules'
p175
(lp176
S'X-MIAM'
p177
asS'X-SIALON/MULLITE CERAMICS PRECURSORS, POWDERS AND COST EFFECTIVE COMPONENTS WITH IMPROVED MICROSTRUCTURE AND PROPERTIES.'
p178
(lp179
S'None'
p180
asS'XXX Meeting of the Euro Working Group for Financial Modelling'
p181
(lp182
S'None'
p183
a(lp184
S'None'
p185
aas.