(dp1
S'Joint European training'
p2
(lp3
S'JET'
p4
asS'JUPITER technology management - European information service'
p5
(lp6
S'None'
p7
asS'Judgement and knowledge in fisheries including stakeholders'
p8
(lp9
S'JAKFISH'
p10
asS'Joint sand with weed control, concrete block pavement.'
p11
(lp12
S'None'
p13
asS'JOINT URBAN PROJECT IN TRANSPORT ENERGY REDUCTION 2 [PHASE 1]'
p14
(lp15
S'JUPITER 2'
p16
asS'JET-EP/NB/3'
p17
(lp18
S'JET-EP/NB'
p19
asS"Job related and certification oriented multimedia self and distance training course of Dutch and other languages for SME's"
p20
(lp21
S'JR-COMS'
p22
asS'Joint atm experiment on European services'
p23
(lp24
S'JAMES'
p25
asS'Joint analysis and strategy development for self-employed women with technical and scientific training'
p26
(lp27
S'JASS'
p28
asS'JESSI Common-Frame'
p29
(lp30
S'JCF'
p31
asS'Jules Horowitz Reactor Co-ordination Action (JHR-CA)'
p32
(lp33
S'JHR-CA'
p34
asS'Job mobility and transition to employment of belgian workers'
p35
(lp36
S'None'
p37
asS'JET-EP/ICRH/5 Assistance in managing the documentation in safety related issues of the JET-EP ICRF antenna'
p38
(lp39
S'WORKPROGRAMME 2000'
p40
asS'Joint teleworking system - innovative forms of work for medium-sized companies'
p41
(lp42
S'None'
p43
asS'Jatropha curcas Applied and Technological Research on Plant Traits'
p44
(lp45
S'JATROPT'
p46
asS'Jena initiative of applying molecular techniques for the analysis of variations of ecological processes in space'
p47
(lp48
S'JEN-A-MACE'
p49
asS'JOINT PROGRAMME ON THE MOLECULAR ANALYSE STERILITY IN RELATION TO CROP IMPROVEMENT'
p50
(lp51
S'None'
p52
asS'Java and cosy technology for embedded systems'
p53
(lp54
S'JOSES'
p55
asS'Job opportunities for the railway community of tomorrow'
p56
(lp57
S'FUTURAIL'
p58
asS'JOIN PHYSICISTS IN FESTIVAL (My Physics, My World)'
p59
(lp60
S'MYPHY'
p61
asS'Joint Meeting of the UK and Hungarian Physiological Societies'
p62
(lp63
S'None'
p64
a(lp65
S'None'
p66
aa(lp67
S'None'
p68
aa(lp69
S'None'
p70
aa(lp71
S'None'
p72
aasS'Jet ep'
p73
(lp74
S'JET EP ECRH LAUNCHER'
p75
a(lp76
S'JET EP ICRH PROJECT'
p77
aa(lp78
S'JET EP ECRH GYROTRON'
p79
aasS'Just In Time Open Learning'
p80
(lp81
S'JITOL'
p82
asS'Joint analyses and training project for technology transfer and mobility of SMEs'
p83
(lp84
S'JAT'
p85
asS'Joining of ceramic materials'
p86
(lp87
S'None'
p88
asS'Journey into media'
p89
(lp90
S'DIGI PRINT'
p91
asS'JEE European Fund for Start-ups'
p92
(lp93
S'JEE/EFS'
p94
asS'Joint proposals of European researchers and Delft hydraulics'
p95
(lp96
S'None'
p97
asS'Java environment for parallel realtime development'
p98
(lp99
S'JEOPARD'
p100
a(lp101
S'JEOPARD'
p102
aasS'Jedi flexible electronic commerce firewall and data privacy'
p103
(lp104
S'JEDI-FIRE'
p105
a(lp106
S'JEDI-FIRE'
p107
aasS'Joint research programme on the use of daylight and natural ventilation in buildings'
p108
(lp109
S'None'
p110
asS'Jews and poland : the legacy of 1.000 years of jewish life at the heart of europe'
p111
(lp112
S'None'
p113
a(lp114
S'None'
p115
aasS'Joint Energy Pilot for Primary Schools'
p116
(lp117
S'None'
p118
asS'Joining of fine ceramic to metal by laser brazing'
p119
(lp120
S'None'
p121
asS'Joint European submicron silicon initiative'
p122
(lp123
S'JESSI'
p124
asS'Joint research on various types of radiation dosimeters'
p125
(lp126
S'RADDOS'
p127
asS'Joint European Print Server'
p128
(lp129
S'JEPS'
p130
asS'Joint research activities on wave hydrodynamics and srtucture interaction'
p131
(lp132
S'None'
p133
asS'Job profiles, training and practice for tutors/mentors in companies'
p134
(lp135
S'JP-TP'
p136
asS'Junior euromat - a conference on materials science and engineering for young materials scientists 28-31 august 2000'
p137
(lp138
S'None'
p139
asS'JOINT URBAN PROJECT IN TRANSPORT ENERGY REDUCTION [PHASE 2]'
p140
(lp141
S'JUPITER'
p142
asS'Job opportunities in new tele-activities'
p143
(lp144
S'JOINT'
p145
asS'Joint research programme to develop integrated means of control for the parasitic weed striga at a small-scale farmer level in Africa'
p146
(lp147
S'None'
p148
asS'JOINT RESEARCH ON THE STANDARD CATALYSIS (Pt, Pt/Re, Ni)'
p149
(lp150
S'None'
p151
asS'Joint Logic Project'
p152
(lp153
S'JLP'
p154
a(lp155
S'JLP'
p156
aasS'JOINT RESEARCH PROJECT ON IMPULSE NOISE'
p157
(lp158
S'None'
p159
asS'Joint implementation: accounting and accreditation of joint implementation projects under the framework convention on climate change and the Oslo protocol.'
p160
(lp161
S'None'
p162
asS'Jointly optimising multimedia transmission in IP based wireless networks'
p163
(lp164
S'PHOENIX'
p165
a(lp166
S'PHOENIX'
p167
aasS'Jet Simulations, Experiments and Theory'
p168
(lp169
S'JETSET'
p170
asS'JET-EP/ICRH/2: Antenna design (external services from UKAEA drawing office)'
p171
(lp172
S'WORKPROGRAMME 2000'
p173
asS'Jodrell bank observatory training site for radio astronomy'
p174
(lp175
S'None'
p176
a(lp177
S'None'
p178
aasS'JOINT RESEARCH PROJECT ON THE AQUATIC ECOTOXICITY OF ORGANO-ALUMINIUM: ION REGULATION.'
p179
(lp180
S'None'
p181
asS'Jocic'
p182
(lp183
S'ISIC2000-MED2000'
p184
a(lp185
S'ISIC2000-MED2000'
p186
aasS'JOINT PROGRAMME ON THE MOLECULAR ANALYSIS OF CYTOPLASMIC MALE STERILITY (CMS) IN RELATION TO CROP IMPROVEMENT'
p187
(lp188
S'None'
p189
asS'JOint source-channel COding-driven digital baseband design for 4G multimedia streaming'
p190
(lp191
S'JOCO'
p192
a(lp193
S'JOCO'
p194
aasS'Joint European Network on Embedded Internet Technologies'
p195
(lp196
S'JENET'
p197
a(lp198
S'JENET'
p199
aasS'Joint training and research on Hedhehog-Gli signalling and its pharmacological modulation for regenerative medicine'
p200
(lp201
S'HEALING'
p202
asS'JAVA enabled database access over internet'
p203
(lp204
S'JEDI'
p205
asS'Jet vapour deposition (JVD): extensive product study and first evaluation of coupling with a processing line'
p206
(lp207
S'None'
p208
asS'Joining dissimilar materials and composites by friction stir welding (JOIN-DMC)'
p209
(lp210
S'JOIN-DMC'
p211
asS'Judicial management by digital libraries semantics'
p212
(lp213
S'JUMAS'
p214
asS'JESSI CAD-Frame'
p215
(lp216
S'JCF'
p217
asS'JOINT RESEARCH PROJECT ON THE AQUATIC ECOTOXICITY OF ORGANO- ALUMINIUM :EFFECTS ON THE CALCIUM PHYSIOLOGY IN FISH'
p218
(lp219
S'None'
p220
asS'Joint training modules in the plastics sector'
p221
(lp222
S'None'
p223
asS'JAVA extensive software defined internetworking'
p224
(lp225
S'JEDI'
p226
asS'Jurisdictional structures and norm enforcement in eastern european postwar societies'
p227
(lp228
S'None'
p229
asS'JOINT ATM EXPERIMENT ON EUROPEAN SERVICES'
p230
(lp231
S'JAMES-RN'
p232
asS"Jems'01"
p233
(lp234
S'None'
p235
a(lp236
S'None'
p237
aasS'Jewish Studies Resources European Public Collections'
p238
(lp239
S'JEWNET'
p240
asS'Joint european ocean drilling initiative'
p241
(lp242
S'None'
p243
asS'Joint Technical and Organisational Design of CIM Systems for SMEs'
p244
(lp245
S'CIM-SME'
p246
asS'Joint European Community - Russian Federeation analysis of European challenges and solutions in nuclear safety'
p247
(lp248
S'None'
p249
asS'Joining of steel to different sheet materials & product performance evaluation'
p250
(lp251
S'None'
p252
a(lp253
S'None'
p254
aa(lp255
S'None'
p256
aa(lp257
S'None'
p258
aa(lp259
S'None'
p260
aasS'Joint links project Aarhus Kobmandsskole and Park Lane College'
p261
(lp262
S'None'
p263
asS'Joint-action science and technology'
p264
(lp265
S'JAST'
p266
a(lp267
S'JAST'
p268
aasS'JOINT EUROPEAN PROJECT ON THE DYNAMICS OF PHAEOCYSTIS BLOOMS IN NUTRIENT-ENRICHED COASTAL ZONES OF THE NORTH SEA.'
p269
(lp270
S'None'
p271
asS'Joint pilot project concerning combined heat and power and district heating in Copenhagen, Denmark and in the New Federal States of Germany'
p272
(lp273
S'None'
p274
asS'Joining worlds apart: Observations and Simulations of the First Stars in the Universe'
p275
(lp276
S'OBSI-FSU'
p277
asS'Jet FP'
p278
(lp279
S'SAFETY OPERATION'
p280
asS'Joined Education for Tissue Engineering: a multidisciplinary approach to regenerate joints'
p281
(lp282
S'JOIN(ED)T'
p283
asS'Job creation in innovative relational services the case of services to private individuals'
p284
(lp285
S'JOB CREATION IN IRS'
p286
asS'J-CURVE PIPE LAYING ELECTRON BEAM WELDING'
p287
(lp288
S'None'
p289
asS'Joint technical approach for decontamination of soil and groundwater'
p290
(lp291
S'JOINT'
p292
asS'Jobs in the European construction industry for European validation'
p293
(lp294
S'JECI'
p295
asS'Joint industrial interface for end-users simulations'
p296
(lp297
S'JULIUS'
p298
asS'John Innes Centre International Student Bursaries for Early Stage Training'
p299
(lp300
S'JICIBSET'
p301
asS'JOINT URBAN PROJECT IN TRANSPORT ENERGY REDUCTION [PHASE 1]'
p302
(lp303
S'JUPITER'
p304
asS'JET EP, Diagnostic Enhancement - Halo Sensors'
p305
(lp306
S'DIAGNOSTICS ENHANCEM'
p307
asS'JOint Learning about Innovation Systems in African Agriculture'
p308
(lp309
S'JOLISAA'
p310
asS'Joint European Magnetic Symposia'
p311
(lp312
S'None'
p313
a(lp314
S'None'
p315
aasS'Joint Academic Network Using Satellite for European Distance Education and Training'
p316
(lp317
S'JANUS'
p318
asS'Janus nanoparticles liquid cristal phases and derived materials'
p319
(lp320
S'JANUS'
p321
a(lp322
S'JANUS'
p323
aasS'JET Joint Undertaking'
p324
(lp325
S'JET'
p326
asS'Josephson effects in layered superconductors'
p327
(lp328
S'None'
p329
asS'Just and durable peace by piece'
p330
(lp331
S'JAD-PBP'
p332
asS'Java Smart Integrated Networked Enterprises'
p333
(lp334
S'JASMINE'
p335
a(lp336
S'JASMINE'
p337
aasS'Joint Global Ocean Flux Studies - Second Open Science Conference'
p338
(lp339
S'None'
p340
a(lp341
S'None'
p342
aasS'Java and html based graphical user interface for service and data maintenance in retail sales'
p343
(lp344
S'JAGUAR'
p345
asS'JUNCTIONS IN ELASTIC MULTI-STRUCTURES'
p346
(lp347
S'None'
p348
asS'Joining Educational Mathematics'
p349
(lp350
S'JEM'
p351
asS'Join in a proposal titled "the european vlbi network of radio telescopes" submitted to cec by dr. r.t. schilizzi, netherlands foundation for research astronomy'
p352
(lp353
S'None'
p354
asS'Junb degradation in mitosis'
p355
(lp356
S'None'
p357
asS'Joint research activities on wave hydrodynamics and wave structure interaction'
p358
(lp359
S'None'
p360
asS'John Humphrey residential advanced lecture series in immunology, 1998 and 2000 in Russia'
p361
(lp362
S'None'
p363
asS'JOINT PROGRAMME ON THE MOLECULAR ANALYSIS OF CYTOPLASMIC MALE STERILITY IN RELATION TO CROP IMPROVEMENT'
p364
(lp365
S'None'
p366
asS'Joint archaeological field work (excavation) and related activities'
p367
(lp368
S'None'
p369
asS'Journey Online Discoverer Environment'
p370
(lp371
S'JODIE'
p372
a(lp373
S'JODIE'
p374
aasS'JET-EP/ECRH/3 Torus window design'
p375
(lp376
S'WORKPROGRAMME 2000'
p377
asS'Jet exhaust aerodynamics and noise (JEAN)'
p378
(lp379
S'JEAN'
p380
asS'Jda'
p381
(lp382
S'JDA'
p383
a(lp384
S'None'
p385
aa(lp386
S'None'
p387
aasS'JOINT CONFERENCE ON TELEMATICS FOR HEALTH EUROPEAN UNION - SOUTH AFRICA 1996'
p388
(lp389
S'HEAL SA'
p390
asS'JET EP'
p391
(lp392
S'DIAGNOSTICS ENHANCEM'
p393
a(lp394
S'DIAGNOSTICS EHNHANCE'
p395
aa(lp396
S'CONTRIBUTION TO ICRH'
p397
aa(lp398
S'DIAGNOSTICS ENHANCEM'
p399
aa(lp400
S'CTICRHA'
p401
aa(lp402
S'DIAGNOSTICS EHNHANCE'
p403
aa(lp404
S'DIAGNOSTICS EHNHANCE'
p405
aasS'Joint investigation of plasma heating and transport between the terrestrial ionosphere and the magnetosphere : comparison between space and ground-based observations and development of new fluid and kinetic models'
p406
(lp407
S'None'
p408
asS'Jet ep diagnostics enhancements - IR viewing project management and implementation'
p409
(lp410
S'JET EP DIAGNOSTICS E'
p411
asS'Jets in Symbiotic Stars -- the Rosetta stone for jet formation'
p412
(lp413
S'SYMBIOJETS'
p414
asS'Jerusalem Winter School in Theoretical Physics Victor Rothschild Symposium'
p415
(lp416
S'None'
p417
a(lp418
S'None'
p419
aasS'Joint inversion of gravity and seismological data: application to the east african rift'
p420
(lp421
S'None'
p422
a(lp423
S'None'
p424
aasS'Joint ECO-City developments in Scandinavia and Spain'
p425
(lp426
S'ECO-CITY'
p427
asS'Joint environmental policy making: new interactive approaches in the EU and selected member states.'
p428
(lp429
S'None'
p430
asS'Josephson-like effect with vortices and applications'
p431
(lp432
S'JOVIAL'
p433
asS'JET-EP/In Vessel JET EP/IV/1 divertor physics design'
p434
(lp435
S'WORKPROGRAMME 2000'
p436
asS'Jets in AGNs: Multifrequency observations and numerical modelling'
p437
(lp438
S'JAMON'
p439
asS'Joining of beo centre of exellence to european network of high mountain observatories.'
p440
(lp441
S'HIMONTONET'
p442
asS'Jet ep diagnostics - tritium retention studies'
p443
(lp444
S'JET EP DIAGNOSTICS T'
p445
asS'Jet ft'
p446
(lp447
S'JET FT SAFETY-MAINTE'
p448
asS"Joint implementation for international emissions reduction through electricity companies in the european union and in the central and eastern european countries ('JOINT')"
p449
(lp450
S'JOINT'
p451
asS'JUST-in-time health emergency interventions - Training of non-professionals by Virtual Reality and advanced IT tools'
p452
(lp453
S'JUST'
p454
a(lp455
S'JUST'
p456
aasS'Jules Horowitz reactor collaborative project : contribution to the design and construction of new research infrastructure of pan-European interest, the JHR material testing reactor'
p457
(lp458
S'JHR-CP'
p459
asS'Joint CIREP-ECIX demonstration action on generating component dictionary data in CIDS format by CIREP'
p460
(lp461
S'J-COMP'
p462
asS'Joint Academic Network Using Satellites'
p463
(lp464
S'JANUS'
p465
asS'Joint planning and cooperation in development agreements'
p466
(lp467
S'C.C.I.S.'
p468
asS'John innes centre cereals and comparative genetics research'
p469
(lp470
S'None'
p471
a(lp472
S'None'
p473
aasS'Joint European Enterprise in Phase-Shift, Advanced Mask Technology: towards 0.25 micron'
p474
(lp475
S'JEEPS'
p476
asS'Joining techniques for reliable surface mounting of microelectronics'
p477
(lp478
S'None'
p479
asS'Journees des Actinides'
p480
(lp481
S'None'
p482
a(lp483
S'None'
p484
aa(lp485
S'None'
p486
aa(lp487
S'None'
p488
aa(lp489
S'None'
p490
aa(lp491
S'None'
p492
aa(lp493
S'None'
p494
aa(lp495
S'None'
p496
aasS'Jet-ep/ecrh/2 mirrors design'
p497
(lp498
S'WORKPROGRAMME 2000'
p499
asS'JOINT RESEARCH PROJECT ON THE AQUATIC ECOTOXICITY OF ORGANO-ALUMINIUM: CHEMICAL REACTIONS AND SPECIATION OF AL.'
p500
(lp501
S'None'
p502
asS'Jewish Urban Digital European Integrated Cultural Archive'
p503
(lp504
S'JUDAICA Europeana'
p505
asS'Jet pilot'
p506
(lp507
S'JET PILOT'
p508
asS'Joint Opportunities For European Biomass'
p509
(lp510
S'JOINT'
p511
asS'Joint market development study for structural steels in Europe'
p512
(lp513
S'None'
p514
asS'JAVA and CORBA based collaborative environment for coupled simulations'
p515
(lp516
S'JACO3'
p517
asS'Joint COMETT project for EuroPace activities'
p518
(lp519
S'None'
p520
asS'Java for predictable hard real-time systems'
p521
(lp522
S'None'
p523
asS'Joining ecophysiological understanding and global ecosystem modelling for improved simulation of land surface interactions with the atmosphere'
p524
(lp525
S'JULIA'
p526
asS'Joint investigation on dynamic inflow effects and implementation of an engineering method for response calculations'
p527
(lp528
S'None'
p529
asS'Joint development of novel anti-diabetic drugs from natural sources by strategic combination of pharmacology and chemistry'
p530
(lp531
S'ANTI-DIABETIC DRUGS'
p532
asS'Jerusalem Winter School in theoretical Physics, Victor Rothschild Symposia'
p533
(lp534
S'None'
p535
a(lp536
S'None'
p537
aa(lp538
S'None'
p539
aa(lp540
S'None'
p541
aa(lp542
S'None'
p543
aasS'JACKET INSTALLATION SIMULATOR'
p544
(lp545
S'None'
p546
a(lp547
S'None'
p548
aasS'Josephson devices'
p549
(lp550
S'JOSEPHSON DEVICES'
p551
asS'Job Mobilities and Family Lives in Europe Modern Mobile Living and its Relation to Quality of Life'
p552
(lp553
S'JOBMOB AND FAMLIVES'
p554
asS'Joint Exhibition on Evolution'
p555
(lp556
S'EUEV'
p557
asS'Jacketing of NB TI and dummy copper cables for the pf conductor insert coil'
p558
(lp559
S'PF CONDUCTOR INSERT'
p560
asS'Japanese quince (chaenomeles japonica) - a new european fruit crop for production of novel juice, flavour and fibre'
p561
(lp562
S'None'
p563
asS'JET EP, Diagnostic Enhancement - Mw Access. Project Management and Implementation'
p564
(lp565
S'DIAGNOSTICS ENHANCEM'
p566
asS'Joining European and Indian grids for eScience Network community'
p567
(lp568
S'EU-INDIAGRID'
p569
asS'Jurisprudential Constructions of the Family within the Law of European Union Member States'
p570
(lp571
S'None'
p572
asS'Joining Processes in the Automotive Industry Using High Power LaserDiodes'
p573
(lp574
S'None'
p575
asS'JET-EP/NB/1 RF source and generators, design and R&D JET-EP/NB/8 Characterisation of RF PINI on IPP test stand'
p576
(lp577
S'WORKPROGRAMME 2000'
p578
asS'Joint Analytical Network for Using Socio-economic research'
p579
(lp580
S'JANUS'
p581
a(lp582
S'JANUS'
p583
aasS'Jupiter after Galileo and Cassini'
p584
(lp585
S'None'
p586
asS'JET-EP/ECRH/1 Gyrotron specifications'
p587
(lp588
S'WORKPROGRAMME 2000'
p589
asS'Joint assimilation of satellite aerosol, cloud, and precipitation observations in numerical models to support climate and hydrologic applications'
p590
(lp591
S'JOINT-ASSIMILATION'
p592
asS'JOINT WORKSHOP CODEST-ILL ON QUASI CRYSTALS'
p593
(lp594
S'None'
p595
asS'Jaws emerge: Insight from placoderms to resolve the evolutionary emergence of gnathostomes'
p596
(lp597
S'JAWS EMERGE'
p598
asS'Joint EFTTRA experiment on Am transmutation'
p599
(lp600
S'None'
p601
asS'Josephson arbitrary waveform synthesizer : realisation of a quantum standard for ac voltage (JAWS)'
p602
(lp603
S'JAWS'
p604
asS'JET EP/ICRH/2 antenna design'
p605
(lp606
S'JET-EP/ICRH'
p607
asS'Jyfl accelerator laboratory of the university of jyvaskyla'
p608
(lp609
S'JYFLACCLAB'
p610
a(lp611
S'JYFLACCLAB'
p612
aasS'JPEG 2000 Advanced Networking'
p613
(lp614
S'2KAN'
p615
a(lp616
S'2KAN'
p617
aasS'JOINING OF COPPER AND ALUMINIUM BY LASER.'
p618
(lp619
S'None'
p620
asS'Joint network on european private law'
p621
(lp622
S'COPECL'
p623
asS'Joint safety research index'
p624
(lp625
S'JSRI'
p626
asS'Joint training and education programmes'
p627
(lp628
S'None'
p629
as.