(dp1
S'2-photon single-molecule imaging of a g-protein dynamics'
p2
(lp3
S'None'
p4
a(lp5
S'None'
p6
aasS'"development of a continue, intelligent, autonomous, real time monitoring and alarming system for radon detection in ground-water"'
p7
(lp8
S'RADWAT'
p9
asS'3D Site effects and soil-foundation interaction in earthquake and vibration risk evaluation.'
p10
(lp11
S'TRISEE'
p12
asS'5th international www conference - business on the web'
p13
(lp14
S'IWWW 96'
p15
asS'"manufacturing technologies for euro iv/v injector nozzles"'
p16
(lp17
S'EURO V NOZZLE'
p18
asS'3-Dimensional Reconstruction of Catalysts by Scanning Transmission Electron Tomography'
p19
(lp20
S'CATALYSTS TOMOGRAPHY'
p21
asS'3D Geodynamics of continental orogens'
p22
(lp23
S'3D GEODYNAMICS'
p24
asS'5th International Neurotrauma Symposium'
p25
(lp26
S'None'
p27
asS'* Gb8-v62 irradiation creep testing of inconel 718. Gb8-t252 radiation tolerance assessment of standard systems for remote handling and process instrumentation gb6-t338 assessment of sensors and communication equipment under fast neu'
p28
(lp29
S'GB8-V62 IRRADIATION'
p30
a(lp31
S'GB8-V62 IRRADIATION'
p32
aasS'" interdisciplinary research on development and the environment: methodological issues. an international workshop ".'
p33
(lp34
S'None'
p35
asS'3D Measurement and Virtual Reconstruction of Ancient Lost Worlds of Europe'
p36
(lp37
S'3D-MURALE'
p38
a(lp39
S'3D-MURALE'
p40
aasS'2nd jgofs conference'
p41
(lp42
S'2ND JGOFS CONFERENCE'
p43
asS'4CElectricity (Carbon Consciousness and Consumer Choice for Electricity)'
p44
(lp45
S'4CE'
p46
asS'3-D hydrodynamic modelling in Mediterranean deep coastal areas'
p47
(lp48
S'MEDCOAST'
p49
asS'300 mm Low Energy Plasma Enhanced Chemical Vapor Deposition'
p50
(lp51
S'LEPECVD 300/3'
p52
a(lp53
S'LEPECVD 300/3'
p54
aasS'"new clean and safe processes for the obtention of food and leather products"'
p55
(lp56
S'ENZYPRO'
p57
asS'- pathogenesis, epidemiology, immunopathology, and diagnosis of pmws, an emerging disease caused by a new porcine circovirus. develop. of recombinant'
p58
(lp59
S'VACCINES'
p60
asS"50 years of the Cauchy problem in Einstein's theory of gravitation"
p61
(lp62
S'None'
p63
asS'25 KW WIND SYSTEM FOR AGRICULTURAL AND DOMESTIC APPLICATIONS'
p64
(lp65
S'None'
p66
asS'1992-2000, the immediate future for fashion'
p67
(lp68
S'None'
p69
asS'43% Electric Efficient Gas Turbine in Winter Operation for Nancy District Heating and National Grid Electricity Supply'
p70
(lp71
S'BOUSSYDISTRICTHEATIN'
p72
asS'"fast low thermal budget large area system for high throughput solar cell production - (FLASH)'
p73
(lp74
S'FLASH'
p75
asS'27th International Cosmic Ray Conference'
p76
(lp77
S'None'
p78
a(lp79
S'None'
p80
aasS'"SKILL-SYS INTEGRATED SYSTEM FOR THE ENHANCMENT OF SMES WORKERS EMPLOYABILITY SKILLS"'
p81
(lp82
S'SKILL-SYS'
p83
a(lp84
S'SKILL-SYS'
p85
aasS"8th International Conference on Wilson's Disease and Menke's Disease"
p86
(lp87
S'None'
p88
asS'900 mpa ultra-high-pressure water jets'
p89
(lp90
S'None'
p91
asS'2 MW WIND PARK FOR PORT-LA-NOUVELLE'
p92
(lp93
S'None'
p94
asS'3-D-integrated micro/nano modules for easily adapted applications'
p95
(lp96
S'E-CUBES'
p97
a(lp98
S'E-CUBES'
p99
aasS'9 X 300 KW WIND POWER PLANT USING CARBON FIBER BLADES'
p100
(lp101
S'None'
p102
asS'"synthetic organic chemisty'
p103
(lp104
S'None'
p105
asS'4DVideo: 4D spatio-temporal modelling of real-world events from video streams'
p106
(lp107
S'4DVIDEO'
p108
asS'50 MWH THERMAL SOLAR EUROPEAN POWER STATION AT FRANGOKASTELLO [PART 1]'
p109
(lp110
S'THESEUS'
p111
asS'3-d in-line inspection using microstrip sensors'
p112
(lp113
S'None'
p114
asS'2O kWh all solid state polymer battery'
p115
(lp116
S'None'
p117
asS'13 MW CHP Plant Based on Biomass Gasifier with Gas Engines'
p118
(lp119
S'BGGE'
p120
asS'"MOLECULAR CATALYSIS AT UEA"'
p121
(lp122
S'MOLCAT'
p123
asS'"alternative approaches for the analysis of policy interventions and economic fluctuations"'
p124
(lp125
S'None'
p126
a(lp127
S'None'
p128
aasS'10 MW DEMONSTRATION WIND PARK IN PORTUGAL'
p129
(lp130
S'None'
p131
asS'3d velocity and attenuation models of volcanoes. validation by laboratory measurements.'
p132
(lp133
S'None'
p134
asS'4WARD - Architecture and design for the future Internet'
p135
(lp136
S'4WARD'
p137
a(lp138
S'4WARD'
p139
aasS'"Ilot flexible automatise de preparation piqure" dans un atelier de fabrication de chaussures'
p140
(lp141
S'None'
p142
asS'3rd Euroconference on "Magnetic Properties on Fine Particles and their Relevance to Materials Science"'
p143
(lp144
S'None'
p145
asS'5 year assessment PC 3 - 4 - 5 Reporting tasks'
p146
(lp147
S'5 YEAR ASSESSMENT RE'
p148
asS'"pour une recherche europeenne ouverte sur le monde: excellence, mobilite, echanges"'
p149
(lp150
S'None'
p151
a(lp152
S'None'
p153
aasS'"Co-ordination of Cancer Clinical Practise Guidelines Research in Europe"'
p154
(lp155
S'COCANCPG'
p156
asS' 1.11.99'
p157
(lp158
S'CORTICUS'
p159
asS'1) MEDIUM AND LONG-THERM TOXICITY OF CADMIUM IN RATS#2) STUDY OF THE DISTRIBUTION OF LABELLED VANADIUM IN MICE AND RATS'
p160
(lp161
S'None'
p162
asS'16th European union scientist contest for young scientists, Ireland 2004'
p163
(lp164
S'16TH YSC - DUBLIN'
p165
asS'6th INTERNATIONAL SYMPOSIUM ON SPIN TRAPPING. Spin Traps, Nitroxides and Nitric Oxide : Spectroscopy, Chemistry and Free Radical Biology'
p166
(lp167
S'None'
p168
a(lp169
S'None'
p170
aasS'3a'
p171
(lp172
S'3A'
p173
asS'{accolade}'
p174
(lp175
S'{ACCOLADE}'
p176
a(lp177
S'{ACCOLADE}'
p178
aasS'"Pesticides free" disinfestation of antiques from insect pests'
p179
(lp180
S'ZER-OXY'
p181
asS'"In what" and "how much" are individuals similar and different? Towards the measurement of the individual susceptibility to diseases or response to treatments.'
p182
(lp183
S'BIOEMERGENCES'
p184
asS'11th Portuguese Conference on Pattern Recognition'
p185
(lp186
S'None'
p187
a(lp188
S'None'
p189
aasS'3D organization of yeast MAP-kinase modules'
p190
(lp191
S'MAPK MODULES'
p192
asS'25 SOLAR ENERGY HOUSES'
p193
(lp194
S'None'
p195
asS'" nitrogen fixation research for a future sustainable agriculture: co-operation between the eu and developing countries "'
p196
(lp197
S'None'
p198
asS'80 KW WIND TURBINE FOR THE DIRECT DRIVE OF AN AIR COMPRESSOR FOR A WATER TREATMENT PLANT'
p199
(lp200
S'None'
p201
asS"'Meeting of Minds. European Citizens' Deliberation on Brain Science'"
p202
(lp203
S'ECD'
p204
asS'" IMPLANT MONITORING PROJECT USING ACTIVE PROPOSAL "'
p205
(lp206
S'None'
p207
asS"'MODEL'-MODERNISATION OF SAFETY AND MAINTENANCE PROCEDURES THROUGH THE USE OF RELIABILITY ANALYSIS AND MODELLING OF FAILURE PROJECT"
p208
(lp209
S'None'
p210
asS'50th meeting of nobel prize winners in lindau : meeting of laureates for physics, chemistry and physiology of medicine'
p211
(lp212
S'None'
p213
a(lp214
S'None'
p215
aasS'"Electronic and Secure Municipal Administration for European Citizens "'
p216
(lp217
S'EMAYOR'
p218
a(lp219
S'EMAYOR'
p220
aasS'* Fusion technology 1-technology for net 2- blanket technology 3- long term technology. European blanket project (EBP)'
p221
(lp222
S'FUSION TECHNOLOGY 1-'
p223
a(lp224
S'FUSION TECHNOLOGY 1-'
p225
aasS'(Co)homology of leibniz algebras and applications'
p226
(lp227
S'None'
p228
asS'10th International Conference on Bioinorganic Chemistry'
p229
(lp230
S'None'
p231
a(lp232
S'None'
p233
aasS'3d-4f-3d trinuclear complexes precursors for heterospin systems - an alternative way towards multifunctional molecular materials'
p234
(lp235
S'HETEROSPIN'
p236
asS'10 KW WIND TURBINE FOR GRID CONNECTION AT SPANISH FISHFARM TO SUPPLY ELECTRICAL ENERGY'
p237
(lp238
S'None'
p239
asS'"organisation of the 13th european contest for young scientist" to be held in bergen 15-22 sept 2001'
p240
(lp241
S'None'
p242
asS'6th International Conference on Computing in Economics and Finance'
p243
(lp244
S'None'
p245
asS'25 kW GRID CONNECTED PV GENERATOR INTEGRATED INTO THE ELECTRICITY SUPPLY STRUCTURE'
p246
(lp247
S'None'
p248
asS'15th triennial conference of the european association for potato research (EAPR)'
p249
(lp250
S'EAPR'
p251
asS'100% biodegradable thermo insulating foam packaging for fastfood, ice and drinks'
p252
(lp253
S'GREENFOAM'
p254
asS' ICRH'
p255
(lp256
S'JET EP'
p257
a(lp258
S'JET EP'
p259
aa(lp260
S'JET EP'
p261
aa(lp262
S'JET EP'
p263
aasS'2000 ADBIS-DASFAA Symposium on Advances in Databases and Information Systems'
p264
(lp265
S'None'
p266
a(lp267
S'None'
p268
aasS'"cultural effects on brain function : normal and deficiant word processing in bulgarian and german language - a multitask comparison using event related potentials."'
p269
(lp270
S'DR. PETRA GEORGIEWA'
p271
asS'250 KW GRID CONNECTED WIND TURBINE AT "LES CAMAZES"'
p272
(lp273
S'None'
p274
asS'2 INNOVATIVE SMALL SIZE WIND TURBINE IN FR/DK'
p275
(lp276
S'None'
p277
asS'"LOLA"-Leittext(Guided)-oriented learning and working methods'
p278
(lp279
S'None'
p280
asS'"international symposium on deep-sea hydrothermal vent biology"'
p281
(lp282
S'ISHVB'
p283
asS'4th International School on Molecular Catalysis'
p284
(lp285
S'None'
p286
a(lp287
S'None'
p288
aasS'21st International conference on yeast genetics and molecular biology 2003'
p289
(lp290
S'None'
p291
asS'"Regional Innovation Policy Impact Assessment and Benchmarking Process: European Cooperation for Sustainable Regional Innovation"'
p292
(lp293
S'EURO-COOP'
p294
asS'12th meeting of directors of fisheries research organisation of EU'
p295
(lp296
S'MODOFRO'
p297
asS'"ground penetrating radar innovative research for highly reliable robustness/accuracy gas pipe detection/location (GIGA)'
p298
(lp299
S'GIGA'
p300
asS'* Critical Heat Flux and Thermal Fatique Testing of CFC Monoblocks'
p301
(lp302
S'CRITICAL HEAT FLUX A'
p303
asS'4D space-time topology for semantic flow segmentation'
p304
(lp305
S'SEMSEG'
p306
a(lp307
S'SEMSEG'
p308
aasS'65 KWP PV PLANT FOR LEONORI-CITROEN CAR SELLING COMPANY'
p309
(lp310
S'None'
p311
asS'5 X 630 KW IN MASNEDOE FIRST MACHINE [TRANCHE 2]'
p312
(lp313
S'None'
p314
asS'34-th Conference of the European Group for Atomic Spectroscopy'
p315
(lp316
S'None'
p317
a(lp318
S'None'
p319
aasS'"3d deflectometry" a new 3d measurement technology for fast inspection of large slightly unflat surfaces'
p320
(lp321
S'3D DEFLECTOMETRY'
p322
asS'"beta-decay studies in the vicinity of the n=z line"'
p323
(lp324
S'None'
p325
asS'32nd international geological congress - from the mediterranean area toward a global geological renaissance (geology, natural hazards, and cultural heritages)'
p326
(lp327
S'IGC'
p328
asS'14th International Conference on Plasma Surface Interactions in Controlled Fusion Devices'
p329
(lp330
S'None'
p331
a(lp332
S'None'
p333
aasS'7th European Symposium on Calcium-Binding Proteins in Normal and Transformed Cells-Calcium Signalling'
p334
(lp335
S'None'
p336
asS'3d modelling of volcanic eruptions associated with caldera formation'
p337
(lp338
S'None'
p339
a(lp340
S'None'
p341
aasS'(Hamlet Archive and) multimedia learning environment for theatre'
p342
(lp343
S'HAMLET'
p344
asS'3rd European Biophysics Congress 2000'
p345
(lp346
S'None'
p347
asS'100 KW HORIZONTAL AXIS MACHINE FOR ELECTRICITY PRODUCTION ON SKYROS ISLAND'
p348
(lp349
S'None'
p350
asS'"gas emission measurements and metal quality improvement" nas complement to contract no. g5rd-ct2000-00307.'
p351
(lp352
S'NAS-AVOID SOLID BY P'
p353
asS'"NOVEL INTELLIGENT" METHOD FOR THE RATIONAL QUALIFICATION AND SELECTION OF RELIABLE SUBSEA HYDROCARBON PRODUCTION EQUIPMENT'
p354
(lp355
S'None'
p356
asS'"244 biomedical effects of electromagnetic fields"'
p357
(lp358
S'None'
p359
asS'3rd generation Igcc - demonstration ( 400Mw ) At Vresova, Czech Republic'
p360
(lp361
S'EUCLID POWER'
p362
asS"'Systems' study of cellular growth, shape and polarity"
p363
(lp364
S'SYSGRO'
p365
asS'225 KW WIND-DIESEL PLANT FOR OPTIMAL SHARING OF THE POWER'
p366
(lp367
S'None'
p368
asS'2-D MODELLING OF ATMOSPHERIC TRACE GASES'
p369
(lp370
S'None'
p371
asS'"functional analysis of promoter sequences elements conseved between gibberellin 20-oxidase genes of arabidopsis implicated in the regulation of ga biosynthesis"'
p372
(lp373
S'OMARJOSERUIZRIVERO'
p374
asS'8th international conference on the chemistry and migration behaviour of actinides and fission products in the geophere'
p375
(lp376
S"MIGRATION' 01"
p377
asS'16th international diatom symposium'
p378
(lp379
S'None'
p380
asS'"Regional Governance - New Modes of Self-Government in the European Community"'
p381
(lp382
S'None'
p383
a(lp384
S'None'
p385
aasS'"New low-emissivity and long lasting paints for cost-effective solar collectors"'
p386
(lp387
S'TERMISOL'
p388
asS'18th International Papillomavirus Conference'
p389
(lp390
S'None'
p391
a(lp392
S'None'
p393
aasS'50 KWP GRID CONNECTED IN A WIND FARM IN NAVARRA, SPAIN'
p394
(lp395
S'None'
p396
asS'10 kW demonstration of pilot stack technology for Direct Internal Reforming Molten Carbonate Fuel Cell (DIR-MCFC) power plants'
p397
(lp398
S'None'
p399
asS'3D Ontology-Based Web Search Application'
p400
(lp401
S'3D SEARCH'
p402
a(lp403
S'3D SEARCH'
p404
aasS'3rd biennial esee conference "transitions towards sustainable europe: ecology - economy - policy'
p405
(lp406
S'None'
p407
asS'3 in 1 process for treating wastewater sludge'
p408
(lp409
S'None'
p410
asS'7th International Conference and Laser Ablation'
p411
(lp412
S"COLA'03"
p413
asS'3D GEOSTATICAL SIMULATION OF HETEROGENEITIES IN HYDROCARBON RESERVOIRS'
p414
(lp415
S'None'
p416
asS'3rd forum of european neuroscience (FENS FORUM 2002)'
p417
(lp418
S'FENS FORUM 2002'
p419
asS'3rd generation optical coatings for large area architectural glazing (3RD GENLAC)'
p420
(lp421
S'3RD GENLAC'
p422
asS'"VHTP in Support of the Analysis of Plasma Scenarios and Control". This activity is undertaken by Mr M. Cavinato under the Visiting Home Team Personnel Scheme'
p423
(lp424
S'VHTP IN SUPPORT OF T'
p425
asS'"GUARD Specific Support Action for CIVITAS II"'
p426
(lp427
S'GUARD'
p428
asS'750 KW WIND TURBINE FOR BERGEN OP ZOOM'
p429
(lp430
S'None'
p431
asS'3d multimedia support centre'
p432
(lp433
S'3DMSC'
p434
asS'13th Biennial Meeting of the International Society for Developmental Neuroscience (ISDN)'
p435
(lp436
S'None'
p437
a(lp438
S'None'
p439
aasS'8th International Workshop on Plasma Edge Theory in Fusion Devices'
p440
(lp441
S'None'
p442
a(lp443
S'None'
p444
aasS'335 MWE GROSS (ISO CONDITIONS) IGCC PLANT PRENFLO COAL GASIFICATION PROCESS (PUERTOLLANO)'
p445
(lp446
S'ELCOGAS'
p447
a(lp448
S'ELCOGAS'
p449
aa(lp450
S'ELCOGAS'
p451
aa(lp452
S'ELCOGAS'
p453
aasS'""HOME CARE ACTIVITY DESK""'
p454
(lp455
S'H-CAD'
p456
a(lp457
S'H-CAD'
p458
aasS'10th European Workshop Conference on Bacterial Protein Toxins'
p459
(lp460
S'None'
p461
a(lp462
S'None'
p463
aasS'3-dimensional structure and catalytic mechanism of 2-3 selected lipases on industrial relevance'
p464
(lp465
S'None'
p466
asS'2D Fluorescence lifetime imaging of subcellular structures'
p467
(lp468
S'None'
p469
asS'3D Genome structure and function'
p470
(lp471
S'3DGENOME'
p472
asS'"seismic fuse" - components for reinforced concrete structures in earthquake prone regions'
p473
(lp474
S'None'
p475
asS'5th workshop on three-Dimensional Modelling of Seismic Waves Generation, Propagation and their Inversion'
p476
(lp477
S'None'
p478
a(lp479
S'None'
p480
aasS'"Processing for Food Safety - Forming the sound basis for the expansion of a Nordic Research Area Net to a European Research Area Net"'
p481
(lp482
S'PROFORSAFE'
p483
asS'4 X 250 KW WINDPARK ON TEXEL ISLAND IN THE NETHERLANDS'
p484
(lp485
S'None'
p486
asS'8th European Symposium on Calcium'
p487
(lp488
S'CALCIUM08'
p489
asS'8th IFAC/IFIP/IFORS/IEA Symposium on Analysis, Design and Evaluation of Human-Machine Systems, Kassel, Germany'
p490
(lp491
S'None'
p492
asS'"Towards Sustainable Integration of Animal Welfare in Food Production"'
p493
(lp494
S'ANIMAL WELFARE'
p495
asS'"Promotion of an Integrated European and National R&D Initiative for Fossil Enegy Technologies towards Zero Emission Power Plant"'
p496
(lp497
S'FENCO'
p498
asS'8th International Conference on Flow Analysis, Warsaw 2000'
p499
(lp500
S'None'
p501
a(lp502
S'None'
p503
aasS'3d modelling of resistivity logging imager'
p504
(lp505
S'3DRIM'
p506
a(lp507
S'3DRIM'
p508
aasS'"insecurities in european cities. crime-related fears within the context of new anxieties and community-based crime prevention"'
p509
(lp510
S'INSEC'
p511
a(lp512
S'INSEC'
p513
aasS'8th International Conference on History of Language Sciences'
p514
(lp515
S'None'
p516
a(lp517
S'None'
p518
aasS'"milieu" influences in the change of architectural and urban theories'
p519
(lp520
S'None'
p521
asS'"organisation of the 12th european contest for young scientists" to be held in amsterdam 18-24 september 2000'
p522
(lp523
S'None'
p524
asS'3rd International EuroConference on Advanced Semiconductor Devices and Microsystems 2000'
p525
(lp526
S'None'
p527
asS'3D MODELLING CHAIN FOR RESERVOIR ENGINEERING'
p528
(lp529
S'None'
p530
asS'"la cite de la reussite"'
p531
(lp532
S'None'
p533
asS'"Cost 238" prediction and retrospective modelling over europe'
p534
(lp535
S'None'
p536
asS'5 8 MW ROYD MOOR WINDFARM USING 450 KW WIND TURBINES'
p537
(lp538
S'None'
p539
asS'"Peripheral Regions Oriented Measure for Promotion of Technological Intelligence"'
p540
(lp541
S'PROMPT'
p542
asS'8th European symposium on drosophila neurobiology-NEUROFLY2000 San Juan (Alicante), Spain'
p543
(lp544
S'NEUROFLY2000'
p545
asS'25th European Congress on Molecular Spectroscopy'
p546
(lp547
S'None'
p548
asS'250 KW WIND TURBINE FOR HUSUM'
p549
(lp550
S'None'
p551
asS'"COMBI-COMBUSTION" GAS DIESEL ENGINE FOR LNG TANKERS (LIQUID NATURAL GAS)'
p552
(lp553
S'None'
p554
asS'" trade and the environment: policy research needs (with emphasis on agriculture) "'
p555
(lp556
S'None'
p557
asS'- DEVELOPMENT OF THE SUPPLY MODEL EFOM-MARK II, VALORIZATION OF THE EXISTING TOOLS, ESPECIALLY MEDEE-SUD FOR THE LDC AND COORDINATION OF THE ACTIVITIES RELATED TO THE MACROSECTORAL MODEL HERMES.'
p558
(lp559
S'None'
p560
asS'17th international conference on structural mechanics in reactor technology'
p561
(lp562
S'SMIRT-17'
p563
asS'7th Global Forum on Bioethics 2006'
p564
(lp565
S'FORUM-BIOETHICS-06'
p566
asS'"identification of novel proteins involved in neuronal polarization"'
p567
(lp568
S'BEATRIZ GIL'
p569
asS'400IST THE COMMISSION IN ITS COORDINATING ACTION'
p570
(lp571
S'None'
p572
asS'* Basic Support for Technology Work 1. Next Step Task Areas 2. Long Term Task Areas'
p573
(lp574
S'BASIC SUPPORT FOR TE'
p575
a(lp576
S'BASIC SUPPORT FOR TE'
p577
aasS'18 ROW HOUSES "AM LINDENWAELDE" IN FREIBURG'
p578
(lp579
S'None'
p580
asS'* Fusion technology 1-technology for net m()p()t()n()r() 2-blanket technology sbb(bsbe-1) 3-long-term technology European blanket project (EBP)'
p581
(lp582
S'FUSION TECHNOLOGY 1-'
p583
asS'"VHTP in Support of Diagnostics Integration" This activity is undertaken by Dr A. Malaquias under the visiting home team personnel scheme.'
p584
(lp585
S'VHTP IN SUPPORT OF D'
p586
asS'100 KW AUTONOMOUS WIND/DIESEL SYSTEM FOR LANNION'
p587
(lp588
S'None'
p589
asS'2nd Workshop on Holistic Fisheries Management and 11th Meeting of directors of Fisheries Research Organisations of the European Union'
p590
(lp591
S'None'
p592
asS'8 ion source bodies for the neutral beam enhancement'
p593
(lp594
S'ION SOURCE BODIES'
p595
asS'"son nmr large scale facility for biomolecular research"'
p596
(lp597
S'SONNMRLSF'
p598
a(lp599
S'SONNMRLSF'
p600
aasS'* Gb8-v62 irradiation creep testing of inconel 718'
p601
(lp602
S'GB8-V62 IRRADIATION'
p603
asS'2 real applications for requirements engineering'
p604
(lp605
S'2RARE'
p606
asS'2-D Coherent Optical Dynamic Processor'
p607
(lp608
S'COOP'
p609
asS'3d statistical and physics-based deformable models for image sequence analysis'
p610
(lp611
S'None'
p612
asS'"Pan-European Pro-active Identification of Emerging Risks in the Field of Food Production"'
p613
(lp614
S'PERIAPT'
p615
asS'3D modelling with sequential integrated inversion of Pand S Travel Times from local earthquakes and gravity data: the crustal structure of the Eastern Carpathians in Romania'
p616
(lp617
S'SIILEG'
p618
asS'4th mp euro-med summer school'
p619
(lp620
S'None'
p621
a(lp622
S'None'
p623
aasS'5mw Innovative Wind Turbine Suitable For On Land And Offshore Installations'
p624
(lp625
S'INNOWT5000'
p626
asS'200 DEGREE EXTENDED LIFE FUL HT ASIC MEMORY QUARTZ GAUGE'
p627
(lp628
S'None'
p629
asS'13MW CHP plant based on biomass Gasifier with gas engines'
p630
(lp631
S'BGGE'
p632
asS'9th meeting of the european society of gene therapy esgt'
p633
(lp634
S'None'
p635
asS'"development of an efficient photovoltaic power supply in space"'
p636
(lp637
S'None'
p638
asS'2nd european congress of chemical engineering'
p639
(lp640
S'ECCE-2'
p641
asS'"Modelling of TBC-behaviour on cooled Ni-Superalloys"'
p642
(lp643
S'TBC-MODELLING'
p644
asS' PLASMODIUM FA'
p645
(lp646
S'HIV-1'
p647
a(lp648
S'HIV-1'
p649
aasS'7th Conference and Exhibition of the European Ceramic Society'
p650
(lp651
S'None'
p652
a(lp653
S'None'
p654
aasS'"removal mechanism of heavy metal contamination"'
p655
(lp656
S'None'
p657
asS'"organisation of the 14th european contest for young scientist" to be held in vienna 22-28 september 2002'
p658
(lp659
S'None'
p660
asS"'cultural soils' : new approaches to determine their significance and sustainability under various land management systems."
p661
(lp662
S'None'
p663
asS'1.4. Tph microstructure of carbon-based materials and oxide ceramics 2.1. Tvp microstructure of carbon-based materials and tungsten containing'
p664
(lp665
S'PHYSICS INTEGRATION'
p666
asS'6th International meeting on Ribonucleases'
p667
(lp668
S'None'
p669
asS'4th International Conference on VIBRATION MEASUREMENTS by LASER TECHNIQUES: advances and applications & SHORT COURSE ON LASER VIBROMETRY'
p670
(lp671
S'None'
p672
a(lp673
S'None'
p674
aasS'100 KW WIND TURBINE CONNECTED TO THE IRISH NETWORK'
p675
(lp676
S'None'
p677
asS'21 SMALL PV GRID CONNECTED HOUSES'
p678
(lp679
S'PHEBUS 93'
p680
asS'3-D Monitoring of Active Tectonic Structure'
p681
(lp682
S'None'
p683
asS'6blm'
p684
(lp685
S'6BLM'
p686
a(lp687
S'6BLM'
p688
aasS'"integrated regional impact studies in the european north: basic issues, methodologies and regional climate models-ii"'
p689
(lp690
S'None'
p691
asS'"partecipation au budget de l\'association international pour la promotion de la collaboration avec les scientifiques de l\'ex urss"( engagement 1999 pour la couverture des projets call 2000)'
p692
(lp693
S'EX-URSS-1999'
p694
asS'2001: A Speaker Odyssey - The Speaker Recognition Workshop'
p695
(lp696
S'None'
p697
a(lp698
S'None'
p699
aasS'"spatial orientation: sensorimotor system research in humans and animals"'
p700
(lp701
S'SMS RESEARCH'
p702
asS'"global health equity: medical progress and quality of life in the xxist century" (CIPGS)'
p703
(lp704
S'CIPGS'
p705
asS'10th International Symposium on Phototrophic Prokaryotes'
p706
(lp707
S'None'
p708
a(lp709
S'None'
p710
aasS'2nd European Conference on Neutron Scattering Budapest, Hungary, September 1-4, 1999'
p711
(lp712
S'None'
p713
asS'10 KWP-SOLAR PLANT IN BERLIN'
p714
(lp715
S'None'
p716
asS'"innovative and efficient knives surfaces modification in first transformation of wood (chipper, canter and peeling machine)"'
p717
(lp718
S'KNIWOOD'
p719
asS'3G European Location Based Advertising'
p720
(lp721
S'ELBA'
p722
a(lp723
S'ELBA'
p724
aasS'* Gb8-tr1 tokamak exhaust processing gb8-tr3 qualification of components for the tritium plant of iter gb8-tr5 waste conditioning gb8-tr6 development and demonstration with tritium of a tritium recovery process'
p725
(lp726
S'GB8-TR1 TOKAMAK EXHA'
p727
asS'"HANDS" REMOTE ADJUSTABLE BENTHOUSING'
p728
(lp729
S'None'
p730
asS'"GUARDSpecific Support Action for CIVITAS II"'
p731
(lp732
S'GUARD'
p733
asS'"VHTP in Support of the Design of the Magnet System" This activity is undertaken by Mr. M. Ferrari under the visiting home team personnel scheme'
p734
(lp735
S'VHTP IN SUPPORT OF D'
p736
asS'"The Blue Revolution" - a two part popular science tv-documentary on marine aquaculture'
p737
(lp738
S'BLUR'
p739
asS'* EBP/SM 3.1.1 In situ embrittlement during hydrogen implantation. EBP/SM 3.2.1-3 Specimen preparation, tests on virgin materials, tests on implanted materials.'
p740
(lp741
S'EBP/SM 3.1.1 IN SITU'
p742
asS'7th moco euro mediterranean partnership 16-18 april 2000'
p743
(lp744
S'None'
p745
asS'"two- phases conference on biodiversity and dynamics of ecosystems in north eurasia" to be held in akademgorodok,novosibirsk'
p746
(lp747
S'None'
p748
asS'3D STRUCTURAL MODELLING TOOLS APPLIED TO 3 HYDROCARBON CASE STUDIES'
p749
(lp750
S'None'
p751
asS'1 2 MW WIND TURBINE INTEGRATED IN A TOTAL ENERGY SYSTEM FOR THE ISLAND OF HELGOLAND'
p752
(lp753
S'None'
p754
asS'"mechanisms of formation of ionizing radiation-induced chromosomal aberrations: impact of repair pathways and nuclear architecture"'
p755
(lp756
S'None'
p757
a(lp758
S'None'
p759
aasS'3rd Generation Igcc - Demonstration (400 Mw) at Vresova, Czech Republic'
p760
(lp761
S'EUCLID POWER'
p762
asS'2000 IEEE-INNS-ENNS International Joint Conference on Neural Networks'
p763
(lp764
S'None'
p765
asS'"In the field" Energy management in the housing sector: A multi-media training programme aimed at maintenance staff in residential buildings'
p766
(lp767
S'None'
p768
asS'12th Meeting of Directors of Fisheries Research Organisation of EU'
p769
(lp770
S'None'
p771
asS'* Fusion technology 1-technology for net m()p()t()n()r() 2-blanket technology SBB(bsbe-1) 3-long-term technology European blanket project (EBP)'
p772
(lp773
S'FUSION TECHNOLOGY 1-'
p774
a(lp775
S'FUSION TECHNOLOGY 1-'
p776
aasS'7th International Conference on Nuclear Microprobe Technology and Applications 10-15 September 2000, Paris, France'
p777
(lp778
S'None'
p779
a(lp780
S'None'
p781
aasS'"LIQUEFACTION LOW SEVERITY CONDITIONS. THE CATALYSED DEPOLYMERIZATION AS A PRETREATMENT FOR COAL LIQUEFACTION."'
p782
(lp783
S'None'
p784
asS'1D, 2D and 3D tunable composite photonic crystals for the visible-infrared spectral range'
p785
(lp786
S'None'
p787
asS'11th european carbohydrate symposium'
p788
(lp789
S'EUROCAB XI'
p790
asS'"Alternance" training in European higher education'
p791
(lp792
S'ATEE'
p793
asS'4th european symposium on biochemical engineering science'
p794
(lp795
S'ESBES-4'
p796
asS'"corrosion certification: the european approach" (efc event no.253)'
p797
(lp798
S'None'
p799
asS' ECRH, CONTRI'
p800
(lp801
S'JET EP'
p802
a(lp803
S'JET EP'
p804
aasS'"ELECTRICITY/HEAT" CO-GENERATION : A PROMISING SOURCE'
p805
(lp806
S'None'
p807
asS'5th ULLA Summer School for Postgraduate Training and Research'
p808
(lp809
S'None'
p810
a(lp811
S'None'
p812
aasS'3D geodynamic modelling of sedimentary basin and passive margin formation'
p813
(lp814
S'3DGEODYNAMICS'
p815
asS'20 KW HEAT PUMP DRIVEN BY AN INTERNAL COMBUSTION ENGINE'
p816
(lp817
S'None'
p818
asS'"fuel cell and hydrogen store for integration into automobiles" (FUCHSIA)'
p819
(lp820
S'FUCHSIA'
p821
asS'15th iac symposium'
p822
(lp823
S'None'
p824
a(lp825
S'None'
p826
aasS'15th European young scientists contest - Budapest 20-26 september 2003'
p827
(lp828
S'YSC 2003 - BUDAPEST'
p829
asS'18 5 KW WIND TURBINE FOR GREENHOUSE HEATING'
p830
(lp831
S'None'
p832
asS'100% biodegradable diaper'
p833
(lp834
S'None'
p835
a(lp836
S'None'
p837
aasS'"Advances in European Chemistry Research and R&D for the 21st Century by Younger Researchers from University Industrial, and National Laboratories"'
p838
(lp839
S'None'
p840
a(lp841
S'None'
p842
aa(lp843
S'None'
p844
aasS'3D CHARACTERIZATION OF DEFECTS IN MECHANICAL PARTS BY MULTI RADIOGRAPHY USING C.A.D. MODELS'
p845
(lp846
S'RADICAD'
p847
asS'25 MW STRAW FIRED FLUIDISED BED, HIGH EFFICIENCY DISTRICT HEATING POWER PLANT IN PAMPLONA'
p848
(lp849
S'None'
p850
asS'"direct methanol fuel cell system for car applications"( DREAMCAR)'
p851
(lp852
S'DREAMCAR'
p853
asS'* Fusion technology - technology r &d for the next step 2 - technology R&D for the longer term. Amendm 10'
p854
(lp855
S'TCN NEXT STEP 2 - TE'
p856
asS'3D insulation bodies'
p857
(lp858
S'3DIB'
p859
asS'4th european conference on grain legumes: towards the sustainable production of healthy food, feed and novel products'
p860
(lp861
S'GRAIN LEGUMES CONF.0'
p862
asS'"mid-european clay conference 2001"'
p863
(lp864
S'None'
p865
asS'"In what" and "how much" are individuals similar and different? Towards the measurement of the individual susceptibility to diseases or response to treatments'
p866
(lp867
S'BIOEMERGENCES'
p868
asS'^10be / ^9be ratios in authigenic minerals: a new dating method in prehistory.'
p869
(lp870
S'None'
p871
asS'"SAPER ESSERE", TRAINING MODEL ON INDIVIDUAL AND SOCIAL COMPETENCIES'
p872
(lp873
S'None'
p874
asS'4th european conference on grain legumes: towards the sustainable production of healthy food, feed and novel products - conference participant support.'
p875
(lp876
S'None'
p877
asS'"RIP-RAP" PROTECTION OF SUBSEA PIPELINES WITH UNDERWATER VEHICLE "VELPO"'
p878
(lp879
S'None'
p880
asS'6th Global Forum on Bioethics 2005'
p881
(lp882
S'FORUM-BIOETHICS-05'
p883
asS'2nd European workshop on animal cell engineering'
p884
(lp885
S'CELL ENGINEERING'
p886
asS'6th european international conference on biocatalysis and biotransformations'
p887
(lp888
S'BIOTRANS'
p889
asS'* T252 radiation tolerance assessment of standard components for remote handling and process instrumentation t329-1 bore tooling for divertor cooling pipe t329-5 in-vessel RH dextrous operation WP a 5.1 tritium extraction from pb-17'
p890
(lp891
S'T252 RADIATION TOLER'
p892
asS'11th European Conference on Composite Materials (From Nano Interactions to Engineering Structures)'
p893
(lp894
S'ECCM 11'
p895
asS'160 KW WIND TURBINE DRIVING A HYDRAULIC MECHANICAL/THERMAL POWER CONVERSION FOR COMMERCIAL GREENHOUSES'
p896
(lp897
S'None'
p898
asS'2002 Global Wind Power Conference and Exhibition'
p899
(lp900
S'2002 GLOBAL WINDPOWE'
p901
asS'100% RES Communities'
p902
(lp903
S'None'
p904
asS'14 th european conference on fracture'
p905
(lp906
S'ECF14'
p907
asS"'Special Relations' in International Politics"
p908
(lp909
S'SPECIAL RELATIONS'
p910
asS'500 Years After'
p911
(lp912
S'None'
p913
asS'2007 Researchers Night in Iceland'
p914
(lp915
S'VAKA2007'
p916
asS'"Thrombophilia and atherothrombosis" - scientific and educational symposium under the aegis of European Thrombosis Research Organization'
p917
(lp918
S'None'
p919
asS'* Cost Estimate for BE Plasma Spraying'
p920
(lp921
S'BASIC SUPPORT FOR TE'
p922
asS'* T214 mechanical testing of powder hip 416 steel irradiated to 2.5 DPA'
p923
(lp924
S'T 214 MECHANICAL TES'
p925
asS'85 SOLAR EQUIPMENTS WITH TELEMONITORING FOR PRIVATE HOUSES IN FRANCE AND CATALONIA'
p926
(lp927
S'SOLMI'
p928
asS'6th Symposium on Nonlinear Control Systems - NOLCOS 2004'
p929
(lp930
S'NOLCOS 2004'
p931
asS'5th Dimension - Local Learning Communities in a global world'
p932
(lp933
S'5D'
p934
a(lp935
S'5D'
p936
aasS'300 mm unified front opening pods and open cassettes sorter'
p937
(lp938
S'POCS'
p939
a(lp940
S'POCS'
p941
aasS'58th meeting of Nobel Laureates at Lindau in 2008'
p942
(lp943
S'LINDAU NOBEL'
p944
asS'"regulation and physiological consequences of the starvation-induced cleavage of 14-3-3-binding proteins"'
p945
(lp946
S'POZUELO RUBIO, MERCE'
p947
asS'"molecular strategies for adaptation and survival : postgenomic analysis of the lifestyles of listeria monocytogenes in the environment and the infected host"'
p948
(lp949
S'REALIS'
p950
asS' ECRH, CONTR.'
p951
(lp952
S'JET EP'
p953
asS"'international consortium on ticks and tick-borne diseases'"
p954
(lp955
S'None'
p956
asS'50 Kw Pem Fuel Cell Generator For Chp And Ups Applications'
p957
(lp958
S'50PEM-HEAP'
p959
a(lp960
S'50PEM-HEAP'
p961
aasS'30-year re-analysis of CARBON fluxES and pools over Europe and the Globe'
p962
(lp963
S'CARBONES'
p964
asS'"Synthesis of Systematic Resources"'
p965
(lp966
S'SYNTHESYS'
p967
asS'6th International Science and Technology (S&T) Indicators Conference'
p968
(lp969
S'6ISTIC'
p970
asS'3 - dimensional analysis of vascular structure, function and receptor distribution using confocal laser scanning microscopy.'
p971
(lp972
S'VASCAN-2000'
p973
asS'20-20 3D Media: Spatial sound and vision'
p974
(lp975
S'20-20 3D MEDIA'
p976
a(lp977
S'20-20 3D MEDIA'
p978
aasS'160 KW WINDTURBINE WITH HYDRAULIC TRANSMISSION AT SCHIEDAM'
p979
(lp980
S'None'
p981
asS'5th International symposium on geographical information systems (GIS) and computer cartography for COASTal zone management'
p982
(lp983
S'COASTGIS 2003'
p984
a(lp985
S'COASTGIS 2003'
p986
aasS'2 EME PHASE DE LA COMPILATION DES DONNEES SUR LA DUCTILITE ET LA RESISTANCE A LA RUPTURE SOUS CONTRAINTE DES ACIERS 9 ET 12 CR EVALUATION DES DONNEES'
p987
(lp988
S'None'
p989
asS'18th meeting of the european society of animal cell technology. granada, may 2003'
p990
(lp991
S'ESACT 2003'
p992
asS'"Hearing voices" - From cognition to brain systems'
p993
(lp994
S'VOICE'
p995
asS'4th International Trade Fair and Hands-on Courses 16^th International Congress LASER FLORENCE 2001 - A Windows on Laser Medicine Word'
p996
(lp997
S'None'
p998
a(lp999
S'None'
p1000
aasS'* EBP sm1.1 improvement of RAFM steel for DBTT and radiation hardening EBP sm1.3 dimensional stability under displacement and gas formation EPB sm6.2 micro-structural stability under irradiation UT/reduced activation titanium alloys'
p1001
(lp1002
S'M49 TECHNOLOGICAL TE'
p1003
asS"'Dead End': An economic and cultural history of Japan in the Age of the Great Depression, 1927-1937"
p1004
(lp1005
S'JAPANGREATDEPRESSION'
p1006
asS'"10 Years of Hercules" Euroconference'
p1007
(lp1008
S'None'
p1009
a(lp1010
S'None'
p1011
aasS'"development of continue, intelligent, autonomous, real time monitoring and alarming system for radon detection in water"'
p1012
(lp1013
S'None'
p1014
asS'20 SMALL GAS-FIRED ABSORPTION HEAT PUMPS'
p1015
(lp1016
S'None'
p1017
asS'10th European Heterostructure Technology Workshop'
p1018
(lp1019
S'None'
p1020
asS'"a comparison between european and mediterranean models of innovation:the case of research joint ventures"'
p1021
(lp1022
S'None'
p1023
asS'"The validity of different survey methods to measure risk behaviour for HIV and STI - Comparison of self-reports and biomedical data"'
p1024
(lp1025
S'MEASURE RISK!'
p1026
asS'"TELEOPERATEUR DE VANNE" QUALIFICATION'
p1027
(lp1028
S'TOV'
p1029
asS'* Contribution to ITER design studies: plasma control and ac losses'
p1030
(lp1031
S'PLASMA CONTROL AND A'
p1032
a(lp1033
S'PLASMA CONTROL AND A'
p1034
aasS'3D shape and material properties for recognition'
p1035
(lp1036
S'INSIGHT2+'
p1037
a(lp1038
S'INSIGHT2+'
p1039
aasS'160 KW WIND TURBINE IN COMBINATION WITH TOTAL ENERGY AGGREGATE'
p1040
(lp1041
S'None'
p1042
asS'"international conference on environmental observation,modeling and information system as tool for urban/regional pollution reabilitation"to be held intomsk in october 24-28,2000'
p1043
(lp1044
S'None'
p1045
asS'5 Year Assessment PC 3 - 4 - 5'
p1046
(lp1047
S'5 YEAR ASSESSMENT'
p1048
a(lp1049
S'5 YEAR ASSESSMENT'
p1050
aa(lp1051
S'5 YEAR ASSESSMENT'
p1052
aa(lp1053
S'5 YEAR ASSESSMENT'
p1054
aasS'2ND GENERATION TRISOL SYSTEMS FOR MULTIPLE HOUSES BY DEVELOPERS'
p1055
(lp1056
S'None'
p1057
asS'1) EXPOSURE TO AND EXCRETION OF THALLIUM#2) BEHAVIORAL EFFECTS OF METALS IN RATS: THALLIUM, AND INTERACTIONS OF LEAD....'
p1058
(lp1059
S'None'
p1060
asS'6 MWTH KOENIG LUDWIG ATMOSPHERIC FLUIDIZED BED COMBUSTION PLANT'
p1061
(lp1062
S'None'
p1063
a(lp1064
S'None'
p1065
aasS'150 KW GRID CONNECTED WIND TURBINE COUPLED TO AN EXISTING THREE LEVEL PUMPING STATION IN CRETA ISLAND'
p1066
(lp1067
S'None'
p1068
asS'"spacecraft laser propulsion"'
p1069
(lp1070
S'None'
p1071
asS'6th conference of european foundation for plant pathology: resistance in plant pathology'
p1072
(lp1073
S'EFPP2002'
p1074
asS'* Ut ismc fusion materials irradiation and testing'
p1075
(lp1076
S'UT ISMC FUSION MATER'
p1077
asS'7th International Conference on Electronic Ceramics and Their Applications'
p1078
(lp1079
S'None'
p1080
a(lp1081
S'None'
p1082
aasS'2.3.3/10 detailed service analysis (Galileo). subtask 2: user tools'
p1083
(lp1084
S'POLARIS'
p1085
asS'"MOLECULAR MECHANISMS OF ALTERNATIVE PRE-mRNA SPLICING: FUNCTION OF SPF45 AND ITS ROLE IN b-THALASSEMIA"'
p1086
(lp1087
S'SPF45/B-THALLASSEMIA'
p1088
asS'"calibration and validation of the earth observation sensor gli on adeos 2"'
p1089
(lp1090
S'None'
p1091
asS'9th meeting of monitoring committee for the euro-mediterranean cooperation in rtd'
p1092
(lp1093
S'None'
p1094
asS'2nd International Conference on The Navier-Stokes Equations: Theory and Numerical Methods'
p1095
(lp1096
S'None'
p1097
asS'"Common framework (in Europe) for methodologies and measures for establisishing, implementing, evaluating and auditing appropriate quality assurance and radiation protection practices in medical imaging procedures"'
p1098
(lp1099
S'COMFRAMED'
p1100
asS'90 KW WIND TURBINE AT THE AKARNANIKA RELAY STATION AT AN ALTITUDE OF 1412 M'
p1101
(lp1102
S'None'
p1103
asS'55 KW WIND TURBINE FOR INDEPENDENT POWER GENERATION FROM COMBINED WIND, HYDRO AND DIESEL PLANT WITH PUMPED STORAGE'
p1104
(lp1105
S'None'
p1106
asS"2008 Researchers' Night: The Greek events"
p1107
(lp1108
S'REN2008'
p1109
asS'"Towards a European-wide Exchange Network for improving dissemination of integrated Resources Management Research Outcomes"'
p1110
(lp1111
S'IWRM.NET'
p1112
asS'330 KWP TRACKING SUBFIELD AT THE 3 3 MWP SERRE PV POWER STATION'
p1113
(lp1114
S'None'
p1115
asS'"comparative genomics and gene expression of clinical strains of m.tuberculosis"'
p1116
(lp1117
S'None'
p1118
asS'"science and society:the public understanding of science"universite de la sorbonne,paris 30 november and 1st december 2000'
p1119
(lp1120
S'None'
p1121
asS'4-D SEISMIC RESERVOIR MANAGEMENT'
p1122
(lp1123
S'None'
p1124
asS'3D on-line surface inspection of machined components using a computer aided vision system'
p1125
(lp1126
S'None'
p1127
asS'3D and speech interfacing technologies'
p1128
(lp1129
S'INTERACT'
p1130
asS'"ON-LINE REAL-TIME" COMBUSTION FOR INCREASING ENERGY SAVINGS IN COWPERS'
p1131
(lp1132
S'None'
p1133
asS'3-d radiation imaging detectors'
p1134
(lp1135
S'3D-RID'
p1136
asS"2006 Researchers' night in Iceland"
p1137
(lp1138
S'2006 VISINDANOTT'
p1139
asS'10 Mw Solar Thermal Power Plant in Southern Spain'
p1140
(lp1141
S'PS10'
p1142
asS'4th Forum of European Neuroscience'
p1143
(lp1144
S'FENS FORUM 2004'
p1145
asS'10th International Cold Forging Congress 2000'
p1146
(lp1147
S'None'
p1148
asS'3-D Motion Analysis in Full Scale Wind Turbines. A new tool for dynamic in-field testing by non-contacting camera/computer measurement system'
p1149
(lp1150
S'None'
p1151
asS"//cordis.europa.eu/MailAnon/index.cfm?fuseaction=Hiding.PostalForm&address=004c0049005600450040005700450042002e0043004f004d' target='_blank' >Contact</a> : Live Interaction with Video Broadcast over the Web: a new Approach to E-Commerce"
p1152
(lp1153
S"<a href='http"
p1154
asS'" ruthenium catalysed synthesis of n-heterocycles: applications to natural products synthesis "'
p1155
(lp1156
S'None'
p1157
a(lp1158
S'None'
p1159
aasS'5th congress of the european foundation for plant pathology : biodiversity in plant pathology'
p1160
(lp1161
S'EFPP 2000'
p1162
asS'20 KW INTEGRATED WIND DIESEL SYSTEMS WITH OPTIMIZED POWER SHARING'
p1163
(lp1164
S'None'
p1165
asS'5000 KW ADVANCED HYDROGEN ELECTROLYSIS PLANT'
p1166
(lp1167
S'None'
p1168
asS'5mw innovative wind turbine suitable for on land and offshore installations'
p1169
(lp1170
S'INNOWT5000'
p1171
asS'350 KW VERTICAL AXIS WIND TURBINE ON THE ISLAND OF ANDROS'
p1172
(lp1173
S'None'
p1174
asS'2nd international conference on newborn hearing screening, diagnosis and intervention (NHS 2002)'
p1175
(lp1176
S'ICONHSDAI'
p1177
asS'"Measuring" urban landscape - from hermeneutic approach to sociological / spatial analysis'
p1178
(lp1179
S'URBANSCAPE SYNTAX'
p1180
asS'2.5-3G Data Billing Technology Implementation'
p1181
(lp1182
S'FREE-G'
p1183
a(lp1184
S'FREE-G'
p1185
aasS"5eme conference inter-regionale sur l' environnement et l' eau : envirowater 2002 "
p1186
(lp1187
S'ENVIROWATER2002'
p1188
asS'2000 adbis-dasfaa'
p1189
(lp1190
S'2000 ADBIS-DASFAA'
p1191
asS"'producing culture' - local milieu and international competitiveness in cultural industries"
p1192
(lp1193
S'None'
p1194
asS' 27.5.99'
p1195
(lp1196
S'ETHICATT'
p1197
asS'13th SYMPOSIUM ON MICRODOSIMETRY. An Interdisciplinary Meeting on: Radiation Quality, Molecular Mechanisms, Cellular Effects and Health Consequences of Low Level Ionising radiation. 5th Intern. Workshop on Microbeam probes of Cellular radia'
p1198
(lp1199
S'None'
p1200
asS'3g-Nanotechnology based targeted drug delivery using the inner ear as a model target organ'
p1201
(lp1202
S'NANOEAR'
p1203
asS'1:1 million digital database covering Europe'
p1204
(lp1205
S'EUROGLOBALMAP'
p1206
asS'3 MW WIND ENERGY CONVERTER'
p1207
(lp1208
S'AEOLUS 2'
p1209
asS'"town and infrastructure planning for safety and urban quality for pedestrians" in the frame of cost action c6'
p1210
(lp1211
S'None'
p1212
asS'3D Optical Turbulence Forecasts above Astronomical Sites'
p1213
(lp1214
S'FOROT'
p1215
asS'10th Meeting of Directors of Fisheries EU Research Organisations'
p1216
(lp1217
S'None'
p1218
asS'6th World Congress of the Bernoulli and IMS societies'
p1219
(lp1220
S'BS/IMS 2004'
p1221
asS'3rd european symposium "regional cornerstones for sustainable development"'
p1222
(lp1223
S'None'
p1224
asS'"Combating Infectious Diseases in the European Research Area"'
p1225
(lp1226
S'CID-ERA'
p1227
asS'1999 Annual Meeting of the European Association for the Study of Diabetes (EASD) Islet Study Group'
p1228
(lp1229
S'None'
p1230
a(lp1231
S'None'
p1232
aasS'* Magnet and tokamak water cooling sys-tem (WTCS) design and costing ITER task agreement: not yet assigned'
p1233
(lp1234
S'MAGNET AND TOKAMAK W'
p1235
asS'80 KW VERTICAL AXIS MACHINE FOR ELECTRICITY PRODUCTION ON SKYROS ISLAND'
p1236
(lp1237
S'None'
p1238
asS'810 KW LOW HEAD HYDRO PLANT WITH THREE SUBMERSIBLE MONOBLOC FLYGT HYDROGENERATORS'
p1239
(lp1240
S'None'
p1241
asS'"Living" Building Blocks for Self-Designing Artefacts'
p1242
(lp1243
S'HYDRA'
p1244
a(lp1245
S'HYDRA'
p1246
aasS'12th EUROPEAN CELL CYCLE CONFERENCE: EuroConference on Cell Cycle Control in Normal and Malignant Cells'
p1247
(lp1248
S'None'
p1249
asS'* EBP/SM 1.3 Dimensional stability under displacement and gas formation'
p1250
(lp1251
S'EBP/SM 1.3 DIMENSION'
p1252
asS'13th International Conference on Cytochromes P450: biochemistry, biophysics, and drug metabolism'
p1253
(lp1254
S'None'
p1255
a(lp1256
S'None'
p1257
aasS'"241 cost project: characterization of advanced optical fibres for photonic network"'
p1258
(lp1259
S'None'
p1260
asS'2-D AND 3-D GARMENT MODELLING'
p1261
(lp1262
S'None'
p1263
asS'5th International Conference on Hydroscience and Engineering, Warsaw University of Technology, Warsaw, Poland, September 18-21, 2002'
p1264
(lp1265
S'None'
p1266
asS'5th Carolus Magnus Euro Summer School on Plasma and Fusion Energy Physics'
p1267
(lp1268
S'None'
p1269
a(lp1270
S'None'
p1271
aasS'300mm unified pods and cassettes centrifugal force cleaner'
p1272
(lp1273
S'CFC'
p1274
asS'21st International Congress on Theoretical and Applied Mechanics'
p1275
(lp1276
S'ICTAM 2004'
p1277
asS'"second eu-us conference"new vistas in transatlantic science and tecnology co-operation'
p1278
(lp1279
S'None'
p1280
asS'3 PHASE HYDROCYCLONE SEPARATOR (LIQUIDS/SOLIDS)'
p1281
(lp1282
S'3P-HYSEP'
p1283
asS"'Vavilov's way' Phase I: Collecting and conserving germplasm of plant species resistant to abiotic stresses"
p1284
(lp1285
S'None'
p1286
asS'"improvement of steels and tools for thixoforming of complex structural parts"'
p1287
(lp1288
S'THIXOCOMP'
p1289
asS'4D TOMOGRAPHIC AND AVO INVERSION OF SEISMIC LITHOLOGY FOR HYDROCARBON EXPLORATION AND PRODUCTION'
p1290
(lp1291
S'4D-TAIL'
p1292
asS'1988 Integrated European course in mechatronics'
p1293
(lp1294
S'None'
p1295
asS'* GB8-V61 Titanium alloys irradiation testing. GB8-V63 Improved materials and joints irradiation testing UT ISMC Effects of irradiation on physical and mechanical properties of metals and alloys.'
p1296
(lp1297
S'EBP/SM 1.3 DIMENSION'
p1298
asS'3P - HYSEP (3 PHASES HYDROCYCLONE SEPARATOR LIQUIDS/SOLIDS)'
p1299
(lp1300
S'None'
p1301
asS'2-generator discrete groups and hyperbolic orbifolds'
p1302
(lp1303
S'NKHYPORB'
p1304
asS'(re)storation of (b)ladder function by n(e)uroprostheti(c)s (rebec)'
p1305
(lp1306
S'REBEC NEUROMODULATIO'
p1307
asS'"QUALITY IMPROVEMENT OF PYROLITYC OILS FROM BIOMASS"'
p1308
(lp1309
S'None'
p1310
asS'(Nano)-Materials for cell Growth, Imaging and Communication'
p1311
(lp1312
S'MAGIC'
p1313
asS'"Cell Maintenance and Cell Death"'
p1314
(lp1315
S'None'
p1316
a(lp1317
S'None'
p1318
aasS'* Fusion technology 1-technology for net 2-blanket technology 3 long term technology- European blanket project (EBP)'
p1319
(lp1320
S'TCN NEXT STEP 2 - TE'
p1321
asS'1 kw dmfc portable power generator (PORTAPOWER)'
p1322
(lp1323
S'PORTAPOWER'
p1324
asS'6 MW WIND FARM AT TARIFA - SOUTH SPAIN'
p1325
(lp1326
S'None'
p1327
asS'1 5 MW WIND TURBINE NORTHERN IRELAND'
p1328
(lp1329
S'None'
p1330
asS'250 KW WINDTURBINE AT A FISH AUCTION IN DEN HELDER'
p1331
(lp1332
S'None'
p1333
asS'"no-touch" robotic technology for preparing fresh-cut fruits and vegetables products based on machine vision and water-jet cutting'
p1334
(lp1335
S'None'
p1336
asS'"accessibility to public utility buildings for the urban citizens with mobility impairments. socio-economic comparative studies."'
p1337
(lp1338
S'PUB+'
p1339
asS'0S2500/78-Demonstration of a large scale, Second Generation, Off Shore Wind Turbine, complying with new grid requirement'
p1340
(lp1341
S'OS2500'
p1342
asS'"ARCH" TRAINING STANDARD FOR END USER COMPUTING'
p1343
(lp1344
S'None'
p1345
asS'* Review of balance of plant design and costing ITER task agreement: not yet assigned'
p1346
(lp1347
S'REVIEW OF BALANCE OF'
p1348
asS'5 Year assessment PC 3 - 4 - 5'
p1349
(lp1350
S'5 YEAR ASSESSMENT'
p1351
asS'1 MW DECENTRALIZED AND BUILDING INTEGRATED PV SYSTEM IN A NEW HOUSING AREA OF A CITY'
p1352
(lp1353
S'None'
p1354
asS'3 MW WIND FARM IN REMOTE AREA, INNOVATIVE CONTROL SYSTEM'
p1355
(lp1356
S'None'
p1357
asS'42 KW PV POWER PLANT FOR UTILITY GRID CONNECTION IN MENORCA'
p1358
(lp1359
S'None'
p1360
asS'3-DIMENSIONAL SCANNING ANALYTICAL LASER MICROSCOPE'
p1361
(lp1362
S'None'
p1363
asS'3G Mobile CONtext SENSitive adaptability\r'
p1364
(lp1365
S'CONSENSUS'
p1366
asS'"10th International Conference on Bioinorganic Chemistry: financial support for travels and subsistence for east countries scientists participation"'
p1367
(lp1368
S'None'
p1369
asS'2 4 MW PLOUYE WIND FARM IN WESTERN CENTER BRITTANY'
p1370
(lp1371
S'None'
p1372
asS'"methadone maintenance and health care for drug users: identifying best praxis" (MEHIB)'
p1373
(lp1374
S'MEHIB'
p1375
asS'"VHTP in Support of the Design of the Power Supply". This activity is undertaken by Mr. A. Maschio under the Visiting home team personnel scheme'
p1376
(lp1377
S'VHTP IN SUPPORT OF T'
p1378
asS'13th European Conference on Chemical Vapour Deposition'
p1379
(lp1380
S'None'
p1381
a(lp1382
S'None'
p1383
aasS'* EFET EWIV Contribution to SEAFP-99 Occupational Doses and Their Economic Impacts ITER Task Agreement: none'
p1384
(lp1385
S'EFET CONTRIBUTION TO'
p1386
asS'175 KW KARPATHOS ISLAND WIND POWER PLANT'
p1387
(lp1388
S'None'
p1389
asS'2nd generation automatic steel inspection for hot rolled products'
p1390
(lp1391
S'None'
p1392
asS'1st fems congress of european microbiologists'
p1393
(lp1394
S'FEMS CONGRESS'
p1395
asS'* T308/1 divertor remote handling development t308/5 divertor refurbishment platform EBP b3.3.1 pre-tests and fabrication of the 1st test module for he-fus3'
p1396
(lp1397
S'T308/1 DIVERTOR REMO'
p1398
asS'96 SOLAR ENERGY HOUSES COUPLED TO SEASONAL HEAT STORAGE AT GRONINGEN'
p1399
(lp1400
S'None'
p1401
asS'2ND GENERATION PFBC COGENERATION PLANT FOR EASTERN GERMAN LIGNITE'
p1402
(lp1403
S'None'
p1404
a(lp1405
S'None'
p1406
aasS'3D contour and strain mapping for non-destructive evaluation of engineering components'
p1407
(lp1408
S'STRAINMAP'
p1409
asS'1 MW photovoltaic (PV) power plant in the centre of Spain'
p1410
(lp1411
S'TOLEDO PV-1'
p1412
asS' ECRH'
p1413
(lp1414
S'JET EP'
p1415
a(lp1416
S'JET EP'
p1417
aa(lp1418
S'JET EP'
p1419
aa(lp1420
S'JET EP'
p1421
aa(lp1422
S'JET EP'
p1423
aa(lp1424
S'JET EP'
p1425
aa(lp1426
S'JET EP'
p1427
aa(lp1428
S'JET EP'
p1429
aasS'"Practice firms - Practise for Europe." Simulated firms as a European initial training tool'
p1430
(lp1431
S'None'
p1432
asS'3d european conference on computational chemisty'
p1433
(lp1434
S'None'
p1435
asS'"Learning islands" in the production process'
p1436
(lp1437
S'None'
p1438
asS'10th World congress on Health and Medical Informatics (UK, London, 2-5 September 2001)'
p1439
(lp1440
S'MEDINFO'
p1441
a(lp1442
S'MEDINFO'
p1443
aasS'"Body, gender, subjectivity, Crossing disciplinary and institutional borders"'
p1444
(lp1445
S'None'
p1446
a(lp1447
S'None'
p1448
aasS'1648 - War and Peace in Europe'
p1449
(lp1450
S'KFE1648'
p1451
asS'3D flexible probe for deep brain stimulation and recording'
p1452
(lp1453
S'BRAIN TOUCH'
p1454
asS'1.2Mw Photovoltaic active tracking system power plant located on slope'
p1455
(lp1456
S'SLOPETRACK PV'
p1457
asS'3rd Symposium "SiO2 and Advanced Dielectrics"'
p1458
(lp1459
S'None'
p1460
a(lp1461
S'None'
p1462
aasS'"agricultural restructuring and rural development in central and eastern europe" (ACRONYM: ARRDCEE)'
p1463
(lp1464
S'ARRDCEE'
p1465
asS'13th International Symposium on Microsomes and drug oxidations'
p1466
(lp1467
S'None'
p1468
asS'13th International Conference on Vacuum Ultraviolet Radiation Physics'
p1469
(lp1470
S'None'
p1471
a(lp1472
S'None'
p1473
aasS'* T252 radiation tolerance assessment of remote handling equipment. Dg13 ceramics for heating and current drive and diagnostic systems.'
p1474
(lp1475
S'T252 RADIATION TOLER'
p1476
asS'300 mm Silicon Service Centre'
p1477
(lp1478
S'300SISC'
p1479
a(lp1480
S'300SISC'
p1481
aasS'1 5 MW DEMONSTRATION WIND TURBINE AACHEN/HEERLEN'
p1482
(lp1483
S'None'
p1484
asS'5th International Conference on High Levels of Natural Radiation and Radon Areas: Radiation Dose and Health Effects'
p1485
(lp1486
S'None'
p1487
asS'"HELIDRILL" MOTOR PROJECT'
p1488
(lp1489
S'None'
p1490
a(lp1491
S'None'
p1492
aasS'620 KW VARIABLE SPEED, YAW CONTROLLED WTG'
p1493
(lp1494
S'None'
p1495
asS'"European Young Investigators Award"'
p1496
(lp1497
S'EURYI'
p1498
asS'400 MB Removable Cartridge Magnetic Disk Drive'
p1499
(lp1500
S'MAGDRIVE'
p1501
asS'10 KWP PV POWER SUPPLY FOR "LOS ARCOS" VILLAGE'
p1502
(lp1503
S'None'
p1504
asS'20 BUILDING INTEGRATED PV-SYSTEMS'
p1505
(lp1506
S'None'
p1507
asS'"RED SED", comparative sedimentology of the Red Sea-Gulf of Aden Rift system'
p1508
(lp1509
S'None'
p1510
asS'2d and 3d microrheology in surfactant and biomacromolecular systems'
p1511
(lp1512
S'None'
p1513
asS'3D FACE'
p1514
(lp1515
S'3DFACE'
p1516
a(lp1517
S'3DFACE'
p1518
aasS'"oases of scientific excellence:state of the art technology"'
p1519
(lp1520
S'None'
p1521
asS'57FE MOESSBAUER SPECTROSCOPY OF FE II, III-ANTITUMOR DRUG-NUCLEIC ACID SYSTEMS: THE FE ENVIRONMENT IN THE PROCESS OF NUCLEIC ACID SCISSION'
p1522
(lp1523
S'None'
p1524
asS'"eard-infosys+": web-based management and transfer of european knowledge on agricultural research for development'
p1525
(lp1526
S'EARD-INFOSYS+'
p1527
asS'0.5 Micron X-Ray Lithography: Sources, Masks, Resist and Transferred Image'
p1528
(lp1529
S'None'
p1530
asS'</span>\r'
p1531
(lp1532
S'None'
p1533
asS'10th International Meeting on Ferroelectricity'
p1534
(lp1535
S'None'
p1536
a(lp1537
S'None'
p1538
aasS'12th International Conference on Cytochrome P450: Biochemistry, Biophysics and Molecular Biology'
p1539
(lp1540
S'None'
p1541
a(lp1542
S'None'
p1543
aasS"'Austria as it is' : references to the Habsburg Empire and its peoples in St. Petersburg's journals and periodicals during the period of the Holy Alliance (1815-1848)"
p1544
(lp1545
S'None'
p1546
asS'10th meeting of directors of fisheries EU research organisations'
p1547
(lp1548
S'MODOFEU'
p1549
asS'"Networking, co-ordination, co-operation and integration of national programmes in the field of the Sustainable Enterprise "SUSPRISE"'
p1550
(lp1551
S'SUSPRISE'
p1552
asS'"allow partecipation,expecially of young researchers,of the nis states to attend each of the euro summer schools a)decentralised sanitation and re-use b)the sulfur cycle for environmental protection c)closed industrial water cycles'
p1553
(lp1554
S'None'
p1555
asS'"SALINE GEOHEAT" - "EXTRACTION OF EXTRA SALINE GEOTHERMAL WATER FOR STYKKISHOLMUR DISTRICT HEATING"'
p1556
(lp1557
S'None'
p1558
asS'(REPLACEMENT) MAINTENANCE (AND USE) OF DOMESTIC BOILERS: POLICY MEASURES TO STIMULATE AN EFFICIENT APPLICATION OF THE LEGISLATION ON USER, TECHNICIAN AND CONTROL LEVEL'
p1559
(lp1560
S'None'
p1561
asS'3D SEISMIC IMAGING SYSTEM FOR OIL AND GAS RESERVOIRS'
p1562
(lp1563
S'None'
p1564
asS'5mw wind energy converter for off-shore application'
p1565
(lp1566
S'5MW-OFFSHORE-WEC'
p1567
asS'10th international metrology congress (METROLOGY 2001)'
p1568
(lp1569
S'METROLOGY 2001'
p1570
asS'50 KW GRID CONNECTED PV GENERATOR ON A STORAGE PLANT OF URBAN RESIDUALS'
p1571
(lp1572
S'None'
p1573
asS'"EUROPEAN" PROFILE OF THE TRAINING ENGINEER'
p1574
(lp1575
S'None'
p1576
asS'8th international conference on applied algology'
p1577
(lp1578
S'ALGOLOGY'
p1579
asS'"Malsecco" des agrumes - Recherches epidermiologiques et lutte contre la maladie par l\'amelioration genetique de la resistance, les traitements chimiques et les techniques culturales'
p1580
(lp1581
S'None'
p1582
asS'6th Jenner meeting on glycobiology and medicine'
p1583
(lp1584
S'None'
p1585
asS'1 5 MW STALL CONTROLLED, LIGHT WEIGHT WIND TURBINE GENERATOR'
p1586
(lp1587
S'None'
p1588
asS'15 KW GRID CONNECTED MACHINE WITH FLAP-HINGE ROTOR'
p1589
(lp1590
S'None'
p1591
asS'100 kw axial flux permanent magnet generator for direct drive stand alone windturbines'
p1592
(lp1593
S'None'
p1594
asS'"Maitrise 2000" - BAtiment et Electricite'
p1595
(lp1596
S'None'
p1597
asS'3rd Euroconference on Marine Natural Products'
p1598
(lp1599
S'None'
p1600
asS'17 BETA-OESTRADIOL IN HUMAN SERUM'
p1601
(lp1602
S'None'
p1603
asS'100 KW MYKONOS WIND POWER PLANT'
p1604
(lp1605
S'None'
p1606
asS'16 GAS PRODUCING ZONES QUADRUPLE COMPLETION SAFETY IMPROVEMENTS AND COST REDUCTIONS'
p1607
(lp1608
S'None'
p1609
asS'2001 ADBIS Conference on Advances in Databases and Information Systems'
p1610
(lp1611
S'None'
p1612
a(lp1613
S'None'
p1614
aasS'8th conference on colloid chemistry'
p1615
(lp1616
S'8TH CCC'
p1617
asS'"At the edge of the Republic of Scientists": the East-West routes of scientific communication in Europe in the age of experiment (1650-1680)'
p1618
(lp1619
S'EASTWAYS OF SCIENCE'
p1620
asS'2.3.3/10 Detailed Service Analysis (Galileo). Subtask 2: User Tools'
p1621
(lp1622
S'POLARIS'
p1623
asS'8 X 2.5 Mw Wind Turbines With Crane-free Erection to be Implemented in Estonia'
p1624
(lp1625
S'ESTONIA 20 MW WIND'
p1626
asS'"natural languages processing"'
p1627
(lp1628
S'None'
p1629
asS'5 Year Assessment PC 3- 4 - 5'
p1630
(lp1631
S'5 YEAR ASSESSMENT'
p1632
asS'1,3-propanediol - a versatile bulk chemical from renewable resources by novel biocatalysts and process strategies'
p1633
(lp1634
S'PROBIO'
p1635
asS'3-D asymptotic seismic imaging'
p1636
(lp1637
S'None'
p1638
asS'* EBP/HCPB B3.4.1 Irradiation of pebble-bed assemblies. EBP/HCPB B8.4.2 Irradiation of ceramic breeder pebbles EBP/A4.3.4 DWT PRF evaluation (gas/gas and TPB irradiation EBP/SM1.1 Improvement RAFM steel for'
p1639
(lp1640
S'EBP/HCPB B3.4.1 IRRA'
p1641
asS'8th meeting of the mediterrenean monitoring committee for the development of r&d'
p1642
(lp1643
S'None'
p1644
asS'2-wheeler behaviour and safety'
p1645
(lp1646
S'2-BE-SAFE'
p1647
asS'2- blanket technology 3- long term Fusion technology 1-technology for NET2- blanket technology 3- long term European blanket project'
p1648
(lp1649
S'FUSION TECHNOLOGY 1-'
p1650
asS'3ecm'
p1651
(lp1652
S'3ECM'
p1653
a(lp1654
S'3ECM'
p1655
aasS'2 X 30 MWE, BAGASSE/COAL POWER PLANT'
p1656
(lp1657
S'None'
p1658
asS'"Politica Regional Integrada de Apoyo a la Creacion de Empresas Spin-off" ("Integrated Regional Policy to Support the Creation of Spin-off Companies")'
p1659
(lp1660
S'PRIACES'
p1661
asS"1Problemes   juridiques lies   a   l'innovation technologique"
p1662
(lp1663
S'None'
p1664
asS'* Ut-sm&c lam2 - irradiation behaviour of RAFM steels after neutron irradiation at 325c'
p1665
(lp1666
S'UT-SM&C LAM2'
p1667
asS'6 TH CEC JOINT CAMPAIGN ON REMOTE SENSING OF ATMOSPHERIC POLLUTION FOS. BERRE 1983'
p1668
(lp1669
S'None'
p1670
asS'2002 Barcelona Conference on Algebraic Topology'
p1671
(lp1672
S'None'
p1673
a(lp1674
S'None'
p1675
aasS'3rd European Conference on Computational Chemistry'
p1676
(lp1677
S'None'
p1678
asS'23rd Meeting of the European Study Group for Cell Proliferation (ESGCP)'
p1679
(lp1680
S'None'
p1681
a(lp1682
S'None'
p1683
aasS'"A task force for the Creation of a Consortium to set up a SoG-Si Production Plant"'
p1684
(lp1685
S'SAHARA'
p1686
asS'1250kW speed assisted stall wind turbine'
p1687
(lp1688
S'None'
p1689
asS'4th European Conference "Luminescent Detectors and Transformers of Ionizing Radiation"'
p1690
(lp1691
S'None'
p1692
a(lp1693
S'None'
p1694
aasS'(Bio)Materials Molecular Simulations'
p1695
(lp1696
S'BIMAMOSI'
p1697
asS'"the role of lhx6 and lhx7 in the development of the mammalian forebrain"'
p1698
(lp1699
S'None'
p1700
a(lp1701
S'None'
p1702
aasS'53 LOW ENERGY HOUSES AND FLATS'
p1703
(lp1704
S'SKIVE 79'
p1705
asS'5th European Conference on Experimental AIDS Research'
p1706
(lp1707
S'None'
p1708
a(lp1709
S'None'
p1710
aasS'"Sustainable Community Through The Production Of 30000 Tm/year Of Bio-diesel Starting From Sunflower, Rapeseed And Palm Biomass"'
p1711
(lp1712
S'BIODINA'
p1713
asS'330 MWE POWER PLANT WITH PRESSURIZED FLUIDIZED BED COMBUSTION AND COMBINED CYCLE GAS AND STEAM TURBINE (DESIGN STAGE)'
p1714
(lp1715
S'None'
p1716
asS'1,5 MWP - PHOTOVOLTAIK-KRAFTWERK ILMENAU/LANGEWIESEN'
p1717
(lp1718
S'None'
p1719
asS'2nd European network for the advancement of artificial cognitive systems, interaction and robotics'
p1720
(lp1721
S'EUCOGII'
p1722
a(lp1723
S'EUCOGII'
p1724
aasS'1 1 MW WIND TURBINE IN FRIESLAND'
p1725
(lp1726
S'None'
p1727
asS'1.2 Mw Photovoltaic Active Tracking System Power Plant Located on slope'
p1728
(lp1729
S'SLOPETRACK PV'
p1730
asS'* Fusion technology 1-technology for net 2-blanket technology 3-long-term technology European blanket project (EBP)'
p1731
(lp1732
S'FUSION TECHNOLOGY 1-'
p1733
a(lp1734
S'FUSION TECHNOLOGY 1-'
p1735
aa(lp1736
S'FUSION TECHNOLOGY 1-'
p1737
aa(lp1738
S'FUSION TECHNOLOGY 1-'
p1739
aa(lp1740
S'FUSION TECHNOLOGY 1-'
p1741
aa(lp1742
S'FUSION TECHNOLOGY 1-'
p1743
aa(lp1744
S'FUSION TECHNOLOGY 1-'
p1745
aa(lp1746
S'FUSION TECHNOLOGY 1-'
p1747
aa(lp1748
S'FUSION TECHNOLOGY 1-'
p1749
aa(lp1750
S'FUSION TECHNOLOGY 1-'
p1751
aa(lp1752
S'FUSION TECHNOLOGY 1-'
p1753
aa(lp1754
S'FUSION TECHNOLOGY 1-'
p1755
aa(lp1756
S'FUSION TECHNOLOGY 1-'
p1757
aa(lp1758
S'FUSION TECHNOLOGY 1-'
p1759
aa(lp1760
S'FUSION TECHNOLOGY 1-'
p1761
aa(lp1762
S'FUSION TECHNOLOGY 1-'
p1763
aa(lp1764
S'FUSION TECHNOLOGY 1-'
p1765
aasS'65 Years Together'
p1766
(lp1767
S'TOGETHER'
p1768
asS'24 heures de recherche'
p1769
(lp1770
S'RECHERCHE24'
p1771
asS'17th icpgs'
p1772
(lp1773
S'17TH ICPGS'
p1774
a(lp1775
S'17TH ICPGS'
p1776
aasS'3D- Information based Safety and Security by Solid State Microsystems'
p1777
(lp1778
S'MISSY'
p1779
a(lp1780
S'MISSY'
p1781
aasS'"KNOWLEDGE VALORISATION THROUGH SPIN-OFF GENERATION"'
p1782
(lp1783
S'VALOR'
p1784
asS'"partecipation au budget de l\'association international pour la promotion de la collaboration avec les scientifiques de l\'ex urss" (contribution pour le 2000)'
p1785
(lp1786
S'EX-URSS-2000'
p1787
asS'"Molecular Machines - Design and Nano-Scale Handling of Biological Antetypes and Artificial Mimics"'
p1788
(lp1789
S'BIOMACH'
p1790
asS'5 ENERCON W/T E-40 IN A WEAK ISLAND GRID, OPERATING UNDER EXTENDED FREQUENCY LIMITS'
p1791
(lp1792
S'None'
p1793
asS'19th European Crystallographic Meeting and Satellites'
p1794
(lp1795
S'None'
p1796
a(lp1797
S'None'
p1798
aa(lp1799
S'None'
p1800
aa(lp1801
S'None'
p1802
aasS'1.1.1 molecular basis of blood-brain barrier permeability regulation'
p1803
(lp1804
S'BBBPERM'
p1805
asS'" policy options for the sustainable use of coral reefs and associated coastal ecosystems ".'
p1806
(lp1807
S'None'
p1808
asS'3d modelling of the tectonic picture determined by deep seismic reflection measurements'
p1809
(lp1810
S'None'
p1811
asS'19th European Conference on Surface Science'
p1812
(lp1813
S'None'
p1814
a(lp1815
S'None'
p1816
aasS'"10th international conference on bioinorganic chemistry:financial support for travels and subsistance for east countries scientists partecipation"'
p1817
(lp1818
S'None'
p1819
asS'500 KW WIND TURBINE'
p1820
(lp1821
S'None'
p1822
asS'4G MC-CDMA multiple antenna system on chip for radio enhancements'
p1823
(lp1824
S'4MORE'
p1825
a(lp1826
S'4MORE'
p1827
aasS'6th International Symposium on Biologically Reactive Intermediates'
p1828
(lp1829
S'None'
p1830
a(lp1831
S'None'
p1832
aasS'2 STAGES NEW TECHNOLOGY DRYER FOR PLASTERBOARDS'
p1833
(lp1834
S'None'
p1835
asS'3d photo modelling including 3 dimensional animations with parallel computing for architects and the building industry'
p1836
(lp1837
S'3DEMO'
p1838
asS'3d heart modelling and measurement high performance computing for cardiological clinical applications'
p1839
(lp1840
S'3D-HEARTVIEW'
p1841
asS'5th european international conference on biocatalysis and biotransformations'
p1842
(lp1843
S'None'
p1844
asS'10th International Conference on Na, K-ATPase and Related Cation Pumps'
p1845
(lp1846
S'None'
p1847
a(lp1848
S'None'
p1849
aasS'30 KW VERTICAL AXIS WIND TURBINE FOR THE AMSTERDAM ISLAND'
p1850
(lp1851
S'None'
p1852
asS'60 KW WIND TURBINE FOR LINICLATE SCHOOL AT BENBECULA'
p1853
(lp1854
S'None'
p1855
asS'17th International Conference on Plant Growth Substances'
p1856
(lp1857
S'None'
p1858
asS'5th European Conference on Application of Polar Dielectrics'
p1859
(lp1860
S'None'
p1861
asS'"MED-POL" Innovative Decentralised Energy and Water Management Policies can encourage the creation of a market economy and help rural development'
p1862
(lp1863
S'MED-POL'
p1864
asS'14th international conference of women engineers and scientists "a changing world: new opportunities for women engineers and scientists"'
p1865
(lp1866
S'ICWES14'
p1867
asS'2nd workshop on holistic fisheries management and 11th meeting of directors of fisheries research organisations of the European Union'
p1868
(lp1869
S'WOHFM'
p1870
asS'151 SMALL GRID CONNECTED PV STATIONS'
p1871
(lp1872
S'PHEBUS 97'
p1873
asS'7th icxrl'
p1874
(lp1875
S'7TH ICXRL'
p1876
asS'3 MW WIND FARM, COMPRISING 6 NORDTANK600 WIND TURBINES, IN BOENNERUP, DENMARK'
p1877
(lp1878
S'None'
p1879
asS'17500 M2 PROFESSIONAL TRAINING CENTRE EFFICIENT UTILIZATION OF ARTIFICIAL LIGHT AND DAYLIGHT'
p1880
(lp1881
S'COMFORT'
p1882
asS'3 5 MW HEAT PUMP SYSTEM FOR WASTE HEAT RECOVERY FROM MALT DRYING PROCESSES'
p1883
(lp1884
S'None'
p1885
asS'7TH MOCO EURO MEDITERRANEAN PARTNERSHIP 16-18 APRIL 2000'
p1886
(lp1887
S'MOCO'
p1888
asS'3D shoe upper stitching robot'
p1889
(lp1890
S'None'
p1891
asS'2002 bcat'
p1892
(lp1893
S'None'
p1894
a(lp1895
S'None'
p1896
aasS'150 KW VERTICAL AXIS WIND TURBINE AT CRES/LEGRENA IN ATTICA'
p1897
(lp1898
S'None'
p1899
asS'4C technology: uncovering the multi-dimensional structure of the genome'
p1900
(lp1901
S'4C'
p1902
asS'"ESPOIR"-APPLICATION OF "JUST IN TIME" TO FOOTWEAR INDUSTRY'
p1903
(lp1904
S'None'
p1905
asS'"European Network of Research Councils in the Humanities"'
p1906
(lp1907
S'ERCH'
p1908
asS'15th Conf on Design of Circuits and Integrated Systems (F, Montpellier, 21-24 November 2000)'
p1909
(lp1910
S"DCIS'00"
p1911
a(lp1912
S"DCIS'00"
p1913
aasS'"Safety Manager" training course - Safe design - Operation and control of complex and high risk industrial plants'
p1914
(lp1915
S'None'
p1916
asS'3rd Workshop "EC Databases on the decommissioning of Nuclear Installations"'
p1917
(lp1918
S'None'
p1919
asS'5 MW WIND FARM ON COMPLEX TERRAIN IN SITIA CRETE'
p1920
(lp1921
S'None'
p1922
asS'"organisation of the 13th european contest for young scientists" to be held in bergen 15-22 sept 2001'
p1923
(lp1924
S'None'
p1925
asS'"Network Observatory on Societal Aspects of Genomics"'
p1926
(lp1927
S'NORSAGE'
p1928
asS'3D Motion Analysis in Full-Scale Wind Turbines : a new tool for dynamic, in -field testing by non-contacting camera/computer systems'
p1929
(lp1930
S'None'
p1931
asS"'reverse genetics for the production of antigenic and pathotypic variants of the coronavirus infectious bronchitis'"
p1932
(lp1933
S'None'
p1934
asS'5th European Biological Inorganic Chemistry Conference'
p1935
(lp1936
S'None'
p1937
asS'6th and 7th Workshops on Non-linear Dynamics and Earthquake Prediction'
p1938
(lp1939
S'None'
p1940
a(lp1941
S'None'
p1942
aa(lp1943
S'None'
p1944
aa(lp1945
S'None'
p1946
aasS'2 MW WIND FARM FOR RETHYMNO'
p1947
(lp1948
S'None'
p1949
asS'"Advances in European Chemistry Research and R&D for the 21st Century by Younger Researchers from University Industrial and National Laboratories"'
p1950
(lp1951
S'None'
p1952
asS'210pb and 137Cs as tracers of global circulation'
p1953
(lp1954
S'None'
p1955
asS'3d-sensors for automotive safety applications'
p1956
(lp1957
S'None'
p1958
a(lp1959
S'None'
p1960
aasS'2002 cation pumps'
p1961
(lp1962
S'None'
p1963
a(lp1964
S'None'
p1965
aasS'"QUICK-RESPONSE" METHODS FOR MEASURING THE MICROBIAL POLLUTION OF DRINKING WATER AND PROBLEMS OF MICROBIAL POLLUTION IN CLOSED COOLING SYSTEMS'
p1966
(lp1967
S'None'
p1968
asS'3DPresence'
p1969
(lp1970
S'3DPRESENCE'
p1971
a(lp1972
S'3DPRESENCE'
p1973
aasS'10 KW VERTICAL AXIS WIND TURBINE FOR GREENHOUSE HEATING'
p1974
(lp1975
S'None'
p1976
asS'2 5 MW, ECOLOGICALLY COMPATIBLE, INNOVATIVE HYDROELECTRIC POWERPLANT'
p1977
(lp1978
S'None'
p1979
asS'80 KW WIND TURBINE WITH HYDRAULIC TRANSMISSION AT WINSUM'
p1980
(lp1981
S'None'
p1982
asS'13th International Conference on Ion Implantation Technology (IIT2000), 17-22, September, 2000, Alpach, Austria'
p1983
(lp1984
S'None'
p1985
asS'* Fusion technology 1-technology for net p(.) R(.) S(.) 2-blanket technology 3-long-term technology European blanket project (EBP)'
p1986
(lp1987
S'FUSION TECHNOLOGY 1-'
p1988
a(lp1989
S'FUSION TECHNOLOGY 1-'
p1990
aa(lp1991
S'FUSION TECHNOLOGY 1-'
p1992
aasS'200 KW WIND TURBINE FOR PORT-LA-NOUVELLE CEMENT WORKS FACTORY'
p1993
(lp1994
S'None'
p1995
asS'"European Research Area Plant Genomics"'
p1996
(lp1997
S'ERA-PG'
p1998
asS'400 years of annual reconstructions of european climate variability using a high resolution isotopic network - isonet'
p1999
(lp2000
S'ISONET'
p2001
asS'"School+": More than a platform to build the school of tomorrow'
p2002
(lp2003
S'SCHOOL+'
p2004
a(lp2005
S'SCHOOL+'
p2006
aasS'19th Conference on Isoprenoids'
p2007
(lp2008
S'None'
p2009
asS'* EBP/SM 1.5.1 Irradiation of powder HIP RAFM steel to 1 dpa for mechanical testing EBP/SM 3.4 Corrosion testing of RAFM steel grades produced by powder HIP irradiated to 1 dpa'
p2010
(lp2011
S'EBP/SM 1.5.1 IRRADIA'
p2012
asS'"droplet weld" an environmentally friendly, lead - free joining technology using metal droplets.'
p2013
(lp2014
S'DROPLET WELD'
p2015
asS'(Euphoria): emerging urban futures and opportune repertoires of individual adaptation'
p2016
(lp2017
S'U4IA'
p2018
asS'3-Dimensionality and Interactive Networked Collaboration for TRaditional Animation Production'
p2019
(lp2020
S'3DINCTRAP'
p2021
a(lp2022
S'3DINCTRAP'
p2023
aasS'7th international '
p2024
(lp2025
S'ILDARC'
p2026
asS'* Fusion technology 1-technology for net p(pdt 3) 2-blanket technology 3-long term technology European blanket project (EBP)'
p2027
(lp2028
S'FUSION TECHNOLOGY 1-'
p2029
a(lp2030
S'FUSION TECHNOLOGY 1-'
p2031
aasS'2001 monitoring of key action fusion'
p2032
(lp2033
S'MOKAF'
p2034
a(lp2035
S'MOKAF'
p2036
aasS'"organisation of the 14th european contest for young scientist" to be held in vienna 22-28 sept 2002'
p2037
(lp2038
S'None'
p2039
a(lp2040
S'None'
p2041
aasS'10th INTERNATIONAL CONFERENCE ON THE COORDINATION AND ORGANOMETALLIC CHEMISTRY OF GERMANIUM, TIN AND LEAD'
p2042
(lp2043
S'None'
p2044
asS'250 KW WINDTURBINE INCLUDED IN A WIND-ENERGY-TOTALENERGY PROJECT FOR PROCESS WATER PRODUCTION AND TRANSPORT'
p2045
(lp2046
S'None'
p2047
asS'2 INNOVATIVE SMALL SIZE WIND TURBINES IN NL/DE - PART OF DEMONSTRATION PROGRAMME OF 6 SMALL SIZE WIND TURBINE'
p2048
(lp2049
S'None'
p2050
asS'2005 ?Researchers in Europe? Initiative in Iceland'
p2051
(lp2052
S'INITIATIVE: ICELAND'
p2053
asS'2 INNOVATIVE SMALL SIZE WIND TURBINES IN UK/DK - PART OF DEMONSTRATION PROGRAMME OF 6 SMALL SIZZE WIND TURBINE'
p2054
(lp2055
S'None'
p2056
asS'* Costing of Blanket, Cryostat/Biologica l Shield and Primary Heat Transfer System ITER Task Agreement: Not yet assigned'
p2057
(lp2058
S'COSTING OF BLANKET,'
p2059
asS'"Business and Innovation Centres, a leverage instrument to enhance SME participation in'
p2060
(lp2061
S'"ETI - BICS"'
p2062
asS'3G Mobile CONtext SENSitive adaptability <br>- USer friendly mobile work place for seamless enterprise application'
p2063
(lp2064
S'CONSENSUS'
p2065
asS'500 KW STALL REGULATED TURBINE WITH ENHANCED ENERGY CAPTURE'
p2066
(lp2067
S'None'
p2068
asS"'HIBISCUS ESCULENTUS' : DEVELOPMENT OF AN INTEGRATED EXPLOITATION SYSTEM WITH HIGH ADDED VALUE'"
p2069
(lp2070
S'None'
p2071
asS'"novel enzyme-catabolic activities using microbial diversity: enzymatic acylation of vitamins"'
p2072
(lp2073
S'None'
p2074
a(lp2075
S'None'
p2076
aasS'100 kW MCFC integrated stack development and testing'
p2077
(lp2078
S'MISDAT'
p2079
asS'"progress in clinical and experimental angiology" polish angiological conference 2002'
p2080
(lp2081
S'None'
p2082
asS'3D anatomical functional models for the human musculoskeletal system'
p2083
(lp2084
S'3D ANATOMICAL HUMAN'
p2085
asS'* Fusion technology 1-technology for net 2- blanket technology 3- long term technology European blanket project (EBP)'
p2086
(lp2087
S'FUSION TECHNOLOGY 1-'
p2088
a(lp2089
S'FUSION TECHNOLOGY 1-'
p2090
aasS"'vaccines for diseases prevalent in the developing world'"
p2091
(lp2092
S'VACCINATION'
p2093
a(lp2094
S'VACCINATION'
p2095
aasS'"simulation of the physical process taking place during industrial laser welding"'
p2096
(lp2097
S'None'
p2098
asS'"towards a european research arena - how to achieve european added value in transnational and interdisciplinary socio-economic research - lessons learned from 4. and 5. frp projects"'
p2099
(lp2100
S'None'
p2101
a(lp2102
S'None'
p2103
aasS'175 MWE CFB TERUEL (SPAIN) POWER PLANT'
p2104
(lp2105
S'None'
p2106
asS'_TION OF ALANINE AS AN ACCIDENT DOSIMETER AND INTERPRETATION OF DOSE-EFFECT RELATIONSSHIPS BY MODEL DESCRIPTION'
p2107
(lp2108
S'None'
p2109
asS'2nd International Symposium on Obesity and Hypertension Genetics and Molecular Mechanisms 25. - 27. October 2001, Berlin'
p2110
(lp2111
S'None'
p2112
asS'20th ANNIVERSARY OF THE EC-US TASK FORCE ON BIOTECHNOLOGY RESEARCH'
p2113
(lp2114
S'EC-US TF'
p2115
asS'5th World Congress on Computational Mechanics'
p2116
(lp2117
S'None'
p2118
a(lp2119
S'None'
p2120
aasS'"development of recombinant bcg multivaccines"'
p2121
(lp2122
S'None'
p2123
asS'9th european nutrition conference health and quality of life in europe : the challenges of the modern eupoean food system'
p2124
(lp2125
S'ENC 2003'
p2126
asS' ECRH PROJECT'
p2127
(lp2128
S'JET EP'
p2129
asS'6 BETA-HYDROXYCORTISOL IN HUMAN URINE'
p2130
(lp2131
S'None'
p2132
asS'300 KW WIND TURBINE FOR POZOCANADA, SPANISH-DANISH COOPERATION'
p2133
(lp2134
S'None'
p2135
asS'250 KWP PV POWER PLANTS FOR DIRECT INJECTION IN LIGHT TRAIN LOW VOLTAGE DC NETWORKS'
p2136
(lp2137
S'HELIOTRAM'
p2138
asS'50 KW AUTONOMOUS WIND DIESEL SYSTEM'
p2139
(lp2140
S'None'
p2141
asS'"Laying the Foundations for an ERA-NET on Foresight and Society"'
p2142
(lp2143
S'FORSOCIETY'
p2144
asS'5mw Wind Energy Converter for Off-shore Application'
p2145
(lp2146
S'5MW-OFFSHORE-WEC'
p2147
asS'3D Localizer for Computer Assisted Surgery'
p2148
(lp2149
S'LOCAS'
p2150
asS'---'
p2151
(lp2152
S'None'
p2153
asS'"UMTS based inTELLigent support services in tourisM and leisurE"'
p2154
(lp2155
S'TELLME'
p2156
a(lp2157
S'TELLME'
p2158
aasS'3 MW WIND FARM COMPOSED OF 6 WIND ENERGY OPTIMISED FOR LOW WIND SPEED ON THE ISLAND OF MENORCA'
p2159
(lp2160
S'None'
p2161
asS'3-dimensional micro-machined cavity resonators for high Q and tunable mm wave filters and oscillators'
p2162
(lp2163
S'3DTUNE'
p2164
a(lp2165
S'3DTUNE'
p2166
aa(lp2167
S'3DTUNE'
p2168
aasS'* EBP SM1.1 Improvement of RAFM steel for DBTT and radiation hardening EBP SM1.3 Dimensional stability under displacement and gas formation EPB SM6.2 Micro-structural stability under irradiation UT/Reduced activation titanium alloys.'
p2169
(lp2170
S'EBP SM1.1 IMPROVEMEN'
p2171
asS'7th World Congress Clima 2000/napoli 2001Napoli - 15 - 18 September 2001'
p2172
(lp2173
S'CLIMA 2000'
p2174
a(lp2175
S'CLIMA 2000'
p2176
aasS'5-Day ASIC'
p2177
(lp2178
S'5-DAY ASIC'
p2179
asS'10th International Stirling Machine Conference 2001'
p2180
(lp2181
S'None'
p2182
asS'6th International Conference on Near Field Optics and Related Techniques'
p2183
(lp2184
S'None'
p2185
asS'4th International symposium on "electrocatalysis: from theory to industrial applications"'
p2186
(lp2187
S'None'
p2188
a(lp2189
S'None'
p2190
aasS'3D SEISMIC SURVEY IN THE GAS-OIL FIELD OFFSHORE KATAKOLON (WESTERN GREECE) DEVELOPING LOW COST TECHNIQUES'
p2191
(lp2192
S'None'
p2193
asS"'technological knowledge and localized learning: what perspectives for a european policy?'"
p2194
(lp2195
S'TELL'
p2196
a(lp2197
S'TELL'
p2198
aasS'6th computational econ'
p2199
(lp2200
S'6TH COMPUTATIONAL ECON'
p2201
asS'0ptimisation of monitoring for internal exposure'
p2202
(lp2203
S'OMINEX'
p2204
asS"2007 Researchers' Night: The Greek Events"
p2205
(lp2206
S'REN2007'
p2207
asS'"Towards an ERA-NET Coordination Action for Priority Medicines for the Citizens of Europe?"'
p2208
(lp2209
S'PRIORITY MEDICINES'
p2210
asS'1,2 MW WIND TURBINE INTEGRATED IN AN AUTONOMOUS ENERGY SYSTEM ON HELGOLAND ISLAND [TRANCHE 2]'
p2211
(lp2212
S'None'
p2213
asS'15th IEEE International Symposium on Intelligent Control and 8th IEEE Mediterranean Conference on Control & Automation'
p2214
(lp2215
S'None'
p2216
asS'3rd Generation Telematics'
p2217
(lp2218
S'3GT'
p2219
a(lp2220
S'3GT'
p2221
aasS'5th European oxygen steelmaking conference 2006'
p2222
(lp2223
S'EOSC 2006'
p2224
asS'15th Symposium of the International Association for Cyanophyte Research'
p2225
(lp2226
S'None'
p2227
asS'"MERIT" REHABILITATION TECHNOLOGY FOR THE TRAINING AND EMPLOYMENT OF DISABLED PERSONS (DEFINITION PHASE)'
p2228
(lp2229
S'None'
p2230
asS'40th congress of the european regional science association'
p2231
(lp2232
S'None'
p2233
asS'"Anthrax and Beyond - European research networking activities to develop safe products and policies to protect our citizens from the threat of anthrax attacks and other agents of bioterrorism"'
p2234
(lp2235
S'ANTHRAX-EURONET'
p2236
asS' NITRIC OXIDE'
p2237
(lp2238
S'CREB'
p2239
asS'30 KW WIND TURBINE WITH DIESEL COGENERATION UNIT FOR A SEWAGE TREATMENT PLANT AT EMDEN'
p2240
(lp2241
S'None'
p2242
asS'* Fusion technology 1-technology for net 2-blanket technology 3 long term technology'
p2243
(lp2244
S'TCN FUSION TECHNOLOG'
p2245
asS'"International Conference on Research Infrastructures: Centres of exchange, cohesion and excellence for the European Research Area"'
p2246
(lp2247
S'INFRA / ERA 2003'
p2248
asS'12th annual world food and agribusiness forum & symposium'
p2249
(lp2250
S'WORLD IAMA 2002'
p2251
asS'500 KW VERTICAL AXIS WIND TURBINE'
p2252
(lp2253
S'None'
p2254
asS'"ERA-NET Materials - a preparatory phase"'
p2255
(lp2256
S'ENMATSSA'
p2257
asS'(R) - Evolutionary Catalysis'
p2258
(lp2259
S'REVCAT'
p2260
asS'5th International Conference on Statistical and scientific Database Management'
p2261
(lp2262
S'None'
p2263
asS"100 KW VERTICAL AXIS WIND TURBINE INTEGRATED IN THE DIESEL-FIRED NETWORK ON ST MARY'S ISLE OF SCILLY"
p2264
(lp2265
S'None'
p2266
asS'300 KW WIND TURBINE FOR CARMARTHEN BAY'
p2267
(lp2268
S'None'
p2269
asS'" HERMES ": A VOCATIONAL TRAINING PROGRAMME IN THE TEXTILE AND FOOD-BEVERAGES SECTORS.'
p2270
(lp2271
S'None'
p2272
as.