(dp1
S'Young workers and their employers in present day Poland'
p2
(lp3
S'None'
p4
asS'Y-NET'
p5
(lp6
S'None'
p7
asS'YMIR - Improve access to finance for innovative SMEs'
p8
(lp9
S'YMIR'
p10
asS'Youth gender education - gender mentoring workshop'
p11
(lp12
S'Y.G.E.'
p13
asS'Young people in Armenia, Georgia and Ukraine'
p14
(lp15
S'None'
p16
asS'YOYO 2001 : Ocean Odyssey'
p17
(lp18
S'None'
p19
asS'YOUNG PEOPLE, THE INTERNET AND CIVIC PARTICIPATION'
p20
(lp21
S'CIVICWEB'
p22
asS'York Institute for tropical Ecosystem dynamics'
p23
(lp24
S'KITE'
p25
asS'Youngsters Learning and Playing Network'
p26
(lp27
S'YOUNGNET'
p28
a(lp29
S'YOUNGNET'
p30
aasS'Y-box binding proteins of eukaryotic cells: studies of intracellular distribution'
p31
(lp32
S'None'
p33
asS'Youth enterprise training'
p34
(lp35
S'None'
p36
asS'Young enterprise across borders in Europe'
p37
(lp38
S'YESS'
p39
asS'Yield, quality & throughput increase by optimising the transfer bar & finished strip geometry in hot strip mills'
p40
(lp41
S'None'
p42
asS'Yeasts as protein factories: control of host physiology and exploration of novel resources'
p43
(lp44
S'None'
p45
asS'Young labour Migrants in Chinese Cities: A demonstration-intervention project to address barriers to health care and promote their sexual and reproductive health'
p46
(lp47
S'YOLAMI'
p48
asS'Young stellar objects, their surroundings and jets: advanced observational and MHD studies'
p49
(lp50
S'PHOENIX'
p51
asS'Youngegg'
p52
(lp53
S'YOUNGEGG'
p54
a(lp55
S'YOUNGEGG'
p56
aasS'Young adults in the Russian Federation: socio cultural orientations, patterns of employment and unemployment, social protection and adaptation'
p57
(lp58
S'None'
p59
asS'Yeast'
p60
(lp61
S'YEAST'
p62
a(lp63
S'YEAST'
p64
aa(lp65
S'YEAST'
p66
aasS'Yeast genetics'
p67
(lp68
S'None'
p69
asS'Yellow Sea observation, forecasting and information System'
p70
(lp71
S'YEOS'
p72
asS'Young people, work, environment'
p73
(lp74
S'None'
p75
asS"Young Europeans' office skills"
p76
(lp77
S'YEPOS'
p78
asS'YIELD-INCREASE WITH CULTURE CROPS BY TREATMENT OF SEED AND SEED-POTATOES WITH BACTERIA'
p79
(lp80
S'None'
p81
asS'Yerac 2000'
p82
(lp83
S'YERAC 2000'
p84
a(lp85
S'YERAC 2000'
p86
aasS'YIELD OF SITKA SPRUCE IN FRANCE AND PRINCIPLES OF ITS SYLVICULTURE'
p87
(lp88
S'None'
p89
asS'Yeast research workshops. in 21st international conference on yeast genetics and molecular biology, 2003 (ICYGMB-2003)'
p90
(lp91
S'ICYGMB-2003'
p92
asS'Youth in business: developing enterprise skills'
p93
(lp94
S'None'
p95
asS'Yield stability and resistance of faba bean to major pathogens in Western Mediterranean area'
p96
(lp97
S'None'
p98
asS'Young agricultural entrepreneurs'
p99
(lp100
S'None'
p101
asS'Yeast2003'
p102
(lp103
S'None'
p104
asS'Youth, difference and the future labour market in berlin'
p105
(lp106
S'None'
p107
a(lp108
S'None'
p109
aasS"Young European Radioastronomers' Conference 2000"
p110
(lp111
S'None'
p112
asS'Young European arena of research - 2010'
p113
(lp114
S'YEAR-2010'
p115
asS'Youth Protection Roundtable'
p116
(lp117
S'YPRT'
p118
asS'Young people from a public care background: pathways to education in Europe'
p119
(lp120
S'YIPPEE'
p121
asS'Youth/company training partnerships'
p122
(lp123
S'PAIJE'
p124
asS'Young People creating Active Service On Context-aware Terminals'
p125
(lp126
S'YOUNGSTER'
p127
a(lp128
S'YOUNGSTER'
p129
aasS'Yeasts of technological interest in agro industries.'
p130
(lp131
S'YETI'
p132
asS'Young European arena research'
p133
(lp134
S'YEAR'
p135
asS'Young venture'
p136
(lp137
S'YOVE'
p138
asS'Youth, unemployment, and exclusion in Europe: a multidimensional approach to understanding the conditions and prospects for social and political integration of young unemployed'
p139
(lp140
S'YOUNEX'
p141
asS'Youth policy and participation. the role of participation and informal learning in the transition of young people to the labour market. a comparative analysis in 10 european regions.'
p142
(lp143
S'YOYO'
p144
asS'Year 2000 European Mathematical Society Saint Flour Summer School On Probability Theory'
p145
(lp146
S'None'
p147
asS'YAG LASER MATERIAL PROCESSING FOR IN-SITU INDUSTRIAL MAINTENANCE IN HOSTILE AND CONFINED ENVIRONMENTS'
p148
(lp149
S'None'
p150
asS'Youth and gender - trans-national identities and islamophobia'
p151
(lp152
S'TRANS-ISLAM'
p153
asS'Youth transitions and their family-household contexts in the South Caucasus'
p154
(lp155
S'INTAS 2005-1000008-7803'
p156
asS'Yield Control in SMD Assembly'
p157
(lp158
S'SMART'
p159
asS'Yeast as a tool to determine proteins important for drougth tolerance of Selaginella lepidophylla'
p160
(lp161
S'DROUGHTSTRESS'
p162
asS'Young people and the images of science on websites'
p163
(lp164
S'YOSCIWEB'
p165
asS"Yearly Colloquium of European Group for Organizational Studies, theme of the year 2000 is 'Organizational Praxis'"
p166
(lp167
S'None'
p168
a(lp169
S'None'
p170
aasS'Y training - Eurotrain'
p171
(lp172
S'None'
p173
asS'Yttre Stengrund Offshore Windfarm'
p174
(lp175
S'None'
p176
asS'Yeast Systems Biology Network'
p177
(lp178
S'YSBN'
p179
asS'Youth - actor of social change'
p180
(lp181
S'UP2YOUTH'
p182
asS'Young Stellar Objects, their Surroundings and Jets: Advanced Observational and MHD Studies'
p183
(lp184
S'PHOENIX'
p185
asS'Yeast multiplex high throughput screening (hts) based on protein-protein interactions.'
p186
(lp187
S'None'
p188
a(lp189
S'None'
p190
aasS'Youngeurimmunologist'
p191
(lp192
S'YOUNGEURIMMUNOLOGIST'
p193
a(lp194
S'YOUNGEURIMMUNOLOGIST'
p195
aas.