(dp1
S'4026'
p2
(lp3
S'Debrecen'
p4
aS'Hajd\xc3\xba-Bihar'
p5
asS'4025'
p6
(lp7
S'Debrecen'
p8
aS'Hajd\xc3\xba-Bihar'
p9
asS'4022'
p10
(lp11
S'Debrecen'
p12
aS'Hajd\xc3\xba-Bihar'
p13
asS'4029'
p14
(lp15
S'Debrecen'
p16
aS'Hajd\xc3\xba-Bihar'
p17
asS'7515'
p18
(lp19
S'Somogyudvarhely'
p20
aS'Somogy'
p21
asS'7514'
p22
(lp23
S'Tarany'
p24
aS'Somogy'
p25
asS'7513'
p26
(lp27
S'Rinyaszentkir\xc3\xa1ly'
p28
aS'Somogy'
p29
asS'3999'
p30
(lp31
S'Holl\xc3\xb3h\xc3\xa1za'
p32
aS'Borsod-Aba\xc3\xbaj-Zempl\xc3\xa9n'
p33
asS'3994'
p34
(lp35
S'F\xc3\xbcz\xc3\xa9rkajata'
p36
aS'Borsod-Aba\xc3\xbaj-Zempl\xc3\xa9n'
p37
asS'4732'
p38
(lp39
S'C\xc3\xa9g\xc3\xa9nyd\xc3\xa1ny\xc3\xa1d'
p40
aS'Szabolcs-Szatm\xc3\xa1r-Bereg'
p41
asS'6795'
p42
(lp43
S'Bord\xc3\xa1ny'
p44
aS'Csongr\xc3\xa1d'
p45
asS'6793'
p46
(lp47
S'Forr\xc3\xa1sk\xc3\xbat'
p48
aS'Csongr\xc3\xa1d'
p49
asS'2318'
p50
(lp51
S'Szigetszentm\xc3\xa1rton'
p52
aS'Pest'
p53
asS'6791'
p54
(lp55
S'Z\xc3\xa1k\xc3\xa1nysz\xc3\xa9k'
p56
aS'Csongr\xc3\xa1d'
p57
asS'2316'
p58
(lp59
S'T\xc3\xb6k\xc3\xb6l'
p60
aS'Pest'
p61
asS'2314'
p62
(lp63
S'Hal\xc3\xa1sztelek'
p64
aS'Pest'
p65
asS'2313'
p66
(lp67
S'Szigetszentmikl\xc3\xb3s'
p68
aS'Pest'
p69
asS'2310'
p70
(lp71
S'Szigetszentmikl\xc3\xb3s'
p72
aS'Pest'
p73
asS'2311'
p74
(lp75
S'Szigetszentmikl\xc3\xb3s'
p76
aS'Pest'
p77
asS'2440'
p78
(lp79
S'Sz\xc3\xa1zhalombatta'
p80
aS'Pest'
p81
asS'2441'
p82
(lp83
S'Sz\xc3\xa1zhalombatta'
p84
aS'Pest'
p85
asS'9522'
p86
(lp87
S'Kemenesmagasi'
p88
aS'Vas'
p89
asS'8752'
p90
(lp91
S'Zalakom\xc3\xa1r'
p92
aS'Zala'
p93
asS'4812'
p94
(lp95
S'Nagyvars\xc3\xa1ny'
p96
aS'Szabolcs-Szatm\xc3\xa1r-Bereg'
p97
asS'2042'
p98
(lp99
S'Buda\xc3\xb6rs'
p100
aS'Pest'
p101
asS'2040'
p102
(lp103
S'Buda\xc3\xb6rs'
p104
aS'Pest'
p105
asS'2049'
p106
(lp107
S'Di\xc3\xb3sd'
p108
aS'Pest'
p109
asS'7623'
p110
(lp111
S'P\xc3\xa9cs'
p112
aS'Baranya'
p113
asS'9631'
p114
(lp115
S'Hegyfalu'
p116
aS'Vas'
p117
asS'9632'
p118
(lp119
S'Sajtosk\xc3\xa1l'
p120
aS'Vas'
p121
asS'9321'
p122
(lp123
S'Far\xc3\xa1d'
p124
aS'Gy\xc5\x91r-Moson-Sopron'
p125
asS'9634'
p126
(lp127
S'Iklanber\xc3\xa9ny'
p128
aS'Vas'
p129
asS'9327'
p130
(lp131
S'R\xc3\xa1basebes'
p132
aS'Gy\xc5\x91r-Moson-Sopron'
p133
asS'9324'
p134
(lp135
S'Bogyoszl\xc3\xb3'
p136
aS'Gy\xc5\x91r-Moson-Sopron'
p137
asS'3519'
p138
(lp139
S'Miskolc'
p140
aS'Borsod-Aba\xc3\xbaj-Zempl\xc3\xa9n'
p141
asS'8230'
p142
(lp143
S'Balatonsz\xc5\x91l\xc5\x91s'
p144
aS'Veszpr\xc3\xa9m'
p145
asS'8944'
p146
(lp147
S'S\xc3\xa1rhida'
p148
aS'Zala'
p149
asS'8946'
p150
(lp151
S'T\xc3\xb3fej'
p152
aS'Zala'
p153
asS'7629'
p154
(lp155
S'P\xc3\xa9cs'
p156
aS'Baranya'
p157
asS'3510'
p158
(lp159
S'Miskolc'
p160
aS'Borsod-Aba\xc3\xbaj-Zempl\xc3\xa9n'
p161
asS'3517'
p162
(lp163
S'Miskolc'
p164
aS'Borsod-Aba\xc3\xbaj-Zempl\xc3\xa9n'
p165
asS'3516'
p166
(lp167
S'Miskolc'
p168
aS'Borsod-Aba\xc3\xbaj-Zempl\xc3\xa9n'
p169
asS'3515'
p170
(lp171
S'Miskolc'
p172
aS'Borsod-Aba\xc3\xbaj-Zempl\xc3\xa9n'
p173
asS'2688'
p174
(lp175
S'Vanyarc'
p176
aS'N\xc3\xb3gr\xc3\xa1d'
p177
asS'6201'
p178
(lp179
S'Kisk\xc5\x91r\xc3\xb6s'
p180
aS'B\xc3\xa1cs-Kiskun'
p181
asS'2685'
p182
(lp183
S'N\xc3\xb3gr\xc3\xa1ds\xc3\xa1p'
p184
aS'N\xc3\xb3gr\xc3\xa1d'
p185
asS'2687'
p186
(lp187
S'Bercel'
p188
aS'N\xc3\xb3gr\xc3\xa1d'
p189
asS'2682'
p190
(lp191
S'P\xc3\xbcsp\xc3\xb6khatvan'
p192
aS'Pest'
p193
asS'7511'
p194
(lp195
S'\xc3\x96tv\xc3\xb6sk\xc3\xb3nyi'
p196
aS'Somogy'
p197
asS'6808'
p198
(lp199
S'H\xc3\xb3dmez\xc5\x91v\xc3\xa1s\xc3\xa1rhely'
p200
aS'Csongr\xc3\xa1d'
p201
asS'6806'
p202
(lp203
S'H\xc3\xb3dmez\xc5\x91v\xc3\xa1s\xc3\xa1rhely'
p204
aS'Csongr\xc3\xa1d'
p205
asS'6804'
p206
(lp207
S'H\xc3\xb3dmez\xc5\x91v\xc3\xa1s\xc3\xa1rhely'
p208
aS'Csongr\xc3\xa1d'
p209
asS'6803'
p210
(lp211
S'H\xc3\xb3dmez\xc5\x91v\xc3\xa1s\xc3\xa1rhely'
p212
aS'Csongr\xc3\xa1d'
p213
asS'6800'
p214
(lp215
S'H\xc3\xb3dmez\xc5\x91v\xc3\xa1s\xc3\xa1rhely'
p216
aS'Csongr\xc3\xa1d'
p217
asS'6801'
p218
(lp219
S'H\xc3\xb3dmez\xc5\x91v\xc3\xa1s\xc3\xa1rhely'
p220
aS'Csongr\xc3\xa1d'
p221
asS'9744'
p222
(lp223
S'Vasasszonyfa'
p224
aS'Vas'
p225
asS'9741'
p226
(lp227
S'Vassur\xc3\xa1ny'
p228
aS'Vas'
p229
asS'9742'
p230
(lp231
S'Salk\xc3\xb6vesk\xc3\xbat'
p232
aS'Vas'
p233
asS'3395'
p234
(lp235
S'Demj\xc3\xa9n'
p236
aS'Heves'
p237
asS'9748'
p238
(lp239
S'V\xc3\xa1t'
p240
aS'Vas'
p241
asS'3202'
p242
(lp243
S'Gy\xc3\xb6ngy\xc3\xb6s'
p244
aS'Heves'
p245
asS'3200'
p246
(lp247
S'Gy\xc3\xb6ngy\xc3\xb6s'
p248
aS'Heves'
p249
asS'3396'
p250
(lp251
S'Kerecsend'
p252
aS'Heves'
p253
asS'8835'
p254
(lp255
S'Fityeh\xc3\xa1z'
p256
aS'Zala'
p257
asS'2861'
p258
(lp259
S'Bakonys\xc3\xa1rk\xc3\xa1ny'
p260
aS'Kom\xc3\xa1rom-Esztergom'
p261
asS'7140'
p262
(lp263
S'B\xc3\xa1tasz\xc3\xa9k'
p264
aS'Tolna'
p265
asS'7174'
p266
(lp267
S'K\xc3\xa9ty'
p268
aS'Tolna'
p269
asS'7677'
p270
(lp271
S'Orf\xc5\xb1'
p272
aS'Baranya'
p273
asS'7672'
p274
(lp275
S'Boda'
p276
aS'Baranya'
p277
asS'7673'
p278
(lp279
S'K\xc5\x91v\xc3\xa1g\xc3\xb3sz\xc5\x91l\xc5\x91s'
p280
aS'Baranya'
p281
asS'3348'
p282
(lp283
S'Szilv\xc3\xa1sv\xc3\xa1rad'
p284
aS'Heves'
p285
asS'3349'
p286
(lp287
S'Nagyvisny\xc3\xb3'
p288
aS'Heves'
p289
asS'1191'
p290
(lp291
S'Budapest'
p292
aS'Budapest'
p293
asS'3343'
p294
(lp295
S'Bek\xc3\xb6lce'
p296
aS'Heves'
p297
asS'1192'
p298
(lp299
S'Budapest'
p300
aS'Budapest'
p301
asS'3346'
p302
(lp303
S'B\xc3\xbckkszentm\xc3\xa1rton'
p304
aS'Heves'
p305
asS'1194'
p306
(lp307
S'Budapest'
p308
aS'Budapest'
p309
asS'1196'
p310
(lp311
S'Budapest'
p312
aS'Budapest'
p313
asS'8162'
p314
(lp315
S'K\xc3\xbcng\xc3\xb6s'
p316
aS'Veszpr\xc3\xa9m'
p317
asS'1174'
p318
(lp319
S'Budapest'
p320
aS'Budapest'
p321
asS'1173'
p322
(lp323
S'Budapest'
p324
aS'Budapest'
p325
asS'1172'
p326
(lp327
S'Budapest'
p328
aS'Budapest'
p329
asS'8164'
p330
(lp331
S'Balatonf\xc5\x91kaj\xc3\xa1r'
p332
aS'Veszpr\xc3\xa9m'
p333
asS'4252'
p334
(lp335
S'Hajd\xc3\xbas\xc3\xa1mson'
p336
aS'Hajd\xc3\xba-Bihar'
p337
asS'4254'
p338
(lp339
S'Ny\xc3\xadradony'
p340
aS'Hajd\xc3\xba-Bihar'
p341
asS'5530'
p342
(lp343
S'V\xc3\xa9szt\xc5\x91'
p344
aS'B\xc3\xa9k\xc3\xa9s'
p345
asS'5537'
p346
(lp347
S'Zsad\xc3\xa1ny'
p348
aS'B\xc3\xa9k\xc3\xa9s'
p349
asS'5534'
p350
(lp351
S'Ok\xc3\xa1ny'
p352
aS'B\xc3\xa9k\xc3\xa9s'
p353
asS'5539'
p354
(lp355
S'K\xc3\xb6r\xc3\xb6snagyhars\xc3\xa1ny'
p356
aS'B\xc3\xa9k\xc3\xa9s'
p357
asS'8765'
p358
(lp359
S'Egeraracsa'
p360
aS'Zala'
p361
asS'8767'
p362
(lp363
S'Fels\xc5\x91rajk'
p364
aS'Zala'
p365
asS'8762'
p366
(lp367
S'Szentp\xc3\xa9ter\xc3\xbar'
p368
aS'Zala'
p369
asS'7181'
p370
(lp371
S'Tevel'
p372
aS'Tolna'
p373
asS'7182'
p374
(lp375
S'Z\xc3\xa1vod'
p376
aS'Tolna'
p377
asS'7184'
p378
(lp379
S'Sz\xc3\xa1r\xc3\xa1sz'
p380
aS'Tolna'
p381
asS'7185'
p382
(lp383
S'Mucsfa'
p384
aS'Tolna'
p385
asS'7186'
p386
(lp387
S'Nagyvejke'
p388
aS'Tolna'
p389
asS'7187'
p390
(lp391
S'Nagyvejke'
p392
aS'Tolna'
p393
asS'1225'
p394
(lp395
S'Budapest'
p396
aS'Budapest'
p397
asS'8380'
p398
(lp399
S'H\xc3\xa9v\xc3\xadz'
p400
aS'Zala'
p401
asS'8019'
p402
(lp403
S'Sz\xc3\xa9kesfeh\xc3\xa9rv\xc3\xa1r'
p404
aS'Fej\xc3\xa9r'
p405
asS'8545'
p406
(lp407
S'Gyarmat'
p408
aS'Gy\xc5\x91r-Moson-Sopron'
p409
asS'8056'
p410
(lp411
S'Bakonycsernye'
p412
aS'Fej\xc3\xa9r'
p413
asS'7455'
p414
(lp415
S'Somogygeszti'
p416
aS'Somogy'
p417
asS'7452'
p418
(lp419
S'Somogyaszal\xc3\xb3'
p420
aS'Somogy'
p421
asS'5621'
p422
(lp423
S'Cs\xc3\xa1rdasz\xc3\xa1ll\xc3\xa1s'
p424
aS'B\xc3\xa9k\xc3\xa9s'
p425
asS'8493'
p426
(lp427
S'Iszk\xc3\xa1z'
p428
aS'Veszpr\xc3\xa9m'
p429
asS'7695'
p430
(lp431
S'\xc3\x93falu'
p432
aS'Baranya'
p433
asS'7691'
p434
(lp435
S'P\xc3\xa9cs'
p436
aS'Baranya'
p437
asS'8495'
p438
(lp439
S'Cs\xc3\xb6gle'
p440
aS'Veszpr\xc3\xa9m'
p441
asS'7693'
p442
(lp443
S'P\xc3\xa9cs'
p444
aS'Baranya'
p445
asS'5101'
p446
(lp447
S'J\xc3\xa1szber\xc3\xa9ny'
p448
aS'J\xc3\xa1sz-Nagykun-Szolnok'
p449
asS'4031'
p450
(lp451
S'Debrecen'
p452
aS'Hajd\xc3\xba-Bihar'
p453
asS'4731'
p454
(lp455
S'Tunyogmatolcs'
p456
aS'Szabolcs-Szatm\xc3\xa1r-Bereg'
p457
asS'4034'
p458
(lp459
S'Debrecen'
p460
aS'Hajd\xc3\xba-Bihar'
p461
asS'4735'
p462
(lp463
S'Szamoss\xc3\xa1lyi'
p464
aS'Szabolcs-Szatm\xc3\xa1r-Bereg'
p465
asS'7522'
p466
(lp467
S'Kapos\xc3\xbajlak'
p468
aS'Somogy'
p469
asS'7526'
p470
(lp471
S'Cs\xc3\xb6k\xc3\xb6ly'
p472
aS'Somogy'
p473
asS'7525'
p474
(lp475
S'J\xc3\xa1k\xc3\xb3'
p476
aS'Somogy'
p477
asS'8294'
p478
(lp479
S'Vig\xc3\xa1ntpetend'
p480
aS'Veszpr\xc3\xa9m'
p481
asS'6781'
p482
(lp483
S'Domasz\xc3\xa9k'
p484
aS'Csongr\xc3\xa1d'
p485
asS'6782'
p486
(lp487
S'M\xc3\xb3rahalom'
p488
aS'Csongr\xc3\xa1d'
p489
asS'6784'
p490
(lp491
S'\xc3\x96tt\xc3\xb6m\xc3\xb6s'
p492
aS'Csongr\xc3\xa1d'
p493
asS'6787'
p494
(lp495
S'Z\xc3\xa1k\xc3\xa1nysz\xc3\xa9k'
p496
aS'Csongr\xc3\xa1d'
p497
asS'6786'
p498
(lp499
S'Ruzsa'
p500
aS'Csongr\xc3\xa1d'
p501
asS'3743'
p502
(lp503
S'Ormosb\xc3\xa1nya'
p504
aS'Borsod-Aba\xc3\xbaj-Zempl\xc3\xa9n'
p505
asS'3741'
p506
(lp507
S'Izs\xc3\xb3falva'
p508
aS'Borsod-Aba\xc3\xbaj-Zempl\xc3\xa9n'
p509
asS'4623'
p510
(lp511
S'Tuzs\xc3\xa9r'
p512
aS'Szabolcs-Szatm\xc3\xa1r-Bereg'
p513
asS'4624'
p514
(lp515
S'Tiszabezd\xc3\xa9d'
p516
aS'Szabolcs-Szatm\xc3\xa1r-Bereg'
p517
asS'4628'
p518
(lp519
S'Tiszaszentm\xc3\xa1rton'
p520
aS'Szabolcs-Szatm\xc3\xa1r-Bereg'
p521
asS'5836'
p522
(lp523
S'Dombegyh\xc3\xa1z'
p524
aS'B\xc3\xa9k\xc3\xa9s'
p525
asS'2458'
p526
(lp527
S'Kulcs'
p528
aS'Fej\xc3\xa9r'
p529
asS'2454'
p530
(lp531
S'Iv\xc3\xa1ncsa'
p532
aS'Fej\xc3\xa9r'
p533
asS'9243'
p534
(lp535
S'V\xc3\xa1rbalog'
p536
aS'Gy\xc5\x91r-Moson-Sopron'
p537
asS'2456'
p538
(lp539
S'Besny\xc5\x91'
p540
aS'Fej\xc3\xa9r'
p541
asS'9245'
p542
(lp543
S'Mosonszolnok'
p544
aS'Gy\xc5\x91r-Moson-Sopron'
p545
asS'9244'
p546
(lp547
S'\xc3\x9ajr\xc3\xb3naf\xc5\x91'
p548
aS'Gy\xc5\x91r-Moson-Sopron'
p549
asS'9531'
p550
(lp551
S'Mersev\xc3\xa1t'
p552
aS'Vas'
p553
asS'7851'
p554
(lp555
S'Dr\xc3\xa1vaszabolcs'
p556
aS'Baranya'
p557
asS'7854'
p558
(lp559
S'Matty'
p560
aS'Baranya'
p561
asS'2051'
p562
(lp563
S'Biatorb\xc3\xa1gy'
p564
aS'Pest'
p565
asS'4826'
p566
(lp567
S'Olcsva'
p568
aS'Szabolcs-Szatm\xc3\xa1r-Bereg'
p569
asS'4535'
p570
(lp571
S'Ny\xc3\xadribrony'
p572
aS'Szabolcs-Szatm\xc3\xa1r-Bereg'
p573
asS'4822'
p574
(lp575
S'Ny\xc3\xadrparasznya'
p576
aS'Szabolcs-Szatm\xc3\xa1r-Bereg'
p577
asS'4531'
p578
(lp579
S'Ny\xc3\xadrpazony'
p580
aS'Szabolcs-Szatm\xc3\xa1r-Bereg'
p581
asS'4533'
p582
(lp583
S'S\xc3\xa9ny\xc5\x91'
p584
aS'Szabolcs-Szatm\xc3\xa1r-Bereg'
p585
asS'7981'
p586
(lp587
S'T\xc3\xb3tszentgy\xc3\xb6rgy'
p588
aS'Baranya'
p589
asS'9401'
p590
(lp591
S'Sopron'
p592
aS'Gy\xc5\x91r-Moson-Sopron'
p593
asS'9400'
p594
(lp595
S'Sopron'
p596
aS'Gy\xc5\x91r-Moson-Sopron'
p597
asS'7985'
p598
(lp599
S'Kisdobsza'
p600
aS'Baranya'
p601
asS'7987'
p602
(lp603
S'Istv\xc3\xa1ndi'
p604
aS'Somogy'
p605
asS'9331'
p606
(lp607
S'Kapuv\xc3\xa1r'
p608
aS'Gy\xc5\x91r-Moson-Sopron'
p609
asS'3526'
p610
(lp611
S'Miskolc'
p612
aS'Borsod-Aba\xc3\xbaj-Zempl\xc3\xa9n'
p613
asS'3528'
p614
(lp615
S'Miskolc'
p616
aS'Borsod-Aba\xc3\xbaj-Zempl\xc3\xa9n'
p617
asS'3529'
p618
(lp619
S'Miskolc'
p620
aS'Borsod-Aba\xc3\xbaj-Zempl\xc3\xa9n'
p621
asS'7211'
p622
(lp623
S'Dalmand'
p624
aS'Tolna'
p625
asS'7213'
p626
(lp627
S'Szakcs'
p628
aS'Tolna'
p629
asS'7214'
p630
(lp631
S'V\xc3\xa1rong'
p632
aS'Tolna'
p633
asS'6211'
p634
(lp635
S'Kaskanty\xc3\xba'
p636
aS'B\xc3\xa1cs-Kiskun'
p637
asS'2697'
p638
(lp639
S'Szanda'
p640
aS'N\xc3\xb3gr\xc3\xa1d'
p641
asS'2694'
p642
(lp643
S'Debercs\xc3\xa9ny'
p644
aS'N\xc3\xb3gr\xc3\xa1d'
p645
asS'2693'
p646
(lp647
S'Becske'
p648
aS'N\xc3\xb3gr\xc3\xa1d'
p649
asS'2691'
p650
(lp651
S'N\xc3\xb3gr\xc3\xa1dk\xc3\xb6vesd'
p652
aS'N\xc3\xb3gr\xc3\xa1d'
p653
asS'9757'
p654
(lp655
S'Meggyeskov\xc3\xa1csi'
p656
aS'Vas'
p657
asS'9754'
p658
(lp659
S'Pec\xc3\xb6l'
p660
aS'Vas'
p661
asS'3233'
p662
(lp663
S'Gy\xc3\xb6ngy\xc3\xb6ssolymos'
p664
aS'Heves'
p665
asS'3231'
p666
(lp667
S'Gy\xc3\xb6ngy\xc3\xb6ssolymos'
p668
aS'Heves'
p669
asS'3234'
p670
(lp671
S'Gy\xc3\xb6ngy\xc3\xb6ssolymos'
p672
aS'Heves'
p673
asS'8849'
p674
(lp675
S'Szenta'
p676
aS'Somogy'
p677
asS'8840'
p678
(lp679
S'Csurg\xc3\xb3'
p680
aS'Somogy'
p681
asS'2870'
p682
(lp683
S'Kisb\xc3\xa9r'
p684
aS'Kom\xc3\xa1rom-Esztergom'
p685
asS'3355'
p686
(lp687
S'K\xc3\xa1polna'
p688
aS'Heves'
p689
asS'7668'
p690
(lp691
S'Kesz\xc3\xbc'
p692
aS'Baranya'
p693
asS'3357'
p694
(lp695
S'Nagy\xc3\xbat'
p696
aS'Heves'
p697
asS'3351'
p698
(lp699
S'Verpel\xc3\xa9t'
p700
aS'Heves'
p701
asS'3350'
p702
(lp703
S'K\xc3\xa1l'
p704
aS'Heves'
p705
asS'3353'
p706
(lp707
S'Aldebr\xc5\x91'
p708
aS'Heves'
p709
asS'7664'
p710
(lp711
S'Berkesd'
p712
aS'Baranya'
p713
asS'7666'
p714
(lp715
S'Pog\xc3\xa1ny'
p716
aS'Baranya'
p717
asS'5449'
p718
(lp719
S'Kunszentm\xc3\xa1rton'
p720
aS'J\xc3\xa1sz-Nagykun-Szolnok'
p721
asS'7068'
p722
(lp723
S'Kistorm\xc3\xa1s'
p724
aS'Tolna'
p725
asS'7067'
p726
(lp727
S'Vars\xc3\xa1d'
p728
aS'Tolna'
p729
asS'7066'
p730
(lp731
S'Udvari'
p732
aS'Tolna'
p733
asS'7063'
p734
(lp735
S'Sz\xc3\xa1razd'
p736
aS'Tolna'
p737
asS'7062'
p738
(lp739
S'Kesz\xc5\x91hidegk\xc3\xbat'
p740
aS'Tolna'
p741
asS'1141'
p742
(lp743
S'Budapest'
p744
aS'Budapest'
p745
asS'8628'
p746
(lp747
S'Nagycsepely'
p748
aS'Somogy'
p749
asS'1144'
p750
(lp751
S'Budapest'
p752
aS'Budapest'
p753
asS'1145'
p754
(lp755
S'Budapest'
p756
aS'Budapest'
p757
asS'8625'
p758
(lp759
S'Sz\xc3\xb3l\xc3\xa1d'
p760
aS'Somogy'
p761
asS'8154'
p762
(lp763
S'Polg\xc3\xa1rdi'
p764
aS'Fej\xc3\xa9r'
p765
asS'8627'
p766
(lp767
S'K\xc3\xb6tcse'
p768
aS'Somogy'
p769
asS'8152'
p770
(lp771
S'K\xc5\x91sz\xc3\xa1rhegy'
p772
aS'Fej\xc3\xa9r'
p773
asS'8621'
p774
(lp775
S'Zam\xc3\xa1rdi'
p776
aS'Somogy'
p777
asS'8623'
p778
(lp779
S'Balatonf\xc3\xb6ldv\xc3\xa1r'
p780
aS'Somogy'
p781
asS'5500'
p782
(lp783
S'Gyomaendr\xc5\x91d'
p784
aS'B\xc3\xa9k\xc3\xa9s'
p785
asS'5501'
p786
(lp787
S'Gyomaendr\xc5\x91d'
p788
aS'B\xc3\xa9k\xc3\xa9s'
p789
asS'8712'
p790
(lp791
S'Balaton\xc3\xbajlak'
p792
aS'Somogy'
p793
asS'8716'
p794
(lp795
S'Gad\xc3\xa1ny'
p796
aS'Somogy'
p797
asS'7192'
p798
(lp799
S'Szak\xc3\xa1ly'
p800
aS'Tolna'
p801
asS'7191'
p802
(lp803
S'H\xc5\x91gy\xc3\xa9sz'
p804
aS'Tolna'
p805
asS'8020'
p806
(lp807
S'Sz\xc3\xa9kesfeh\xc3\xa9rv\xc3\xa1r'
p808
aS'Fej\xc3\xa9r'
p809
asS'9985'
p810
(lp811
S'Fels\xc5\x91sz\xc3\xb6ln\xc3\xb6k'
p812
aS'Vas'
p813
asS'8534'
p814
(lp815
S'Csikv\xc3\xa1nd'
p816
aS'Gy\xc5\x91r-Moson-Sopron'
p817
asS'9983'
p818
(lp819
S'Szakonyfalu'
p820
aS'Vas'
p821
asS'7441'
p822
(lp823
S'Magyaregres'
p824
aS'Somogy'
p825
asS'7444'
p826
(lp827
S'Osztop\xc3\xa1n'
p828
aS'Somogy'
p829
asS'5475'
p830
(lp831
S'Cs\xc3\xa9pa'
p832
aS'J\xc3\xa1sz-Nagykun-Szolnok'
p833
asS'7681'
p834
(lp835
S'Hetvehely'
p836
aS'Baranya'
p837
asS'5136'
p838
(lp839
S'J\xc3\xa1szszentandr\xc3\xa1s'
p840
aS'J\xc3\xa1sz-Nagykun-Szolnok'
p841
asS'9154'
p842
(lp843
S'Mosonszentmikl\xc3\xb3s'
p844
aS'Gy\xc5\x91r-Moson-Sopron'
p845
asS'8445'
p846
(lp847
S'Csehb\xc3\xa1nya'
p848
aS'Veszpr\xc3\xa9m'
p849
asS'5000'
p850
(lp851
S'Szolnok'
p852
aS'J\xc3\xa1sz-Nagykun-Szolnok'
p853
asS'8442'
p854
(lp855
S'H\xc3\xa1rsk\xc3\xbat'
p856
aS'Veszpr\xc3\xa9m'
p857
asS'8443'
p858
(lp859
S'B\xc3\xa1nd'
p860
aS'Veszpr\xc3\xa9m'
p861
asS'4281'
p862
(lp863
S'L\xc3\xa9tav\xc3\xa9rtes'
p864
aS'Hajd\xc3\xba-Bihar'
p865
asS'4286'
p866
(lp867
S'Bagam\xc3\xa9r'
p868
aS'Hajd\xc3\xba-Bihar'
p869
asS'5005'
p870
(lp871
S'Szolnok'
p872
aS'J\xc3\xa1sz-Nagykun-Szolnok'
p873
asS'4284'
p874
(lp875
S'Kokad'
p876
aS'Hajd\xc3\xba-Bihar'
p877
asS'4288'
p878
(lp879
S'\xc3\x9ajl\xc3\xa9ta'
p880
aS'Hajd\xc3\xba-Bihar'
p881
asS'7539'
p882
(lp883
S'Szulok'
p884
aS'Somogy'
p885
asS'7538'
p886
(lp887
S'K\xc3\xa1lm\xc3\xa1ncsa'
p888
aS'Somogy'
p889
asS'7535'
p890
(lp891
S'Lad'
p892
aS'Somogy'
p893
asS'7530'
p894
(lp895
S'Kadark\xc3\xbat'
p896
aS'Somogy'
p897
asS'6774'
p898
(lp899
S'Ferencsz\xc3\xa1ll\xc3\xa1s'
p900
aS'Csongr\xc3\xa1d'
p901
asS'6771'
p902
(lp903
S'Szeged'
p904
aS'Csongr\xc3\xa1d'
p905
asS'9962'
p906
(lp907
S'Cs\xc3\xb6r\xc3\xb6tnek'
p908
aS'Vas'
p909
asS'3759'
p910
(lp911
S'Aggtelek'
p912
aS'Borsod-Aba\xc3\xbaj-Zempl\xc3\xa9n'
p913
asS'3751'
p914
(lp915
S'Szendr\xc5\x91l\xc3\xa1d'
p916
aS'Borsod-Aba\xc3\xbaj-Zempl\xc3\xa9n'
p917
asS'2673'
p918
(lp919
S'Csit\xc3\xa1r'
p920
aS'N\xc3\xb3gr\xc3\xa1d'
p921
asS'3756'
p922
(lp923
S'Perkupa'
p924
aS'Borsod-Aba\xc3\xbaj-Zempl\xc3\xa9n'
p925
asS'2191'
p926
(lp927
S'Bag'
p928
aS'Pest'
p929
asS'2194'
p930
(lp931
S'Tura'
p932
aS'Pest'
p933
asS'2200'
p934
(lp935
S'Monor'
p936
aS'Pest'
p937
asS'2209'
p938
(lp939
S'P\xc3\xa9teri'
p940
aS'Pest'
p941
asS'2422'
p942
(lp943
S'Mez\xc5\x91falva'
p944
aS'Fej\xc3\xa9r'
p945
asS'2423'
p946
(lp947
S'Daruszentmikl\xc3\xb3s'
p948
aS'Fej\xc3\xa9r'
p949
asS'2424'
p950
(lp951
S'El\xc5\x91sz\xc3\xa1ll\xc3\xa1s'
p952
aS'Fej\xc3\xa9r'
p953
asS'2426'
p954
(lp955
S'Baracs'
p956
aS'Fej\xc3\xa9r'
p957
asS'7847'
p958
(lp959
S'Kov\xc3\xa1cshida'
p960
aS'Baranya'
p961
asS'7841'
p962
(lp963
S'Adorj\xc3\xa1s'
p964
aS'Baranya'
p965
asS'7843'
p966
(lp967
S'T\xc3\xa9senfa'
p968
aS'Baranya'
p969
asS'6745'
p970
(lp971
S'Szeged'
p972
aS'Csongr\xc3\xa1d'
p973
asS'6352'
p974
(lp975
S'Fajsz'
p976
aS'B\xc3\xa1cs-Kiskun'
p977
asS'4832'
p978
(lp979
S'Tiszavid'
p980
aS'Szabolcs-Szatm\xc3\xa1r-Bereg'
p981
asS'4522'
p982
(lp983
S'Ny\xc3\xadrtass'
p984
aS'Szabolcs-Szatm\xc3\xa1r-Bereg'
p985
asS'4836'
p986
(lp987
S'L\xc3\xb3nya'
p988
aS'Szabolcs-Szatm\xc3\xa1r-Bereg'
p989
asS'2518'
p990
(lp991
S'Le\xc3\xa1nyv\xc3\xa1r'
p992
aS'Kom\xc3\xa1rom-Esztergom'
p993
asS'9436'
p994
(lp995
S'Fert\xc5\x91sz\xc3\xa9plak'
p996
aS'Gy\xc5\x91r-Moson-Sopron'
p997
asS'9437'
p998
(lp999
S'Hegyk\xc5\x91'
p1000
aS'Gy\xc5\x91r-Moson-Sopron'
p1001
asS'2511'
p1002
(lp1003
S'Dorog'
p1004
aS'Kom\xc3\xa1rom-Esztergom'
p1005
asS'2735'
p1006
(lp1007
S'D\xc3\xa1nszentmikl\xc3\xb3s'
p1008
aS'Pest'
p1009
asS'9342'
p1010
(lp1011
S'Mih\xc3\xa1lyi'
p1012
aS'Gy\xc5\x91r-Moson-Sopron'
p1013
asS'9343'
p1014
(lp1015
S'V\xc3\xa1s\xc3\xa1rosfalu'
p1016
aS'Gy\xc5\x91r-Moson-Sopron'
p1017
asS'9612'
p1018
(lp1019
S'B\xc3\xb6g\xc3\xb6t'
p1020
aS'Vas'
p1021
asS'9345'
p1022
(lp1023
S'P\xc3\xa1li'
p1024
aS'Gy\xc5\x91r-Moson-Sopron'
p1025
asS'9346'
p1026
(lp1027
S'Vadosfa'
p1028
aS'Gy\xc5\x91r-Moson-Sopron'
p1029
asS'9611'
p1030
(lp1031
S'Cs\xc3\xa9nye'
p1032
aS'Vas'
p1033
asS'6742'
p1034
(lp1035
S'Szeged'
p1036
aS'Csongr\xc3\xa1d'
p1037
asS'3531'
p1038
(lp1039
S'Miskolc'
p1040
aS'Borsod-Aba\xc3\xbaj-Zempl\xc3\xa9n'
p1041
asS'1106'
p1042
(lp1043
S'Budapest'
p1044
aS'Budapest'
p1045
asS'3533'
p1046
(lp1047
S'Miskolc'
p1048
aS'Borsod-Aba\xc3\xbaj-Zempl\xc3\xa9n'
p1049
asS'3534'
p1050
(lp1051
S'Miskolc'
p1052
aS'Borsod-Aba\xc3\xbaj-Zempl\xc3\xa9n'
p1053
asS'5054'
p1054
(lp1055
S'J\xc3\xa1szals\xc3\xb3szentgy\xc3\xb6rgy'
p1056
aS'J\xc3\xa1sz-Nagykun-Szolnok'
p1057
asS'5051'
p1058
(lp1059
S'Zagyvar\xc3\xa9kas'
p1060
aS'J\xc3\xa1sz-Nagykun-Szolnok'
p1061
asS'8225'
p1062
(lp1063
S'Szentkir\xc3\xa1lyszabadja'
p1064
aS'Veszpr\xc3\xa9m'
p1065
asS'7203'
p1066
(lp1067
S'Domb\xc3\xb3v\xc3\xa1r'
p1068
aS'Tolna'
p1069
asS'7201'
p1070
(lp1071
S'Domb\xc3\xb3v\xc3\xa1r'
p1072
aS'Tolna'
p1073
asS'7200'
p1074
(lp1075
S'Domb\xc3\xb3v\xc3\xa1r'
p1076
aS'Tolna'
p1077
asS'8637'
p1078
(lp1079
S'Balaton\xc5\x91sz\xc3\xb6d'
p1080
aS'Somogy'
p1081
asS'6224'
p1082
(lp1083
S'Tabdi'
p1084
aS'B\xc3\xa1cs-Kiskun'
p1085
asS'1156'
p1086
(lp1087
S'Budapest'
p1088
aS'Budapest'
p1089
asS'9763'
p1090
(lp1091
S'Vassz\xc3\xa9cseny'
p1092
aS'Vas'
p1093
asS'9761'
p1094
(lp1095
S'T\xc3\xa1pl\xc3\xa1nszentkereszt'
p1096
aS'Vas'
p1097
asS'9766'
p1098
(lp1099
S'Zsennye'
p1100
aS'Vas'
p1101
asS'1152'
p1102
(lp1103
S'Budapest'
p1104
aS'Budapest'
p1105
asS'2166'
p1106
(lp1107
S'P\xc3\xbcsp\xc3\xb6kszil\xc3\xa1gy'
p1108
aS'Pest'
p1109
asS'7331'
p1110
(lp1111
S'Liget'
p1112
aS'Baranya'
p1113
asS'9555'
p1114
(lp1115
S'Kissomly\xc3\xb3'
p1116
aS'Vas'
p1117
asS'3221'
p1118
(lp1119
S'Nagyr\xc3\xa9de'
p1120
aS'Heves'
p1121
asS'8851'
p1122
(lp1123
S'Gy\xc3\xa9k\xc3\xa9nyes'
p1124
aS'Somogy'
p1125
asS'4955'
p1126
(lp1127
S'Botpal\xc3\xa1d'
p1128
aS'Szabolcs-Szatm\xc3\xa1r-Bereg'
p1129
asS'8855'
p1130
(lp1131
S'Belezna'
p1132
aS'Zala'
p1133
asS'8854'
p1134
(lp1135
S'\xc5\x90rtilos'
p1136
aS'Somogy'
p1137
asS'2840'
p1138
(lp1139
S'Oroszl\xc3\xa1ny'
p1140
aS'Kom\xc3\xa1rom-Esztergom'
p1141
asS'3321'
p1142
(lp1143
S'Egerbakta'
p1144
aS'Heves'
p1145
asS'3322'
p1146
(lp1147
S'Hevesaranyos'
p1148
aS'Heves'
p1149
asS'3323'
p1150
(lp1151
S'Szarvask\xc5\x91'
p1152
aS'Heves'
p1153
asS'3324'
p1154
(lp1155
S'Fels\xc5\x91t\xc3\xa1rk\xc3\xa1ny'
p1156
aS'Heves'
p1157
asS'5473'
p1158
(lp1159
S'Tiszaug'
p1160
aS'J\xc3\xa1sz-Nagykun-Szolnok'
p1161
asS'3327'
p1162
(lp1163
S'Novaj'
p1164
aS'Heves'
p1165
asS'2612'
p1166
(lp1167
S'Kosd'
p1168
aS'Pest'
p1169
asS'9737'
p1170
(lp1171
S'B\xc3\xbck'
p1172
aS'Vas'
p1173
asS'7057'
p1174
(lp1175
S'Medina'
p1176
aS'Tolna'
p1177
asS'7054'
p1178
(lp1179
S'Tengelic'
p1180
aS'Tolna'
p1181
asS'8638'
p1182
(lp1183
S'Balatonlelle'
p1184
aS'Somogy'
p1185
asS'1155'
p1186
(lp1187
S'Budapest'
p1188
aS'Budapest'
p1189
asS'8636'
p1190
(lp1191
S'Balatonszemes'
p1192
aS'Somogy'
p1193
asS'8142'
p1194
(lp1195
S'\xc3\x9arhida'
p1196
aS'Fej\xc3\xa9r'
p1197
asS'8144'
p1198
(lp1199
S'S\xc3\xa1rkeszi'
p1200
aS'Fej\xc3\xa9r'
p1201
asS'1153'
p1202
(lp1203
S'Budapest'
p1204
aS'Budapest'
p1205
asS'8146'
p1206
(lp1207
S'Jen\xc5\x91'
p1208
aS'Fej\xc3\xa9r'
p1209
asS'5510'
p1210
(lp1211
S'D\xc3\xa9vav\xc3\xa1nya'
p1212
aS'B\xc3\xa9k\xc3\xa9s'
p1213
asS'3036'
p1214
(lp1215
S'Gy\xc3\xb6ngy\xc3\xb6starj\xc3\xa1n'
p1216
aS'Heves'
p1217
asS'3032'
p1218
(lp1219
S'Apc'
p1220
aS'Heves'
p1221
asS'3033'
p1222
(lp1223
S'R\xc3\xb3zsaszentm\xc3\xa1rton'
p1224
aS'Heves'
p1225
asS'8705'
p1226
(lp1227
S'Somogyszentp\xc3\xa1l'
p1228
aS'Somogy'
p1229
asS'8708'
p1230
(lp1231
S'Somogyfajsz'
p1232
aS'Somogy'
p1233
asS'5605'
p1234
(lp1235
S'B\xc3\xa9k\xc3\xa9scsaba'
p1236
aS'B\xc3\xa9k\xc3\xa9s'
p1237
asS'5601'
p1238
(lp1239
S'B\xc3\xa9k\xc3\xa9scsaba'
p1240
aS'B\xc3\xa9k\xc3\xa9s'
p1241
asS'5600'
p1242
(lp1243
S'B\xc3\xa9k\xc3\xa9scsaba'
p1244
aS'B\xc3\xa9k\xc3\xa9s'
p1245
asS'5603'
p1246
(lp1247
S'B\xc3\xa9k\xc3\xa9scsaba'
p1248
aS'B\xc3\xa9k\xc3\xa9s'
p1249
asS'5602'
p1250
(lp1251
S'B\xc3\xa9k\xc3\xa9scsaba'
p1252
aS'B\xc3\xa9k\xc3\xa9s'
p1253
asS'8523'
p1254
(lp1255
S'Egyh\xc3\xa1zaskesz\xc5\x91'
p1256
aS'Veszpr\xc3\xa9m'
p1257
asS'8521'
p1258
(lp1259
S'Nagyacs\xc3\xa1d'
p1260
aS'Veszpr\xc3\xa9m'
p1261
asS'6513'
p1262
(lp1263
S'Dunafalva'
p1264
aS'B\xc3\xa1cs-Kiskun'
p1265
asS'5131'
p1266
(lp1267
S'J\xc3\xa1szap\xc3\xa1ti'
p1268
aS'J\xc3\xa1sz-Nagykun-Szolnok'
p1269
asS'5130'
p1270
(lp1271
S'J\xc3\xa1szap\xc3\xa1ti'
p1272
aS'J\xc3\xa1sz-Nagykun-Szolnok'
p1273
asS'8454'
p1274
(lp1275
S'Nyir\xc3\xa1d'
p1276
aS'Veszpr\xc3\xa9m'
p1277
asS'8452'
p1278
(lp1279
S'Halimba'
p1280
aS'Veszpr\xc3\xa9m'
p1281
asS'8945'
p1282
(lp1283
S'Bak'
p1284
aS'Zala'
p1285
asS'6425'
p1286
(lp1287
S'B\xc3\xa1cssz\xc5\x91l\xc5\x91s'
p1288
aS'B\xc3\xa1cs-Kiskun'
p1289
asS'6421'
p1290
(lp1291
S'Kissz\xc3\xa1ll\xc3\xa1s'
p1292
aS'B\xc3\xa1cs-Kiskun'
p1293
asS'8948'
p1294
(lp1295
S'Barlahida'
p1296
aS'Zala'
p1297
asS'7541'
p1298
(lp1299
S'Kutas'
p1300
aS'Somogy'
p1301
asS'7544'
p1302
(lp1303
S'Szab\xc3\xa1s'
p1304
aS'Somogy'
p1305
asS'7261'
p1306
(lp1307
S'Tasz\xc3\xa1r'
p1308
aS'Somogy'
p1309
asS'6769'
p1310
(lp1311
S'Pusztaszer'
p1312
aS'Csongr\xc3\xa1d'
p1313
asS'4743'
p1314
(lp1315
S'Csengersima'
p1316
aS'Szabolcs-Szatm\xc3\xa1r-Bereg'
p1317
asS'4741'
p1318
(lp1319
S'J\xc3\xa1nkmajtis'
p1320
aS'Szabolcs-Szatm\xc3\xa1r-Bereg'
p1321
asS'6763'
p1322
(lp1323
S'Szatymaz'
p1324
aS'Csongr\xc3\xa1d'
p1325
asS'4745'
p1326
(lp1327
S'Szamosbecs'
p1328
aS'Szabolcs-Szatm\xc3\xa1r-Bereg'
p1329
asS'9971'
p1330
(lp1331
S'Szentgotth\xc3\xa1rd'
p1332
aS'Vas'
p1333
asS'2183'
p1334
(lp1335
S'Galgam\xc3\xa1csa'
p1336
aS'Pest'
p1337
asS'4600'
p1338
(lp1339
S'Kisv\xc3\xa1rda'
p1340
aS'Szabolcs-Szatm\xc3\xa1r-Bereg'
p1341
asS'4601'
p1342
(lp1343
S'Kisv\xc3\xa1rda'
p1344
aS'Szabolcs-Szatm\xc3\xa1r-Bereg'
p1345
asS'2212'
p1346
(lp1347
S'Cs\xc3\xa9vharaszt'
p1348
aS'Pest'
p1349
asS'2214'
p1350
(lp1351
S'P\xc3\xa1nd'
p1352
aS'Pest'
p1353
asS'2338'
p1354
(lp1355
S'\xc3\x81porka'
p1356
aS'Pest'
p1357
asS'8681'
p1358
(lp1359
S'Visz'
p1360
aS'Somogy'
p1361
asS'2433'
p1362
(lp1363
S'S\xc3\xa1rosd'
p1364
aS'Fej\xc3\xa9r'
p1365
asS'2431'
p1366
(lp1367
S'Perk\xc3\xa1ta'
p1368
aS'Fej\xc3\xa9r'
p1369
asS'6900'
p1370
(lp1371
S'Mak\xc3\xb3'
p1372
aS'Csongr\xc3\xa1d'
p1373
asS'7838'
p1374
(lp1375
S'L\xc3\xbazsok'
p1376
aS'Baranya'
p1377
asS'7834'
p1378
(lp1379
S'Baksa'
p1380
aS'Baranya'
p1381
asS'6343'
p1382
(lp1383
S'Miske'
p1384
aS'B\xc3\xa1cs-Kiskun'
p1385
asS'6342'
p1386
(lp1387
S'Dr\xc3\xa1gsz\xc3\xa9l'
p1388
aS'B\xc3\xa1cs-Kiskun'
p1389
asS'6344'
p1390
(lp1391
S'Haj\xc3\xb3s'
p1392
aS'B\xc3\xa1cs-Kiskun'
p1393
asS'6346'
p1394
(lp1395
S'S\xc3\xbck\xc3\xb6sd'
p1396
aS'B\xc3\xa1cs-Kiskun'
p1397
asS'6348'
p1398
(lp1399
S'\xc3\x89rsekhalma'
p1400
aS'B\xc3\xa1cs-Kiskun'
p1401
asS'4511'
p1402
(lp1403
S'Ny\xc3\xadrbogd\xc3\xa1ny'
p1404
aS'Szabolcs-Szatm\xc3\xa1r-Bereg'
p1405
asS'4516'
p1406
(lp1407
S'Demecser'
p1408
aS'Szabolcs-Szatm\xc3\xa1r-Bereg'
p1409
asS'4515'
p1410
(lp1411
S'K\xc3\xa9k'
p1412
aS'Szabolcs-Szatm\xc3\xa1r-Bereg'
p1413
asS'9421'
p1414
(lp1415
S'Fert\xc5\x91r\xc3\xa1kos'
p1416
aS'Gy\xc5\x91r-Moson-Sopron'
p1417
asS'2503'
p1418
(lp1419
S'Esztergom'
p1420
aS'Kom\xc3\xa1rom-Esztergom'
p1421
asS'2501'
p1422
(lp1423
S'Esztergom'
p1424
aS'Kom\xc3\xa1rom-Esztergom'
p1425
asS'9601'
p1426
(lp1427
S'S\xc3\xa1rv\xc3\xa1r'
p1428
aS'Vas'
p1429
asS'9352'
p1430
(lp1431
S'Veszk\xc3\xa9ny'
p1432
aS'Gy\xc5\x91r-Moson-Sopron'
p1433
asS'9351'
p1434
(lp1435
S'Bab\xc3\xb3t'
p1436
aS'Gy\xc5\x91r-Moson-Sopron'
p1437
asS'2723'
p1438
(lp1439
S'Ny\xc3\xa1regyh\xc3\xa1za'
p1440
aS'Pest'
p1441
asS'2721'
p1442
(lp1443
S'Pilis'
p1444
aS'Pest'
p1445
asS'7940'
p1446
(lp1447
S'Kacs\xc3\xb3ta'
p1448
aS'Baranya'
p1449
asS'3780'
p1450
(lp1451
S'Edel\xc3\xa9ny'
p1452
aS'Borsod-Aba\xc3\xbaj-Zempl\xc3\xa9n'
p1453
asS'8999'
p1454
(lp1455
S'Cs\xc3\xb6de'
p1456
aS'Zala'
p1457
asS'8992'
p1458
(lp1459
S'Boncodf\xc3\xb6lde'
p1460
aS'Zala'
p1461
asS'8991'
p1462
(lp1463
S'Tesk\xc3\xa1nd'
p1464
aS'Zala'
p1465
asS'8996'
p1466
(lp1467
S'Zalacs\xc3\xa9b'
p1468
aS'Zala'
p1469
asS'8997'
p1470
(lp1471
S'Zalah\xc3\xa1sh\xc3\xa1gy'
p1472
aS'Zala'
p1473
asS'8994'
p1474
(lp1475
S'Zalaszentgy\xc3\xb6rgy'
p1476
aS'Zala'
p1477
asS'9515'
p1478
(lp1479
S'P\xc3\xa1poc'
p1480
aS'Vas'
p1481
asS'9511'
p1482
(lp1483
S'Kemenesmih\xc3\xa1lyfa'
p1484
aS'Vas'
p1485
asS'9513'
p1486
(lp1487
S'Cs\xc3\xb6nge'
p1488
aS'Vas'
p1489
asS'9512'
p1490
(lp1491
S'Ostffyasszonyfa'
p1492
aS'Vas'
p1493
asS'6235'
p1494
(lp1495
S'B\xc3\xb3csa'
p1496
aS'B\xc3\xa1cs-Kiskun'
p1497
asS'6237'
p1498
(lp1499
S'Kecel'
p1500
aS'B\xc3\xa1cs-Kiskun'
p1501
asS'6236'
p1502
(lp1503
S'T\xc3\xa1zl\xc3\xa1r'
p1504
aS'B\xc3\xa1cs-Kiskun'
p1505
asS'6230'
p1506
(lp1507
S'Soltvadkert'
p1508
aS'B\xc3\xa1cs-Kiskun'
p1509
asS'7000'
p1510
(lp1511
S'S\xc3\xa1rbog\xc3\xa1rd'
p1512
aS'Fej\xc3\xa9r'
p1513
asS'9775'
p1514
(lp1515
S'Nemeskolta'
p1516
aS'Vas'
p1517
asS'9774'
p1518
(lp1519
S'Gyan\xc3\xb3geregye'
p1520
aS'Vas'
p1521
asS'9771'
p1522
(lp1523
S'Balogunyom'
p1524
aS'Vas'
p1525
asS'9773'
p1526
(lp1527
S'Sorokpol\xc3\xa1ny'
p1528
aS'Vas'
p1529
asS'3258'
p1530
(lp1531
S'Tarnalelesz'
p1532
aS'Heves'
p1533
asS'7300'
p1534
(lp1535
S'Koml\xc3\xb3'
p1536
aS'Baranya'
p1537
asS'9026'
p1538
(lp1539
S'Gy\xc5\x91r'
p1540
aS'Gy\xc5\x91r-Moson-Sopron'
p1541
asS'8862'
p1542
(lp1543
S'Semj\xc3\xa9nh\xc3\xa1za'
p1544
aS'Zala'
p1545
asS'3253'
p1546
(lp1547
S'Istenmezeje'
p1548
aS'Heves'
p1549
asS'3255'
p1550
(lp1551
S'Fed\xc3\xa9mes'
p1552
aS'Heves'
p1553
asS'3256'
p1554
(lp1555
S'Kisf\xc3\xbczes'
p1556
aS'Heves'
p1557
asS'2859'
p1558
(lp1559
S'V\xc3\xa9rteskethely'
p1560
aS'Kom\xc3\xa1rom-Esztergom'
p1561
asS'2858'
p1562
(lp1563
S'Cs\xc3\xa1sz\xc3\xa1r'
p1564
aS'Kom\xc3\xa1rom-Esztergom'
p1565
asS'2852'
p1566
(lp1567
S'Kecsk\xc3\xa9d'
p1568
aS'Kom\xc3\xa1rom-Esztergom'
p1569
asS'2854'
p1570
(lp1571
S'Dad'
p1572
aS'Kom\xc3\xa1rom-Esztergom'
p1573
asS'7045'
p1574
(lp1575
S'Gy\xc3\xb6rk\xc3\xb6ny'
p1576
aS'Tolna'
p1577
asS'7044'
p1578
(lp1579
S'Nagydorog'
p1580
aS'Tolna'
p1581
asS'5463'
p1582
(lp1583
S'Nagyr\xc3\xa9v'
p1584
aS'J\xc3\xa1sz-Nagykun-Szolnok'
p1585
asS'5462'
p1586
(lp1587
S'Cibakh\xc3\xa1za'
p1588
aS'J\xc3\xa1sz-Nagykun-Szolnok'
p1589
asS'7041'
p1590
(lp1591
S'Vajta'
p1592
aS'Fej\xc3\xa9r'
p1593
asS'3335'
p1594
(lp1595
S'B\xc3\xbckksz\xc3\xa9k'
p1596
aS'Heves'
p1597
asS'3334'
p1598
(lp1599
S'Terpes'
p1600
aS'Heves'
p1601
asS'3659'
p1602
(lp1603
S'S\xc3\xa1ta'
p1604
aS'Borsod-Aba\xc3\xbaj-Zempl\xc3\xa9n'
p1605
asS'8602'
p1606
(lp1607
S'Si\xc3\xb3fok'
p1608
aS'Somogy'
p1609
asS'1123'
p1610
(lp1611
S'Budapest'
p1612
aS'Budapest'
p1613
asS'1125'
p1614
(lp1615
S'Budapest'
p1616
aS'Budapest'
p1617
asS'1126'
p1618
(lp1619
S'Budapest'
p1620
aS'Budapest'
p1621
asS'3023'
p1622
(lp1623
S'Pet\xc5\x91fib\xc3\xa1nya'
p1624
aS'Heves'
p1625
asS'3022'
p1626
(lp1627
S'L\xc5\x91rinci'
p1628
aS'Heves'
p1629
asS'8739'
p1630
(lp1631
S'Nagyszak\xc3\xa1csi'
p1632
aS'Somogy'
p1633
asS'1015'
p1634
(lp1635
S'Budapest'
p1636
aS'Budapest'
p1637
asS'1016'
p1638
(lp1639
S'Budapest'
p1640
aS'Budapest'
p1641
asS'8732'
p1642
(lp1643
S'S\xc3\xa1voly'
p1644
aS'Somogy'
p1645
asS'1011'
p1646
(lp1647
S'Budapest'
p1648
aS'Budapest'
p1649
asS'1012'
p1650
(lp1651
S'Budapest'
p1652
aS'Budapest'
p1653
asS'8731'
p1654
(lp1655
S'Tikos'
p1656
aS'Somogy'
p1657
asS'8517'
p1658
(lp1659
S'Magyargencs'
p1660
aS'Veszpr\xc3\xa9m'
p1661
asS'8042'
p1662
(lp1663
S'Moha'
p1664
aS'Fej\xc3\xa9r'
p1665
asS'8043'
p1666
(lp1667
S'Iszkaszentgy\xc3\xb6rgy'
p1668
aS'Fej\xc3\xa9r'
p1669
asS'8046'
p1670
(lp1671
S'Bakonyk\xc3\xbati'
p1672
aS'Fej\xc3\xa9r'
p1673
asS'8511'
p1674
(lp1675
S'P\xc3\xa1pa'
p1676
aS'Veszpr\xc3\xa9m'
p1677
asS'5671'
p1678
(lp1679
S'Nagyb\xc3\xa1nhegyes'
p1680
aS'B\xc3\xa9k\xc3\xa9s'
p1681
asS'8284'
p1682
(lp1683
S'Kisap\xc3\xa1ti'
p1684
aS'Veszpr\xc3\xa9m'
p1685
asS'5674'
p1686
(lp1687
S'K\xc3\xa9tsoprony'
p1688
aS'B\xc3\xa9k\xc3\xa9s'
p1689
asS'5675'
p1690
(lp1691
S'Telekgerend\xc3\xa1s'
p1692
aS'B\xc3\xa9k\xc3\xa9s'
p1693
asS'4356'
p1694
(lp1695
S'Ny\xc3\xadrcsaholy'
p1696
aS'Szabolcs-Szatm\xc3\xa1r-Bereg'
p1697
asS'4353'
p1698
(lp1699
S'Tiborsz\xc3\xa1ll\xc3\xa1s'
p1700
aS'Szabolcs-Szatm\xc3\xa1r-Bereg'
p1701
asS'6503'
p1702
(lp1703
S'Baja'
p1704
aS'B\xc3\xa1cs-Kiskun'
p1705
asS'6500'
p1706
(lp1707
S'Baja'
p1708
aS'B\xc3\xa1cs-Kiskun'
p1709
asS'3800'
p1710
(lp1711
S'Sziksz\xc3\xb3'
p1712
aS'Borsod-Aba\xc3\xbaj-Zempl\xc3\xa9n'
p1713
asS'8460'
p1714
(lp1715
S'Devecser'
p1716
aS'Veszpr\xc3\xa9m'
p1717
asS'8469'
p1718
(lp1719
S'Kamond'
p1720
aS'Veszpr\xc3\xa9m'
p1721
asS'6435'
p1722
(lp1723
S'Kunbaja'
p1724
aS'B\xc3\xa1cs-Kiskun'
p1725
asS'8191'
p1726
(lp1727
S'\xc3\x96sk\xc3\xbc'
p1728
aS'Veszpr\xc3\xa9m'
p1729
asS'8196'
p1730
(lp1731
S'Lit\xc3\xa9r'
p1732
aS'Veszpr\xc3\xa9m'
p1733
asS'6430'
p1734
(lp1735
S'B\xc3\xa1csalm\xc3\xa1s'
p1736
aS'B\xc3\xa1cs-Kiskun'
p1737
asS'5700'
p1738
(lp1739
S'Gyula'
p1740
aS'B\xc3\xa9k\xc3\xa9s'
p1741
asS'5701'
p1742
(lp1743
S'Gyula'
p1744
aS'B\xc3\xa9k\xc3\xa9s'
p1745
asS'7552'
p1746
(lp1747
S'Rinyabeseny\xc5\x91'
p1748
aS'Somogy'
p1749
asS'7551'
p1750
(lp1751
S'L\xc3\xa1bod'
p1752
aS'Somogy'
p1753
asS'7556'
p1754
(lp1755
S'Rinya\xc3\xbajlak'
p1756
aS'Somogy'
p1757
asS'4174'
p1758
(lp1759
S'Bihartorda'
p1760
aS'Hajd\xc3\xba-Bihar'
p1761
asS'4176'
p1762
(lp1763
S'S\xc3\xa1p'
p1764
aS'Hajd\xc3\xba-Bihar'
p1765
asS'4171'
p1766
(lp1767
S'S\xc3\xa1rr\xc3\xa9tudvari'
p1768
aS'Hajd\xc3\xba-Bihar'
p1769
asS'4173'
p1770
(lp1771
S'Nagyr\xc3\xa1b\xc3\xa9'
p1772
aS'Hajd\xc3\xba-Bihar'
p1773
asS'6750'
p1774
(lp1775
S'Algy\xc5\x91'
p1776
aS'Csongr\xc3\xa1d'
p1777
asS'6756'
p1778
(lp1779
S'Tiszasziget'
p1780
aS'Csongr\xc3\xa1d'
p1781
asS'6757'
p1782
(lp1783
S'Tiszasziget'
p1784
aS'Csongr\xc3\xa1d'
p1785
asS'6755'
p1786
(lp1787
S'K\xc3\xbcbekh\xc3\xa1za'
p1788
aS'Csongr\xc3\xa1d'
p1789
asS'9943'
p1790
(lp1791
S'Kondorfa'
p1792
aS'Vas'
p1793
asS'9941'
p1794
(lp1795
S'\xc5\x90riszentp\xc3\xa9ter'
p1796
aS'Vas'
p1797
asS'9946'
p1798
(lp1799
S'Velem\xc3\xa9r'
p1800
aS'Vas'
p1801
asS'7393'
p1802
(lp1803
S'Bak\xc3\xb3ca'
p1804
aS'Baranya'
p1805
asS'5925'
p1806
(lp1807
S'Gerend\xc3\xa1s'
p1808
aS'B\xc3\xa9k\xc3\xa9s'
p1809
asS'5920'
p1810
(lp1811
S'Csorv\xc3\xa1s'
p1812
aS'B\xc3\xa9k\xc3\xa9s'
p1813
asS'7827'
p1814
(lp1815
S'K\xc3\xa1s\xc3\xa1d'
p1816
aS'Baranya'
p1817
asS'7824'
p1818
(lp1819
S'Old'
p1820
aS'Baranya'
p1821
asS'2081'
p1822
(lp1823
S'Piliscsaba'
p1824
aS'Pest'
p1825
asS'2086'
p1826
(lp1827
S'Tinnye'
p1828
aS'Pest'
p1829
asS'2084'
p1830
(lp1831
S'Pilisszentiv\xc3\xa1n'
p1832
aS'Pest'
p1833
asS'2085'
p1834
(lp1835
S'Pilisv\xc3\xb6r\xc3\xb6sv\xc3\xa1r'
p1836
aS'Pest'
p1837
asS'2531'
p1838
(lp1839
S'Tokod'
p1840
aS'Kom\xc3\xa1rom-Esztergom'
p1841
asS'2536'
p1842
(lp1843
S'Nyerges\xc3\xbajfalu'
p1844
aS'Kom\xc3\xa1rom-Esztergom'
p1845
asS'2537'
p1846
(lp1847
S'Nyerges\xc3\xbajfalu'
p1848
aS'Kom\xc3\xa1rom-Esztergom'
p1849
asS'2534'
p1850
(lp1851
S'T\xc3\xa1t'
p1852
aS'Kom\xc3\xa1rom-Esztergom'
p1853
asS'5453'
p1854
(lp1855
S'Mez\xc5\x91h\xc3\xa9k'
p1856
aS'J\xc3\xa1sz-Nagykun-Szolnok'
p1857
asS'9364'
p1858
(lp1859
S'Cir\xc3\xa1k'
p1860
aS'Gy\xc5\x91r-Moson-Sopron'
p1861
asS'9362'
p1862
(lp1863
S'Himod'
p1864
aS'Gy\xc5\x91r-Moson-Sopron'
p1865
asS'8985'
p1866
(lp1867
S'Becsv\xc3\xb6lgye'
p1868
aS'Zala'
p1869
asS'8984'
p1870
(lp1871
S'Petrikereszt\xc3\xbar'
p1872
aS'Zala'
p1873
asS'7954'
p1874
(lp1875
S'Gilv\xc3\xa1nfa'
p1876
aS'Baranya'
p1877
asS'9169'
p1878
(lp1879
S'Barbacs'
p1880
aS'Gy\xc5\x91r-Moson-Sopron'
p1881
asS'7227'
p1882
(lp1883
S'Gyulaj'
p1884
aS'Tolna'
p1885
asS'9164'
p1886
(lp1887
S'Markotab\xc3\xb6d\xc3\xb6ge'
p1888
aS'Gy\xc5\x91r-Moson-Sopron'
p1889
asS'9165'
p1890
(lp1891
S'Cak\xc3\xb3h\xc3\xa1za'
p1892
aS'Gy\xc5\x91r-Moson-Sopron'
p1893
asS'5071'
p1894
(lp1895
S'Besenysz\xc3\xb6g'
p1896
aS'J\xc3\xa1sz-Nagykun-Szolnok'
p1897
asS'9161'
p1898
(lp1899
S'Gy\xc5\x91rs\xc3\xb6v\xc3\xa9nyh\xc3\xa1z'
p1900
aS'Gy\xc5\x91r-Moson-Sopron'
p1901
asS'9163'
p1902
(lp1903
S'Feh\xc3\xa9rt\xc3\xb3'
p1904
aS'Gy\xc5\x91r-Moson-Sopron'
p1905
asS'3794'
p1906
(lp1907
S'Boldva'
p1908
aS'Borsod-Aba\xc3\xbaj-Zempl\xc3\xa9n'
p1909
asS'3791'
p1910
(lp1911
S'Saj\xc3\xb3kereszt\xc3\xbar'
p1912
aS'Borsod-Aba\xc3\xbaj-Zempl\xc3\xa9n'
p1913
asS'9561'
p1914
(lp1915
S'Tokorcs'
p1916
aS'Vas'
p1917
asS'2402'
p1918
(lp1919
S'Duna\xc3\xbajv\xc3\xa1ros'
p1920
aS'Fej\xc3\xa9r'
p1921
asS'2153'
p1922
(lp1923
S'F\xc3\xb3t'
p1924
aS'Pest'
p1925
asS'2408'
p1926
(lp1927
S'Duna\xc3\xbajv\xc3\xa1ros'
p1928
aS'Fej\xc3\xa9r'
p1929
asS'9700'
p1930
(lp1931
S'Szombathely'
p1932
aS'Vas'
p1933
asS'9701'
p1934
(lp1935
S'Szombathely'
p1936
aS'Vas'
p1937
asS'9707'
p1938
(lp1939
S'Szombathely'
p1940
aS'Vas'
p1941
asS'8873'
p1942
(lp1943
S'Cs\xc3\xb6rnyef\xc3\xb6ld'
p1944
aS'Zala'
p1945
asS'3248'
p1946
(lp1947
S'Iv\xc3\xa1d'
p1948
aS'Heves'
p1949
asS'8877'
p1950
(lp1951
S'Tornyiszentmikl\xc3\xb3s'
p1952
aS'Zala'
p1953
asS'8876'
p1954
(lp1955
S'Tormaf\xc3\xb6lde'
p1956
aS'Zala'
p1957
asS'3240'
p1958
(lp1959
S'Par\xc3\xa1d'
p1960
aS'Heves'
p1961
asS'3247'
p1962
(lp1963
S'M\xc3\xa1traballa'
p1964
aS'Heves'
p1965
asS'3245'
p1966
(lp1967
S'Recsk'
p1968
aS'Heves'
p1969
asS'7030'
p1970
(lp1971
S'Paks'
p1972
aS'Tolna'
p1973
asS'9012'
p1974
(lp1975
S'Gy\xc5\x91r'
p1976
aS'Gy\xc5\x91r-Moson-Sopron'
p1977
asS'9013'
p1978
(lp1979
S'Gy\xc5\x91r'
p1980
aS'Gy\xc5\x91r-Moson-Sopron'
p1981
asS'7038'
p1982
(lp1983
S'Pusztahencse'
p1984
aS'Tolna'
p1985
asS'7039'
p1986
(lp1987
S'N\xc3\xa9metk\xc3\xa9r'
p1988
aS'Tolna'
p1989
asS'3302'
p1990
(lp1991
S'Eger'
p1992
aS'Heves'
p1993
asS'3303'
p1994
(lp1995
S'Eger'
p1996
aS'Heves'
p1997
asS'3300'
p1998
(lp1999
S'Eger'
p2000
aS'Heves'
p2001
asS'1139'
p2002
(lp2003
S'Budapest'
p2004
aS'Budapest'
p2005
asS'1133'
p2006
(lp2007
S'Budapest'
p2008
aS'Budapest'
p2009
asS'1136'
p2010
(lp2011
S'Budapest'
p2012
aS'Budapest'
p2013
asS'1135'
p2014
(lp2015
S'Budapest'
p2016
aS'Budapest'
p2017
asS'7783'
p2018
(lp2019
S'Majs'
p2020
aS'Baranya'
p2021
asS'7781'
p2022
(lp2023
S'S\xc3\xa1rok'
p2024
aS'Baranya'
p2025
asS'7148'
p2026
(lp2027
S'Als\xc3\xb3ny\xc3\xa9k'
p2028
aS'Tolna'
p2029
asS'7149'
p2030
(lp2031
S'B\xc3\xa1ta'
p2032
aS'Tolna'
p2033
asS'7144'
p2034
(lp2035
S'Decs'
p2036
aS'Tolna'
p2037
asS'3013'
p2038
(lp2039
S'Ecs\xc3\xa9d'
p2040
aS'Heves'
p2041
asS'7146'
p2042
(lp2043
S'V\xc3\xa1rdomb'
p2044
aS'Tolna'
p2045
asS'3011'
p2046
(lp2047
S'Her\xc3\xa9d'
p2048
aS'Heves'
p2049
asS'3016'
p2050
(lp2051
S'Boldog'
p2052
aS'Heves'
p2053
asS'7143'
p2054
(lp2055
S'\xc5\x90cs\xc3\xa9ny'
p2056
aS'Tolna'
p2057
asS'6767'
p2058
(lp2059
S'\xc3\x93pusztaszer'
p2060
aS'Csongr\xc3\xa1d'
p2061
asS'8723'
p2062
(lp2063
S'Var\xc3\xa1szl\xc3\xb3'
p2064
aS'Somogy'
p2065
asS'8722'
p2066
(lp2067
S'Nemesd\xc3\xa9d'
p2068
aS'Somogy'
p2069
asS'8725'
p2070
(lp2071
S'Iharosber\xc3\xa9ny'
p2072
aS'Somogy'
p2073
asS'6765'
p2074
(lp2075
S'Csengele'
p2076
aS'Csongr\xc3\xa1d'
p2077
asS'8053'
p2078
(lp2079
S'Bodajk'
p2080
aS'Fej\xc3\xa9r'
p2081
asS'8051'
p2082
(lp2083
S'S\xc3\xa1rkeresztes'
p2084
aS'Fej\xc3\xa9r'
p2085
asS'1224'
p2086
(lp2087
S'Budapest'
p2088
aS'Budapest'
p2089
asS'1222'
p2090
(lp2091
S'Budapest'
p2092
aS'Budapest'
p2093
asS'8055'
p2094
(lp2095
S'Balinka'
p2096
aS'Fej\xc3\xa9r'
p2097
asS'4181'
p2098
(lp2099
S'N\xc3\xa1dudvar'
p2100
aS'Hajd\xc3\xba-Bihar'
p2101
asS'5663'
p2102
(lp2103
S'Medgyesbodz\xc3\xa1s'
p2104
aS'B\xc3\xa9k\xc3\xa9s'
p2105
asS'8790'
p2106
(lp2107
S'Zalaszentgr\xc3\xb3t'
p2108
aS'Zala'
p2109
asS'5661'
p2110
(lp2111
S'\xc3\x9ajk\xc3\xadgy\xc3\xb3s'
p2112
aS'B\xc3\xa9k\xc3\xa9s'
p2113
asS'8295'
p2114
(lp2115
S'Tali\xc3\xa1nd\xc3\xb6r\xc3\xb6gd'
p2116
aS'Veszpr\xc3\xa9m'
p2117
asS'5666'
p2118
(lp2119
S'Medgyesegyh\xc3\xa1za'
p2120
aS'B\xc3\xa9k\xc3\xa9s'
p2121
asS'8296'
p2122
(lp2123
S'Hegyesd'
p2124
aS'Veszpr\xc3\xa9m'
p2125
asS'5668'
p2126
(lp2127
S'Nagyb\xc3\xa1nhegyes'
p2128
aS'B\xc3\xa9k\xc3\xa9s'
p2129
asS'4343'
p2130
(lp2131
S'B\xc3\xa1torliget'
p2132
aS'Szabolcs-Szatm\xc3\xa1r-Bereg'
p2133
asS'4342'
p2134
(lp2135
S'Terem'
p2136
aS'Szabolcs-Szatm\xc3\xa1r-Bereg'
p2137
asS'4341'
p2138
(lp2139
S'Ny\xc3\xadrvasv\xc3\xa1ri'
p2140
aS'Szabolcs-Szatm\xc3\xa1r-Bereg'
p2141
asS'2883'
p2142
(lp2143
S'B\xc3\xa1rsonyos'
p2144
aS'Kom\xc3\xa1rom-Esztergom'
p2145
asS'2881'
p2146
(lp2147
S'\xc3\x81sz\xc3\xa1r'
p2148
aS'Kom\xc3\xa1rom-Esztergom'
p2149
asS'2886'
p2150
(lp2151
S'R\xc3\xa9de'
p2152
aS'Kom\xc3\xa1rom-Esztergom'
p2153
asS'2888'
p2154
(lp2155
S'Csatka'
p2156
aS'Kom\xc3\xa1rom-Esztergom'
p2157
asS'2889'
p2158
(lp2159
S'S\xc3\xbar'
p2160
aS'Kom\xc3\xa1rom-Esztergom'
p2161
asS'8611'
p2162
(lp2163
S'Si\xc3\xb3fok'
p2164
aS'Somogy'
p2165
asS'8796'
p2166
(lp2167
S'T\xc3\xbcrje'
p2168
aS'Zala'
p2169
asS'8613'
p2170
(lp2171
S'Balatonendr\xc3\xa9d'
p2172
aS'Somogy'
p2173
asS'8797'
p2174
(lp2175
S'Batyk'
p2176
aS'Zala'
p2177
asS'8618'
p2178
(lp2179
S'Kereki'
p2180
aS'Somogy'
p2181
asS'8478'
p2182
(lp2183
S'Soml\xc3\xb3jen\xc5\x91'
p2184
aS'Veszpr\xc3\xa9m'
p2185
asS'8474'
p2186
(lp2187
S'Csabrendek'
p2188
aS'Veszpr\xc3\xa9m'
p2189
asS'8477'
p2190
(lp2191
S'T\xc3\xbcskev\xc3\xa1r'
p2192
aS'Veszpr\xc3\xa9m'
p2193
asS'8471'
p2194
(lp2195
S'Nemeshany'
p2196
aS'Veszpr\xc3\xa9m'
p2197
asS'7564'
p2198
(lp2199
S'Kasz\xc3\xb3'
p2200
aS'Somogy'
p2201
asS'6401'
p2202
(lp2203
S'Kiskunhalas'
p2204
aS'B\xc3\xa1cs-Kiskun'
p2205
asS'7561'
p2206
(lp2207
S'Nagybajom'
p2208
aS'Somogy'
p2209
asS'8184'
p2210
(lp2211
S'Papkeszi'
p2212
aS'Veszpr\xc3\xa9m'
p2213
asS'5712'
p2214
(lp2215
S'Szabadk\xc3\xadgy\xc3\xb3s'
p2216
aS'B\xc3\xa9k\xc3\xa9s'
p2217
asS'8183'
p2218
(lp2219
S'Papkeszi'
p2220
aS'Veszpr\xc3\xa9m'
p2221
asS'7766'
p2222
(lp2223
S'P\xc3\xa9csdevecser'
p2224
aS'Baranya'
p2225
asS'7761'
p2226
(lp2227
S'Koz\xc3\xa1rmisleny'
p2228
aS'Baranya'
p2229
asS'7762'
p2230
(lp2231
S'P\xc3\xa9csudvard'
p2232
aS'Baranya'
p2233
asS'7763'
p2234
(lp2235
S'Szemely'
p2236
aS'Baranya'
p2237
asS'7768'
p2238
(lp2239
S'Vok\xc3\xa1ny'
p2240
aS'Baranya'
p2241
asS'3900'
p2242
(lp2243
S'Szerencs'
p2244
aS'Borsod-Aba\xc3\xbaj-Zempl\xc3\xa9n'
p2245
asS'3903'
p2246
(lp2247
S'Bekecs'
p2248
aS'Borsod-Aba\xc3\xbaj-Zempl\xc3\xa9n'
p2249
asS'3908'
p2250
(lp2251
S'R\xc3\xa1tka'
p2252
aS'Borsod-Aba\xc3\xbaj-Zempl\xc3\xa9n'
p2253
asS'3909'
p2254
(lp2255
S'M\xc3\xa1d'
p2256
aS'Borsod-Aba\xc3\xbaj-Zempl\xc3\xa9n'
p2257
asS'4761'
p2258
(lp2259
S'Porcsalma'
p2260
aS'Szabolcs-Szatm\xc3\xa1r-Bereg'
p2261
asS'6747'
p2262
(lp2263
S'Szeged'
p2264
aS'Csongr\xc3\xa1d'
p2265
asS'6740'
p2266
(lp2267
S'Szeged'
p2268
aS'Csongr\xc3\xa1d'
p2269
asS'4766'
p2270
(lp2271
S'P\xc3\xa1tyod'
p2272
aS'Szabolcs-Szatm\xc3\xa1r-Bereg'
p2273
asS'6748'
p2274
(lp2275
S'Szeged'
p2276
aS'Csongr\xc3\xa1d'
p2277
asS'4163'
p2278
(lp2279
S'Szerep'
p2280
aS'Hajd\xc3\xba-Bihar'
p2281
asS'4161'
p2282
(lp2283
S'B\xc3\xa1r\xc3\xa1nd'
p2284
aS'Hajd\xc3\xba-Bihar'
p2285
asS'5801'
p2286
(lp2287
S'Mez\xc5\x91kov\xc3\xa1csh\xc3\xa1za'
p2288
aS'B\xc3\xa9k\xc3\xa9s'
p2289
asS'5800'
p2290
(lp2291
S'Mez\xc5\x91kov\xc3\xa1csh\xc3\xa1za'
p2292
aS'B\xc3\xa9k\xc3\xa9s'
p2293
asS'9951'
p2294
(lp2295
S'R\xc3\xa1t\xc3\xb3t'
p2296
aS'Vas'
p2297
asS'9953'
p2298
(lp2299
S'Vasszentmih\xc3\xa1ly'
p2300
aS'Vas'
p2301
asS'2230'
p2302
(lp2303
S'Gy\xc3\xb6mr\xc5\x91'
p2304
aS'Pest'
p2305
asS'2233'
p2306
(lp2307
S'Ecser'
p2308
aS'Pest'
p2309
asS'2234'
p2310
(lp2311
S'Magl\xc3\xb3d'
p2312
aS'Pest'
p2313
asS'5931'
p2314
(lp2315
S'Nagysz\xc3\xa9n\xc3\xa1s'
p2316
aS'B\xc3\xa9k\xc3\xa9s'
p2317
asS'3574'
p2318
(lp2319
S'B\xc5\x91cs'
p2320
aS'Borsod-Aba\xc3\xbaj-Zempl\xc3\xa9n'
p2321
asS'8886'
p2322
(lp2323
S'Olt\xc3\xa1rc'
p2324
aS'Zala'
p2325
asS'7817'
p2326
(lp2327
S'Di\xc3\xb3sviszl\xc3\xb3'
p2328
aS'Baranya'
p2329
asS'7814'
p2330
(lp2331
S'\xc3\x93cs\xc3\xa1rd'
p2332
aS'Baranya'
p2333
asS'7815'
p2334
(lp2335
S'Hark\xc3\xa1ny'
p2336
aS'Baranya'
p2337
asS'7811'
p2338
(lp2339
S'Szal\xc3\xa1nta'
p2340
aS'Baranya'
p2341
asS'2096'
p2342
(lp2343
S'\xc3\x9cr\xc3\xb6m'
p2344
aS'Pest'
p2345
asS'2091'
p2346
(lp2347
S'Etyek'
p2348
aS'Fej\xc3\xa9r'
p2349
asS'2090'
p2350
(lp2351
S'Remetesz\xc5\x91l\xc5\x91s'
p2352
aS'Pest'
p2353
asS'2093'
p2354
(lp2355
S'Budajen\xc5\x91'
p2356
aS'Pest'
p2357
asS'3654'
p2358
(lp2359
S'B\xc3\xa1nr\xc3\xa9ve'
p2360
aS'Borsod-Aba\xc3\xbaj-Zempl\xc3\xa9n'
p2361
asS'3656'
p2362
(lp2363
S'Saj\xc3\xb3velezd'
p2364
aS'Borsod-Aba\xc3\xbaj-Zempl\xc3\xa9n'
p2365
asS'2099'
p2366
(lp2367
S'Dobog\xc3\xb3k\xc5\x91'
p2368
aS'Pest'
p2369
asS'2098'
p2370
(lp2371
S'Pilisszentkereszt'
p2372
aS'Pest'
p2373
asS'3652'
p2374
(lp2375
S'Saj\xc3\xb3n\xc3\xa9meti'
p2376
aS'Borsod-Aba\xc3\xbaj-Zempl\xc3\xa9n'
p2377
asS'2525'
p2378
(lp2379
S'Bajna'
p2380
aS'Kom\xc3\xa1rom-Esztergom'
p2381
asS'2524'
p2382
(lp2383
S'Nagys\xc3\xa1p'
p2384
aS'Kom\xc3\xa1rom-Esztergom'
p2385
asS'2526'
p2386
(lp2387
S'Ep\xc3\xb6l'
p2388
aS'Kom\xc3\xa1rom-Esztergom'
p2389
asS'2522'
p2390
(lp2391
S'D\xc3\xa1g'
p2392
aS'Kom\xc3\xa1rom-Esztergom'
p2393
asS'2529'
p2394
(lp2395
S'Annav\xc3\xb6lgy'
p2396
aS'Kom\xc3\xa1rom-Esztergom'
p2397
asS'5065'
p2398
(lp2399
S'Nagyk\xc3\xb6r\xc5\xb1'
p2400
aS'J\xc3\xa1sz-Nagykun-Szolnok'
p2401
asS'5064'
p2402
(lp2403
S'Csatasz\xc3\xb6g'
p2404
aS'J\xc3\xa1sz-Nagykun-Szolnok'
p2405
asS'5061'
p2406
(lp2407
S'Tiszas\xc3\xbcly'
p2408
aS'J\xc3\xa1sz-Nagykun-Szolnok'
p2409
asS'5063'
p2410
(lp2411
S'Hunyadfalva'
p2412
aS'J\xc3\xa1sz-Nagykun-Szolnok'
p2413
asS'9372'
p2414
(lp2415
S'Csapod'
p2416
aS'Gy\xc5\x91r-Moson-Sopron'
p2417
asS'2701'
p2418
(lp2419
S'Cegl\xc3\xa9d'
p2420
aS'Pest'
p2421
asS'9374'
p2422
(lp2423
S'Iv\xc3\xa1n'
p2424
aS'Gy\xc5\x91r-Moson-Sopron'
p2425
asS'7960'
p2426
(lp2427
S'Sellye'
p2428
aS'Baranya'
p2429
asS'7967'
p2430
(lp2431
S'Dr\xc3\xa1vafok'
p2432
aS'Baranya'
p2433
asS'9178'
p2434
(lp2435
S'H\xc3\xa9derv\xc3\xa1r'
p2436
aS'Gy\xc5\x91r-Moson-Sopron'
p2437
asS'9176'
p2438
(lp2439
S'Mecs\xc3\xa9r'
p2440
aS'Gy\xc5\x91r-Moson-Sopron'
p2441
asS'7968'
p2442
(lp2443
S'Fels\xc5\x91szentm\xc3\xa1rton'
p2444
aS'Baranya'
p2445
asS'9174'
p2446
(lp2447
S'Dunaszeg'
p2448
aS'Gy\xc5\x91r-Moson-Sopron'
p2449
asS'9172'
p2450
(lp2451
S'Gy\xc5\x91rz\xc3\xa1moly'
p2452
aS'Gy\xc5\x91r-Moson-Sopron'
p2453
asS'4405'
p2454
(lp2455
S'Ny\xc3\xadregyh\xc3\xa1za'
p2456
aS'Szabolcs-Szatm\xc3\xa1r-Bereg'
p2457
asS'4400'
p2458
(lp2459
S'Ny\xc3\xadregyh\xc3\xa1za'
p2460
aS'Szabolcs-Szatm\xc3\xa1r-Bereg'
p2461
asS'4403'
p2462
(lp2463
S'Ny\xc3\xadregyh\xc3\xa1za'
p2464
aS'Szabolcs-Szatm\xc3\xa1r-Bereg'
p2465
asS'2143'
p2466
(lp2467
S'Kistarcsa'
p2468
aS'Pest'
p2469
asS'2142'
p2470
(lp2471
S'Nagytarcsa'
p2472
aS'Pest'
p2473
asS'2141'
p2474
(lp2475
S'Cs\xc3\xb6m\xc3\xb6r'
p2476
aS'Pest'
p2477
asS'4971'
p2478
(lp2479
S'Rozs\xc3\xa1ly'
p2480
aS'Szabolcs-Szatm\xc3\xa1r-Bereg'
p2481
asS'4973'
p2482
(lp2483
S'Cs\xc3\xa1szl\xc3\xb3'
p2484
aS'Szabolcs-Szatm\xc3\xa1r-Bereg'
p2485
asS'3274'
p2486
(lp2487
S'Ludas'
p2488
aS'Heves'
p2489
asS'3272'
p2490
(lp2491
S'Visonta'
p2492
aS'Heves'
p2493
asS'3273'
p2494
(lp2495
S'Halmajugra'
p2496
aS'Heves'
p2497
asS'7361'
p2498
(lp2499
S'Kaposszekcs\xc5\x91'
p2500
aS'Tolna'
p2501
asS'7362'
p2502
(lp2503
S'Tarr\xc3\xb3s'
p2504
aS'Tolna'
p2505
asS'8881'
p2506
(lp2507
S'Sorm\xc3\xa1s'
p2508
aS'Zala'
p2509
asS'8883'
p2510
(lp2511
S'Rigy\xc3\xa1c'
p2512
aS'Zala'
p2513
asS'9007'
p2514
(lp2515
S'Gy\xc5\x91r'
p2516
aS'Gy\xc5\x91r-Moson-Sopron'
p2517
asS'7020'
p2518
(lp2519
S'Dunaf\xc3\xb6ldv\xc3\xa1r'
p2520
aS'Tolna'
p2521
asS'9002'
p2522
(lp2523
S'Gy\xc5\x91r'
p2524
aS'Gy\xc5\x91r-Moson-Sopron'
p2525
asS'5243'
p2526
(lp2527
S'Tiszaderzs'
p2528
aS'J\xc3\xa1sz-Nagykun-Szolnok'
p2529
asS'7026'
p2530
(lp2531
S'Madocsa'
p2532
aS'Tolna'
p2533
asS'7458'
p2534
(lp2535
S'Pol\xc3\xa1ny'
p2536
aS'Somogy'
p2537
asS'3002'
p2538
(lp2539
S'Hatvan'
p2540
aS'Heves'
p2541
asS'3009'
p2542
(lp2543
S'Hatvan'
p2544
aS'Heves'
p2545
asS'7158'
p2546
(lp2547
S'Bonyh\xc3\xa1dvarasd'
p2548
aS'Tolna'
p2549
asS'7936'
p2550
(lp2551
S'Szentl\xc3\xa1szl\xc3\xb3'
p2552
aS'Baranya'
p2553
asS'1038'
p2554
(lp2555
S'Budapest'
p2556
aS'Budapest'
p2557
asS'1032'
p2558
(lp2559
S'Budapest'
p2560
aS'Budapest'
p2561
asS'1036'
p2562
(lp2563
S'Budapest'
p2564
aS'Budapest'
p2565
asS'1034'
p2566
(lp2567
S'Budapest'
p2568
aS'Budapest'
p2569
asS'8496'
p2570
(lp2571
S'Nagypirit'
p2572
aS'Veszpr\xc3\xa9m'
p2573
asS'1211'
p2574
(lp2575
S'Budapest'
p2576
aS'Budapest'
p2577
asS'1214'
p2578
(lp2579
S'Budapest'
p2580
aS'Budapest'
p2581
asS'1215'
p2582
(lp2583
S'Budapest'
p2584
aS'Budapest'
p2585
asS'8065'
p2586
(lp2587
S'Nagyveleg'
p2588
aS'Fej\xc3\xa9r'
p2589
asS'8062'
p2590
(lp2591
S'M\xc3\xb3r'
p2592
aS'Fej\xc3\xa9r'
p2593
asS'8060'
p2594
(lp2595
S'M\xc3\xb3r'
p2596
aS'Fej\xc3\xa9r'
p2597
asS'6523'
p2598
(lp2599
S'Cs\xc3\xa1talja'
p2600
aS'B\xc3\xa1cs-Kiskun'
p2601
asS'6525'
p2602
(lp2603
S'Hercegsz\xc3\xa1nt\xc3\xb3'
p2604
aS'B\xc3\xa1cs-Kiskun'
p2605
asS'6527'
p2606
(lp2607
S'Nagybaracska'
p2608
aS'B\xc3\xa1cs-Kiskun'
p2609
asS'4371'
p2610
(lp2611
S'Ny\xc3\xadrlugos'
p2612
aS'Szabolcs-Szatm\xc3\xa1r-Bereg'
p2613
asS'4376'
p2614
(lp2615
S'Ny\xc3\xadrpilis'
p2616
aS'Szabolcs-Szatm\xc3\xa1r-Bereg'
p2617
asS'4375'
p2618
(lp2619
S'Piricse'
p2620
aS'Szabolcs-Szatm\xc3\xa1r-Bereg'
p2621
asS'2898'
p2622
(lp2623
S'Kocs'
p2624
aS'Kom\xc3\xa1rom-Esztergom'
p2625
asS'2894'
p2626
(lp2627
S'Tata'
p2628
aS'Kom\xc3\xa1rom-Esztergom'
p2629
asS'2896'
p2630
(lp2631
S'Szom\xc3\xb3d'
p2632
aS'Kom\xc3\xa1rom-Esztergom'
p2633
asS'2891'
p2634
(lp2635
S'Tata'
p2636
aS'Kom\xc3\xa1rom-Esztergom'
p2637
asS'2893'
p2638
(lp2639
S'Tata'
p2640
aS'Kom\xc3\xa1rom-Esztergom'
p2641
asS'8660'
p2642
(lp2643
S'Lulla'
p2644
aS'Somogy'
p2645
asS'1103'
p2646
(lp2647
S'Budapest'
p2648
aS'Budapest'
p2649
asS'1101'
p2650
(lp2651
S'Budapest'
p2652
aS'Budapest'
p2653
asS'1108'
p2654
(lp2655
S'Budapest'
p2656
aS'Budapest'
p2657
asS'4080'
p2658
(lp2659
S'Hajd\xc3\xban\xc3\xa1n\xc3\xa1s'
p2660
aS'Hajd\xc3\xba-Bihar'
p2661
asS'4085'
p2662
(lp2663
S'Hajd\xc3\xban\xc3\xa1n\xc3\xa1s'
p2664
aS'Hajd\xc3\xba-Bihar'
p2665
asS'4086'
p2666
(lp2667
S'Hajd\xc3\xban\xc3\xa1n\xc3\xa1s'
p2668
aS'Hajd\xc3\xba-Bihar'
p2669
asS'3860'
p2670
(lp2671
S'Encs'
p2672
aS'Borsod-Aba\xc3\xbaj-Zempl\xc3\xa9n'
p2673
asS'8409'
p2674
(lp2675
S'\xc3\x9ark\xc3\xbat'
p2676
aS'Veszpr\xc3\xa9m'
p2677
asS'8400'
p2678
(lp2679
S'Ajka'
p2680
aS'Veszpr\xc3\xa9m'
p2681
asS'8401'
p2682
(lp2683
S'Ajka'
p2684
aS'Veszpr\xc3\xa9m'
p2685
asS'8403'
p2686
(lp2687
S'Ajka'
p2688
aS'Veszpr\xc3\xa9m'
p2689
asS'5722'
p2690
(lp2691
S'Sarkad'
p2692
aS'B\xc3\xa9k\xc3\xa9s'
p2693
asS'5720'
p2694
(lp2695
S'Sarkad'
p2696
aS'B\xc3\xa9k\xc3\xa9s'
p2697
asS'5721'
p2698
(lp2699
S'Sarkad'
p2700
aS'B\xc3\xa9k\xc3\xa9s'
p2701
asS'5726'
p2702
(lp2703
S'M\xc3\xa9hker\xc3\xa9k'
p2704
aS'B\xc3\xa9k\xc3\xa9s'
p2705
asS'9811'
p2706
(lp2707
S'Andr\xc3\xa1sfa'
p2708
aS'Vas'
p2709
asS'9812'
p2710
(lp2711
S'Telekes'
p2712
aS'Vas'
p2713
asS'9813'
p2714
(lp2715
S'S\xc3\xa1rfimizd\xc3\xb3'
p2716
aS'Vas'
p2717
asS'7775'
p2718
(lp2719
S'Illocska'
p2720
aS'Baranya'
p2721
asS'7772'
p2722
(lp2723
S'Vill\xc3\xa1nyk\xc3\xb6vesd'
p2724
aS'Baranya'
p2725
asS'7771'
p2726
(lp2727
S'Palkonya'
p2728
aS'Baranya'
p2729
asS'3917'
p2730
(lp2731
S'Bodrogkisfalud'
p2732
aS'Borsod-Aba\xc3\xbaj-Zempl\xc3\xa9n'
p2733
asS'3916'
p2734
(lp2735
S'Bodrogkereszt\xc3\xbar'
p2736
aS'Borsod-Aba\xc3\xbaj-Zempl\xc3\xa9n'
p2737
asS'8314'
p2738
(lp2739
S'Vonyarcvashegy'
p2740
aS'Zala'
p2741
asS'8312'
p2742
(lp2743
S'Balatonederics'
p2744
aS'Veszpr\xc3\xa9m'
p2745
asS'8318'
p2746
(lp2747
S'Lesencetomaj'
p2748
aS'Veszpr\xc3\xa9m'
p2749
asS'8319'
p2750
(lp2751
S'Lesenceistv\xc3\xa1nd'
p2752
aS'Veszpr\xc3\xa9m'
p2753
asS'8084'
p2754
(lp2755
S'Cs\xc3\xa1kv\xc3\xa1r'
p2756
aS'Fej\xc3\xa9r'
p2757
asS'8085'
p2758
(lp2759
S'V\xc3\xa9rtesbogl\xc3\xa1r'
p2760
aS'Fej\xc3\xa9r'
p2761
asS'4150'
p2762
(lp2763
S'P\xc3\xbcsp\xc3\xb6klad\xc3\xa1ny'
p2764
aS'Hajd\xc3\xba-Bihar'
p2765
asS'8087'
p2766
(lp2767
S'Alcs\xc3\xbatdoboz'
p2768
aS'Fej\xc3\xa9r'
p2769
asS'8080'
p2770
(lp2771
S'Bodm\xc3\xa9r'
p2772
aS'Fej\xc3\xa9r'
p2773
asS'8081'
p2774
(lp2775
S'Z\xc3\xa1moly'
p2776
aS'Fej\xc3\xa9r'
p2777
asS'5830'
p2778
(lp2779
S'Battonya'
p2780
aS'B\xc3\xa9k\xc3\xa9s'
p2781
asS'8089'
p2782
(lp2783
S'V\xc3\xa9rtesacsa'
p2784
aS'Fej\xc3\xa9r'
p2785
asS'5838'
p2786
(lp2787
S'Magyardombegyh\xc3\xa1z'
p2788
aS'B\xc3\xa9k\xc3\xa9s'
p2789
asS'9921'
p2790
(lp2791
S'Vasalja'
p2792
aS'Vas'
p2793
asS'9922'
p2794
(lp2795
S'Pinkamindszent'
p2796
aS'Vas'
p2797
asS'6088'
p2798
(lp2799
S'Apostag'
p2800
aS'B\xc3\xa1cs-Kiskun'
p2801
asS'6086'
p2802
(lp2803
S'Szalkszentm\xc3\xa1rton'
p2804
aS'B\xc3\xa1cs-Kiskun'
p2805
asS'6087'
p2806
(lp2807
S'Dunavecse'
p2808
aS'B\xc3\xa1cs-Kiskun'
p2809
asS'6080'
p2810
(lp2811
S'Szabadsz\xc3\xa1ll\xc3\xa1s'
p2812
aS'B\xc3\xa1cs-Kiskun'
p2813
asS'6648'
p2814
(lp2815
S'Csanytelek'
p2816
aS'Csongr\xc3\xa1d'
p2817
asS'6646'
p2818
(lp2819
S'T\xc3\xb6m\xc3\xb6rk\xc3\xa9ny'
p2820
aS'Csongr\xc3\xa1d'
p2821
asS'6647'
p2822
(lp2823
S'Csanytelek'
p2824
aS'Csongr\xc3\xa1d'
p2825
asS'6641'
p2826
(lp2827
S'Csongr\xc3\xa1d'
p2828
aS'Csongr\xc3\xa1d'
p2829
asS'5901'
p2830
(lp2831
S'Orosh\xc3\xa1za'
p2832
aS'B\xc3\xa9k\xc3\xa9s'
p2833
asS'5905'
p2834
(lp2835
S'Orosh\xc3\xa1za'
p2836
aS'B\xc3\xa9k\xc3\xa9s'
p2837
asS'7800'
p2838
(lp2839
S'Nagyt\xc3\xb3tfalu'
p2840
aS'Baranya'
p2841
asS'4562'
p2842
(lp2843
S'Vaja'
p2844
aS'Szabolcs-Szatm\xc3\xa1r-Bereg'
p2845
asS'4566'
p2846
(lp2847
S'Ilk'
p2848
aS'Szabolcs-Szatm\xc3\xa1r-Bereg'
p2849
asS'4564'
p2850
(lp2851
S'Ny\xc3\xadrmada'
p2852
aS'Szabolcs-Szatm\xc3\xa1r-Bereg'
p2853
asS'3645'
p2854
(lp2855
S'M\xc3\xa1lyinka'
p2856
aS'Borsod-Aba\xc3\xbaj-Zempl\xc3\xa9n'
p2857
asS'3644'
p2858
(lp2859
S'Tardona'
p2860
aS'Borsod-Aba\xc3\xbaj-Zempl\xc3\xa9n'
p2861
asS'9353'
p2862
(lp2863
S'Sz\xc3\xa1rf\xc3\xb6ld'
p2864
aS'Gy\xc5\x91r-Moson-Sopron'
p2865
asS'7975'
p2866
(lp2867
S'K\xc3\xa9t\xc3\xbajfalu'
p2868
aS'Baranya'
p2869
asS'9491'
p2870
(lp2871
S'Hidegs\xc3\xa9g'
p2872
aS'Gy\xc5\x91r-Moson-Sopron'
p2873
asS'4137'
p2874
(lp2875
S'Magyarhomorog'
p2876
aS'Hajd\xc3\xba-Bihar'
p2877
asS'9146'
p2878
(lp2879
S'R\xc3\xa1bapord\xc3\xa1ny'
p2880
aS'Gy\xc5\x91r-Moson-Sopron'
p2881
asS'9495'
p2882
(lp2883
S'K\xc3\xb3ph\xc3\xa1za'
p2884
aS'Gy\xc5\x91r-Moson-Sopron'
p2885
asS'9144'
p2886
(lp2887
S'K\xc3\xb3ny'
p2888
aS'Gy\xc5\x91r-Moson-Sopron'
p2889
asS'2173'
p2890
(lp2891
S'Kartal'
p2892
aS'Pest'
p2893
asS'2170'
p2894
(lp2895
S'Asz\xc3\xb3d'
p2896
aS'Pest'
p2897
asS'2177'
p2898
(lp2899
S'Erd\xc5\x91tarcsa'
p2900
aS'N\xc3\xb3gr\xc3\xa1d'
p2901
asS'2174'
p2902
(lp2903
S'Verseg'
p2904
aS'Pest'
p2905
asS'2175'
p2906
(lp2907
S'K\xc3\xa1ll\xc3\xb3'
p2908
aS'N\xc3\xb3gr\xc3\xa1d'
p2909
asS'4967'
p2910
(lp2911
S'Csaholc'
p2912
aS'Szabolcs-Szatm\xc3\xa1r-Bereg'
p2913
asS'9547'
p2914
(lp2915
S'Karak\xc3\xb3'
p2916
aS'Vas'
p2917
asS'4965'
p2918
(lp2919
S'K\xc3\xb6lcse'
p2920
aS'Szabolcs-Szatm\xc3\xa1r-Bereg'
p2921
asS'4964'
p2922
(lp2923
S'F\xc3\xbclesd'
p2924
aS'Szabolcs-Szatm\xc3\xa1r-Bereg'
p2925
asS'4962'
p2926
(lp2927
S'Nagyszekeres'
p2928
aS'Szabolcs-Szatm\xc3\xa1r-Bereg'
p2929
asS'9727'
p2930
(lp2931
S'Bozsok'
p2932
aS'Vas'
p2933
asS'9725'
p2934
(lp2935
S'K\xc5\x91szegdoroszl\xc3\xb3'
p2936
aS'Vas'
p2937
asS'9722'
p2938
(lp2939
S'Perenye'
p2940
aS'Vas'
p2941
asS'2601'
p2942
(lp2943
S'V\xc3\xa1c'
p2944
aS'Pest'
p2945
asS'9721'
p2946
(lp2947
S'Gencsap\xc3\xa1ti'
p2948
aS'Vas'
p2949
asS'3263'
p2950
(lp2951
S'Domoszl\xc3\xb3'
p2952
aS'Heves'
p2953
asS'5431'
p2954
(lp2955
S'Tiszaf\xc3\xb6ldv\xc3\xa1r'
p2956
aS'J\xc3\xa1sz-Nagykun-Szolnok'
p2957
asS'3265'
p2958
(lp2959
S'V\xc3\xa9cs'
p2960
aS'Heves'
p2961
asS'5124'
p2962
(lp2963
S'J\xc3\xa1sz\xc3\xa1g\xc3\xb3'
p2964
aS'J\xc3\xa1sz-Nagykun-Szolnok'
p2965
asS'5126'
p2966
(lp2967
S'J\xc3\xa1szf\xc3\xa9nyszaru'
p2968
aS'J\xc3\xa1sz-Nagykun-Szolnok'
p2969
asS'5121'
p2970
(lp2971
S'J\xc3\xa1szj\xc3\xa1k\xc3\xb3halma'
p2972
aS'J\xc3\xa1sz-Nagykun-Szolnok'
p2973
asS'7093'
p2974
(lp2975
S'\xc3\x89rt\xc3\xa9ny'
p2976
aS'Tolna'
p2977
asS'3467'
p2978
(lp2979
S'\xc3\x81rokt\xc5\x91'
p2980
aS'Borsod-Aba\xc3\xbaj-Zempl\xc3\xa9n'
p2981
asS'3465'
p2982
(lp2983
S'Tiszab\xc3\xa1bolna'
p2984
aS'Borsod-Aba\xc3\xbaj-Zempl\xc3\xa9n'
p2985
asS'3462'
p2986
(lp2987
S'Borsodiv\xc3\xa1nka'
p2988
aS'Borsod-Aba\xc3\xbaj-Zempl\xc3\xa9n'
p2989
asS'8897'
p2990
(lp2991
S'S\xc3\xb6jt\xc3\xb6r'
p2992
aS'Zala'
p2993
asS'8896'
p2994
(lp2995
S'Pusztaszentl\xc3\xa1szl\xc3\xb3'
p2996
aS'Zala'
p2997
asS'8895'
p2998
(lp2999
S'Pusztamagyar\xc3\xb3d'
p3000
aS'Zala'
p3001
asS'3188'
p3002
(lp3003
S'Lud\xc3\xa1nyhal\xc3\xa1szi'
p3004
aS'N\xc3\xb3gr\xc3\xa1d'
p3005
asS'7019'
p3006
(lp3007
S'Mez\xc5\x91szilas'
p3008
aS'Fej\xc3\xa9r'
p3009
asS'7017'
p3010
(lp3011
S'Mez\xc5\x91szilas'
p3012
aS'Fej\xc3\xa9r'
p3013
asS'7015'
p3014
(lp3015
S'Igar'
p3016
aS'Fej\xc3\xa9r'
p3017
asS'7013'
p3018
(lp3019
S'Cece'
p3020
aS'Fej\xc3\xa9r'
p3021
asS'7011'
p3022
(lp3023
S'Alap'
p3024
aS'Fej\xc3\xa9r'
p3025
asS'5231'
p3026
(lp3027
S'Fegyvernek'
p3028
aS'J\xc3\xa1sz-Nagykun-Szolnok'
p3029
asS'5233'
p3030
(lp3031
S'Tiszagyenda'
p3032
aS'J\xc3\xa1sz-Nagykun-Szolnok'
p3033
asS'5234'
p3034
(lp3035
S'Tiszaroff'
p3036
aS'J\xc3\xa1sz-Nagykun-Szolnok'
p3037
asS'3070'
p3038
(lp3039
S'B\xc3\xa1tonyterenye'
p3040
aS'N\xc3\xb3gr\xc3\xa1d'
p3041
asS'3071'
p3042
(lp3043
S'B\xc3\xa1tonyterenye'
p3044
aS'N\xc3\xb3gr\xc3\xa1d'
p3045
asS'3072'
p3046
(lp3047
S'B\xc3\xa1tonyterenye'
p3048
aS'N\xc3\xb3gr\xc3\xa1d'
p3049
asS'3073'
p3050
(lp3051
S'Tar'
p3052
aS'N\xc3\xb3gr\xc3\xa1d'
p3053
asS'3077'
p3054
(lp3055
S'M\xc3\xa1travereb\xc3\xa9ly'
p3056
aS'N\xc3\xb3gr\xc3\xa1d'
p3057
asS'3078'
p3058
(lp3059
S'M\xc3\xa1travereb\xc3\xa9ly'
p3060
aS'N\xc3\xb3gr\xc3\xa1d'
p3061
asS'1027'
p3062
(lp3063
S'Budapest'
p3064
aS'Budapest'
p3065
asS'1026'
p3066
(lp3067
S'Budapest'
p3068
aS'Budapest'
p3069
asS'5340'
p3070
(lp3071
S'Kunhegyes'
p3072
aS'J\xc3\xa1sz-Nagykun-Szolnok'
p3073
asS'1022'
p3074
(lp3075
S'Budapest'
p3076
aS'Budapest'
p3077
asS'7163'
p3078
(lp3079
S'M\xc5\x91cs\xc3\xa9ny'
p3080
aS'Tolna'
p3081
asS'7161'
p3082
(lp3083
S'Cik\xc3\xb3'
p3084
aS'Tolna'
p3085
asS'1029'
p3086
(lp3087
S'Budapest'
p3088
aS'Budapest'
p3089
asS'7165'
p3090
(lp3091
S'M\xc3\xb3r\xc3\xa1gy'
p3092
aS'Tolna'
p3093
asS'8105'
p3094
(lp3095
S'P\xc3\xa9tf\xc3\xbcrd\xc5\x91'
p3096
aS'Veszpr\xc3\xa9m'
p3097
asS'4363'
p3098
(lp3099
S'Ny\xc3\xadrmih\xc3\xa1lydi'
p3100
aS'Szabolcs-Szatm\xc3\xa1r-Bereg'
p3101
asS'1205'
p3102
(lp3103
S'Budapest'
p3104
aS'Budapest'
p3105
asS'8073'
p3106
(lp3107
S'Cs\xc3\xa1kber\xc3\xa9ny'
p3108
aS'Fej\xc3\xa9r'
p3109
asS'8072'
p3110
(lp3111
S'S\xc3\xb6r\xc3\xa9d'
p3112
aS'Fej\xc3\xa9r'
p3113
asS'1202'
p3114
(lp3115
S'Budapest'
p3116
aS'Budapest'
p3117
asS'5641'
p3118
(lp3119
S'Tarhos'
p3120
aS'B\xc3\xa9k\xc3\xa9s'
p3121
asS'5643'
p3122
(lp3123
S'B\xc3\xa9lmegyer'
p3124
aS'B\xc3\xa9k\xc3\xa9s'
p3125
asS'8274'
p3126
(lp3127
S'K\xc3\xb6vesk\xc3\xa1l'
p3128
aS'Veszpr\xc3\xa9m'
p3129
asS'8272'
p3130
(lp3131
S'Szentjakabfa'
p3132
aS'Veszpr\xc3\xa9m'
p3133
asS'8271'
p3134
(lp3135
S'Mencshely'
p3136
aS'Veszpr\xc3\xa9m'
p3137
asS'6334'
p3138
(lp3139
S'G\xc3\xa9derlak'
p3140
aS'B\xc3\xa1cs-Kiskun'
p3141
asS'3109'
p3142
(lp3143
S'Salg\xc3\xb3tarj\xc3\xa1n'
p3144
aS'N\xc3\xb3gr\xc3\xa1d'
p3145
asS'3103'
p3146
(lp3147
S'Salg\xc3\xb3tarj\xc3\xa1n'
p3148
aS'N\xc3\xb3gr\xc3\xa1d'
p3149
asS'1111'
p3150
(lp3151
S'Budapest'
p3152
aS'Budapest'
p3153
asS'8672'
p3154
(lp3155
S'Zics'
p3156
aS'Somogy'
p3157
asS'8671'
p3158
(lp3159
S'Kapoly'
p3160
aS'Somogy'
p3161
asS'1114'
p3162
(lp3163
S'Budapest'
p3164
aS'Budapest'
p3165
asS'8675'
p3166
(lp3167
S'Andocs'
p3168
aS'Somogy'
p3169
asS'1116'
p3170
(lp3171
S'Budapest'
p3172
aS'Budapest'
p3173
asS'1119'
p3174
(lp3175
S'Budapest'
p3176
aS'Budapest'
p3177
asS'1118'
p3178
(lp3179
S'Budapest'
p3180
aS'Budapest'
p3181
asS'4097'
p3182
(lp3183
S'Tiszagyulah\xc3\xa1za'
p3184
aS'Hajd\xc3\xba-Bihar'
p3185
asS'8418'
p3186
(lp3187
S'Bakonyoszlop'
p3188
aS'Veszpr\xc3\xa9m'
p3189
asS'8492'
p3190
(lp3191
S'Kerta'
p3192
aS'Veszpr\xc3\xa9m'
p3193
asS'5732'
p3194
(lp3195
S'Mez\xc5\x91gy\xc3\xa1n'
p3196
aS'B\xc3\xa9k\xc3\xa9s'
p3197
asS'8417'
p3198
(lp3199
S'Cset\xc3\xa9ny'
p3200
aS'Veszpr\xc3\xa9m'
p3201
asS'8414'
p3202
(lp3203
S'Olaszfalu'
p3204
aS'Veszpr\xc3\xa9m'
p3205
asS'7589'
p3206
(lp3207
S'B\xc3\xa9lav\xc3\xa1r'
p3208
aS'Somogy'
p3209
asS'7584'
p3210
(lp3211
S'Bab\xc3\xb3csa'
p3212
aS'Somogy'
p3213
asS'7585'
p3214
(lp3215
S'Bakh\xc3\xa1za'
p3216
aS'Somogy'
p3217
asS'7747'
p3218
(lp3219
S'Birj\xc3\xa1n'
p3220
aS'Baranya'
p3221
asS'7745'
p3222
(lp3223
S'Olasz'
p3224
aS'Baranya'
p3225
asS'3925'
p3226
(lp3227
S'Pr\xc3\xbcgy'
p3228
aS'Borsod-Aba\xc3\xbaj-Zempl\xc3\xa9n'
p3229
asS'6723'
p3230
(lp3231
S'Szeged'
p3232
aS'Csongr\xc3\xa1d'
p3233
asS'6721'
p3234
(lp3235
S'Szeged'
p3236
aS'Csongr\xc3\xa1d'
p3237
asS'6720'
p3238
(lp3239
S'Szeged'
p3240
aS'Csongr\xc3\xa1d'
p3241
asS'6727'
p3242
(lp3243
S'Szeged'
p3244
aS'Csongr\xc3\xa1d'
p3245
asS'6726'
p3246
(lp3247
S'Szeged'
p3248
aS'Csongr\xc3\xa1d'
p3249
asS'8308'
p3250
(lp3251
S'S\xc3\xa1ska'
p3252
aS'Veszpr\xc3\xa9m'
p3253
asS'8097'
p3254
(lp3255
S'Nadap'
p3256
aS'Fej\xc3\xa9r'
p3257
asS'8095'
p3258
(lp3259
S'P\xc3\xa1kozd'
p3260
aS'Fej\xc3\xa9r'
p3261
asS'4145'
p3262
(lp3263
S'Cs\xc3\xb6km\xc5\x91'
p3264
aS'Hajd\xc3\xba-Bihar'
p3265
asS'4146'
p3266
(lp3267
S'\xc3\x9ajir\xc3\xa1z'
p3268
aS'Hajd\xc3\xba-Bihar'
p3269
asS'4142'
p3270
(lp3271
S'Zs\xc3\xa1ka'
p3272
aS'Hajd\xc3\xba-Bihar'
p3273
asS'9938'
p3274
(lp3275
S'Szatta'
p3276
aS'Vas'
p3277
asS'8885'
p3278
(lp3279
S'Valkonya'
p3280
aS'Zala'
p3281
asS'8263'
p3282
(lp3283
S'Badacsonyt\xc3\xb6rdemic'
p3284
aS'Veszpr\xc3\xa9m'
p3285
asS'9936'
p3286
(lp3287
S'Kisr\xc3\xa1kos'
p3288
aS'Vas'
p3289
asS'9934'
p3290
(lp3291
S'Hegyh\xc3\xa1tszentjakab'
p3292
aS'Vas'
p3293
asS'6098'
p3294
(lp3295
S'Tass'
p3296
aS'B\xc3\xa1cs-Kiskun'
p3297
asS'4558'
p3298
(lp3299
S'\xc3\x93feh\xc3\xa9rt\xc3\xb3'
p3300
aS'Szabolcs-Szatm\xc3\xa1r-Bereg'
p3301
asS'4554'
p3302
(lp3303
S'Ny\xc3\xadrt\xc3\xa9t'
p3304
aS'Szabolcs-Szatm\xc3\xa1r-Bereg'
p3305
asS'3671'
p3306
(lp3307
S'Borsodn\xc3\xa1dasd'
p3308
aS'Borsod-Aba\xc3\xbaj-Zempl\xc3\xa9n'
p3309
asS'4553'
p3310
(lp3311
S'Apagy'
p3312
aS'Szabolcs-Szatm\xc3\xa1r-Bereg'
p3313
asS'2542'
p3314
(lp3315
S'L\xc3\xa1batlan'
p3316
aS'Kom\xc3\xa1rom-Esztergom'
p3317
asS'2541'
p3318
(lp3319
S'L\xc3\xa1batlan'
p3320
aS'Kom\xc3\xa1rom-Esztergom'
p3321
asS'2545'
p3322
(lp3323
S'Dunaalm\xc3\xa1s'
p3324
aS'Kom\xc3\xa1rom-Esztergom'
p3325
asS'9155'
p3326
(lp3327
S'L\xc3\xa9b\xc3\xa9ny'
p3328
aS'Gy\xc5\x91r-Moson-Sopron'
p3329
asS'3581'
p3330
(lp3331
S'Tisza\xc3\xbajv\xc3\xa1ros'
p3332
aS'Borsod-Aba\xc3\xbaj-Zempl\xc3\xa9n'
p3333
asS'5001'
p3334
(lp3335
S'Szolnok'
p3336
aS'J\xc3\xa1sz-Nagykun-Szolnok'
p3337
asS'2768'
p3338
(lp3339
S'\xc3\x9ajszilv\xc3\xa1s'
p3340
aS'Pest'
p3341
asS'9151'
p3342
(lp3343
S'Abda'
p3344
aS'Gy\xc5\x91r-Moson-Sopron'
p3345
asS'5006'
p3346
(lp3347
S'Szolnok'
p3348
aS'J\xc3\xa1sz-Nagykun-Szolnok'
p3349
asS'3586'
p3350
(lp3351
S'Saj\xc3\xb3\xc3\xb6r\xc3\xb6s'
p3352
aS'Borsod-Aba\xc3\xbaj-Zempl\xc3\xa9n'
p3353
asS'3589'
p3354
(lp3355
S'Tiszatarj\xc3\xa1n'
p3356
aS'Borsod-Aba\xc3\xbaj-Zempl\xc3\xa9n'
p3357
asS'2760'
p3358
(lp3359
S'Nagyk\xc3\xa1ta'
p3360
aS'Pest'
p3361
asS'2766'
p3362
(lp3363
S'T\xc3\xa1pi\xc3\xb3szele'
p3364
aS'Pest'
p3365
asS'2765'
p3366
(lp3367
S'Farmos'
p3368
aS'Pest'
p3369
asS'7900'
p3370
(lp3371
S'Szigetv\xc3\xa1r'
p3372
aS'Baranya'
p3373
asS'9481'
p3374
(lp3375
S'Pinnye'
p3376
aS'Gy\xc5\x91r-Moson-Sopron'
p3377
asS'9485'
p3378
(lp3379
S'Nagycenk'
p3380
aS'Gy\xc5\x91r-Moson-Sopron'
p3381
asS'6076'
p3382
(lp3383
S'\xc3\x81gasegyh\xc3\xa1za'
p3384
aS'B\xc3\xa1cs-Kiskun'
p3385
asS'6075'
p3386
(lp3387
S'P\xc3\xa1hi'
p3388
aS'B\xc3\xa1cs-Kiskun'
p3389
asS'2167'
p3390
(lp3391
S'V\xc3\xa1cduka'
p3392
aS'Pest'
p3393
asS'9552'
p3394
(lp3395
S'V\xc3\xa1s\xc3\xa1rosmiske'
p3396
aS'Vas'
p3397
asS'2161'
p3398
(lp3399
S'Csom\xc3\xa1d'
p3400
aS'Pest'
p3401
asS'9554'
p3402
(lp3403
S'Borg\xc3\xa1ta'
p3404
aS'Vas'
p3405
asS'2162'
p3406
(lp3407
S'\xc5\x90rbotty\xc3\xa1n'
p3408
aS'Pest'
p3409
asS'2617'
p3410
(lp3411
S'Als\xc3\xb3pet\xc3\xa9ny'
p3412
aS'N\xc3\xb3gr\xc3\xa1d'
p3413
asS'9733'
p3414
(lp3415
S'Horv\xc3\xa1tzsid\xc3\xa1ny'
p3416
aS'Vas'
p3417
asS'2613'
p3418
(lp3419
S'R\xc3\xa1d'
p3420
aS'Pest'
p3421
asS'9734'
p3422
(lp3423
S'Peresznye'
p3424
aS'Vas'
p3425
asS'2611'
p3426
(lp3427
S'Fels\xc5\x91pet\xc3\xa9ny'
p3428
aS'N\xc3\xb3gr\xc3\xa1d'
p3429
asS'9736'
p3430
(lp3431
S'Torm\xc3\xa1sliget'
p3432
aS'Vas'
p3433
asS'9739'
p3434
(lp3435
S'K\xc5\x91szegpaty'
p3436
aS'Vas'
p3437
asS'2619'
p3438
(lp3439
S'Leg\xc3\xa9nd'
p3440
aS'N\xc3\xb3gr\xc3\xa1d'
p3441
asS'7344'
p3442
(lp3443
S'Mek\xc3\xa9nyes'
p3444
aS'Baranya'
p3445
asS'7345'
p3446
(lp3447
S'Als\xc3\xb3mocsol\xc3\xa1d'
p3448
aS'Baranya'
p3449
asS'7342'
p3450
(lp3451
S'M\xc3\xa1gocs'
p3452
aS'Baranya'
p3453
asS'8868'
p3454
(lp3455
S'Kistolm\xc3\xa1cs'
p3456
aS'Zala'
p3457
asS'7341'
p3458
(lp3459
S'Csik\xc3\xb3st\xc5\x91tt\xc5\x91s'
p3460
aS'Tolna'
p3461
asS'3295'
p3462
(lp3463
S'Erk'
p3464
aS'Heves'
p3465
asS'3292'
p3466
(lp3467
S'Ad\xc3\xa1cs'
p3468
aS'Heves'
p3469
asS'7349'
p3470
(lp3471
S'Sz\xc3\xa1szv\xc3\xa1r'
p3472
aS'Baranya'
p3473
asS'9029'
p3474
(lp3475
S'Gy\xc5\x91r'
p3476
aS'Gy\xc5\x91r-Moson-Sopron'
p3477
asS'9028'
p3478
(lp3479
S'Gy\xc5\x91r'
p3480
aS'Gy\xc5\x91r-Moson-Sopron'
p3481
asS'9024'
p3482
(lp3483
S'Gy\xc5\x91r'
p3484
aS'Gy\xc5\x91r-Moson-Sopron'
p3485
asS'7002'
p3486
(lp3487
S'S\xc3\xa1rbog\xc3\xa1rd'
p3488
aS'Fej\xc3\xa9r'
p3489
asS'9020'
p3490
(lp3491
S'Gy\xc5\x91r'
p3492
aS'Gy\xc5\x91r-Moson-Sopron'
p3493
asS'9022'
p3494
(lp3495
S'Gy\xc5\x91r'
p3496
aS'Gy\xc5\x91r-Moson-Sopron'
p3497
asS'5222'
p3498
(lp3499
S'\xc3\x96rm\xc3\xa9nyes'
p3500
aS'J\xc3\xa1sz-Nagykun-Szolnok'
p3501
asS'8900'
p3502
(lp3503
S'Zalaegerszeg'
p3504
aS'Zala'
p3505
asS'8935'
p3506
(lp3507
S'Pad\xc3\xa1r'
p3508
aS'Zala'
p3509
asS'8936'
p3510
(lp3511
S'Zalaszentmih\xc3\xa1ly'
p3512
aS'Zala'
p3513
asS'8931'
p3514
(lp3515
S'Kemendoll\xc3\xa1r'
p3516
aS'Zala'
p3517
asS'8932'
p3518
(lp3519
S'P\xc3\xb3kaszepetk'
p3520
aS'Zala'
p3521
asS'8902'
p3522
(lp3523
S'Zalaegerszeg'
p3524
aS'Zala'
p3525
asS'3063'
p3526
(lp3527
S'Jobb\xc3\xa1gyi'
p3528
aS'N\xc3\xb3gr\xc3\xa1d'
p3529
asS'3062'
p3530
(lp3531
S'P\xc3\xa1szt\xc3\xb3'
p3532
aS'N\xc3\xb3gr\xc3\xa1d'
p3533
asS'3061'
p3534
(lp3535
S'P\xc3\xa1szt\xc3\xb3'
p3536
aS'N\xc3\xb3gr\xc3\xa1d'
p3537
asS'3060'
p3538
(lp3539
S'P\xc3\xa1szt\xc3\xb3'
p3540
aS'N\xc3\xb3gr\xc3\xa1d'
p3541
asS'3066'
p3542
(lp3543
S'Cserh\xc3\xa1tszentiv\xc3\xa1n'
p3544
aS'N\xc3\xb3gr\xc3\xa1d'
p3545
asS'2949'
p3546
(lp3547
S'Cs\xc3\xa9m'
p3548
aS'Kom\xc3\xa1rom-Esztergom'
p3549
asS'2948'
p3550
(lp3551
S'Kisigm\xc3\xa1nd'
p3552
aS'Kom\xc3\xa1rom-Esztergom'
p3553
asS'2946'
p3554
(lp3555
S'Cs\xc3\xa9p'
p3556
aS'Kom\xc3\xa1rom-Esztergom'
p3557
asS'3069'
p3558
(lp3559
S'Als\xc3\xb3told'
p3560
aS'N\xc3\xb3gr\xc3\xa1d'
p3561
asS'2942'
p3562
(lp3563
S'Nagyigm\xc3\xa1nd'
p3564
aS'Kom\xc3\xa1rom-Esztergom'
p3565
asS'1051'
p3566
(lp3567
S'Budapest'
p3568
aS'Budapest'
p3569
asS'1053'
p3570
(lp3571
S'Budapest'
p3572
aS'Budapest'
p3573
asS'1056'
p3574
(lp3575
S'Budapest'
p3576
aS'Budapest'
p3577
asS'5359'
p3578
(lp3579
S'Tiszaf\xc3\xbcred'
p3580
aS'J\xc3\xa1sz-Nagykun-Szolnok'
p3581
asS'8798'
p3582
(lp3583
S'Zalab\xc3\xa9r'
p3584
aS'Zala'
p3585
asS'8799'
p3586
(lp3587
S'Pakod'
p3588
aS'Zala'
p3589
asS'8248'
p3590
(lp3591
S'Veszpr\xc3\xa9mfajsz'
p3592
aS'Veszpr\xc3\xa9m'
p3593
asS'8242'
p3594
(lp3595
S'Balatonudvari'
p3596
aS'Veszpr\xc3\xa9m'
p3597
asS'8244'
p3598
(lp3599
S'D\xc3\xb6rgicse'
p3600
aS'Veszpr\xc3\xa9m'
p3601
asS'8245'
p3602
(lp3603
S'P\xc3\xa9csely'
p3604
aS'Veszpr\xc3\xa9m'
p3605
asS'3332'
p3606
(lp3607
S'Sirok'
p3608
aS'Heves'
p3609
asS'7047'
p3610
(lp3611
S'S\xc3\xa1rszentl\xc5\x91rinc'
p3612
aS'Tolna'
p3613
asS'8649'
p3614
(lp3615
S'Balatonber\xc3\xa9ny'
p3616
aS'Somogy'
p3617
asS'8647'
p3618
(lp3619
S'Balatonm\xc3\xa1riaf\xc3\xbcrd\xc5\x91'
p3620
aS'Somogy'
p3621
asS'8426'
p3622
(lp3623
S'P\xc3\xa9nzesgy\xc5\x91r'
p3624
aS'Veszpr\xc3\xa9m'
p3625
asS'8424'
p3626
(lp3627
S'J\xc3\xa1sd'
p3628
aS'Veszpr\xc3\xa9m'
p3629
asS'8423'
p3630
(lp3631
S'Sz\xc3\xa1p\xc3\xa1r'
p3632
aS'Veszpr\xc3\xa9m'
p3633
asS'8420'
p3634
(lp3635
S'Zirc'
p3636
aS'Veszpr\xc3\xa9m'
p3637
asS'5743'
p3638
(lp3639
S'L\xc5\x91k\xc3\xb6sh\xc3\xa1za'
p3640
aS'B\xc3\xa9k\xc3\xa9s'
p3641
asS'5744'
p3642
(lp3643
S'Kevermes'
p3644
aS'B\xc3\xa9k\xc3\xa9s'
p3645
asS'5747'
p3646
(lp3647
S'Alm\xc3\xa1skamar\xc3\xa1s'
p3648
aS'B\xc3\xa9k\xc3\xa9s'
p3649
asS'4225'
p3650
(lp3651
S'Hajd\xc3\xbab\xc3\xb6sz\xc3\xb6rm\xc3\xa9ny'
p3652
aS'Hajd\xc3\xba-Bihar'
p3653
asS'6412'
p3654
(lp3655
S'Balotasz\xc3\xa1ll\xc3\xa1s'
p3656
aS'B\xc3\xa1cs-Kiskun'
p3657
asS'4220'
p3658
(lp3659
S'Hajd\xc3\xbab\xc3\xb6sz\xc3\xb6rm\xc3\xa9ny'
p3660
aS'Hajd\xc3\xba-Bihar'
p3661
asS'3185'
p3662
(lp3663
S'Egyh\xc3\xa1zasgerge'
p3664
aS'N\xc3\xb3gr\xc3\xa1d'
p3665
asS'9832'
p3666
(lp3667
S'Nagytilaj'
p3668
aS'Vas'
p3669
asS'9831'
p3670
(lp3671
S'B\xc3\xa9rbaltav\xc3\xa1r'
p3672
aS'Vas'
p3673
asS'9835'
p3674
(lp3675
S'Mikossz\xc3\xa9plak'
p3676
aS'Vas'
p3677
asS'7755'
p3678
(lp3679
S'T\xc3\xb6tt\xc3\xb6s'
p3680
aS'Baranya'
p3681
asS'7754'
p3682
(lp3683
S'B\xc3\xb3ly'
p3684
aS'Baranya'
p3685
asS'7757'
p3686
(lp3687
S'Babarc'
p3688
aS'Baranya'
p3689
asS'7756'
p3690
(lp3691
S'Nagybudm\xc3\xa9r'
p3692
aS'Baranya'
p3693
asS'2451'
p3694
(lp3695
S'Ercsi'
p3696
aS'Fej\xc3\xa9r'
p3697
asS'3932'
p3698
(lp3699
S'Erd\xc5\x91b\xc3\xa9nye'
p3700
aS'Borsod-Aba\xc3\xbaj-Zempl\xc3\xa9n'
p3701
asS'8330'
p3702
(lp3703
S'S\xc3\xbcmeg'
p3704
aS'Veszpr\xc3\xa9m'
p3705
asS'2453'
p3706
(lp3707
S'Ercsi'
p3708
aS'Fej\xc3\xa9r'
p3709
asS'6719'
p3710
(lp3711
S'Szeged'
p3712
aS'Csongr\xc3\xa1d'
p3713
asS'6717'
p3714
(lp3715
S'Szeged'
p3716
aS'Csongr\xc3\xa1d'
p3717
asS'6710'
p3718
(lp3719
S'Szeged'
p3720
aS'Csongr\xc3\xa1d'
p3721
asS'4131'
p3722
(lp3723
S'Derecske'
p3724
aS'Hajd\xc3\xba-Bihar'
p3725
asS'4133'
p3726
(lp3727
S'Kony\xc3\xa1r'
p3728
aS'Hajd\xc3\xba-Bihar'
p3729
asS'9909'
p3730
(lp3731
S'K\xc3\xb6rmend'
p3732
aS'Vas'
p3733
asS'5300'
p3734
(lp3735
S'Karcag'
p3736
aS'J\xc3\xa1sz-Nagykun-Szolnok'
p3737
asS'3842'
p3738
(lp3739
S'Halmaj'
p3740
aS'Borsod-Aba\xc3\xbaj-Zempl\xc3\xa9n'
p3741
asS'3849'
p3742
(lp3743
S'Forr\xc3\xb3'
p3744
aS'Borsod-Aba\xc3\xbaj-Zempl\xc3\xa9n'
p3745
asS'4047'
p3746
(lp3747
S'Debrecen'
p3748
aS'Hajd\xc3\xba-Bihar'
p3749
asS'4041'
p3750
(lp3751
S'Debrecen'
p3752
aS'Hajd\xc3\xba-Bihar'
p3753
asS'4042'
p3754
(lp3755
S'Debrecen'
p3756
aS'Hajd\xc3\xba-Bihar'
p3757
asS'3663'
p3758
(lp3759
S'Arl\xc3\xb3'
p3760
aS'Borsod-Aba\xc3\xbaj-Zempl\xc3\xa9n'
p3761
asS'4541'
p3762
(lp3763
S'Ny\xc3\xadrj\xc3\xa1k\xc3\xb3'
p3764
aS'Szabolcs-Szatm\xc3\xa1r-Bereg'
p3765
asS'4542'
p3766
(lp3767
S'Petneh\xc3\xa1za'
p3768
aS'Szabolcs-Szatm\xc3\xa1r-Bereg'
p3769
asS'4545'
p3770
(lp3771
S'Gyulah\xc3\xa1za'
p3772
aS'Szabolcs-Szatm\xc3\xa1r-Bereg'
p3773
asS'4546'
p3774
(lp3775
S'Anarcs'
p3776
aS'Szabolcs-Szatm\xc3\xa1r-Bereg'
p3777
asS'2375'
p3778
(lp3779
S'Tat\xc3\xa1rszentgy\xc3\xb6rgy'
p3780
aS'Pest'
p3781
asS'2377'
p3782
(lp3783
S'\xc3\x96rk\xc3\xa9ny'
p3784
aS'Pest'
p3785
asS'2370'
p3786
(lp3787
S'Dabas'
p3788
aS'Pest'
p3789
asS'2371'
p3790
(lp3791
S'Dabas'
p3792
aS'Pest'
p3793
asS'2373'
p3794
(lp3795
S'Dabas'
p3796
aS'Pest'
p3797
asS'3593'
p3798
(lp3799
S'Hej\xc5\x91b\xc3\xa1ba'
p3800
aS'Borsod-Aba\xc3\xbaj-Zempl\xc3\xa9n'
p3801
asS'9124'
p3802
(lp3803
S'Gy\xc3\xb6m\xc3\xb6re'
p3804
aS'Gy\xc5\x91r-Moson-Sopron'
p3805
asS'3598'
p3806
(lp3807
S'Nagycs\xc3\xa9cs'
p3808
aS'Borsod-Aba\xc3\xbaj-Zempl\xc3\xa9n'
p3809
asS'4823'
p3810
(lp3811
S'Nagydobos'
p3812
aS'Szabolcs-Szatm\xc3\xa1r-Bereg'
p3813
asS'4434'
p3814
(lp3815
S'K\xc3\xa1lm\xc3\xa1nh\xc3\xa1za'
p3816
aS'Szabolcs-Szatm\xc3\xa1r-Bereg'
p3817
asS'7918'
p3818
(lp3819
S'Lak\xc3\xb3csa'
p3820
aS'Somogy'
p3821
asS'7913'
p3822
(lp3823
S'Szentd\xc3\xa9nes'
p3824
aS'Baranya'
p3825
asS'4945'
p3826
(lp3827
S'Szatm\xc3\xa1rcseke'
p3828
aS'Szabolcs-Szatm\xc3\xa1r-Bereg'
p3829
asS'4947'
p3830
(lp3831
S'Tiszacs\xc3\xa9cse'
p3832
aS'Szabolcs-Szatm\xc3\xa1r-Bereg'
p3833
asS'4941'
p3834
(lp3835
S'Penyige'
p3836
aS'Szabolcs-Szatm\xc3\xa1r-Bereg'
p3837
asS'9824'
p3838
(lp3839
S'Olaszfa'
p3840
aS'Vas'
p3841
asS'4948'
p3842
(lp3843
S'Milota'
p3844
aS'Szabolcs-Szatm\xc3\xa1r-Bereg'
p3845
asS'6042'
p3846
(lp3847
S'F\xc3\xbcl\xc3\xb6ph\xc3\xa1za'
p3848
aS'B\xc3\xa1cs-Kiskun'
p3849
asS'6041'
p3850
(lp3851
S'Kerekegyh\xc3\xa1za'
p3852
aS'B\xc3\xa1cs-Kiskun'
p3853
asS'6045'
p3854
(lp3855
S'Lad\xc3\xa1nybene'
p3856
aS'B\xc3\xa1cs-Kiskun'
p3857
asS'2115'
p3858
(lp3859
S'V\xc3\xa1cszentl\xc3\xa1szl\xc3\xb3'
p3860
aS'Pest'
p3861
asS'2116'
p3862
(lp3863
S'Zs\xc3\xa1mbok'
p3864
aS'Pest'
p3865
asS'2117'
p3866
(lp3867
S'Isaszeg'
p3868
aS'Pest'
p3869
asS'2623'
p3870
(lp3871
S'Kismaros'
p3872
aS'Pest'
p3873
asS'8601'
p3874
(lp3875
S'Si\xc3\xb3fok'
p3876
aS'Somogy'
p3877
asS'2627'
p3878
(lp3879
S'Zebeg\xc3\xa9ny'
p3880
aS'Pest'
p3881
asS'8086'
p3882
(lp3883
S'Felcs\xc3\xbat'
p3884
aS'Fej\xc3\xa9r'
p3885
asS'7351'
p3886
(lp3887
S'M\xc3\xa1za'
p3888
aS'Baranya'
p3889
asS'7352'
p3890
(lp3891
S'Gy\xc3\xb6re'
p3892
aS'Tolna'
p3893
asS'7354'
p3894
(lp3895
S'V\xc3\xa1ralja'
p3896
aS'Tolna'
p3897
asS'7356'
p3898
(lp3899
S'Kism\xc3\xa1nyok'
p3900
aS'Tolna'
p3901
asS'9234'
p3902
(lp3903
S'Kisbodak'
p3904
aS'Gy\xc5\x91r-Moson-Sopron'
p3905
asS'9235'
p3906
(lp3907
S'P\xc3\xbcski'
p3908
aS'Gy\xc5\x91r-Moson-Sopron'
p3909
asS'3284'
p3910
(lp3911
S'Tarnam\xc3\xa9ra'
p3912
aS'Heves'
p3913
asS'3282'
p3914
(lp3915
S'Nagyf\xc3\xbcged'
p3916
aS'Heves'
p3917
asS'9232'
p3918
(lp3919
S'Darn\xc3\xb3zseli'
p3920
aS'Gy\xc5\x91r-Moson-Sopron'
p3921
asS'3441'
p3922
(lp3923
S'Mez\xc5\x91keresztes'
p3924
aS'Borsod-Aba\xc3\xbaj-Zempl\xc3\xa9n'
p3925
asS'3443'
p3926
(lp3927
S'Mez\xc5\x91nagymih\xc3\xa1ly'
p3928
aS'Borsod-Aba\xc3\xbaj-Zempl\xc3\xa9n'
p3929
asS'2755'
p3930
(lp3931
S'Kocs\xc3\xa9r'
p3932
aS'Pest'
p3933
asS'2021'
p3934
(lp3935
S'Tahit\xc3\xb3tfalu'
p3936
aS'Pest'
p3937
asS'2022'
p3938
(lp3939
S'Tahit\xc3\xb3tfalu'
p3940
aS'Pest'
p3941
asS'5213'
p3942
(lp3943
S'Tiszap\xc3\xbcsp\xc3\xb6ki'
p3944
aS'J\xc3\xa1sz-Nagykun-Szolnok'
p3945
asS'8921'
p3946
(lp3947
S'Zalaszentiv\xc3\xa1n'
p3948
aS'Zala'
p3949
asS'8929'
p3950
(lp3951
S'P\xc3\xb6l\xc3\xb6ske'
p3952
aS'Zala'
p3953
asS'7103'
p3954
(lp3955
S'Szeksz\xc3\xa1rd'
p3956
aS'Tolna'
p3957
asS'3053'
p3958
(lp3959
S'Ecseg'
p3960
aS'N\xc3\xb3gr\xc3\xa1d'
p3961
asS'3051'
p3962
(lp3963
S'Szarvasgede'
p3964
aS'N\xc3\xb3gr\xc3\xa1d'
p3965
asS'5363'
p3966
(lp3967
S'Nagyiv\xc3\xa1n'
p3968
aS'J\xc3\xa1sz-Nagykun-Szolnok'
p3969
asS'1041'
p3970
(lp3971
S'Budapest'
p3972
aS'Budapest'
p3973
asS'5361'
p3974
(lp3975
S'Tiszaigar'
p3976
aS'J\xc3\xa1sz-Nagykun-Szolnok'
p3977
asS'1047'
p3978
(lp3979
S'Budapest'
p3980
aS'Budapest'
p3981
asS'1044'
p3982
(lp3983
S'Budapest'
p3984
aS'Budapest'
p3985
asS'1048'
p3986
(lp3987
S'Budapest'
p3988
aS'Budapest'
p3989
asS'8254'
p3990
(lp3991
S'K\xc5\x91v\xc3\xa1g\xc3\xb3\xc3\xb6rs'
p3992
aS'Veszpr\xc3\xa9m'
p3993
asS'4300'
p3994
(lp3995
S'Ny\xc3\xadrb\xc3\xa1tor'
p3996
aS'Szabolcs-Szatm\xc3\xa1r-Bereg'
p3997
asS'8251'
p3998
(lp3999
S'Z\xc3\xa1nka'
p4000
aS'Veszpr\xc3\xa9m'
p4001
asS'8253'
p4002
(lp4003
S'R\xc3\xa9vf\xc3\xbcl\xc3\xb6p'
p4004
aS'Veszpr\xc3\xa9m'
p4005
asS'8866'
p4006
(lp4007
S'Becsehely'
p4008
aS'Zala'
p4009
asS'8788'
p4010
(lp4011
S'S\xc3\xa9nye'
p4012
aS'Zala'
p4013
asS'8782'
p4014
(lp4015
S'Ligetfalva'
p4016
aS'Zala'
p4017
asS'8784'
p4018
(lp4019
S'Kehidakust\xc3\xa1ny'
p4020
aS'Zala'
p4021
asS'3129'
p4022
(lp4023
S'Lucfalva'
p4024
aS'N\xc3\xb3gr\xc3\xa1d'
p4025
asS'3123'
p4026
(lp4027
S'Cered'
p4028
aS'N\xc3\xb3gr\xc3\xa1d'
p4029
asS'7616'
p4030
(lp4031
S'P\xc3\xa9cs'
p4032
aS'Baranya'
p4033
asS'7617'
p4034
(lp4035
S'P\xc3\xa9cs'
p4036
aS'Baranya'
p4037
asS'7610'
p4038
(lp4039
S'P\xc3\xa9cs'
p4040
aS'Baranya'
p4041
asS'7611'
p4042
(lp4043
S'P\xc3\xa9cs'
p4044
aS'Baranya'
p4045
asS'7612'
p4046
(lp4047
S'P\xc3\xa9cs'
p4048
aS'Baranya'
p4049
asS'3125'
p4050
(lp4051
S'Szilaspogony'
p4052
aS'N\xc3\xb3gr\xc3\xa1d'
p4053
asS'9625'
p4054
(lp4055
S'G\xc3\xb3r'
p4056
aS'Vas'
p4057
asS'9624'
p4058
(lp4059
S'Chernelh\xc3\xa1zadamonya'
p4060
aS'Vas'
p4061
asS'8656'
p4062
(lp4063
S'Nagyber\xc3\xa9ny'
p4064
aS'Somogy'
p4065
asS'8430'
p4066
(lp4067
S'Bakonyszentkir\xc3\xa1ly'
p4068
aS'Veszpr\xc3\xa9m'
p4069
asS'8864'
p4070
(lp4071
S'T\xc3\xb3tszerdahely'
p4072
aS'Zala'
p4073
asS'8438'
p4074
(lp4075
S'Veszpr\xc3\xa9mvars\xc3\xa1ny'
p4076
aS'Veszpr\xc3\xa9m'
p4077
asS'6447'
p4078
(lp4079
S'Fels\xc5\x91szentiv\xc3\xa1n'
p4080
aS'B\xc3\xa1cs-Kiskun'
p4081
asS'6916'
p4082
(lp4083
S'Ambr\xc3\xb3zfalva'
p4084
aS'Csongr\xc3\xa1d'
p4085
asS'6917'
p4086
(lp4087
S'Nagy\xc3\xa9r'
p4088
aS'Csongr\xc3\xa1d'
p4089
asS'6912'
p4090
(lp4091
S'K\xc3\xb6vegy'
p4092
aS'Csongr\xc3\xa1d'
p4093
asS'8737'
p4094
(lp4095
S'Somogysimonyi'
p4096
aS'Somogy'
p4097
asS'4234'
p4098
(lp4099
S'Szakoly'
p4100
aS'Szabolcs-Szatm\xc3\xa1r-Bereg'
p4101
asS'4233'
p4102
(lp4103
S'Balk\xc3\xa1ny'
p4104
aS'Szabolcs-Szatm\xc3\xa1r-Bereg'
p4105
asS'4232'
p4106
(lp4107
S'Geszter\xc3\xa9d'
p4108
aS'Szabolcs-Szatm\xc3\xa1r-Bereg'
p4109
asS'6449'
p4110
(lp4111
S'M\xc3\xa9lyk\xc3\xbat'
p4112
aS'B\xc3\xa1cs-Kiskun'
p4113
asS'7728'
p4114
(lp4115
S'Somberek'
p4116
aS'Baranya'
p4117
asS'8988'
p4118
(lp4119
S'K\xc3\xa1l\xc3\xb3cfa'
p4120
aS'Zala'
p4121
asS'7720'
p4122
(lp4123
S'Ap\xc3\xa1tvarasd'
p4124
aS'Baranya'
p4125
asS'7726'
p4126
(lp4127
S'V\xc3\xa9m\xc3\xa9nd'
p4128
aS'Baranya'
p4129
asS'8514'
p4130
(lp4131
S'Mez\xc5\x91lak'
p4132
aS'Veszpr\xc3\xa9m'
p4133
asS'6708'
p4134
(lp4135
S'Szeged'
p4136
aS'Csongr\xc3\xa1d'
p4137
asS'6705'
p4138
(lp4139
S'Szeged'
p4140
aS'Csongr\xc3\xa1d'
p4141
asS'6704'
p4142
(lp4143
S'Szeged'
p4144
aS'Csongr\xc3\xa1d'
p4145
asS'9913'
p4146
(lp4147
S'D\xc3\xb6r\xc3\xb6ske'
p4148
aS'Vas'
p4149
asS'4128'
p4150
(lp4151
S'Bed\xc5\x91'
p4152
aS'Hajd\xc3\xba-Bihar'
p4153
asS'9915'
p4154
(lp4155
S'Hegyh\xc3\xa1thod\xc3\xa1sz'
p4156
aS'Vas'
p4157
asS'9919'
p4158
(lp4159
S'Cs\xc3\xa1k\xc3\xa1nydoroszl\xc3\xb3'
p4160
aS'Vas'
p4161
asS'4496'
p4162
(lp4163
S'Szabolcsveresmart'
p4164
aS'Szabolcs-Szatm\xc3\xa1r-Bereg'
p4165
asS'4121'
p4166
(lp4167
S'Szentp\xc3\xa9terszeg'
p4168
aS'Hajd\xc3\xba-Bihar'
p4169
asS'4127'
p4170
(lp4171
S'Nagykereki'
p4172
aS'Hajd\xc3\xba-Bihar'
p4173
asS'7435'
p4174
(lp4175
S'Somogys\xc3\xa1rd'
p4176
aS'Somogy'
p4177
asS'7436'
p4178
(lp4179
S'\xc3\x9ajv\xc3\xa1rfalva'
p4180
aS'Somogy'
p4181
asS'7431'
p4182
(lp4183
S'Juta'
p4184
aS'Somogy'
p4185
asS'2699'
p4186
(lp4187
S'Sz\xc3\xbcgy'
p4188
aS'N\xc3\xb3gr\xc3\xa1d'
p4189
asS'9842'
p4190
(lp4191
S'Als\xc3\xb3\xc3\xbajlak'
p4192
aS'Vas'
p4193
asS'8126'
p4194
(lp4195
S'S\xc3\xa1rszent\xc3\xa1gota'
p4196
aS'Fej\xc3\xa9r'
p4197
asS'2365'
p4198
(lp4199
S'In\xc3\xa1rcs'
p4200
aS'Pest'
p4201
asS'9133'
p4202
(lp4203
S'R\xc3\xa1baszentmikl\xc3\xb3s'
p4204
aS'Gy\xc5\x91r-Moson-Sopron'
p4205
asS'9132'
p4206
(lp4207
S'\xc3\x81rp\xc3\xa1s'
p4208
aS'Gy\xc5\x91r-Moson-Sopron'
p4209
asS'7925'
p4210
(lp4211
S'Somogyh\xc3\xa1rs\xc3\xa1gy'
p4212
aS'Baranya'
p4213
asS'7922'
p4214
(lp4215
S'Somogyap\xc3\xa1ti'
p4216
aS'Baranya'
p4217
asS'9134'
p4218
(lp4219
S'Bodonhely'
p4220
aS'Gy\xc5\x91r-Moson-Sopron'
p4221
asS'4440'
p4222
(lp4223
S'Tiszavasv\xc3\xa1ri'
p4224
aS'Szabolcs-Szatm\xc3\xa1r-Bereg'
p4225
asS'3728'
p4226
(lp4227
S'Kelem\xc3\xa9r'
p4228
aS'Borsod-Aba\xc3\xbaj-Zempl\xc3\xa9n'
p4229
asS'3720'
p4230
(lp4231
S'Saj\xc3\xb3kaza'
p4232
aS'Borsod-Aba\xc3\xbaj-Zempl\xc3\xa9n'
p4233
asS'4931'
p4234
(lp4235
S'Tarpa'
p4236
aS'Szabolcs-Szatm\xc3\xa1r-Bereg'
p4237
asS'4934'
p4238
(lp4239
S'Beregdar\xc3\xb3c'
p4240
aS'Szabolcs-Szatm\xc3\xa1r-Bereg'
p4241
asS'4936'
p4242
(lp4243
S'V\xc3\xa1mosatya'
p4244
aS'Szabolcs-Szatm\xc3\xa1r-Bereg'
p4245
asS'2101'
p4246
(lp4247
S'G\xc3\xb6d\xc3\xb6ll\xc5\x91'
p4248
aS'Pest'
p4249
asS'2100'
p4250
(lp4251
S'G\xc3\xb6d\xc3\xb6ll\xc5\x91'
p4252
aS'Pest'
p4253
asS'2105'
p4254
(lp4255
S'G\xc3\xb6d\xc3\xb6ll\xc5\x91'
p4256
aS'Pest'
p4257
asS'2639'
p4258
(lp4259
S'Bernecebar\xc3\xa1ti'
p4260
aS'Pest'
p4261
asS'2638'
p4262
(lp4263
S'Kemence'
p4264
aS'Pest'
p4265
asS'2632'
p4266
(lp4267
S'Letk\xc3\xa9s'
p4268
aS'Pest'
p4269
asS'9228'
p4270
(lp4271
S'Hal\xc3\xa1szi'
p4272
aS'Gy\xc5\x91r-Moson-Sopron'
p4273
asS'9226'
p4274
(lp4275
S'Dunasziget'
p4276
aS'Gy\xc5\x91r-Moson-Sopron'
p4277
asS'9225'
p4278
(lp4279
S'Dunakiliti'
p4280
aS'Gy\xc5\x91r-Moson-Sopron'
p4281
asS'9224'
p4282
(lp4283
S'Rajka'
p4284
aS'Gy\xc5\x91r-Moson-Sopron'
p4285
asS'9223'
p4286
(lp4287
S'Bezenye'
p4288
aS'Gy\xc5\x91r-Moson-Sopron'
p4289
asS'3433'
p4290
(lp4291
S'Ny\xc3\xa9kl\xc3\xa1dh\xc3\xa1za'
p4292
aS'Borsod-Aba\xc3\xbaj-Zempl\xc3\xa9n'
p4293
asS'3434'
p4294
(lp4295
S'M\xc3\xa1lyi'
p4296
aS'Borsod-Aba\xc3\xbaj-Zempl\xc3\xa9n'
p4297
asS'2740'
p4298
(lp4299
S'Abony'
p4300
aS'Pest'
p4301
asS'2031'
p4302
(lp4303
S'\xc3\x89rd'
p4304
aS'Pest'
p4305
asS'2030'
p4306
(lp4307
S'\xc3\x89rd'
p4308
aS'Pest'
p4309
asS'4844'
p4310
(lp4311
S'Csaroda'
p4312
aS'Szabolcs-Szatm\xc3\xa1r-Bereg'
p4313
asS'4845'
p4314
(lp4315
S'T\xc3\xa1kos'
p4316
aS'Szabolcs-Szatm\xc3\xa1r-Bereg'
p4317
asS'2039'
p4318
(lp4319
S'Pusztaz\xc3\xa1mor'
p4320
aS'Pest'
p4321
asS'2038'
p4322
(lp4323
S'S\xc3\xb3sk\xc3\xbat'
p4324
aS'Pest'
p4325
asS'6456'
p4326
(lp4327
S'Madaras'
p4328
aS'B\xc3\xa1cs-Kiskun'
p4329
asS'5201'
p4330
(lp4331
S'T\xc3\xb6r\xc3\xb6kszentmikl\xc3\xb3s'
p4332
aS'J\xc3\xa1sz-Nagykun-Szolnok'
p4333
asS'5200'
p4334
(lp4335
S'T\xc3\xb6r\xc3\xb6kszentmikl\xc3\xb3s'
p4336
aS'J\xc3\xa1sz-Nagykun-Szolnok'
p4337
asS'3544'
p4338
(lp4339
S'Miskolc'
p4340
aS'Borsod-Aba\xc3\xbaj-Zempl\xc3\xa9n'
p4341
asS'3545'
p4342
(lp4343
S'Miskolc'
p4344
aS'Borsod-Aba\xc3\xbaj-Zempl\xc3\xa9n'
p4345
asS'3548'
p4346
(lp4347
S'Miskolc'
p4348
aS'Borsod-Aba\xc3\xbaj-Zempl\xc3\xa9n'
p4349
asS'8912'
p4350
(lp4351
S'Kisp\xc3\xa1li'
p4352
aS'Zala'
p4353
asS'8913'
p4354
(lp4355
S'Lakhegy'
p4356
aS'Zala'
p4357
asS'8917'
p4358
(lp4359
S'Dobronhegy'
p4360
aS'Zala'
p4361
asS'8919'
p4362
(lp4363
S'Kust\xc3\xa1nszeg'
p4364
aS'Zala'
p4365
asS'3041'
p4366
(lp4367
S'H\xc3\xa9halom'
p4368
aS'N\xc3\xb3gr\xc3\xa1d'
p4369
asS'3045'
p4370
(lp4371
S'B\xc3\xa9r'
p4372
aS'N\xc3\xb3gr\xc3\xa1d'
p4373
asS'3044'
p4374
(lp4375
S'Szir\xc3\xa1k'
p4376
aS'N\xc3\xb3gr\xc3\xa1d'
p4377
asS'1076'
p4378
(lp4379
S'Budapest'
p4380
aS'Budapest'
p4381
asS'1074'
p4382
(lp4383
S'Budapest'
p4384
aS'Budapest'
p4385
asS'1075'
p4386
(lp4387
S'Budapest'
p4388
aS'Budapest'
p4389
asS'1072'
p4390
(lp4391
S'Budapest'
p4392
aS'Budapest'
p4393
asS'1094'
p4394
(lp4395
S'Budapest'
p4396
aS'Budapest'
p4397
asS'1097'
p4398
(lp4399
S'Budapest'
p4400
aS'Budapest'
p4401
asS'1091'
p4402
(lp4403
S'Budapest'
p4404
aS'Budapest'
p4405
asS'8226'
p4406
(lp4407
S'Als\xc3\xb3\xc3\xb6rs'
p4408
aS'Veszpr\xc3\xa9m'
p4409
asS'8228'
p4410
(lp4411
S'Lovas'
p4412
aS'Veszpr\xc3\xa9m'
p4413
asS'4334'
p4414
(lp4415
S'Hod\xc3\xa1sz'
p4416
aS'Szabolcs-Szatm\xc3\xa1r-Bereg'
p4417
asS'4335'
p4418
(lp4419
S'K\xc3\xa1ntorj\xc3\xa1nosi'
p4420
aS'Szabolcs-Szatm\xc3\xa1r-Bereg'
p4421
asS'4331'
p4422
(lp4423
S'Ny\xc3\xadrcs\xc3\xa1sz\xc3\xa1ri'
p4424
aS'Szabolcs-Szatm\xc3\xa1r-Bereg'
p4425
asS'3135'
p4426
(lp4427
S'Sz\xc3\xa9cs\xc3\xa9nyfelfalu'
p4428
aS'N\xc3\xb3gr\xc3\xa1d'
p4429
asS'3134'
p4430
(lp4431
S'Piliny'
p4432
aS'N\xc3\xb3gr\xc3\xa1d'
p4433
asS'3132'
p4434
(lp4435
S'N\xc3\xb3gr\xc3\xa1dmegyer'
p4436
aS'N\xc3\xb3gr\xc3\xa1d'
p4437
asS'3138'
p4438
(lp4439
S'Ipolytarn\xc3\xb3c'
p4440
aS'N\xc3\xb3gr\xc3\xa1d'
p4441
asS'7607'
p4442
(lp4443
S'P\xc3\xa9cs'
p4444
aS'Baranya'
p4445
asS'7600'
p4446
(lp4447
S'P\xc3\xa9cs'
p4448
aS'Baranya'
p4449
asS'6452'
p4450
(lp4451
S'M\xc3\xa1t\xc3\xa9telke'
p4452
aS'B\xc3\xa1cs-Kiskun'
p4453
asS'6454'
p4454
(lp4455
S'B\xc3\xa1csbors\xc3\xb3d'
p4456
aS'B\xc3\xa1cs-Kiskun'
p4457
asS'8685'
p4458
(lp4459
S'Gam\xc3\xa1s'
p4460
aS'Somogy'
p4461
asS'4202'
p4462
(lp4463
S'Hajd\xc3\xbaszoboszl\xc3\xb3'
p4464
aS'Hajd\xc3\xba-Bihar'
p4465
asS'8135'
p4466
(lp4467
S'D\xc3\xa9g'
p4468
aS'Fej\xc3\xa9r'
p4469
asS'4200'
p4470
(lp4471
S'Hajd\xc3\xbaszoboszl\xc3\xb3'
p4472
aS'Hajd\xc3\xba-Bihar'
p4473
asS'8137'
p4474
(lp4475
S'Mez\xc5\x91kom\xc3\xa1rom'
p4476
aS'Fej\xc3\xa9r'
p4477
asS'8130'
p4478
(lp4479
S'Enying'
p4480
aS'Fej\xc3\xa9r'
p4481
asS'8131'
p4482
(lp4483
S'Enying'
p4484
aS'Fej\xc3\xa9r'
p4485
asS'5561'
p4486
(lp4487
S'B\xc3\xa9k\xc3\xa9sszentandr\xc3\xa1s'
p4488
aS'B\xc3\xa9k\xc3\xa9s'
p4489
asS'7732'
p4490
(lp4491
S'Fazekasboda'
p4492
aS'Baranya'
p4493
asS'7737'
p4494
(lp4495
S'Sz\xc3\xa9kelyszabar'
p4496
aS'Baranya'
p4497
asS'1529'
p4498
(lp4499
S'Budapest'
p4500
aS'Budapest'
p4501
asS'7735'
p4502
(lp4503
S'H\xc3\xadmesh\xc3\xa1za'
p4504
aS'Baranya'
p4505
asS'3958'
p4506
(lp4507
S'Hercegk\xc3\xbat'
p4508
aS'Borsod-Aba\xc3\xbaj-Zempl\xc3\xa9n'
p4509
asS'3950'
p4510
(lp4511
S'S\xc3\xa1rospatak'
p4512
aS'Borsod-Aba\xc3\xbaj-Zempl\xc3\xa9n'
p4513
asS'4116'
p4514
(lp4515
S'Berekb\xc3\xb6sz\xc3\xb6rm\xc3\xa9ny'
p4516
aS'Hajd\xc3\xba-Bihar'
p4517
asS'4117'
p4518
(lp4519
S'Told'
p4520
aS'Hajd\xc3\xba-Bihar'
p4521
asS'4114'
p4522
(lp4523
S'Bojt'
p4524
aS'Hajd\xc3\xba-Bihar'
p4525
asS'4110'
p4526
(lp4527
S'Biharkeresztes'
p4528
aS'Hajd\xc3\xba-Bihar'
p4529
asS'8351'
p4530
(lp4531
S'S\xc3\xbcmegpr\xc3\xa1ga'
p4532
aS'Veszpr\xc3\xa9m'
p4533
asS'8353'
p4534
(lp4535
S'Vindornyalak'
p4536
aS'Zala'
p4537
asS'8356'
p4538
(lp4539
S'Nagyg\xc3\xb6rb\xc5\x91'
p4540
aS'Zala'
p4541
asS'8195'
p4542
(lp4543
S'Kir\xc3\xa1lyszentistv\xc3\xa1n'
p4544
aS'Veszpr\xc3\xa9m'
p4545
asS'6600'
p4546
(lp4547
S'Szentes'
p4548
aS'Csongr\xc3\xa1d'
p4549
asS'6602'
p4550
(lp4551
S'Szentes'
p4552
aS'Csongr\xc3\xa1d'
p4553
asS'3341'
p4554
(lp4555
S'Egercsehi'
p4556
aS'Heves'
p4557
asS'5945'
p4558
(lp4559
S'Kardosk\xc3\xbat'
p4560
aS'B\xc3\xa9k\xc3\xa9s'
p4561
asS'4067'
p4562
(lp4563
S'Tiszacsege'
p4564
aS'Hajd\xc3\xba-Bihar'
p4565
asS'4065'
p4566
(lp4567
S'\xc3\x9ajszentmargita'
p4568
aS'Hajd\xc3\xba-Bihar'
p4569
asS'4069'
p4570
(lp4571
S'Egyek'
p4572
aS'Hajd\xc3\xba-Bihar'
p4573
asS'3358'
p4574
(lp4575
S'Erd\xc5\x91telek'
p4576
aS'Heves'
p4577
asS'3601'
p4578
(lp4579
S'\xc3\x93zd'
p4580
aS'Borsod-Aba\xc3\xbaj-Zempl\xc3\xa9n'
p4581
asS'3600'
p4582
(lp4583
S'\xc3\x93zd'
p4584
aS'Borsod-Aba\xc3\xbaj-Zempl\xc3\xa9n'
p4585
asS'1042'
p4586
(lp4587
S'Budapest'
p4588
aS'Budapest'
p4589
asS'6114'
p4590
(lp4591
S'Bugacpusztah\xc3\xa1za'
p4592
aS'B\xc3\xa1cs-Kiskun'
p4593
asS'6116'
p4594
(lp4595
S'F\xc3\xbcl\xc3\xb6pjakab'
p4596
aS'B\xc3\xa1cs-Kiskun'
p4597
asS'6111'
p4598
(lp4599
S'G\xc3\xa1t\xc3\xa9r'
p4600
aS'B\xc3\xa1cs-Kiskun'
p4601
asS'6112'
p4602
(lp4603
S'P\xc3\xa1lmonostora'
p4604
aS'B\xc3\xa1cs-Kiskun'
p4605
asS'7282'
p4606
(lp4607
S'Kisb\xc3\xa1rap\xc3\xa1ti'
p4608
aS'Somogy'
p4609
asS'7932'
p4610
(lp4611
S'Alm\xc3\xa1skereszt\xc3\xbar'
p4612
aS'Baranya'
p4613
asS'7935'
p4614
(lp4615
S'Ibafa'
p4616
aS'Baranya'
p4617
asS'7286'
p4618
(lp4619
S'Mikl\xc3\xb3si'
p4620
aS'Somogy'
p4621
asS'7284'
p4622
(lp4623
S'Somogyd\xc3\xb6r\xc3\xb6cske'
p4624
aS'Somogy'
p4625
asS'9451'
p4626
(lp4627
S'R\xc3\xb6jt\xc3\xb6kmuzsaj'
p4628
aS'Gy\xc5\x91r-Moson-Sopron'
p4629
asS'9100'
p4630
(lp4631
S'T\xc3\xa9t'
p4632
aS'Gy\xc5\x91r-Moson-Sopron'
p4633
asS'4450'
p4634
(lp4635
S'Tiszal\xc3\xb6k'
p4636
aS'Szabolcs-Szatm\xc3\xa1r-Bereg'
p4637
asS'4456'
p4638
(lp4639
S'Tiszadob'
p4640
aS'Szabolcs-Szatm\xc3\xa1r-Bereg'
p4641
asS'4455'
p4642
(lp4643
S'Tiszadada'
p4644
aS'Szabolcs-Szatm\xc3\xa1r-Bereg'
p4645
asS'9143'
p4646
(lp4647
S'Enese'
p4648
aS'Gy\xc5\x91r-Moson-Sopron'
p4649
asS'3732'
p4650
(lp4651
S'Kurity\xc3\xa1n'
p4652
aS'Borsod-Aba\xc3\xbaj-Zempl\xc3\xa9n'
p4653
asS'3731'
p4654
(lp4655
S'Szuhak\xc3\xa1ll\xc3\xb3'
p4656
aS'Borsod-Aba\xc3\xbaj-Zempl\xc3\xa9n'
p4657
asS'4922'
p4658
(lp4659
S'Nagyar'
p4660
aS'Szabolcs-Szatm\xc3\xa1r-Bereg'
p4661
asS'9141'
p4662
(lp4663
S'Ikr\xc3\xa9ny'
p4664
aS'Gy\xc5\x91r-Moson-Sopron'
p4665
asS'2131'
p4666
(lp4667
S'G\xc3\xb6d'
p4668
aS'Pest'
p4669
asS'2641'
p4670
(lp4671
S'Berkenye'
p4672
aS'N\xc3\xb3gr\xc3\xa1d'
p4673
asS'2643'
p4674
(lp4675
S'Di\xc3\xb3sjen\xc5\x91'
p4676
aS'N\xc3\xb3gr\xc3\xa1d'
p4677
asS'2645'
p4678
(lp4679
S'Nagyoroszi'
p4680
aS'N\xc3\xb3gr\xc3\xa1d'
p4681
asS'2647'
p4682
(lp4683
S'Hont'
p4684
aS'N\xc3\xb3gr\xc3\xa1d'
p4685
asS'3422'
p4686
(lp4687
S'B\xc3\xbckk\xc3\xa1br\xc3\xa1ny'
p4688
aS'Borsod-Aba\xc3\xbaj-Zempl\xc3\xa9n'
p4689
asS'3426'
p4690
(lp4691
S'Borsodgeszt'
p4692
aS'Borsod-Aba\xc3\xbaj-Zempl\xc3\xa9n'
p4693
asS'3424'
p4694
(lp4695
S'K\xc3\xa1cs'
p4696
aS'Borsod-Aba\xc3\xbaj-Zempl\xc3\xa9n'
p4697
asS'2002'
p4698
(lp4699
S'Szentendre'
p4700
aS'Pest'
p4701
asS'6336'
p4702
(lp4703
S'Szakm\xc3\xa1r'
p4704
aS'B\xc3\xa1cs-Kiskun'
p4705
asS'6331'
p4706
(lp4707
S'Fokt\xc5\x91'
p4708
aS'B\xc3\xa1cs-Kiskun'
p4709
asS'2009'
p4710
(lp4711
S'Pilisszentl\xc3\xa1szl\xc3\xb3'
p4712
aS'Pest'
p4713
asS'9073'
p4714
(lp4715
S'B\xc5\x91ny'
p4716
aS'Gy\xc5\x91r-Moson-Sopron'
p4717
asS'9676'
p4718
(lp4719
S'Hossz\xc3\xbapereszteg'
p4720
aS'Vas'
p4721
asS'8256'
p4722
(lp4723
S'Salf\xc3\xb6ld'
p4724
aS'Veszpr\xc3\xa9m'
p4725
asS'9671'
p4726
(lp4727
S'Sitke'
p4728
aS'Vas'
p4729
asS'9672'
p4730
(lp4731
S'G\xc3\xa9rce'
p4732
aS'Vas'
p4733
asS'1146'
p4734
(lp4735
S'Budapest'
p4736
aS'Budapest'
p4737
asS'3557'
p4738
(lp4739
S'B\xc3\xbckkszentkereszt'
p4740
aS'Borsod-Aba\xc3\xbaj-Zempl\xc3\xa9n'
p4741
asS'3554'
p4742
(lp4743
S'B\xc3\xbckkaranyos'
p4744
aS'Borsod-Aba\xc3\xbaj-Zempl\xc3\xa9n'
p4745
asS'3551'
p4746
(lp4747
S'\xc3\x93nod'
p4748
aS'Borsod-Aba\xc3\xbaj-Zempl\xc3\xa9n'
p4749
asS'6065'
p4750
(lp4751
S'Lakitelek'
p4752
aS'B\xc3\xa1cs-Kiskun'
p4753
asS'6066'
p4754
(lp4755
S'Tiszaalp\xc3\xa1r'
p4756
aS'B\xc3\xa1cs-Kiskun'
p4757
asS'3559'
p4758
(lp4759
S'R\xc3\xa9p\xc3\xa1shuta'
p4760
aS'Borsod-Aba\xc3\xbaj-Zempl\xc3\xa9n'
p4761
asS'8157'
p4762
(lp4763
S'F\xc3\xbcle'
p4764
aS'Fej\xc3\xa9r'
p4765
asS'8907'
p4766
(lp4767
S'Zalaegerszeg'
p4768
aS'Zala'
p4769
asS'8901'
p4770
(lp4771
S'Zalaegerszeg'
p4772
aS'Zala'
p4773
asS'1148'
p4774
(lp4775
S'Budapest'
p4776
aS'Budapest'
p4777
asS'6061'
p4778
(lp4779
S'Tiszak\xc3\xa9cske'
p4780
aS'B\xc3\xa1cs-Kiskun'
p4781
asS'2911'
p4782
(lp4783
S'Mocsa'
p4784
aS'Kom\xc3\xa1rom-Esztergom'
p4785
asS'6758'
p4786
(lp4787
S'R\xc3\xb6szke'
p4788
aS'Csongr\xc3\xa1d'
p4789
asS'7122'
p4790
(lp4791
S'Kakasd'
p4792
aS'Tolna'
p4793
asS'7121'
p4794
(lp4795
S'Sz\xc3\xa1lka'
p4796
aS'Tolna'
p4797
asS'1061'
p4798
(lp4799
S'Budapest'
p4800
aS'Budapest'
p4801
asS'5301'
p4802
(lp4803
S'Karcag'
p4804
aS'J\xc3\xa1sz-Nagykun-Szolnok'
p4805
asS'5302'
p4806
(lp4807
S'Karcag'
p4808
aS'J\xc3\xa1sz-Nagykun-Szolnok'
p4809
asS'1065'
p4810
(lp4811
S'Budapest'
p4812
aS'Budapest'
p4813
asS'1064'
p4814
(lp4815
S'Budapest'
p4816
aS'Budapest'
p4817
asS'1067'
p4818
(lp4819
S'Budapest'
p4820
aS'Budapest'
p4821
asS'9556'
p4822
(lp4823
S'Duka'
p4824
aS'Vas'
p4825
asS'1086'
p4826
(lp4827
S'Budapest'
p4828
aS'Budapest'
p4829
asS'1084'
p4830
(lp4831
S'Budapest'
p4832
aS'Budapest'
p4833
asS'1082'
p4834
(lp4835
S'Budapest'
p4836
aS'Budapest'
p4837
asS'1081'
p4838
(lp4839
S'Budapest'
p4840
aS'Budapest'
p4841
asS'4321'
p4842
(lp4843
S'Nagyk\xc3\xa1ll\xc3\xb3'
p4844
aS'Szabolcs-Szatm\xc3\xa1r-Bereg'
p4845
asS'4325'
p4846
(lp4847
S'Kisl\xc3\xa9ta'
p4848
aS'Szabolcs-Szatm\xc3\xa1r-Bereg'
p4849
asS'4324'
p4850
(lp4851
S'K\xc3\xa1ll\xc3\xb3semj\xc3\xa9n'
p4852
aS'Szabolcs-Szatm\xc3\xa1r-Bereg'
p4853
asS'1089'
p4854
(lp4855
S'Budapest'
p4856
aS'Budapest'
p4857
asS'4326'
p4858
(lp4859
S'M\xc3\xa1riap\xc3\xb3cs'
p4860
aS'Szabolcs-Szatm\xc3\xa1r-Bereg'
p4861
asS'3142'
p4862
(lp4863
S'M\xc3\xa1traszele'
p4864
aS'N\xc3\xb3gr\xc3\xa1d'
p4865
asS'3145'
p4866
(lp4867
S'M\xc3\xa1traterenye'
p4868
aS'N\xc3\xb3gr\xc3\xa1d'
p4869
asS'3146'
p4870
(lp4871
S'M\xc3\xa1traterenye'
p4872
aS'N\xc3\xb3gr\xc3\xa1d'
p4873
asS'3147'
p4874
(lp4875
S'M\xc3\xa1traterenye'
p4876
aS'N\xc3\xb3gr\xc3\xa1d'
p4877
asS'2600'
p4878
(lp4879
S'V\xc3\xa1c'
p4880
aS'Pest'
p4881
asS'2821'
p4882
(lp4883
S'Gyermely'
p4884
aS'Kom\xc3\xa1rom-Esztergom'
p4885
asS'2822'
p4886
(lp4887
S'Szomor'
p4888
aS'Kom\xc3\xa1rom-Esztergom'
p4889
asS'3387'
p4890
(lp4891
S'\xc3\x9ajl\xc5\x91rincfalva'
p4892
aS'Heves'
p4893
asS'3382'
p4894
(lp4895
S'Tarnaszentmikl\xc3\xb3s'
p4896
aS'Heves'
p4897
asS'5411'
p4898
(lp4899
S'K\xc3\xa9tp\xc3\xb3'
p4900
aS'J\xc3\xa1sz-Nagykun-Szolnok'
p4901
asS'3381'
p4902
(lp4903
S'P\xc3\xa9ly'
p4904
aS'Heves'
p4905
asS'7633'
p4906
(lp4907
S'P\xc3\xa9cs'
p4908
aS'Baranya'
p4909
asS'7630'
p4910
(lp4911
S'P\xc3\xa9cs'
p4912
aS'Baranya'
p4913
asS'7636'
p4914
(lp4915
S'P\xc3\xa9cs'
p4916
aS'Baranya'
p4917
asS'3388'
p4918
(lp4919
S'Poroszl\xc3\xb3'
p4920
aS'Heves'
p4921
asS'7635'
p4922
(lp4923
S'P\xc3\xa9cs'
p4924
aS'Baranya'
p4925
asS'4211'
p4926
(lp4927
S'Ebes'
p4928
aS'Hajd\xc3\xba-Bihar'
p4929
asS'4212'
p4930
(lp4931
S'Hajd\xc3\xbaszov\xc3\xa1t'
p4932
aS'Hajd\xc3\xba-Bihar'
p4933
asS'6932'
p4934
(lp4935
S'Magyarcsan\xc3\xa1d'
p4936
aS'Csongr\xc3\xa1d'
p4937
asS'6933'
p4938
(lp4939
S'Nagylak'
p4940
aS'Csongr\xc3\xa1d'
p4941
asS'9841'
p4942
(lp4943
S'K\xc3\xa1m'
p4944
aS'Vas'
p4945
asS'8699'
p4946
(lp4947
S'Somogyv\xc3\xa1mos'
p4948
aS'Somogy'
p4949
asS'8698'
p4950
(lp4951
S'Somogyv\xc3\xa1r'
p4952
aS'Somogy'
p4953
asS'8127'
p4954
(lp4955
S'Aba'
p4956
aS'Fej\xc3\xa9r'
p4957
asS'8694'
p4958
(lp4959
S'H\xc3\xa1cs'
p4960
aS'Somogy'
p4961
asS'8697'
p4962
(lp4963
S'\xc3\x96reglak'
p4964
aS'Somogy'
p4965
asS'8124'
p4966
(lp4967
S'K\xc3\xa1loz'
p4968
aS'Fej\xc3\xa9r'
p4969
asS'8693'
p4970
(lp4971
S'Lengyelt\xc3\xb3ti'
p4972
aS'Somogy'
p4973
asS'7701'
p4974
(lp4975
S'Moh\xc3\xa1cs'
p4976
aS'Baranya'
p4977
asS'7615'
p4978
(lp4979
S'P\xc3\xa9cs'
p4980
aS'Baranya'
p4981
asS'3126'
p4982
(lp4983
S'B\xc3\xa1rna'
p4984
aS'N\xc3\xb3gr\xc3\xa1d'
p4985
asS'4101'
p4986
(lp4987
S'Beretty\xc3\xb3\xc3\xbajfalu'
p4988
aS'Hajd\xc3\xba-Bihar'
p4989
asS'4100'
p4990
(lp4991
S'Beretty\xc3\xb3\xc3\xbajfalu'
p4992
aS'Hajd\xc3\xba-Bihar'
p4993
asS'4103'
p4994
(lp4995
S'Beretty\xc3\xb3\xc3\xbajfalu'
p4996
aS'Hajd\xc3\xba-Bihar'
p4997
asS'3124'
p4998
(lp4999
S'Zabar'
p5000
aS'N\xc3\xb3gr\xc3\xa1d'
p5001
asS'8341'
p5002
(lp5003
S'Kisv\xc3\xa1s\xc3\xa1rhely'
p5004
aS'Zala'
p5005
asS'8346'
p5006
(lp5007
S'G\xc3\xb3g\xc3\xa1nfa'
p5008
aS'Veszpr\xc3\xa9m'
p5009
asS'9313'
p5010
(lp5011
S'R\xc3\xa1bacsanak'
p5012
aS'Gy\xc5\x91r-Moson-Sopron'
p5013
asS'3896'
p5014
(lp5015
S'Telkib\xc3\xa1nya'
p5016
aS'Borsod-Aba\xc3\xbaj-Zempl\xc3\xa9n'
p5017
asS'8957'
p5018
(lp5019
S'Cs\xc3\xb6m\xc3\xb6d\xc3\xa9r'
p5020
aS'Zala'
p5021
asS'8719'
p5022
(lp5023
S'B\xc3\xb6h\xc3\xb6nye'
p5024
aS'Somogy'
p5025
asS'4078'
p5026
(lp5027
S'G\xc3\xb6rbeh\xc3\xa1za'
p5028
aS'Hajd\xc3\xba-Bihar'
p5029
asS'4071'
p5030
(lp5031
S'Hortob\xc3\xa1gy'
p5032
aS'Hajd\xc3\xba-Bihar'
p5033
asS'3964'
p5034
(lp5035
S'P\xc3\xa1cin'
p5036
aS'Borsod-Aba\xc3\xbaj-Zempl\xc3\xa9n'
p5037
asS'3502'
p5038
(lp5039
S'Miskolc'
p5040
aS'Borsod-Aba\xc3\xbaj-Zempl\xc3\xa9n'
p5041
asS'9533'
p5042
(lp5043
S'Nemesszal\xc3\xb3k'
p5044
aS'Veszpr\xc3\xa9m'
p5045
asS'3636'
p5046
(lp5047
S'Saj\xc3\xb3galg\xc3\xb3c'
p5048
aS'Borsod-Aba\xc3\xbaj-Zempl\xc3\xa9n'
p5049
asS'2345'
p5050
(lp5051
S'Apaj'
p5052
aS'Pest'
p5053
asS'2347'
p5054
(lp5055
S'Bugyi'
p5056
aS'Pest'
p5057
asS'2340'
p5058
(lp5059
S'Kiskunlach\xc3\xa1za'
p5060
aS'Pest'
p5061
asS'6102'
p5062
(lp5063
S'Kiskunf\xc3\xa9legyh\xc3\xa1za'
p5064
aS'B\xc3\xa1cs-Kiskun'
p5065
asS'2677'
p5066
(lp5067
S'Herencs\xc3\xa9ny'
p5068
aS'N\xc3\xb3gr\xc3\xa1d'
p5069
asS'9113'
p5070
(lp5071
S'Koronc\xc3\xb3'
p5072
aS'Gy\xc5\x91r-Moson-Sopron'
p5073
asS'9112'
p5074
(lp5075
S'Sokor\xc3\xb3p\xc3\xa1tka'
p5076
aS'Gy\xc5\x91r-Moson-Sopron'
p5077
asS'9443'
p5078
(lp5079
S'Pet\xc5\x91h\xc3\xa1za'
p5080
aS'Gy\xc5\x91r-Moson-Sopron'
p5081
asS'9441'
p5082
(lp5083
S'Agyagosszerg\xc3\xa9ny'
p5084
aS'Gy\xc5\x91r-Moson-Sopron'
p5085
asS'4468'
p5086
(lp5087
S'Balsa'
p5088
aS'Szabolcs-Szatm\xc3\xa1r-Bereg'
p5089
asS'4466'
p5090
(lp5091
S'Tim\xc3\xa1r'
p5092
aS'Szabolcs-Szatm\xc3\xa1r-Bereg'
p5093
asS'3703'
p5094
(lp5095
S'Kazincbarcika'
p5096
aS'Borsod-Aba\xc3\xbaj-Zempl\xc3\xa9n'
p5097
asS'4463'
p5098
(lp5099
S'Tiszanagyfalu'
p5100
aS'Szabolcs-Szatm\xc3\xa1r-Bereg'
p5101
asS'2120'
p5102
(lp5103
S'Dunakeszi'
p5104
aS'Pest'
p5105
asS'2122'
p5106
(lp5107
S'Dunakeszi'
p5108
aS'Pest'
p5109
asS'5752'
p5110
(lp5111
S'Nagykamar\xc3\xa1s'
p5112
aS'B\xc3\xa9k\xc3\xa9s'
p5113
asS'4913'
p5114
(lp5115
S'Panyola'
p5116
aS'Szabolcs-Szatm\xc3\xa1r-Bereg'
p5117
asS'6445'
p5118
(lp5119
S'Borota'
p5120
aS'B\xc3\xa1cs-Kiskun'
p5121
asS'6032'
p5122
(lp5123
S'Ny\xc3\xa1rl\xc5\x91rinc'
p5124
aS'B\xc3\xa1cs-Kiskun'
p5125
asS'6034'
p5126
(lp5127
S'Helv\xc3\xa9cia'
p5128
aS'B\xc3\xa1cs-Kiskun'
p5129
asS'2658'
p5130
(lp5131
S'Horp\xc3\xa1cs'
p5132
aS'N\xc3\xb3gr\xc3\xa1d'
p5133
asS'9201'
p5134
(lp5135
S'Mosonmagyar\xc3\xb3v\xc3\xa1r'
p5136
aS'Gy\xc5\x91r-Moson-Sopron'
p5137
asS'2653'
p5138
(lp5139
S'B\xc3\xa1nk'
p5140
aS'N\xc3\xb3gr\xc3\xa1d'
p5141
asS'6913'
p5142
(lp5143
S'Csan\xc3\xa1dpalota'
p5144
aS'Csongr\xc3\xa1d'
p5145
asS'2657'
p5146
(lp5147
S'Tolm\xc3\xa1cs'
p5148
aS'N\xc3\xb3gr\xc3\xa1d'
p5149
asS'2655'
p5150
(lp5151
S'Szente'
p5152
aS'N\xc3\xb3gr\xc3\xa1d'
p5153
asS'3416'
p5154
(lp5155
S'Tard'
p5156
aS'Borsod-Aba\xc3\xbaj-Zempl\xc3\xa9n'
p5157
asS'3412'
p5158
(lp5159
S'Bog\xc3\xa1cs'
p5160
aS'Borsod-Aba\xc3\xbaj-Zempl\xc3\xa9n'
p5161
asS'3411'
p5162
(lp5163
S'Szomolya'
p5164
aS'Borsod-Aba\xc3\xbaj-Zempl\xc3\xa9n'
p5165
asS'7381'
p5166
(lp5167
S'Kisvaszar'
p5168
aS'Baranya'
p5169
asS'7386'
p5170
(lp5171
S'G\xc3\xb6dre'
p5172
aS'Baranya'
p5173
asS'3418'
p5174
(lp5175
S'Szentistv\xc3\xa1n'
p5176
aS'Borsod-Aba\xc3\xbaj-Zempl\xc3\xa9n'
p5177
asS'8533'
p5178
(lp5179
S'Malomsok'
p5180
aS'Veszpr\xc3\xa9m'
p5181
asS'9982'
p5182
(lp5183
S'Ap\xc3\xa1tistv\xc3\xa1nfalva'
p5184
aS'Vas'
p5185
asS'6327'
p5186
(lp5187
S'Harta'
p5188
aS'B\xc3\xa1cs-Kiskun'
p5189
asS'6326'
p5190
(lp5191
S'Harta'
p5192
aS'B\xc3\xa1cs-Kiskun'
p5193
asS'6323'
p5194
(lp5195
S'Dunaegyh\xc3\xa1za'
p5196
aS'B\xc3\xa1cs-Kiskun'
p5197
asS'6321'
p5198
(lp5199
S'\xc3\x9ajsolt'
p5200
aS'B\xc3\xa1cs-Kiskun'
p5201
asS'2015'
p5202
(lp5203
S'Szigetmonostor'
p5204
aS'Pest'
p5205
asS'2017'
p5206
(lp5207
S'P\xc3\xb3csmegyer'
p5208
aS'Pest'
p5209
asS'9682'
p5210
(lp5211
S'Ny\xc5\x91g\xc3\xa9r'
p5212
aS'Vas'
p5213
asS'2011'
p5214
(lp5215
S'Budakal\xc3\xa1sz'
p5216
aS'Pest'
p5217
asS'9684'
p5218
(lp5219
S'Egerv\xc3\xb6lgy'
p5220
aS'Vas'
p5221
asS'9061'
p5222
(lp5223
S'V\xc3\xa1mosszabadi'
p5224
aS'Gy\xc5\x91r-Moson-Sopron'
p5225
asS'9063'
p5226
(lp5227
S'Nagybajcs'
p5228
aS'Gy\xc5\x91r-Moson-Sopron'
p5229
asS'9664'
p5230
(lp5231
S'Nagygeresd'
p5232
aS'Vas'
p5233
asS'9661'
p5234
(lp5235
S'Vasegerszeg'
p5236
aS'Vas'
p5237
asS'3562'
p5238
(lp5239
S'Onga'
p5240
aS'Borsod-Aba\xc3\xbaj-Zempl\xc3\xa9n'
p5241
asS'3563'
p5242
(lp5243
S'Hern\xc3\xa1dkak'
p5244
aS'Borsod-Aba\xc3\xbaj-Zempl\xc3\xa9n'
p5245
asS'7258'
p5246
(lp5247
S'Bat\xc3\xa9'
p5248
aS'Somogy'
p5249
asS'4484'
p5250
(lp5251
S'Ibr\xc3\xa1ny'
p5252
aS'Szabolcs-Szatm\xc3\xa1r-Bereg'
p5253
asS'4487'
p5254
(lp5255
S'Tiszatelek'
p5256
aS'Szabolcs-Szatm\xc3\xa1r-Bereg'
p5257
asS'4482'
p5258
(lp5259
S'K\xc3\xb3taj'
p5260
aS'Szabolcs-Szatm\xc3\xa1r-Bereg'
p5261
asS'8971'
p5262
(lp5263
S'Kerkabarab\xc3\xa1s'
p5264
aS'Zala'
p5265
asS'8973'
p5266
(lp5267
S'Als\xc3\xb3szenterzs\xc3\xa9bet'
p5268
aS'Zala'
p5269
asS'8976'
p5270
(lp5271
S'M\xc3\xa1rokf\xc3\xb6ld'
p5272
aS'Zala'
p5273
asS'2903'
p5274
(lp5275
S'Kom\xc3\xa1rom'
p5276
aS'Kom\xc3\xa1rom-Esztergom'
p5277
asS'2902'
p5278
(lp5279
S'Kom\xc3\xa1rom'
p5280
aS'Kom\xc3\xa1rom-Esztergom'
p5281
asS'2900'
p5282
(lp5283
S'Kom\xc3\xa1rom'
p5284
aS'Kom\xc3\xa1rom-Esztergom'
p5285
asS'7130'
p5286
(lp5287
S'Tolna'
p5288
aS'Tolna'
p5289
asS'7132'
p5290
(lp5291
S'Bogyiszl\xc3\xb3'
p5292
aS'Tolna'
p5293
asS'8804'
p5294
(lp5295
S'Nagykanizsa'
p5296
aS'Zala'
p5297
asS'8800'
p5298
(lp5299
S'Nagykanizsa'
p5300
aS'Zala'
p5301
asS'8808'
p5302
(lp5303
S'Nagykanizsa'
p5304
aS'Zala'
p5305
asS'8754'
p5306
(lp5307
S'Galambok'
p5308
aS'Zala'
p5309
asS'8202'
p5310
(lp5311
S'Veszpr\xc3\xa9m'
p5312
aS'Veszpr\xc3\xa9m'
p5313
asS'8200'
p5314
(lp5315
S'Veszpr\xc3\xa9m'
p5316
aS'Veszpr\xc3\xa9m'
p5317
asS'8201'
p5318
(lp5319
S'Veszpr\xc3\xa9m'
p5320
aS'Veszpr\xc3\xa9m'
p5321
asS'3153'
p5322
(lp5323
S'Dorogh\xc3\xa1za'
p5324
aS'N\xc3\xb3gr\xc3\xa1d'
p5325
asS'7627'
p5326
(lp5327
S'P\xc3\xa9cs'
p5328
aS'Baranya'
p5329
asS'7626'
p5330
(lp5331
S'P\xc3\xa9cs'
p5332
aS'Baranya'
p5333
asS'7621'
p5334
(lp5335
S'P\xc3\xa9cs'
p5336
aS'Baranya'
p5337
asS'3155'
p5338
(lp5339
S'M\xc3\xa1tramindszent'
p5340
aS'N\xc3\xb3gr\xc3\xa1d'
p5341
asS'2837'
p5342
(lp5343
S'V\xc3\xa9rtessz\xc5\x91l\xc5\x91s'
p5344
aS'Kom\xc3\xa1rom-Esztergom'
p5345
asS'2834'
p5346
(lp5347
S'Tardos'
p5348
aS'Kom\xc3\xa1rom-Esztergom'
p5349
asS'2833'
p5350
(lp5351
S'V\xc3\xa9rtestolna'
p5352
aS'Kom\xc3\xa1rom-Esztergom'
p5353
asS'2831'
p5354
(lp5355
S'Tarj\xc3\xa1n'
p5356
aS'Kom\xc3\xa1rom-Esztergom'
p5357
asS'5403'
p5358
(lp5359
S'Mez\xc5\x91t\xc3\xbar'
p5360
aS'J\xc3\xa1sz-Nagykun-Szolnok'
p5361
asS'5400'
p5362
(lp5363
S'Mez\xc5\x91t\xc3\xbar'
p5364
aS'J\xc3\xa1sz-Nagykun-Szolnok'
p5365
asS'3398'
p5366
(lp5367
S'Nagyt\xc3\xa1lya'
p5368
aS'Heves'
p5369
asS'4263'
p5370
(lp5371
S'Ny\xc3\xadrm\xc3\xa1rtonfalva'
p5372
aS'Hajd\xc3\xba-Bihar'
p5373
asS'4264'
p5374
(lp5375
S'Ny\xc3\xadr\xc3\xa1br\xc3\xa1ny'
p5376
aS'Hajd\xc3\xba-Bihar'
p5377
asS'4266'
p5378
(lp5379
S'F\xc3\xbcl\xc3\xb6p'
p5380
aS'Hajd\xc3\xba-Bihar'
p5381
asS'6922'
p5382
(lp5383
S'F\xc3\xb6lde\xc3\xa1k'
p5384
aS'Csongr\xc3\xa1d'
p5385
asS'7711'
p5386
(lp5387
S'B\xc3\xa1r'
p5388
aS'Baranya'
p5389
asS'7712'
p5390
(lp5391
S'Dunaszekcs\xc5\x91'
p5392
aS'Baranya'
p5393
asS'7717'
p5394
(lp5395
S'K\xc3\xb6lked'
p5396
aS'Baranya'
p5397
asS'5541'
p5398
(lp5399
S'Szarvas'
p5400
aS'B\xc3\xa9k\xc3\xa9s'
p5401
asS'8597'
p5402
(lp5403
S'Ganna'
p5404
aS'Veszpr\xc3\xa9m'
p5405
asS'8595'
p5406
(lp5407
S'Kup'
p5408
aS'Veszpr\xc3\xa9m'
p5409
asS'8371'
p5410
(lp5411
S'Nemesb\xc3\xbck'
p5412
aS'Zala'
p5413
asS'8571'
p5414
(lp5415
S'Bakonykopp\xc3\xa1ny'
p5416
aS'Veszpr\xc3\xa9m'
p5417
asS'3881'
p5418
(lp5419
S'Aba\xc3\xbajsz\xc3\xa1nt\xc3\xb3'
p5420
aS'Borsod-Aba\xc3\xbaj-Zempl\xc3\xa9n'
p5421
asS'3888'
p5422
(lp5423
S'Vizsoly'
p5424
aS'Borsod-Aba\xc3\xbaj-Zempl\xc3\xa9n'
p5425
asS'7400'
p5426
(lp5427
S'Zselickislak'
p5428
aS'Somogy'
p5429
asS'4763'
p5430
(lp5431
S'Ura'
p5432
aS'Szabolcs-Szatm\xc3\xa1r-Bereg'
p5433
asS'6622'
p5434
(lp5435
S'Nagym\xc3\xa1gocs'
p5436
aS'Csongr\xc3\xa1d'
p5437
asS'6623'
p5438
(lp5439
S'\xc3\x81rp\xc3\xa1dhalom'
p5440
aS'Csongr\xc3\xa1d'
p5441
asS'4009'
p5442
(lp5443
S'Debrecen'
p5444
aS'Hajd\xc3\xba-Bihar'
p5445
asS'4002'
p5446
(lp5447
S'Debrecen'
p5448
aS'Hajd\xc3\xba-Bihar'
p5449
asS'4003'
p5450
(lp5451
S'Debrecen'
p5452
aS'Hajd\xc3\xba-Bihar'
p5453
asS'4004'
p5454
(lp5455
S'Debrecen'
p5456
aS'Hajd\xc3\xba-Bihar'
p5457
asS'4005'
p5458
(lp5459
S'Debrecen'
p5460
aS'Hajd\xc3\xba-Bihar'
p5461
asS'4007'
p5462
(lp5463
S'Debrecen'
p5464
aS'Hajd\xc3\xba-Bihar'
p5465
asS'3621'
p5466
(lp5467
S'\xc3\x93zd'
p5468
aS'Borsod-Aba\xc3\xbaj-Zempl\xc3\xa9n'
p5469
asS'3623'
p5470
(lp5471
S'Borsodszentgy\xc3\xb6rgy'
p5472
aS'Borsod-Aba\xc3\xbaj-Zempl\xc3\xa9n'
p5473
asS'3627'
p5474
(lp5475
S'Domah\xc3\xa1za'
p5476
aS'Borsod-Aba\xc3\xbaj-Zempl\xc3\xa9n'
p5477
asS'9912'
p5478
(lp5479
S'Molnaszecs\xc5\x91d'
p5480
aS'Vas'
p5481
asS'9433'
p5482
(lp5483
S'Fert\xc5\x91d'
p5484
aS'Gy\xc5\x91r-Moson-Sopron'
p5485
asS'2337'
p5486
(lp5487
S'D\xc3\xa9legyh\xc3\xa1za'
p5488
aS'Pest'
p5489
asS'6132'
p5490
(lp5491
S'M\xc3\xb3ricg\xc3\xa1t'
p5492
aS'B\xc3\xa1cs-Kiskun'
p5493
asS'6131'
p5494
(lp5495
S'Szank'
p5496
aS'B\xc3\xa1cs-Kiskun'
p5497
asS'6135'
p5498
(lp5499
S'Cs\xc3\xb3lyosp\xc3\xa1los'
p5500
aS'B\xc3\xa1cs-Kiskun'
p5501
asS'4123'
p5502
(lp5503
S'Hencida'
p5504
aS'Hajd\xc3\xba-Bihar'
p5505
asS'9918'
p5506
(lp5507
S'Fels\xc5\x91mar\xc3\xa1c'
p5508
aS'Vas'
p5509
asS'3711'
p5510
(lp5511
S'Szirmabeseny\xc5\x91'
p5512
aS'Borsod-Aba\xc3\xbaj-Zempl\xc3\xa9n'
p5513
asS'3713'
p5514
(lp5515
S'Arn\xc3\xb3t'
p5516
aS'Borsod-Aba\xc3\xbaj-Zempl\xc3\xa9n'
p5517
asS'3712'
p5518
(lp5519
S'Saj\xc3\xb3v\xc3\xa1mos'
p5520
aS'Borsod-Aba\xc3\xbaj-Zempl\xc3\xa9n'
p5521
asS'9472'
p5522
(lp5523
S'\xc3\x9ajk\xc3\xa9r'
p5524
aS'Gy\xc5\x91r-Moson-Sopron'
p5525
asS'9476'
p5526
(lp5527
S'Zsira'
p5528
aS'Gy\xc5\x91r-Moson-Sopron'
p5529
asS'3718'
p5530
(lp5531
S'Megyasz\xc3\xb3'
p5532
aS'Borsod-Aba\xc3\xbaj-Zempl\xc3\xa9n'
p5533
asS'9474'
p5534
(lp5535
S'Szakony'
p5536
aS'Gy\xc5\x91r-Moson-Sopron'
p5537
asS'4472'
p5538
(lp5539
S'G\xc3\xa1vavencsell\xc5\x91'
p5540
aS'Szabolcs-Szatm\xc3\xa1r-Bereg'
p5541
asS'6006'
p5542
(lp5543
S'Kecskem\xc3\xa9t'
p5544
aS'B\xc3\xa1cs-Kiskun'
p5545
asS'6007'
p5546
(lp5547
S'Kecskem\xc3\xa9t'
p5548
aS'B\xc3\xa1cs-Kiskun'
p5549
asS'6004'
p5550
(lp5551
S'Kecskem\xc3\xa9t'
p5552
aS'B\xc3\xa1cs-Kiskun'
p5553
asS'6002'
p5554
(lp5555
S'Kecskem\xc3\xa9t'
p5556
aS'B\xc3\xa1cs-Kiskun'
p5557
asS'6003'
p5558
(lp5559
S'Kecskem\xc3\xa9t'
p5560
aS'B\xc3\xa1cs-Kiskun'
p5561
asS'6000'
p5562
(lp5563
S'Kecskem\xc3\xa9t'
p5564
aS'B\xc3\xa1cs-Kiskun'
p5565
asS'6001'
p5566
(lp5567
S'Kecskem\xc3\xa9t'
p5568
aS'B\xc3\xa1cs-Kiskun'
p5569
asS'2484'
p5570
(lp5571
S'G\xc3\xa1rdony'
p5572
aS'Fej\xc3\xa9r'
p5573
asS'2485'
p5574
(lp5575
S'G\xc3\xa1rdony'
p5576
aS'Fej\xc3\xa9r'
p5577
asS'2483'
p5578
(lp5579
S'G\xc3\xa1rdony'
p5580
aS'Fej\xc3\xa9r'
p5581
asS'2241'
p5582
(lp5583
S'S\xc3\xbclys\xc3\xa1p'
p5584
aS'Pest'
p5585
asS'2465'
p5586
(lp5587
S'R\xc3\xa1ckereszt\xc3\xbar'
p5588
aS'Fej\xc3\xa9r'
p5589
asS'7396'
p5590
(lp5591
S'Magyarsz\xc3\xa9k'
p5592
aS'Baranya'
p5593
asS'7391'
p5594
(lp5595
S'Kishajm\xc3\xa1s'
p5596
aS'Baranya'
p5597
asS'2462'
p5598
(lp5599
S'Martonv\xc3\xa1s\xc3\xa1r'
p5600
aS'Fej\xc3\xa9r'
p5601
asS'2463'
p5602
(lp5603
S'Tordas'
p5604
aS'Fej\xc3\xa9r'
p5605
asS'5143'
p5606
(lp5607
S'J\xc3\xa1noshida'
p5608
aS'J\xc3\xa1sz-Nagykun-Szolnok'
p5609
asS'3400'
p5610
(lp5611
S'Mez\xc5\x91k\xc3\xb6vesd'
p5612
aS'Borsod-Aba\xc3\xbaj-Zempl\xc3\xa9n'
p5613
asS'3378'
p5614
(lp5615
S'Mez\xc5\x91szemere'
p5616
aS'Heves'
p5617
asS'2064'
p5618
(lp5619
S'Csabdi'
p5620
aS'Fej\xc3\xa9r'
p5621
asS'2066'
p5622
(lp5623
S'\xc3\x9ajbarok'
p5624
aS'Fej\xc3\xa9r'
p5625
asS'2067'
p5626
(lp5627
S'Sz\xc3\xa1rliget'
p5628
aS'Fej\xc3\xa9r'
p5629
asS'1182'
p5630
(lp5631
S'Budapest'
p5632
aS'Budapest'
p5633
asS'9096'
p5634
(lp5635
S'Nyalka'
p5636
aS'Gy\xc5\x91r-Moson-Sopron'
p5637
asS'9097'
p5638
(lp5639
S'Mez\xc5\x91\xc3\xb6rs'
p5640
aS'Gy\xc5\x91r-Moson-Sopron'
p5641
asS'9091'
p5642
(lp5643
S'Ravazd'
p5644
aS'Gy\xc5\x91r-Moson-Sopron'
p5645
asS'9092'
p5646
(lp5647
S'Tarj\xc3\xa1npuszta'
p5648
aS'Gy\xc5\x91r-Moson-Sopron'
p5649
asS'5420'
p5650
(lp5651
S'T\xc3\xbarkeve'
p5652
aS'J\xc3\xa1sz-Nagykun-Szolnok'
p5653
asS'9653'
p5654
(lp5655
S'R\xc3\xa9pcelak'
p5656
aS'Vas'
p5657
asS'9654'
p5658
(lp5659
S'Cs\xc3\xa1nig'
p5660
aS'Vas'
p5661
asS'7228'
p5662
(lp5663
S'D\xc3\xb6br\xc3\xb6k\xc3\xb6z'
p5664
aS'Tolna'
p5665
asS'3578'
p5666
(lp5667
S'Girincs'
p5668
aS'Borsod-Aba\xc3\xbaj-Zempl\xc3\xa9n'
p5669
asS'3575'
p5670
(lp5671
S'Berz\xc3\xa9k'
p5672
aS'Borsod-Aba\xc3\xbaj-Zempl\xc3\xa9n'
p5673
asS'5091'
p5674
(lp5675
S'T\xc3\xb3szeg'
p5676
aS'J\xc3\xa1sz-Nagykun-Szolnok'
p5677
asS'5093'
p5678
(lp5679
S'Vezseny'
p5680
aS'J\xc3\xa1sz-Nagykun-Szolnok'
p5681
asS'5094'
p5682
(lp5683
S'Tiszajen\xc5\x91'
p5684
aS'J\xc3\xa1sz-Nagykun-Szolnok'
p5685
asS'5095'
p5686
(lp5687
S'Tiszajen\xc5\x91'
p5688
aS'J\xc3\xa1sz-Nagykun-Szolnok'
p5689
asS'3572'
p5690
(lp5691
S'Saj\xc3\xb3l\xc3\xa1d'
p5692
aS'Borsod-Aba\xc3\xbaj-Zempl\xc3\xa9n'
p5693
asS'9781'
p5694
(lp5695
S'Egyh\xc3\xa1zasholl\xc3\xb3s'
p5696
aS'Vas'
p5697
asS'4494'
p5698
(lp5699
S'K\xc3\xa9kcse'
p5700
aS'Szabolcs-Szatm\xc3\xa1r-Bereg'
p5701
asS'4493'
p5702
(lp5703
S'Tiszakany\xc3\xa1r'
p5704
aS'Szabolcs-Szatm\xc3\xa1r-Bereg'
p5705
asS'4492'
p5706
(lp5707
S'Dombr\xc3\xa1d'
p5708
aS'Szabolcs-Szatm\xc3\xa1r-Bereg'
p5709
asS'2660'
p5710
(lp5711
S'Balassagyarmat'
p5712
aS'N\xc3\xb3gr\xc3\xa1d'
p5713
asS'8966'
p5714
(lp5715
S'Lenti'
p5716
aS'Zala'
p5717
asS'2668'
p5718
(lp5719
S'Patvarc'
p5720
aS'N\xc3\xb3gr\xc3\xa1d'
p5721
asS'2669'
p5722
(lp5723
S'Ipolyvece'
p5724
aS'N\xc3\xb3gr\xc3\xa1d'
p5725
asS'2932'
p5726
(lp5727
S'Alm\xc3\xa1sf\xc3\xbczit\xc5\x91'
p5728
aS'Kom\xc3\xa1rom-Esztergom'
p5729
asS'5322'
p5730
(lp5731
S'Tiszaszentimre'
p5732
aS'J\xc3\xa1sz-Nagykun-Szolnok'
p5733
asS'8747'
p5734
(lp5735
S'Zalamerenye'
p5736
aS'Zala'
p5737
asS'8746'
p5738
(lp5739
S'Nagyrada'
p5740
aS'Zala'
p5741
asS'8745'
p5742
(lp5743
S'Kerecseny'
p5744
aS'Zala'
p5745
asS'8744'
p5746
(lp5747
S'Orosztony'
p5748
aS'Zala'
p5749
asS'8741'
p5750
(lp5751
S'Zalaap\xc3\xa1ti'
p5752
aS'Zala'
p5753
asS'2808'
p5754
(lp5755
S'Tatab\xc3\xa1nya'
p5756
aS'Kom\xc3\xa1rom-Esztergom'
p5757
asS'2803'
p5758
(lp5759
S'Tatab\xc3\xa1nya'
p5760
aS'Kom\xc3\xa1rom-Esztergom'
p5761
asS'2800'
p5762
(lp5763
S'Tatab\xc3\xa1nya'
p5764
aS'Kom\xc3\xa1rom-Esztergom'
p5765
asS'3163'
p5766
(lp5767
S'Szalmatercs'
p5768
aS'N\xc3\xb3gr\xc3\xa1d'
p5769
asS'2805'
p5770
(lp5771
S'Tatab\xc3\xa1nya'
p5772
aS'Kom\xc3\xa1rom-Esztergom'
p5773
asS'5432'
p5774
(lp5775
S'Tiszaf\xc3\xb6ldv\xc3\xa1r'
p5776
aS'J\xc3\xa1sz-Nagykun-Szolnok'
p5777
asS'7097'
p5778
(lp5779
S'Nagyszokoly'
p5780
aS'Tolna'
p5781
asS'7094'
p5782
(lp5783
S'Kopp\xc3\xa1nysz\xc3\xa1nt\xc3\xb3'
p5784
aS'Tolna'
p5785
asS'7095'
p5786
(lp5787
S'Iregszemcse'
p5788
aS'Tolna'
p5789
asS'7092'
p5790
(lp5791
S'Nagyk\xc3\xb3nyi'
p5792
aS'Tolna'
p5793
asS'3369'
p5794
(lp5795
S'Tarnabod'
p5796
aS'Heves'
p5797
asS'5435'
p5798
(lp5799
S'Martf\xc5\xb1'
p5800
aS'J\xc3\xa1sz-Nagykun-Szolnok'
p5801
asS'3360'
p5802
(lp5803
S'Heves'
p5804
aS'Heves'
p5805
asS'7099'
p5806
(lp5807
S'Fels\xc5\x91ny\xc3\xa9k'
p5808
aS'Tolna'
p5809
asS'4273'
p5810
(lp5811
S'Hajd\xc3\xbabagos'
p5812
aS'Hajd\xc3\xba-Bihar'
p5813
asS'8101'
p5814
(lp5815
S'V\xc3\xa1rpalota'
p5816
aS'Veszpr\xc3\xa9m'
p5817
asS'8100'
p5818
(lp5819
S'V\xc3\xa1rpalota'
p5820
aS'Veszpr\xc3\xa9m'
p5821
asS'8103'
p5822
(lp5823
S'V\xc3\xa1rpalota'
p5824
aS'Veszpr\xc3\xa9m'
p5825
asS'4274'
p5826
(lp5827
S'Hossz\xc3\xbap\xc3\xa1lyi'
p5828
aS'Hajd\xc3\xba-Bihar'
p5829
asS'8109'
p5830
(lp5831
S'T\xc3\xa9s'
p5832
aS'Veszpr\xc3\xa9m'
p5833
asS'9681'
p5834
(lp5835
S'S\xc3\xb3tony'
p5836
aS'Vas'
p5837
asS'5556'
p5838
(lp5839
S'\xc3\x96rm\xc3\xa9nyk\xc3\xbat'
p5840
aS'B\xc3\xa9k\xc3\xa9s'
p5841
asS'9406'
p5842
(lp5843
S'Sopron'
p5844
aS'Gy\xc5\x91r-Moson-Sopron'
p5845
asS'5552'
p5846
(lp5847
S'Kardos'
p5848
aS'B\xc3\xa9k\xc3\xa9s'
p5849
asS'8581'
p5850
(lp5851
S'Bakonyj\xc3\xa1k\xc3\xb3'
p5852
aS'Veszpr\xc3\xa9m'
p5853
asS'8360'
p5854
(lp5855
S'Keszthely'
p5856
aS'Zala'
p5857
asS'8362'
p5858
(lp5859
S'Keszthely'
p5860
aS'Zala'
p5861
asS'8563'
p5862
(lp5863
S'Homokb\xc3\xb6d\xc3\xb6ge'
p5864
aS'Veszpr\xc3\xa9m'
p5865
asS'8562'
p5866
(lp5867
S'Nagytevel'
p5868
aS'Veszpr\xc3\xa9m'
p5869
asS'8275'
p5870
(lp5871
S'Balatonhenye'
p5872
aS'Veszpr\xc3\xa9m'
p5873
asS'7479'
p5874
(lp5875
S'S\xc3\xa1ntos'
p5876
aS'Somogy'
p5877
asS'3181'
p5878
(lp5879
S'Karancsalja'
p5880
aS'N\xc3\xb3gr\xc3\xa1d'
p5881
asS'3183'
p5882
(lp5883
S'Karancskeszi'
p5884
aS'N\xc3\xb3gr\xc3\xa1d'
p5885
asS'7472'
p5886
(lp5887
S'Szentbal\xc3\xa1zs'
p5888
aS'Somogy'
p5889
asS'7473'
p5890
(lp5891
S'Kaposgyarmat'
p5892
aS'Somogy'
p5893
asS'7474'
p5894
(lp5895
S'Simonfa'
p5896
aS'Somogy'
p5897
asS'7476'
p5898
(lp5899
S'Kaposszerdahely'
p5900
aS'Somogy'
p5901
asS'7477'
p5902
(lp5903
S'Szenna'
p5904
aS'Somogy'
p5905
asS'6630'
p5906
(lp5907
S'Mindszent'
p5908
aS'Csongr\xc3\xa1d'
p5909
asS'6636'
p5910
(lp5911
S'M\xc3\xa1rt\xc3\xa9ly'
p5912
aS'Csongr\xc3\xa1d'
p5913
asS'4011'
p5914
(lp5915
S'Debrecen'
p5916
aS'Hajd\xc3\xba-Bihar'
p5917
asS'4010'
p5918
(lp5919
S'Debrecen'
p5920
aS'Hajd\xc3\xba-Bihar'
p5921
asS'4014'
p5922
(lp5923
S'Debrecen'
p5924
aS'Hajd\xc3\xba-Bihar'
p5925
asS'7500'
p5926
(lp5927
S'Nagyat\xc3\xa1d'
p5928
aS'Somogy'
p5929
asS'3989'
p5930
(lp5931
S'Mik\xc3\xb3h\xc3\xa1za'
p5932
aS'Borsod-Aba\xc3\xbaj-Zempl\xc3\xa9n'
p5933
asS'3981'
p5934
(lp5935
S'S\xc3\xa1toralja\xc3\xbajhely'
p5936
aS'Borsod-Aba\xc3\xbaj-Zempl\xc3\xa9n'
p5937
asS'6120'
p5938
(lp5939
S'Kiskunmajsa'
p5940
aS'B\xc3\xa1cs-Kiskun'
p5941
asS'2321'
p5942
(lp5943
S'Szigetbecse'
p5944
aS'Pest'
p5945
asS'4701'
p5946
(lp5947
S'M\xc3\xa1t\xc3\xa9szalka'
p5948
aS'Szabolcs-Szatm\xc3\xa1r-Bereg'
p5949
asS'7255'
p5950
(lp5951
S'Nagyberki'
p5952
aS'Somogy'
p5953
asS'4642'
p5954
(lp5955
S'Tornyosp\xc3\xa1lca'
p5956
aS'Szabolcs-Szatm\xc3\xa1r-Bereg'
p5957
asS'4646'
p5958
(lp5959
S'Eperjeske'
p5960
aS'Szabolcs-Szatm\xc3\xa1r-Bereg'
p5961
asS'2255'
p5962
(lp5963
S'Szentl\xc5\x91rinck\xc3\xa1ta'
p5964
aS'Pest'
p5965
asS'2253'
p5966
(lp5967
S'T\xc3\xa1pi\xc3\xb3s\xc3\xa1g'
p5968
aS'Pest'
p5969
asS'2251'
p5970
(lp5971
S'T\xc3\xa1pi\xc3\xb3szecs\xc5\x91'
p5972
aS'Pest'
p5973
asS'2477'
p5974
(lp5975
S'Vereb'
p5976
aS'Fej\xc3\xa9r'
p5977
asS'2475'
p5978
(lp5979
S'K\xc3\xa1poln\xc3\xa1sny\xc3\xa9k'
p5980
aS'Fej\xc3\xa9r'
p5981
asS'5152'
p5982
(lp5983
S'J\xc3\xa1szboldogh\xc3\xa1za'
p5984
aS'J\xc3\xa1sz-Nagykun-Szolnok'
p5985
asS'4800'
p5986
(lp5987
S'V\xc3\xa1s\xc3\xa1rosnam\xc3\xa9ny'
p5988
aS'Szabolcs-Szatm\xc3\xa1r-Bereg'
p5989
asS'8978'
p5990
(lp5991
S'Bels\xc5\x91s\xc3\xa1rd'
p5992
aS'Zala'
p5993
asS'4803'
p5994
(lp5995
S'V\xc3\xa1s\xc3\xa1rosnam\xc3\xa9ny'
p5996
aS'Szabolcs-Szatm\xc3\xa1r-Bereg'
p5997
asS'9464'
p5998
(lp5999
S'Und'
p6000
aS'Gy\xc5\x91r-Moson-Sopron'
p6001
asS'9461'
p6002
(lp6003
S'L\xc3\xb6v\xc5\x91'
p6004
aS'Gy\xc5\x91r-Moson-Sopron'
p6005
asS'9462'
p6006
(lp6007
S'V\xc3\xb6lcsej'
p6008
aS'Gy\xc5\x91r-Moson-Sopron'
p6009
asS'2073'
p6010
(lp6011
S'T\xc3\xb6k'
p6012
aS'Pest'
p6013
asS'2071'
p6014
(lp6015
S'P\xc3\xa1ty'
p6016
aS'Pest'
p6017
asS'6301'
p6018
(lp6019
S'Kalocsa'
p6020
aS'B\xc3\xa1cs-Kiskun'
p6021
asS'6300'
p6022
(lp6023
S'Kalocsa'
p6024
aS'B\xc3\xa1cs-Kiskun'
p6025
asS'9085'
p6026
(lp6027
S'P\xc3\xa1zm\xc3\xa1ndfalu'
p6028
aS'Gy\xc5\x91r-Moson-Sopron'
p6029
asS'9084'
p6030
(lp6031
S'Gy\xc5\x91rs\xc3\xa1g'
p6032
aS'Gy\xc5\x91r-Moson-Sopron'
p6033
asS'9081'
p6034
(lp6035
S'Gy\xc5\x91r\xc3\xbajbar\xc3\xa1t'
p6036
aS'Gy\xc5\x91r-Moson-Sopron'
p6037
asS'9317'
p6038
(lp6039
S'Szany'
p6040
aS'Gy\xc5\x91r-Moson-Sopron'
p6041
asS'9315'
p6042
(lp6043
S'Sobor'
p6044
aS'Gy\xc5\x91r-Moson-Sopron'
p6045
asS'9641'
p6046
(lp6047
S'R\xc3\xa1bapaty'
p6048
aS'Vas'
p6049
asS'9312'
p6050
(lp6051
S'Szils\xc3\xa1rk\xc3\xa1ny'
p6052
aS'Gy\xc5\x91r-Moson-Sopron'
p6053
asS'9643'
p6054
(lp6055
S'J\xc3\xa1kfa'
p6056
aS'Vas'
p6057
asS'7273'
p6058
(lp6059
S'B\xc3\xbcss\xc3\xbc'
p6060
aS'Somogy'
p6061
asS'8953'
p6062
(lp6063
S'Szentp\xc3\xa9terf\xc3\xb6lde'
p6064
aS'Zala'
p6065
asS'7274'
p6066
(lp6067
S'Kazsok'
p6068
aS'Somogy'
p6069
asS'7275'
p6070
(lp6071
S'Igal'
p6072
aS'Somogy'
p6073
asS'5082'
p6074
(lp6075
S'Tiszateny\xc5\x91'
p6076
aS'J\xc3\xa1sz-Nagykun-Szolnok'
p6077
asS'5081'
p6078
(lp6079
S'Szajol'
p6080
aS'J\xc3\xa1sz-Nagykun-Szolnok'
p6081
asS'3504'
p6082
(lp6083
S'Miskolc'
p6084
aS'Borsod-Aba\xc3\xbaj-Zempl\xc3\xa9n'
p6085
asS'9792'
p6086
(lp6087
S'Bucsu'
p6088
aS'Vas'
p6089
asS'9791'
p6090
(lp6091
S'Dozmat'
p6092
aS'Vas'
p6093
asS'2675'
p6094
(lp6095
S'Iliny'
p6096
aS'N\xc3\xb3gr\xc3\xa1d'
p6097
asS'9796'
p6098
(lp6099
S'Porn\xc3\xb3ap\xc3\xa1ti'
p6100
aS'Vas'
p6101
asS'9795'
p6102
(lp6103
S'Vaskeresztes'
p6104
aS'Vas'
p6105
asS'9794'
p6106
(lp6107
S'Fels\xc5\x91csat\xc3\xa1r'
p6108
aS'Vas'
p6109
asS'9798'
p6110
(lp6111
S'J\xc3\xa1k'
p6112
aS'Vas'
p6113
asS'2922'
p6114
(lp6115
S'Mocsa'
p6116
aS'Kom\xc3\xa1rom-Esztergom'
p6117
asS'5331'
p6118
(lp6119
S'Kenderes'
p6120
aS'J\xc3\xa1sz-Nagykun-Szolnok'
p6121
asS'3214'
p6122
(lp6123
S'Nagyr\xc3\xa9de'
p6124
aS'Heves'
p6125
asS'3213'
p6126
(lp6127
S'Atk\xc3\xa1r'
p6128
aS'Heves'
p6129
asS'8827'
p6130
(lp6131
S'Zalaszentjakab'
p6132
aS'Zala'
p6133
asS'8824'
p6134
(lp6135
S'Sand'
p6136
aS'Zala'
p6137
asS'8825'
p6138
(lp6139
S'Mih\xc3\xa1ld'
p6140
aS'Zala'
p6141
asS'8772'
p6142
(lp6143
S'Zalaszentbal\xc3\xa1zs'
p6144
aS'Zala'
p6145
asS'8776'
p6146
(lp6147
S'Bocska'
p6148
aS'Zala'
p6149
asS'8777'
p6150
(lp6151
S'Hossz\xc3\xbav\xc3\xb6lgy'
p6152
aS'Zala'
p6153
asS'8774'
p6154
(lp6155
S'Gelsesziget'
p6156
aS'Zala'
p6157
asS'3179'
p6158
(lp6159
S'N\xc3\xb3gr\xc3\xa1dsipek'
p6160
aS'N\xc3\xb3gr\xc3\xa1d'
p6161
asS'3178'
p6162
(lp6163
S'Vars\xc3\xa1ny'
p6164
aS'N\xc3\xb3gr\xc3\xa1d'
p6165
asS'7645'
p6166
(lp6167
S'P\xc3\xa9cs'
p6168
aS'Baranya'
p6169
asS'3170'
p6170
(lp6171
S'Sz\xc3\xa9cs\xc3\xa9ny'
p6172
aS'N\xc3\xb3gr\xc3\xa1d'
p6173
asS'3175'
p6174
(lp6175
S'Nagyl\xc3\xb3c'
p6176
aS'N\xc3\xb3gr\xc3\xa1d'
p6177
asS'3176'
p6178
(lp6179
S'Holl\xc3\xb3k\xc5\x91'
p6180
aS'N\xc3\xb3gr\xc3\xa1d'
p6181
asS'7081'
p6182
(lp6183
S'Simontornya'
p6184
aS'Tolna'
p6185
asS'7083'
p6186
(lp6187
S'Tolnan\xc3\xa9medi'
p6188
aS'Tolna'
p6189
asS'7086'
p6190
(lp6191
S'Ozora'
p6192
aS'Tolna'
p6193
asS'3377'
p6194
(lp6195
S'Szihalom'
p6196
aS'Heves'
p6197
asS'1185'
p6198
(lp6199
S'Budapest'
p6200
aS'Budapest'
p6201
asS'5421'
p6202
(lp6203
S'T\xc3\xbarkeve'
p6204
aS'J\xc3\xa1sz-Nagykun-Szolnok'
p6205
asS'3372'
p6206
(lp6207
S'K\xc3\xb6ml\xc5\x91'
p6208
aS'Heves'
p6209
asS'3371'
p6210
(lp6211
S'\xc3\x81t\xc3\xa1ny'
p6212
aS'Heves'
p6213
asS'1165'
p6214
(lp6215
S'Budapest'
p6216
aS'Budapest'
p6217
asS'1162'
p6218
(lp6219
S'Budapest'
p6220
aS'Budapest'
p6221
asS'4245'
p6222
(lp6223
S'\xc3\x89rpatak'
p6224
aS'Szabolcs-Szatm\xc3\xa1r-Bereg'
p6225
asS'4243'
p6226
(lp6227
S'T\xc3\xa9gl\xc3\xa1s'
p6228
aS'Hajd\xc3\xba-Bihar'
p6229
asS'4241'
p6230
(lp6231
S'Bocskaikert'
p6232
aS'Hajd\xc3\xba-Bihar'
p6233
asS'5526'
p6234
(lp6235
S'Kert\xc3\xa9szsziget'
p6236
aS'B\xc3\xa9k\xc3\xa9s'
p6237
asS'5527'
p6238
(lp6239
S'Bucsa'
p6240
aS'B\xc3\xa9k\xc3\xa9s'
p6241
asS'9500'
p6242
(lp6243
S'Celld\xc3\xb6m\xc3\xb6lk'
p6244
aS'Vas'
p6245
asS'8391'
p6246
(lp6247
S'S\xc3\xa1rmell\xc3\xa9k'
p6248
aS'Zala'
p6249
asS'8392'
p6250
(lp6251
S'Zalav\xc3\xa1r'
p6252
aS'Zala'
p6253
asS'8393'
p6254
(lp6255
S'Szentgy\xc3\xb6rgyv\xc3\xa1r'
p6256
aS'Zala'
p6257
asS'8553'
p6258
(lp6259
S'Lov\xc3\xa1szpatona'
p6260
aS'Veszpr\xc3\xa9m'
p6261
asS'8551'
p6262
(lp6263
S'Nagygyim\xc3\xb3t'
p6264
aS'Veszpr\xc3\xa9m'
p6265
asS'8008'
p6266
(lp6267
S'Sz\xc3\xa9kesfeh\xc3\xa9rv\xc3\xa1r'
p6268
aS'Fej\xc3\xa9r'
p6269
asS'8555'
p6270
(lp6271
S'Bakonytam\xc3\xa1si'
p6272
aS'Veszpr\xc3\xa9m'
p6273
asS'8004'
p6274
(lp6275
S'Sz\xc3\xa9kesfeh\xc3\xa9rv\xc3\xa1r'
p6276
aS'Fej\xc3\xa9r'
p6277
asS'8558'
p6278
(lp6279
S'Cs\xc3\xb3t'
p6280
aS'Veszpr\xc3\xa9m'
p6281
asS'8000'
p6282
(lp6283
S'Sz\xc3\xa9kesfeh\xc3\xa9rv\xc3\xa1r'
p6284
aS'Fej\xc3\xa9r'
p6285
asS'8483'
p6286
(lp6287
S'Soml\xc3\xb3sz\xc5\x91l\xc5\x91s'
p6288
aS'Veszpr\xc3\xa9m'
p6289
asS'7463'
p6290
(lp6291
S'Magyarat\xc3\xa1d'
p6292
aS'Somogy'
p6293
asS'7464'
p6294
(lp6295
S'R\xc3\xa1ksi'
p6296
aS'Somogy'
p6297
as.