(dp1
S'Japla Cement Factory'
p2
(lp3
S'822116'
p4
aS'822116'
p5
asS'Jairaj Plot'
p6
(lp7
S'360001'
p8
aS'360001'
p9
asS'Jarov-Beroun x)'
p10
(lp11
S'266 01'
p12
asS'Jind\xc5\x99ich\xc5\xafv Hradec'
p13
(lp14
S'378 02'
p15
aS'378 33'
p16
aS'378 81'
p17
aS'380 01'
p18
aS'378 56'
p19
aS'378 41'
p20
aS'378 62'
p21
aS'378 01'
p22
aS'378 03'
p23
aS'378 17'
p24
aS'378 53'
p25
aS'379 01'
p26
aS'378 08'
p27
aS'378 24'
p28
aS'380 01'
p29
aS'379 01'
p30
aS'378 31'
p31
aS'378 58'
p32
aS'378 92'
p33
aS'377 01'
p34
aS'378 05'
p35
aS'378 46'
p36
aS'378 55'
p37
aS'378 81'
p38
aS'379 01'
p39
aS'380 01'
p40
aS'377 01'
p41
aS'377 01'
p42
aS'377 01'
p43
aS'377 01'
p44
aS'377 01'
p45
aS'377 01'
p46
aS'378 02'
p47
aS'378 02'
p48
aS'378 04'
p49
aS'378 04'
p50
aS'378 06'
p51
aS'378 06'
p52
aS'378 06'
p53
aS'378 21'
p54
aS'378 21'
p55
aS'378 21'
p56
aS'378 21'
p57
aS'378 21'
p58
aS'378 33'
p59
aS'378 33'
p60
aS'378 33'
p61
aS'378 33'
p62
aS'378 33'
p63
aS'378 33'
p64
aS'378 33'
p65
aS'378 41'
p66
aS'378 42'
p67
aS'378 42'
p68
aS'378 42'
p69
aS'378 42'
p70
aS'378 42'
p71
aS'378 53'
p72
aS'378 53'
p73
aS'378 53'
p74
aS'378 53'
p75
aS'378 53'
p76
aS'378 53'
p77
aS'378 53'
p78
aS'378 53'
p79
aS'378 53'
p80
aS'378 53'
p81
aS'378 81'
p82
aS'378 81'
p83
aS'378 81'
p84
aS'378 81'
p85
aS'378 81'
p86
aS'378 81'
p87
aS'378 81'
p88
aS'378 81'
p89
aS'378 81'
p90
aS'378 81'
p91
aS'378 81'
p92
aS'378 81'
p93
aS'378 81'
p94
aS'378 81'
p95
aS'379 01'
p96
aS'379 01'
p97
aS'379 01'
p98
aS'380 01'
p99
aS'380 01'
p100
aS'380 01'
p101
aS'380 01'
p102
aS'380 01'
p103
aS'380 01'
p104
aS'380 01'
p105
aS'380 01'
p106
aS'380 01'
p107
aS'380 01'
p108
aS'377 01'
p109
aS'378 01'
p110
aS'379 01'
p111
aS'380 01'
p112
asS'Jalalabad Fategarh'
p113
(lp114
S'209733'
p115
aS'209733'
p116
asS'Jablonn\xc3\xa9 nad Orlic\xc3\xad'
p117
(lp118
S'561 64'
p119
asS'Ji\xc4\x8d\xc3\xadn-Pra\xc5\xbesk\xc3\xa9 P\xc5\x99edm\xc4\x9bst\xc3\xad x)'
p120
(lp121
S'506 01'
p122
asS'Jest\xc5\x99ab\xc3\xad Lhota'
p123
(lp124
S'280 02'
p125
asS'Ji\xc4\x8d\xc3\xadn-Hol\xc3\xadnsk\xc3\xa9 P\xc5\x99edm\xc4\x9bst\xc3\xad x)'
p126
(lp127
S'506 01'
p128
asS'Jeze\xc5\x99any-Mar\xc5\xa1ovice'
p129
(lp130
S'671 75'
p131
asS'Jilem'
p132
(lp133
g74
asS'Jonesville'
p134
(lp135
S'49250'
p136
aS'49250'
p137
asS'Jaipur 10 D M Ts Office'
p138
(lp139
S'302010'
p140
aS'302010'
p141
asS'Jessheim'
p142
(lp143
S'2050'
p144
aS'2051'
p145
asS'Joranandir'
p146
(lp147
S'700010'
p148
asS'Janheli'
p149
(lp150
S'175047'
p151
aS'175047'
p152
asS'Jakubovice'
p153
(lp154
S'582 82'
p155
asS'Jussy'
p156
(lp157
S'1254'
p158
aS'1254'
p159
asS'Jedlov\xc3\xa1'
p160
(lp161
S'408 01'
p162
aS'569 91'
p163
aS'408 01'
p164
asS'Javory'
p165
(lp166
S'405 02'
p167
asS'Janov\xc3\xa1'
p168
(lp169
S'755 01'
p170
aS'755 01'
p171
asS'J\xc3\xa4rvs\xc3\xb6'
p172
(lp173
S'82040'
p174
aS'82040'
p175
asS'Je\xc5\x99e\xc5\x88'
p176
(lp177
S'364 53'
p178
asS'Jaitpur (Hamirpur)'
p179
(lp180
S'210423'
p181
aS'210423'
p182
asS'Jeffersonville'
p183
(lp184
S'43128'
p185
aS'47130'
p186
aS'47130'
p187
aS'43128'
p188
asS'Jen\xc3\xadn'
p189
(lp190
S'382 72'
p191
asS'Jagraon City'
p192
(lp193
S'142026'
p194
aS'142026'
p195
aS'142026'
p196
asS'Jamnagar Udyog'
p197
(lp198
S'361009'
p199
aS'361009'
p200
asS'Jama I Osmania Hyderabad'
p201
(lp202
S'500007'
p203
asS'Jaroslav'
p204
(lp205
S'534 01'
p206
aS'516 01'
p207
asS'Jagara'
p208
(lp209
S'781310'
p210
aS'781310'
p211
asS'Jordet'
p212
(lp213
S'2430'
p214
aS'2430'
p215
asS'Jesenice'
p216
(lp217
S'270 33'
p218
aS'271 01'
p219
aS'270 51'
p220
aS'270 31'
p221
aS'270 35'
p222
aS'270 53'
p223
aS'270 02'
p224
aS'270 23'
p225
aS'270 62'
p226
aS'270 01'
p227
aS'270 06'
p228
aS'270 21'
p229
aS'270 07'
p230
aS'271 01'
p231
aS'270 65'
p232
aS'270 23'
p233
aS'270 35'
p234
aS'270 36'
p235
aS'270 23'
p236
aS'270 23'
p237
aS'270 24'
p238
aS'270 41'
p239
aS'270 55'
p240
aS'270 04'
p241
aS'270 04'
p242
aS'270 04'
p243
aS'270 04'
p244
aS'270 07'
p245
aS'270 21'
p246
aS'270 21'
p247
aS'270 23'
p248
aS'270 23'
p249
aS'270 33'
p250
aS'270 33'
p251
aS'270 33'
p252
aS'270 33'
p253
aS'270 34'
p254
aS'270 34'
p255
aS'270 34'
p256
aS'270 34'
p257
aS'270 34'
p258
aS'270 35'
p259
aS'270 35'
p260
aS'270 35'
p261
aS'270 41'
p262
aS'270 41'
p263
aS'270 41'
p264
aS'270 41'
p265
aS'270 54'
p266
aS'270 54'
p267
aS'270 54'
p268
aS'270 64'
p269
aS'271 01'
p270
aS'270 06'
p271
aS'270 21'
p272
aS'270 33'
p273
aS'270 54'
p274
aS'269 01'
p275
aS'269 01'
p276
aS'269 02'
p277
aS'270 04'
p278
aS'270 04'
p279
aS'270 31'
p280
aS'270 41'
p281
aS'270 41'
p282
aS'270 54'
p283
aS'269 01'
p284
aS'270 01'
p285
aS'271 01'
p286
asS'Jundrov'
p287
(lp288
S'637 00'
p289
asS'J\xc3\xb8rpeland'
p290
(lp291
S'4126'
p292
asS'Jarom\xc4\x9b\xc5\x99'
p293
(lp294
S'551 01'
p295
asS'Janovka'
p296
(lp297
S'407 78'
p298
asS'Jackov'
p299
(lp300
S'675 41'
p301
asS'Jablo\xc5\x88ov'
p302
(lp303
S'593 01'
p304
asS'Jaffarkhanpet'
p305
(lp306
S'600095'
p307
aS'600095'
p308
asS'J\xc3\xa1k'
p309
(lp310
S'9798'
p311
aS'9798'
p312
asS'Jadavpur University'
p313
(lp314
S'700032'
p315
asS'J\xc3\xa1sd'
p316
(lp317
S'8424'
p318
aS'8424'
p319
asS'Jaren'
p320
(lp321
S'2714'
p322
aS'2714'
p323
asS'J\xc3\xa4msh\xc3\xb6g'
p324
(lp325
S'29302'
p326
aS'29373'
p327
aS'29302'
p328
aS'29373'
p329
asS'Jakta\xc5\x99'
p330
(lp331
S'747 07'
p332
asS'Jaro\xc5\xa1ov'
p333
(lp334
S'583 01'
p335
asS'Jean-Talon West'
p336
(lp337
S'G2N'
p338
aS'G2N'
p339
asS'Jassia'
p340
(lp341
S'124314'
p342
aS'124314'
p343
asS'Jelmo'
p344
(lp345
S'373 71'
p346
asS'Justice'
p347
(lp348
S'24851'
p349
aS'24851'
p350
asS'Jasenn\xc3\xa1'
p351
(lp352
S'552 22'
p353
asS'Jaipur 4 Adarshnagar'
p354
(lp355
S'302004'
p356
aS'302004'
p357
asS'Jayanagar Extn (Mys)'
p358
(lp359
S'570014'
p360
aS'570014'
p361
asS'Jabkenice'
p362
(lp363
S'294 45'
p364
asS'Javorn\xc3\xa9'
p365
(lp366
S'538 25'
p367
asS'Jandutha'
p368
(lp369
S'174031'
p370
aS'174031'
p371
asS'Joshi Nagar'
p372
(lp373
S'110005'
p374
asS'Javorn\xc3\xa1'
p375
(lp376
S'339 01'
p377
asS'Junction City'
p378
(lp379
S'66441'
p380
aS'66441'
p381
asS'Jenig'
p382
(lp383
S'9631'
p384
asS'Jaroslavice'
p385
(lp386
S'373 41'
p387
aS'760 01'
p388
aS'671 28'
p389
aS'760 01'
p390
asS'Jivjany'
p391
(lp392
S'346 01'
p393
asS'J\xc3\xadkev'
p394
(lp395
S'289 32'
p396
asS'Jonsered'
p397
(lp398
S'43304'
p399
aS'43304'
p400
asS'J\xc3\xa1szber\xc3\xa9ny'
p401
(lp402
S'5101'
p403
asS'J B Nagar'
p404
(lp405
S'400059'
p406
aS'400059'
p407
asS'Jirkov'
p408
(lp409
S'431 11'
p410
aS'431 51'
p411
aS'431 57'
p412
aS'431 86'
p413
aS'431 01'
p414
aS'431 45'
p415
aS'431 02'
p416
aS'431 43'
p417
aS'431 55'
p418
aS'431 59'
p419
aS'431 83'
p420
aS'431 15'
p421
aS'431 21'
p422
aS'431 53'
p423
aS'430 01'
p424
aS'430 01'
p425
aS'430 01'
p426
aS'430 01'
p427
aS'430 01'
p428
aS'430 01'
p429
aS'430 01'
p430
aS'430 01'
p431
aS'430 01'
p432
aS'430 01'
p433
aS'430 01'
p434
aS'430 01'
p435
aS'430 04'
p436
aS'431 02'
p437
aS'431 11'
p438
aS'431 11'
p439
aS'431 11'
p440
aS'431 21'
p441
aS'431 32'
p442
aS'431 51'
p443
aS'431 51'
p444
aS'431 51'
p445
aS'431 51'
p446
aS'431 51'
p447
aS'431 51'
p448
aS'431 51'
p449
aS'431 56'
p450
aS'431 63'
p451
aS'431 84'
p452
aS'431 84'
p453
aS'431 84'
p454
aS'431 91'
p455
aS'432 01'
p456
aS'432 01'
p457
aS'432 01'
p458
aS'432 01'
p459
aS'432 01'
p460
aS'432 01'
p461
aS'438 01'
p462
aS'438 01'
p463
aS'438 01'
p464
aS'438 01'
p465
aS'438 01'
p466
aS'438 01'
p467
aS'438 01'
p468
aS'438 01'
p469
aS'438 01'
p470
aS'441 01'
p471
aS'441 01'
p472
aS'441 01'
p473
aS'430 01'
p474
aS'431 51'
p475
aS'430 01'
p476
aS'431 11'
p477
aS'431 11'
p478
aS'431 51'
p479
aS'431 51'
p480
aS'432 01'
p481
aS'438 01'
p482
aS'468 22'
p483
aS'430 01'
p484
aS'431 01'
p485
aS'432 01'
p486
asS'J\xc3\xadlovi\xc5\xa1t\xc4\x9b'
p487
(lp488
S'252 02'
p489
aS'252 02'
p490
asS'Jalongo'
p491
(lp492
S'4870-077'
p493
aS'4870-077'
p494
asS'Jesenec'
p495
(lp496
S'798 53'
p497
asS'Jena'
p498
(lp499
S'07743'
p500
aS'99084'
p501
aS'04600'
p502
aS'07545'
p503
aS'07549'
p504
aS'07747'
p505
ag505
aS'07973'
p506
aS'96515'
p507
aS'98574'
p508
aS'98693'
p509
aS'99086'
p510
aS'99091'
p511
aS'99094'
p512
aS'99099'
p513
aS'99425'
p514
aS'99510'
p515
aS'99734'
p516
aS'99867'
p517
aS'99974'
p518
aS'07546'
p519
aS'07607'
p520
aS'98544'
p521
aS'99097'
p522
aS'04610'
p523
aS'06577'
p524
aS'07422'
p525
aS'07570'
p526
aS'07586'
p527
aS'07646'
p528
aS'07806'
p529
aS'07907'
p530
aS'37327'
p531
aS'37351'
p532
aS'98559'
p533
aS'98597'
p534
aS'98716'
p535
aS'99087'
p536
aS'99444'
p537
aS'99848'
p538
aS'99885'
p539
aS'99894'
p540
aS'04639'
p541
aS'07334'
p542
aS'07368'
p543
aS'07426'
p544
aS'07922'
p545
aS'36419'
p546
aS'36456'
p547
aS'98631'
p548
aS'99334'
p549
aS'99826'
p550
aS'99887'
p551
aS'04603'
p552
aS'04603'
p553
aS'04617'
p554
aS'06567'
p555
aS'06578'
p556
aS'07318'
p557
aS'07333'
p558
aS'07336'
p559
aS'07338'
p560
aS'07343'
p561
aS'07381'
p562
aS'07389'
p563
aS'07426'
p564
aS'07426'
p565
aS'07554'
p566
aS'07570'
p567
aS'07586'
p568
aS'07616'
p569
aS'07619'
p570
aS'07646'
p571
aS'07768'
p572
aS'07768'
p573
aS'07778'
p574
aS'07778'
p575
aS'07924'
p576
aS'07927'
p577
aS'07950'
p578
aS'07958'
p579
aS'07987'
p580
aS'36448'
p581
aS'36457'
p582
aS'36466'
p583
aS'37318'
p584
aS'37339'
p585
aS'37339'
p586
aS'37345'
p587
aS'37359'
p588
aS'96524'
p589
aS'96528'
p590
aS'98530'
p591
aS'98547'
p592
aS'98553'
p593
aS'98559'
p594
aS'98590'
p595
aS'98593'
p596
aS'98597'
p597
aS'98617'
p598
aS'98631'
p599
aS'04600'
p600
aS'04603'
p601
aS'04610'
p602
aS'04617'
p603
aS'04639'
p604
aS'06567'
p605
aS'06577'
p606
aS'06578'
p607
aS'07318'
p608
aS'07333'
p609
aS'07334'
p610
aS'07336'
p611
aS'07338'
p612
aS'07343'
p613
aS'07368'
p614
aS'07381'
p615
aS'07389'
p616
aS'07422'
p617
aS'07426'
p618
aS'07545'
p619
aS'07546'
p620
aS'07549'
p621
aS'07554'
p622
aS'07586'
p623
aS'07607'
p624
aS'07616'
p625
aS'07619'
p626
aS'07646'
p627
aS'07743'
p628
ag628
aS'07747'
p629
ag629
aS'07768'
p630
aS'07778'
p631
aS'07806'
p632
aS'07907'
p633
aS'07922'
p634
aS'07924'
p635
aS'07927'
p636
aS'07950'
p637
aS'07958'
p638
aS'07973'
p639
aS'07987'
p640
aS'36419'
p641
aS'36448'
p642
aS'36456'
p643
aS'36457'
p644
aS'36466'
p645
aS'37318'
p646
aS'37327'
p647
aS'37339'
p648
aS'37345'
p649
aS'37351'
p650
aS'37359'
p651
aS'96515'
p652
aS'96524'
p653
aS'96528'
p654
aS'98530'
p655
aS'98544'
p656
aS'98547'
p657
aS'98553'
p658
aS'98559'
p659
aS'98574'
p660
aS'98590'
p661
aS'98593'
p662
aS'98597'
p663
aS'98617'
p664
aS'98631'
p665
aS'98693'
p666
aS'98716'
p667
aS'99084'
p668
aS'99086'
p669
aS'99087'
p670
aS'99091'
p671
aS'99094'
p672
aS'99097'
p673
aS'99099'
p674
aS'99334'
p675
aS'99425'
p676
aS'99444'
p677
aS'99734'
p678
aS'99826'
p679
aS'99848'
p680
aS'99867'
p681
aS'99885'
p682
aS'99887'
p683
aS'99894'
p684
aS'99974'
p685
asS'J\xc3\xa1nkmajtis'
p686
(lp687
S'4741'
p688
asS'Jagannathballv'
p689
(lp690
S'752001'
p691
aS'752001'
p692
asS'Jangampalli'
p693
(lp694
S'503102'
p695
aS'503102'
p696
asS'Jonqui\xc3\xa8re Southwest'
p697
(lp698
S'G7Y'
p699
aS'G7Y'
p700
asS'Jhajjar'
p701
(lp702
S'124104'
p703
aS'124104'
p704
asS'Jamipura'
p705
(lp706
S'180007'
p707
aS'180007'
p708
asS'Jesen\xc3\xadk nad Odrou'
p709
(lp710
S'742 33'
p711
asS'Ji\xc4\x8d\xc3\xadn\xc4\x9bves'
p712
(lp713
S'507 31'
p714
asS'Joliet'
p715
(lp716
S'59041'
p717
aS'60431'
p718
aS'59041'
p719
asS'J\xc3\xa1k\xc3\xb3'
p720
(lp721
S'7525'
p722
asS'Je\xc4\x8dovice'
p723
(lp724
S'411 20'
p725
asS'Jalahalli West'
p726
(lp727
S'560015'
p728
aS'560015'
p729
asS'Jam Devalia'
p730
(lp731
S'361321'
p732
aS'361321'
p733
asS'Jongny'
p734
(lp735
S'1805'
p736
aS'1805'
p737
asS'Jerez De Los Caballeros'
p738
(lp739
S'06380'
p740
aS'06380'
p741
asS'J\xc3\xa1szszentandr\xc3\xa1s'
p742
(lp743
S'5136'
p744
aS'5136'
p745
asS'Jayamahal Extn'
p746
(lp747
S'560046'
p748
aS'560046'
p749
asS'Janesville'
p750
(lp751
S'53546'
p752
aS'53546'
p753
asS'Jagadevpur'
p754
(lp755
S'502281'
p756
aS'502281'
p757
asS'Jalali Aligarh'
p758
(lp759
S'202128'
p760
aS'202128'
p761
asS'Jar'
p762
(lp763
S'1358'
p764
aS'1358'
p765
asS'Jemn\xc3\xadky'
p766
(lp767
S'274 01'
p768
asS'J\xc3\xa4mj\xc3\xb6'
p769
(lp770
S'37300'
p771
aS'37300'
p772
asS'Jarohn\xc4\x9bvice'
p773
(lp774
S'768 01'
p775
aS'768 01'
p776
asS'Jubera'
p777
(lp778
S'26131'
p779
aS'26131'
p780
asS'Jersey'
p781
(lp782
S'71651'
p783
aS'71651'
p784
asS'Jonesboro'
p785
(lp786
S'72401'
p787
aS'72401'
p788
aS'30237'
p789
asS'Jura'
p790
(lp791
S'2350'
p792
aS'2800'
p793
aS'2802'
p794
aS'2803'
p795
aS'2807'
p796
aS'2812'
p797
aS'2823'
p798
aS'2824'
p799
aS'2826'
p800
aS'2828'
p801
aS'2853'
p802
aS'2854'
p803
aS'2856'
p804
aS'2857'
p805
aS'2873'
p806
aS'2875'
p807
aS'2882'
p808
aS'2884'
p809
aS'2885'
p810
aS'2887'
p811
aS'2902'
p812
aS'2912'
p813
aS'2916'
p814
aS'2922'
p815
aS'2924'
p816
aS'2933'
p817
aS'2935'
p818
aS'2942'
p819
aS'2950'
p820
aS'2800'
p821
aS'2350'
p822
ag822
aS'2854'
p823
aS'2345'
p824
aS'2802'
p825
aS'2824'
p826
aS'2853'
p827
aS'2882'
p828
aS'2942'
p829
aS'2950'
p830
aS'2856'
p831
aS'2916'
p832
aS'2353'
p833
aS'2714'
p834
aS'2805'
p835
aS'2812'
p836
aS'2823'
p837
aS'2826'
p838
aS'2828'
p839
aS'2832'
p840
aS'2857'
p841
aS'2873'
p842
aS'2887'
p843
aS'2900'
p844
aS'2902'
p845
aS'2905'
p846
aS'2914'
p847
aS'2922'
p848
aS'2924'
p849
aS'2932'
p850
aS'2946'
p851
aS'2952'
p852
aS'2345'
p853
aS'2803'
p854
aS'2807'
p855
aS'2864'
p856
aS'2885'
p857
aS'2912'
p858
aS'2933'
p859
aS'2345'
p860
aS'2830'
p861
aS'2875'
p862
aS'2884'
p863
aS'2888'
p864
aS'2935'
p865
aS'2953'
p866
aS'2714'
p867
aS'2857'
p868
aS'2953'
p869
aS'2950'
p870
aS'2900'
p871
aS'2900'
p872
aS'2800'
p873
asS'Jamadoba'
p874
(lp875
S'828112'
p876
aS'828112'
p877
asS'Jaurrieta'
p878
(lp879
S'31691'
p880
aS'31691'
p881
asS'Jharipani'
p882
(lp883
S'248152'
p884
aS'248152'
p885
asS'Jedov'
p886
(lp887
S'675 71'
p888
asS'Jarrettsville'
p889
(lp890
S'21084'
p891
aS'21084'
p892
asS'Jedlka'
p893
(lp894
S'407 22'
p895
asS'Jama'
p896
(lp897
S'814162'
p898
aS'814162'
p899
asS'J\xc3\xb6rn'
p900
(lp901
S'93055'
p902
aS'93055'
p903
asS'Jeznice'
p904
(lp905
S'373 43'
p906
asS'Jiribam'
p907
(lp908
S'795116'
p909
aS'795116'
p910
asS'Jahanabad'
p911
(lp912
S'804408'
p913
aS'804408'
p914
asS'Jezernice'
p915
(lp916
S'751 31'
p917
asS'J\xc3\xa1szap\xc3\xa1ti'
p918
(lp919
S'5130'
p920
aS'5131'
p921
aS'5130'
p922
aS'5131'
p923
asS'Janovick\xc3\xa1 Lhota'
p924
(lp925
S'285 04'
p926
asS'Jable\xc4\x8dno'
p927
(lp928
S'338 08'
p929
asS'Jakobsli'
p930
(lp931
S'7059'
p932
aS'7059'
p933
asS'Jezdovice'
p934
(lp935
S'589 01'
p936
asS'Jefferson'
p937
(lp938
S'04348'
p939
aS'50129'
p940
aS'50129'
p941
aS'04348'
p942
asS'Jyotipuram'
p943
(lp944
S'182312'
p945
aS'182312'
p946
asS'Jamestown'
p947
(lp948
S'02835'
p949
aS'27282'
p950
aS'58402'
p951
aS'87347'
p952
aS'27282'
p953
aS'58402'
p954
aS'87347'
p955
aS'02835'
p956
asS'Jeni\xc5\xa1ovice'
p957
(lp958
S'468 33'
p959
asS'J\xc3\xa1chymov'
p960
(lp961
S'362 51'
p962
aS'471 29'
p963
asS'Jaulijibi'
p964
(lp965
S'262544'
p966
aS'262544'
p967
asS'Jharkhand'
p968
(lp969
S'814101'
p970
aS'814103'
p971
aS'814112'
p972
aS'814112'
p973
aS'814114'
p974
aS'814117'
p975
aS'814119'
p976
aS'814141'
p977
aS'814143'
p978
aS'814145'
p979
aS'814148'
p980
aS'814150'
p981
aS'814152'
p982
ag898
aS'814166'
p983
aS'815354'
p984
aS'815356'
p985
aS'815359'
p986
aS'816102'
p987
aS'816104'
p988
aS'816106'
p989
aS'816108'
p990
aS'816115'
p991
aS'816117'
p992
aS'816120'
p993
aS'816122'
p994
aS'816124'
p995
aS'816129'
p996
aS'822102'
p997
aS'822111'
p998
aS'822113'
p999
aS'822115'
p1000
ag4
aS'822119'
p1001
aS'822121'
p1002
aS'822123'
p1003
aS'822125'
p1004
aS'822127'
p1005
aS'822128'
p1006
aS'822131'
p1007
aS'822138'
p1008
aS'824119'
p1009
aS'825102'
p1010
aS'825223'
p1011
aS'825313'
p1012
aS'825315'
p1013
aS'825317'
p1014
aS'825321'
p1015
aS'825325'
p1016
aS'825330'
p1017
aS'825336'
p1018
aS'825402'
p1019
aS'825404'
p1020
aS'825406'
p1021
aS'825408'
p1022
aS'825410'
p1023
aS'825413'
p1024
aS'825420'
p1025
aS'826001'
p1026
aS'826004'
p1027
aS'827003'
p1028
aS'827009'
p1029
aS'827011'
p1030
aS'827014'
p1031
aS'828101'
p1032
aS'828102'
p1033
aS'828104'
p1034
aS'828106'
p1035
aS'828108'
p1036
aS'828110'
p1037
ag876
aS'828114'
p1038
aS'828116'
p1039
aS'828119'
p1040
aS'828121'
p1041
aS'828123'
p1042
aS'828126'
p1043
aS'828128'
p1044
aS'828131'
p1045
aS'828134'
p1046
aS'828142'
p1047
aS'828202'
p1048
aS'828204'
p1049
aS'828206'
p1050
aS'828301'
p1051
aS'828303'
p1052
aS'828305'
p1053
aS'828307'
p1054
aS'828311'
p1055
aS'828504'
p1056
aS'829102'
p1057
aS'829105'
p1058
aS'829108'
p1059
aS'829110'
p1060
aS'829118'
p1061
aS'829120'
p1062
aS'829124'
p1063
aS'829126'
p1064
aS'829131'
p1065
aS'829135'
p1066
aS'814101'
p1067
ag1067
aS'814103'
p1068
aS'814112'
p1069
aS'814114'
p1070
aS'814117'
p1071
aS'814119'
p1072
aS'814141'
p1073
aS'814143'
p1074
aS'814145'
p1075
aS'814148'
p1076
aS'814150'
p1077
aS'814152'
p1078
ag899
aS'814166'
p1079
aS'815354'
p1080
aS'815356'
p1081
aS'815359'
p1082
aS'816102'
p1083
aS'816104'
p1084
aS'816106'
p1085
aS'816108'
p1086
aS'816115'
p1087
aS'816117'
p1088
aS'816120'
p1089
aS'816122'
p1090
aS'816124'
p1091
aS'816129'
p1092
aS'822102'
p1093
aS'822111'
p1094
aS'822113'
p1095
aS'822115'
p1096
ag5
aS'822119'
p1097
aS'822121'
p1098
aS'822123'
p1099
aS'822125'
p1100
aS'822127'
p1101
aS'822128'
p1102
aS'822131'
p1103
aS'822138'
p1104
aS'824119'
p1105
aS'825102'
p1106
aS'825223'
p1107
aS'825313'
p1108
aS'825315'
p1109
aS'825317'
p1110
aS'825321'
p1111
aS'825325'
p1112
aS'825330'
p1113
aS'825336'
p1114
aS'825402'
p1115
aS'825404'
p1116
aS'825406'
p1117
aS'825408'
p1118
aS'825410'
p1119
aS'825413'
p1120
aS'825420'
p1121
aS'826001'
p1122
aS'826004'
p1123
aS'827003'
p1124
aS'827009'
p1125
aS'827011'
p1126
aS'827014'
p1127
aS'828101'
p1128
aS'828102'
p1129
aS'828104'
p1130
aS'828106'
p1131
aS'828108'
p1132
aS'828110'
p1133
ag877
aS'828114'
p1134
aS'828116'
p1135
aS'828119'
p1136
aS'828121'
p1137
aS'828123'
p1138
aS'828126'
p1139
aS'828128'
p1140
aS'828131'
p1141
aS'828134'
p1142
aS'828142'
p1143
aS'828202'
p1144
aS'828204'
p1145
aS'828206'
p1146
aS'828301'
p1147
aS'828303'
p1148
aS'828305'
p1149
aS'828307'
p1150
aS'828311'
p1151
aS'828504'
p1152
aS'829102'
p1153
aS'829105'
p1154
aS'829108'
p1155
aS'829110'
p1156
aS'829118'
p1157
aS'829120'
p1158
aS'829124'
p1159
aS'829126'
p1160
aS'829131'
p1161
aS'829135'
p1162
asS'Jaipur 8 G M Ts Office'
p1163
(lp1164
S'302008'
p1165
aS'302008'
p1166
asS'Jarom\xc4\x9b\xc5\x99ice'
p1167
(lp1168
S'569 44'
p1169
asS'Joelton'
p1170
(lp1171
S'37080'
p1172
aS'37080'
p1173
asS'J\xc3\xa1sz-Nagykun-Szolnok'
p1174
(lp1175
S'5000'
p1176
aS'5300'
p1177
aS'5001'
p1178
ag1178
aS'5200'
p1179
aS'5400'
p1180
ag920
aS'5420'
p1181
aS'5005'
p1182
ag1182
aS'5081'
p1183
aS'5126'
p1184
aS'5231'
p1185
aS'5340'
p1186
aS'5411'
p1187
aS'5435'
p1188
aS'5071'
p1189
aS'5091'
p1190
aS'5234'
p1191
aS'5331'
p1192
aS'5421'
p1193
aS'5006'
p1194
ag1194
aS'5051'
p1195
aS'5054'
p1196
aS'5065'
p1197
ag403
aS'5121'
p1198
ag744
aS'5143'
p1199
aS'5301'
p1200
aS'5363'
p1201
aS'5462'
p1202
aS'5061'
p1203
aS'5082'
p1204
aS'5094'
p1205
aS'5124'
p1206
aS'5201'
p1207
aS'5233'
p1208
aS'5243'
p1209
aS'5322'
p1210
aS'5361'
p1211
aS'5463'
p1212
aS'5473'
p1213
aS'5475'
p1214
aS'5064'
p1215
aS'5093'
p1216
aS'5359'
p1217
aS'5453'
p1218
aS'5063'
p1219
aS'5431'
p1220
ag921
aS'5449'
p1221
aS'5302'
p1222
aS'5095'
p1223
aS'5213'
p1224
aS'5403'
p1225
aS'5432'
p1226
aS'5152'
p1227
aS'5006'
p1228
ag1228
aS'5051'
p1229
aS'5054'
p1230
aS'5063'
p1231
aS'5064'
p1232
aS'5065'
p1233
aS'5071'
p1234
aS'5091'
p1235
aS'5121'
p1236
aS'5124'
p1237
aS'5126'
p1238
ag922
ag923
ag745
aS'5143'
p1239
aS'5200'
p1240
aS'5213'
p1241
aS'5231'
p1242
aS'5234'
p1243
aS'5300'
p1244
aS'5301'
p1245
aS'5302'
p1246
aS'5331'
p1247
aS'5340'
p1248
aS'5359'
p1249
aS'5361'
p1250
aS'5363'
p1251
aS'5403'
p1252
aS'5411'
p1253
aS'5420'
p1254
aS'5431'
p1255
aS'5435'
p1256
aS'5449'
p1257
aS'5453'
p1258
aS'5462'
p1259
aS'5463'
p1260
aS'5473'
p1261
aS'5475'
p1262
asS'J\xc3\xa4mtland'
p1263
(lp1264
S'83001'
p1265
aS'83005'
p1266
aS'83010'
p1267
aS'83019'
p1268
aS'83021'
p1269
aS'83023'
p1270
aS'83024'
p1271
aS'83051'
p1272
aS'83067'
p1273
aS'83076'
p1274
aS'83080'
p1275
aS'83093'
p1276
aS'83201'
p1277
aS'83221'
p1278
aS'83242'
p1279
aS'83243'
p1280
aS'83245'
p1281
aS'83253'
p1282
aS'83254'
p1283
aS'83255'
p1284
aS'83294'
p1285
aS'83323'
p1286
aS'83331'
p1287
aS'83380'
p1288
aS'83392'
p1289
aS'83396'
p1290
aS'83401'
p1291
aS'83433'
p1292
aS'83497'
p1293
aS'83498'
p1294
aS'83521'
p1295
aS'83541'
p1296
aS'83591'
p1297
aS'83592'
p1298
aS'84030'
p1299
aS'84058'
p1300
aS'84064'
p1301
aS'84067'
p1302
aS'84070'
p1303
aS'84080'
p1304
aS'84093'
p1305
aS'84097'
p1306
aS'84221'
p1307
aS'84222'
p1308
aS'84232'
p1309
aS'84233'
p1310
aS'84294'
p1311
aS'84299'
p1312
aS'88050'
p1313
aS'88051'
p1314
aS'83005'
p1315
aS'83010'
p1316
aS'83024'
p1317
aS'83335'
p1318
aS'84040'
p1319
aS'84093'
p1320
aS'84232'
p1321
aS'83076'
p1322
aS'84013'
p1323
aS'84070'
p1324
aS'83001'
p1325
ag1325
aS'83021'
p1326
aS'83023'
p1327
aS'83051'
p1328
aS'83080'
p1329
aS'83242'
p1330
aS'83253'
p1331
aS'83294'
p1332
aS'83324'
p1333
aS'83498'
p1334
aS'83592'
p1335
aS'84030'
p1336
aS'84064'
p1337
aS'84080'
p1338
aS'84090'
p1339
aS'84233'
p1340
aS'88050'
p1341
aS'83243'
p1342
aS'83254'
p1343
aS'83497'
p1344
aS'83591'
p1345
aS'83019'
p1346
aS'83245'
p1347
aS'83255'
p1348
aS'83322'
p1349
aS'83392'
p1350
aS'83433'
p1351
aS'83521'
p1352
aS'83541'
p1353
aS'84058'
p1354
aS'84097'
p1355
aS'84221'
p1356
aS'88051'
p1357
aS'83067'
p1358
aS'83221'
p1359
aS'83331'
p1360
aS'83395'
p1361
aS'84222'
p1362
aS'84294'
p1363
aS'83396'
p1364
aS'83323'
p1365
aS'83533'
p1366
aS'84067'
p1367
aS'83093'
p1368
aS'84201'
p1369
aS'83380'
p1370
aS'83401'
p1371
aS'84299'
p1372
aS'84034'
p1373
aS'83201'
p1374
asS'Jest\xc5\x99ab\xc3\xad'
p1375
(lp1376
S'742 45'
p1377
asS'Joslin'
p1378
(lp1379
S'5070'
p1380
asS'Jind\xc5\x99ichovice'
p1381
(lp1382
S'388 01'
p1383
aS'358 01'
p1384
asS'Jodhan'
p1385
(lp1386
S'142029'
p1387
aS'142029'
p1388
aS'142029'
p1389
asS'Jumilla'
p1390
(lp1391
S'30520'
p1392
aS'30520'
p1393
asS'Judith Gap'
p1394
(lp1395
S'59453'
p1396
aS'59453'
p1397
asS'J\xc3\xa4rf\xc3\xa4lla'
p1398
(lp1399
S'17741'
p1400
aS'17741'
p1401
asS'Jest\xc5\x99eb\xc3\xad'
p1402
(lp1403
S'471 61'
p1404
aS'588 32'
p1405
asS'Jobb\xc3\xa1gyi'
p1406
(lp1407
S'3063'
p1408
aS'3063'
p1409
asS'Jehnice'
p1410
(lp1411
S'621 00'
p1412
asS'Juria'
p1413
(lp1414
S'782124'
p1415
aS'782124'
p1416
asS'Johanka'
p1417
(lp1418
S'394 70'
p1419
asS'Jamni'
p1420
(lp1421
S'175049'
p1422
aS'175049'
p1423
asS'Ji\xc4\x8d\xc3\xadn-Sedli\xc4\x8dky x)'
p1424
(lp1425
S'507 11'
p1426
asS'Jaipur 17 Bajaj Nagar'
p1427
(lp1428
S'302017'
p1429
aS'302017'
p1430
asS'Jabel'
p1431
(lp1432
S'17194'
p1433
aS'17194'
p1434
asS'Jind\xc5\x99ichov'
p1435
(lp1436
S'351 34'
p1437
aS'466 02'
p1438
aS'793 83'
p1439
aS'753 01'
p1440
aS'788 23'
p1441
asS'Jenaz'
p1442
(lp1443
S'7233'
p1444
aS'7233'
p1445
asS'Jaisinghpura Khor'
p1446
(lp1447
S'303118'
p1448
aS'303118'
p1449
asS'Jevin\xc4\x9bves'
p1450
(lp1451
S'277 05'
p1452
asS'Jen\xc5\x91'
p1453
(lp1454
S'8146'
p1455
aS'8146'
p1456
asS'Jubbal'
p1457
(lp1458
S'171205'
p1459
aS'171205'
p1460
asS'Janov'
p1461
(lp1462
g271
aS'518 01'
p1463
aS'569 55'
p1464
aS'793 84'
p1465
asS'Jalpura'
p1466
(lp1467
S'802173'
p1468
aS'802173'
p1469
asS'Jemez Pueblo'
p1470
(lp1471
S'87024'
p1472
aS'87024'
p1473
asS'Jubbar'
p1474
(lp1475
S'173225'
p1476
aS'173225'
p1477
asS'Juliovka'
p1478
(lp1479
S'471 57'
p1480
asS'Jamolice'
p1481
(lp1482
S'672 01'
p1483
asS'Jam Gadhka'
p1484
(lp1485
S'361295'
p1486
aS'361295'
p1487
asS'Ji\xc5\x99ice'
p1488
(lp1489
S'285 22'
p1490
aS'277 13'
p1491
asS'Jelemek'
p1492
(lp1493
S'383 01'
p1494
asS'Jagatsinghpur H O'
p1495
(lp1496
S'754103'
p1497
asS'Jest\xc5\x99ebice'
p1498
(lp1499
S'257 89'
p1500
aS'277 23'
p1501
asS'Jet\xc5\x99ichovice'
p1502
(lp1503
S'407 16'
p1504
asS'Jitaura'
p1505
(lp1506
S'802159'
p1507
aS'802159'
p1508
asS'Javor'
p1509
(lp1510
S'259 01'
p1511
aS'549 57'
p1512
asS'J\xc3\xa1szj\xc3\xa1k\xc3\xb3halma'
p1513
(lp1514
g1198
ag1236
asS'Jal\xc5\xafv\xc4\x8d\xc3\xad-D\xc4\x9b\xc4\x8d\xc3\xadn XVII x)'
p1515
(lp1516
S'405 02'
p1517
asS'Jukhala'
p1518
(lp1519
S'174033'
p1520
aS'174033'
p1521
asS'Javo\xc5\x99\xc3\xad\xc4\x8dko'
p1522
(lp1523
S'783 24'
p1524
asS'Jaipur 12 Jhotwara'
p1525
(lp1526
S'302012'
p1527
aS'302012'
p1528
asS'Jamalpur Workshop'
p1529
(lp1530
S'811214'
p1531
aS'811214'
p1532
asS'Jerlochovice'
p1533
(lp1534
S'742 45'
p1535
asS'Jilmov\xc3\xad'
p1536
(lp1537
S'592 61'
p1538
asS'Jakhani'
p1539
(lp1540
S'246442'
p1541
aS'246442'
p1542
asS'Jind\xc5\x99ichova Hora'
p1543
(lp1544
S'344 01'
p1545
asS'Jetalsar Jn'
p1546
(lp1547
S'360360'
p1548
aS'360360'
p1549
asS'Jistebn\xc3\xadk'
p1550
(lp1551
S'742 82'
p1552
asS'Jayaprakash Naryan Nagar'
p1553
(lp1554
S'560078'
p1555
aS'560078'
p1556
asS'Janovice v Podje\xc5\xa1t\xc4\x9bd\xc3\xad'
p1557
(lp1558
S'463 53'
p1559
asS'Jedl\xc3\xad'
p1560
(lp1561
S'789 01'
p1562
asS'Jeypore'
p1563
(lp1564
S'786614'
p1565
aS'786614'
p1566
asS'Jene\xc4\x8d'
p1567
(lp1568
S'252 61'
p1569
aS'679 21'
p1570
asS'Jalpaiguri'
p1571
(lp1572
S'735101'
p1573
aS'735101'
p1574
asS'Ja\xc3\xa9n'
p1575
(lp1576
S'23071'
p1577
aS'23071'
p1578
asS'Jolaibari'
p1579
(lp1580
S'799141'
p1581
aS'799141'
p1582
asS'Janov nad Nisou'
p1583
(lp1584
S'468 11'
p1585
asS'Jaffrey'
p1586
(lp1587
S'03452'
p1588
aS'03452'
p1589
asS'Jammu and Kashmir'
p1590
(lp1591
S'182301'
p1592
aS'180001'
p1593
aS'180001'
p1594
aS'180001'
p1595
aS'180001'
p1596
aS'180001'
p1597
aS'180001'
p1598
aS'180001'
p1599
aS'180001'
p1600
aS'180001'
p1601
aS'180001'
p1602
aS'180002'
p1603
aS'180003'
p1604
aS'180004'
p1605
aS'180004'
p1606
aS'180004'
p1607
aS'180005'
p1608
aS'180005'
p1609
aS'180005'
p1610
ag707
aS'180009'
p1611
aS'180011'
p1612
aS'180011'
p1613
aS'181101'
p1614
aS'181102'
p1615
aS'181103'
p1616
aS'181105'
p1617
aS'181112'
p1618
aS'181114'
p1619
aS'181122'
p1620
aS'181124'
p1621
aS'181124'
p1622
aS'181132'
p1623
aS'181133'
p1624
aS'181134'
p1625
aS'181142'
p1626
aS'181144'
p1627
aS'181151'
p1628
aS'181201'
p1629
aS'181203'
p1630
aS'181205'
p1631
aS'181207'
p1632
aS'181209'
p1633
aS'181212'
p1634
aS'181223'
p1635
aS'182101'
p1636
aS'182101'
p1637
aS'182103'
p1638
aS'182104'
p1639
aS'182121'
p1640
aS'182123'
p1641
aS'182125'
p1642
aS'182128'
p1643
aS'182142'
p1644
aS'182144'
p1645
aS'182146'
p1646
aS'182161'
p1647
aS'182202'
p1648
aS'182203'
p1649
aS'182205'
p1650
aS'182302'
p1651
ag945
aS'182315'
p1652
aS'184101'
p1653
aS'184101'
p1654
aS'184102'
p1655
aS'184141'
p1656
aS'184143'
p1657
aS'184145'
p1658
aS'184151'
p1659
aS'184201'
p1660
aS'184203'
p1661
aS'184205'
p1662
aS'184207'
p1663
aS'185101'
p1664
aS'185121'
p1665
aS'185131'
p1666
aS'185133'
p1667
aS'185134'
p1668
aS'185151'
p1669
aS'185153'
p1670
aS'185156'
p1671
aS'185158'
p1672
aS'185201'
p1673
aS'185211'
p1674
aS'185212'
p1675
aS'190001'
p1676
aS'190001'
p1677
aS'190001'
p1678
aS'190001'
p1679
aS'190001'
p1680
aS'190002'
p1681
aS'190002'
p1682
aS'190002'
p1683
aS'190002'
p1684
aS'190003'
p1685
aS'190005'
p1686
aS'190006'
p1687
aS'190008'
p1688
aS'190009'
p1689
aS'180001'
p1690
aS'180002'
p1691
aS'180003'
p1692
aS'180004'
p1693
aS'180005'
p1694
ag708
aS'180009'
p1695
aS'180011'
p1696
aS'181101'
p1697
aS'181102'
p1698
aS'181103'
p1699
aS'181105'
p1700
aS'181112'
p1701
aS'181114'
p1702
aS'181122'
p1703
aS'181124'
p1704
aS'181132'
p1705
aS'181133'
p1706
aS'181134'
p1707
aS'181142'
p1708
aS'181144'
p1709
aS'181151'
p1710
aS'181201'
p1711
aS'181203'
p1712
aS'181205'
p1713
aS'181207'
p1714
aS'181209'
p1715
aS'181212'
p1716
aS'181223'
p1717
aS'182101'
p1718
aS'182103'
p1719
aS'182104'
p1720
aS'182121'
p1721
aS'182123'
p1722
aS'182125'
p1723
aS'182128'
p1724
aS'182142'
p1725
aS'182144'
p1726
aS'182146'
p1727
aS'182161'
p1728
aS'182202'
p1729
aS'182203'
p1730
aS'182205'
p1731
aS'182301'
p1732
ag1732
aS'182302'
p1733
ag946
aS'182315'
p1734
aS'184101'
p1735
aS'184102'
p1736
aS'184141'
p1737
aS'184143'
p1738
aS'184145'
p1739
aS'184151'
p1740
aS'184201'
p1741
aS'184203'
p1742
aS'184205'
p1743
aS'184207'
p1744
aS'185101'
p1745
aS'185121'
p1746
aS'185131'
p1747
aS'185133'
p1748
aS'185134'
p1749
aS'185151'
p1750
aS'185153'
p1751
aS'185156'
p1752
aS'185158'
p1753
aS'185201'
p1754
aS'185211'
p1755
aS'185212'
p1756
aS'190001'
p1757
aS'190002'
p1758
aS'190003'
p1759
aS'190005'
p1760
aS'190006'
p1761
aS'190008'
p1762
aS'190009'
p1763
asS'Jablonce'
p1764
(lp1765
S'263 01'
p1766
asS'Jatani'
p1767
(lp1768
S'752050'
p1769
aS'752050'
p1770
asS'Jarrio'
p1771
(lp1772
S'33719'
p1773
asS'Jamn\xc3\xa9 nad Orlic\xc3\xad'
p1774
(lp1775
S'561 65'
p1776
asS'Jardin Exotique'
p1777
(lp1778
S'98000'
p1779
asS'Janta Market'
p1780
(lp1781
S'110027'
p1782
asS'Jones'
p1783
(lp1784
S'73049'
p1785
aS'73049'
p1786
asS'Jamnagar Gulabnagar'
p1787
(lp1788
S'361007'
p1789
aS'361007'
p1790
asS'Jersey City'
p1791
(lp1792
S'07302'
p1793
aS'07304'
p1794
aS'07307'
p1795
aS'07310'
p1796
aS'07302'
p1797
aS'07310'
p1798
aS'07304'
p1799
aS'07307'
p1800
asS'Jakhalbandha'
p1801
(lp1802
S'782136'
p1803
aS'782136'
p1804
asS'Ji\xc4\x8d\xc3\xadn-Dvorce x)'
p1805
(lp1806
S'506 01'
p1807
asS'Jandia'
p1808
(lp1809
S'35626'
p1810
aS'35626'
p1811
asS'Jonen'
p1812
(lp1813
S'8916'
p1814
aS'8916'
p1815
asS'J\xc3\xa4gerhaus'
p1816
(lp1817
S'1190'
p1818
asS'Jevnaker'
p1819
(lp1820
S'3520'
p1821
aS'3520'
p1822
asS'J\xc3\xa4gerwald'
p1823
(lp1824
S'1140'
p1825
asS'Javorovec'
p1826
(lp1827
S'687 12'
p1828
asS'Jehlice'
p1829
(lp1830
S'503 15'
p1831
asS'Jahangirabad Bulandshahr'
p1832
(lp1833
S'202394'
p1834
aS'202394'
p1835
asS'J\xc3\xa1szf\xc3\xa9nyszaru'
p1836
(lp1837
g1184
ag1238
asS'Jockgrim'
p1838
(lp1839
S'76751'
p1840
aS'76751'
p1841
asS'Janovice nad \xc3\x9ahlavou'
p1842
(lp1843
S'340 21'
p1844
asS'Jalandhar'
p1845
(lp1846
S'144004'
p1847
aS'144002'
p1848
aS'144003'
p1849
aS'144004'
p1850
aS'144002'
p1851
aS'144003'
p1852
aS'144002'
p1853
aS'144003'
p1854
aS'144004'
p1855
asS'Janovice'
p1856
(lp1857
S'471 03'
p1858
aS'463 43'
p1859
aS'503 56'
p1860
asS'Jevi\xc5\xa1ovice'
p1861
(lp1862
S'671 53'
p1863
asS'J\xc3\xa4rl\xc3\xa5sa'
p1864
(lp1865
S'74021'
p1866
aS'74021'
p1867
asS'Jezbo\xc5\x99ice'
p1868
(lp1869
S'530 02'
p1870
asS'Janakpuri'
p1871
(lp1872
S'110058'
p1873
aS'110058'
p1874
asS'Jablonec nad Nisou'
p1875
(lp1876
S'466 01'
p1877
ag1877
aS'468 41'
p1878
ag1585
aS'468 44'
p1879
aS'468 24'
p1880
aS'468 02'
p1881
aS'468 21'
p1882
aS'468 27'
p1883
aS'468 48'
p1884
aS'468 71'
p1885
ag959
aS'468 50'
p1886
aS'468 04'
p1887
aS'468 22'
p1888
aS'468 43'
p1889
aS'468 22'
p1890
aS'468 01'
p1891
aS'468 44'
p1892
aS'463 42'
p1893
aS'463 42'
p1894
aS'463 42'
p1895
ag1438
aS'466 04'
p1896
aS'466 05'
p1897
aS'468 02'
p1898
aS'468 02'
p1899
aS'468 11'
p1900
aS'468 22'
p1901
aS'468 22'
p1902
aS'468 22'
p1903
aS'468 22'
p1904
aS'468 22'
p1905
aS'468 22'
p1906
aS'468 22'
p1907
aS'468 22'
p1908
aS'468 22'
p1909
aS'468 22'
p1910
aS'468 22'
p1911
aS'468 22'
p1912
aS'468 22'
p1913
aS'468 22'
p1914
aS'468 22'
p1915
aS'468 43'
p1916
aS'468 45'
p1917
aS'468 47'
p1918
aS'468 21'
p1919
aS'468 48'
p1920
ag483
aS'466 06'
p1921
aS'468 02'
p1922
aS'468 21'
p1923
aS'468 21'
p1924
aS'468 22'
p1925
aS'468 22'
p1926
aS'468 44'
p1927
aS'466 01'
p1928
ag1928
aS'468 01'
p1929
asS'Jakub\xc4\x8dovice nad Odrou'
p1930
(lp1931
S'742 36'
p1932
asS'J\xc3\xbcchen'
p1933
(lp1934
S'41363'
p1935
aS'41363'
p1936
asS'Ji\xc5\x99\xc3\xadkov'
p1937
(lp1938
S'407 53'
p1939
aS'582 82'
p1940
aS'793 51'
p1941
asS'J\xc3\xa1ma'
p1942
(lp1943
S'383 01'
p1944
asS'Jalahalli Villageso'
p1945
(lp1946
S'560013'
p1947
asS'J\xc3\xa1my'
p1948
(lp1949
S'516 01'
p1950
aS'592 32'
p1951
asS'J\xc3\xadvka'
p1952
(lp1953
S'542 13'
p1954
asS'J\xc3\xa1noshida'
p1955
(lp1956
g1199
ag1239
asS'Ja\xc5\xbelovice'
p1957
(lp1958
S'251 01'
p1959
asS'Jenins'
p1960
(lp1961
S'7307'
p1962
asS'Jino\xc4\x8dany'
p1963
(lp1964
S'252 25'
p1965
asS'Jesen\xc3\xad'
p1966
(lp1967
S'339 01'
p1968
asS'Javornice'
p1969
(lp1970
S'384 22'
p1971
aS'506 01'
p1972
asS'Jamnagar Aerodrome'
p1973
(lp1974
S'361003'
p1975
aS'361003'
p1976
asS'Jackson'
p1977
(lp1978
S'30233'
p1979
aS'38301'
p1980
aS'39202'
p1981
aS'49201'
p1982
aS'49203'
p1983
aS'83002'
p1984
aS'30233'
p1985
aS'49201'
p1986
aS'49203'
p1987
aS'39202'
p1988
aS'38301'
p1989
aS'83002'
p1990
asS'Jaipur 13 Vishwa Karma In'
p1991
(lp1992
S'302013'
p1993
aS'302013'
p1994
asS'Jablonn\xc3\xa9 v Podje\xc5\xa1t\xc4\x9bd\xc3\xad'
p1995
(lp1996
S'471 25'
p1997
asS'Jarcov\xc3\xa1'
p1998
(lp1999
S'757 01'
p2000
asS'Jesen\xc3\xadk'
p2001
(lp2002
S'790 01'
p2003
ag2003
aS'793 76'
p2004
aS'788 25'
p2005
aS'790 55'
p2006
aS'790 82'
p2007
aS'790 69'
p2008
aS'790 51'
p2009
aS'790 58'
p2010
aS'790 01'
p2011
aS'790 63'
p2012
aS'788 25'
p2013
aS'790 53'
p2014
aS'790 57'
p2015
aS'790 64'
p2016
aS'790 65'
p2017
aS'790 65'
p2018
aS'790 69'
p2019
aS'790 70'
p2020
aS'790 70'
p2021
aS'790 70'
p2022
aS'790 82'
p2023
aS'790 84'
p2024
aS'793 76'
p2025
aS'790 65'
p2026
aS'790 70'
p2027
aS'790 65'
p2028
aS'790 70'
p2029
aS'790 65'
p2030
aS'793 76'
p2031
aS'790 01'
p2032
asS'Jabl\xc5\xafnka'
p2033
(lp2034
S'756 23'
p2035
asS'Jagdalpur Ho.'
p2036
(lp2037
S'494001'
p2038
aS'494001'
p2039
asS'Jesenn\xc3\xbd'
p2040
(lp2041
S'512 12'
p2042
asS'Jammu Tawi'
p2043
(lp2044
g1604
ag1606
ag1692
asS'Jile\xc5\xa1ovice'
p2045
(lp2046
S'747 92'
p2047
asS'J\xc3\xa4rnforsen'
p2048
(lp2049
S'57081'
p2050
aS'57081'
p2051
asS'Jim Falls'
p2052
(lp2053
S'54748'
p2054
aS'54748'
p2055
asS'Jarov'
p2056
(lp2057
S'331 51'
p2058
asS'Jadigenahalli'
p2059
(lp2060
S'562154'
p2061
aS'562154'
p2062
asS'Jarplund-Weding'
p2063
(lp2064
S'24941'
p2065
asS'Jalpat Rai Market'
p2066
(lp2067
S'141008'
p2068
aS'141008'
p2069
asS'Jevi\xc5\xa1ovka'
p2070
(lp2071
S'691 83'
p2072
asS'Jeffrey City'
p2073
(lp2074
S'82310'
p2075
aS'82310'
p2076
asS'Jayanagar West'
p2077
(lp2078
S'560082'
p2079
aS'560082'
p2080
asS'Jay Em'
p2081
(lp2082
S'82219'
p2083
aS'82219'
p2084
asS'Je\xc5\x99i\xc5\xa1no'
p2085
(lp2086
S'582 74'
p2087
asS'Jind\xc5\x99ich\xc5\xafv Hradec III'
p2088
(lp2089
g34
asS'Jawahar Lal Nehru Stadium'
p2090
(lp2091
S'110003'
p2092
asS'Jamia Masjid'
p2093
(lp2094
g1684
asS'Jesus Pobre'
p2095
(lp2096
S'03749'
p2097
asS'Je\xc5\x99ice'
p2098
(lp2099
S'508 01'
p2100
asS'Jeclov'
p2101
(lp2102
S'588 21'
p2103
asS'Javali Nuevo'
p2104
(lp2105
S'30832'
p2106
aS'30832'
p2107
asS'Julita'
p2108
(lp2109
S'64025'
p2110
aS'64025'
p2111
asS'Jistebnice'
p2112
(lp2113
S'391 33'
p2114
asS'Jauli'
p2115
(lp2116
S'124318'
p2117
aS'124318'
p2118
asS'Juf'
p2119
(lp2120
S'7448'
p2121
aS'7448'
p2122
asS'Johnson City'
p2123
(lp2124
S'37601'
p2125
aS'37604'
p2126
aS'37601'
p2127
aS'37604'
p2128
asS'Ji\xc5\x99\xc3\xad\xc4\x8dkov'
p2129
(lp2130
S'463 43'
p2131
asS'Jahangirpur'
p2132
(lp2133
S'124138'
p2134
aS'203141'
p2135
aS'124138'
p2136
aS'203141'
p2137
asS'Janou\xc5\xa1ov'
p2138
(lp2139
S'789 91'
p2140
asS'Jirsko 2.d\xc3\xadl'
p2141
(lp2142
S'463 45'
p2143
asS'Jen\xc3\xadkovice'
p2144
(lp2145
S'346 01'
p2146
asS'Jagibhakatagon'
p2147
(lp2148
S'782411'
p2149
aS'782411'
p2150
asS'Jubbar Hatti'
p2151
(lp2152
S'171013'
p2153
aS'171013'
p2154
asS'Jedvaniny'
p2155
(lp2156
S'331 62'
p2157
asS'Josefsdorf am Kahlenberg'
p2158
(lp2159
S'1190'
p2160
asS'Jalub\xc3\xad'
p2161
(lp2162
S'687 05'
p2163
asS'Jessieville'
p2164
(lp2165
S'71949'
p2166
aS'71949'
p2167
asS'Joplin'
p2168
(lp2169
S'64804'
p2170
aS'64804'
p2171
asS'Jakub\xc4\x8dovice'
p2172
(lp2173
S'747 41'
p2174
asS'Jogo'
p2175
(lp2176
S'9580-315'
p2177
aS'9580-315'
p2178
asS'Josef\xc5\xafv D\xc5\xafl'
p2179
(lp2180
S'293 07'
p2181
ag1879
asS'Jankovice'
p2182
(lp2183
S'364 61'
p2184
aS'535 01'
p2185
aS'769 01'
p2186
aS'687 04'
p2187
asS'Jardin Japonais'
p2188
(lp2189
S'98000'
p2190
asS'J\xc3\xa1szals\xc3\xb3szentgy\xc3\xb6rgy'
p2191
(lp2192
g1196
ag1230
asS'Jaipur Ck'
p2193
(lp2194
S'754161'
p2195
aS'754161'
p2196
asS'Jistebsko'
p2197
(lp2198
g1923
asS'Jemni\xc5\xa1t\xc4\x9b'
p2199
(lp2200
S'257 01'
p2201
aS'257 01'
p2202
asS'Jangamkote'
p2203
(lp2204
S'562144'
p2205
aS'562144'
p2206
asS'Johannishus'
p2207
(lp2208
S'37275'
p2209
aS'37295'
p2210
aS'37275'
p2211
aS'37295'
p2212
asS'Je\xc5\x99ma\xc5\x88'
p2213
(lp2214
S'783 25'
p2215
asS'Jalebi Chowk'
p2216
(lp2217
S'302002'
p2218
aS'302002'
p2219
asS'Jonschwil'
p2220
(lp2221
S'9243'
p2222
aS'9243'
p2223
asS'Jin\xc3\xadn'
p2224
(lp2225
S'386 01'
p2226
asS'Jaraicejo'
p2227
(lp2228
S'10380'
p2229
aS'10380'
p2230
asS'Jina\xc4\x8dovice'
p2231
(lp2232
S'664 34'
p2233
asS'Jerzens'
p2234
(lp2235
S'6474'
p2236
aS'6474'
p2237
asS'Jilemnice'
p2238
(lp2239
S'514 01'
p2240
asS'Jarom\xc4\x9b\xc5\x99ice nad Rokytnou'
p2241
(lp2242
S'675 51'
p2243
asS'Jemnice'
p2244
(lp2245
S'386 01'
p2246
asS'Jaro\xc5\xa1ov nad Ne\xc5\xbe\xc3\xa1rkou'
p2247
(lp2248
g20
asS'Jihlava'
p2249
(lp2250
S'586 01'
p2251
ag2251
aS'589 01'
p2252
aS'588 32'
p2253
aS'588 23'
p2254
aS'588 51'
p2255
aS'588 11'
p2256
aS'588 33'
p2257
aS'588 54'
p2258
aS'588 05'
p2259
aS'588 27'
p2260
aS'588 44'
p2261
aS'588 62'
p2262
aS'588 34'
p2263
aS'588 67'
p2264
aS'588 01'
p2265
aS'588 51'
p2266
aS'588 56'
p2267
aS'586 01'
p2268
aS'586 01'
p2269
aS'586 02'
p2270
aS'588 05'
p2271
aS'588 05'
p2272
aS'588 13'
p2273
aS'588 13'
p2274
aS'588 21'
p2275
aS'588 22'
p2276
aS'588 22'
p2277
aS'588 22'
p2278
aS'588 27'
p2279
aS'588 32'
p2280
aS'588 32'
p2281
aS'588 32'
p2282
ag1405
aS'588 33'
p2283
aS'588 33'
p2284
aS'588 33'
p2285
aS'588 42'
p2286
aS'588 42'
p2287
aS'588 51'
p2288
aS'588 51'
p2289
aS'588 51'
p2290
aS'588 56'
p2291
aS'588 56'
p2292
aS'588 56'
p2293
aS'588 56'
p2294
aS'588 56'
p2295
aS'588 56'
p2296
aS'588 56'
p2297
aS'588 62'
p2298
aS'588 64'
p2299
aS'589 01'
p2300
ag936
aS'589 01'
p2301
aS'588 33'
p2302
aS'586 01'
p2303
ag2103
aS'588 33'
p2304
aS'588 41'
p2305
aS'588 51'
p2306
aS'588 56'
p2307
aS'588 62'
p2308
aS'589 01'
p2309
aS'586 01'
p2310
aS'586 01'
p2311
aS'588 05'
p2312
aS'588 41'
p2313
aS'588 51'
p2314
aS'588 62'
p2315
aS'588 05'
p2316
aS'588 27'
p2317
aS'588 56'
p2318
aS'586 01'
p2319
aS'586 01'
p2320
aS'586 01'
p2321
aS'588 05'
p2322
aS'588 05'
p2323
aS'588 13'
p2324
aS'588 13'
p2325
aS'588 27'
p2326
aS'588 27'
p2327
aS'588 33'
p2328
aS'588 41'
p2329
aS'588 51'
p2330
aS'588 56'
p2331
aS'588 56'
p2332
aS'588 56'
p2333
aS'588 56'
p2334
aS'588 56'
p2335
aS'588 56'
p2336
aS'588 61'
p2337
aS'588 62'
p2338
aS'589 01'
p2339
aS'586 01'
p2340
aS'588 01'
p2341
aS'589 01'
p2342
asS'Jahodov'
p2343
(lp2344
S'580 01'
p2345
asS'Jamnice'
p2346
(lp2347
S'746 01'
p2348
aS'746 01'
p2349
asS'Johanneshov'
p2350
(lp2351
S'12148'
p2352
aS'12148'
p2353
asS'Johnson Creek'
p2354
(lp2355
S'53038'
p2356
aS'53038'
p2357
asS'Jerte'
p2358
(lp2359
S'10612'
p2360
aS'10612'
p2361
asS'Jackpot'
p2362
(lp2363
S'89825'
p2364
aS'89825'
p2365
asS'Ji\xc4\x8d\xc3\xadn-Nov\xc3\xa9 M\xc4\x9bsto x)'
p2366
(lp2367
S'506 01'
p2368
asS'Ji\xc5\x99\xc3\xadkovec'
p2369
(lp2370
S'257 89'
p2371
asS'J 6block Rajouri Garden'
p2372
(lp2373
S'110027'
p2374
aS'110027'
p2375
asS'Jonqui\xc3\xa8re West'
p2376
(lp2377
S'G8A'
p2378
aS'G8A'
p2379
asS'J\xc3\xadlov\xc3\xa9 u Prahy'
p2380
(lp2381
S'254 01'
p2382
aS'254 01'
p2383
asS'Je\xc5\xa1\xc3\xadn'
p2384
(lp2385
S'273 24'
p2386
asS'Janoslavice'
p2387
(lp2388
S'789 74'
p2389
asS'Jesteburg'
p2390
(lp2391
S'21266'
p2392
aS'26122'
p2393
aS'26388'
p2394
aS'30159'
p2395
aS'30167'
p2396
aS'30419'
p2397
aS'37073'
p2398
aS'49074'
p2399
aS'21217'
p2400
aS'21220'
p2401
aS'21337'
p2402
aS'21423'
p2403
aS'21629'
p2404
aS'21680'
p2405
aS'21698'
p2406
aS'26123'
p2407
aS'26127'
p2408
aS'26133'
p2409
aS'26180'
p2410
aS'26203'
p2411
aS'26382'
p2412
aS'26409'
p2413
aS'26434'
p2414
aS'26452'
p2415
aS'26603'
p2416
aS'26655'
p2417
aS'26723'
p2418
aS'26831'
p2419
aS'26897'
p2420
aS'26954'
p2421
aS'27283'
p2422
aS'27404'
p2423
aS'27472'
p2424
aS'27726'
p2425
aS'27777'
p2426
aS'28790'
p2427
aS'28832'
p2428
aS'28857'
p2429
aS'28876'
p2430
aS'29223'
p2431
aS'29439'
p2432
aS'29556'
p2433
aS'29640'
p2434
aS'30163'
p2435
aS'30171'
p2436
aS'30175'
p2437
aS'30179'
p2438
aS'30451'
p2439
aS'30459'
p2440
aS'30521'
p2441
aS'30559'
p2442
aS'30659'
p2443
aS'30827'
p2444
aS'30855'
p2445
aS'30890'
p2446
aS'30916'
p2447
aS'30938'
p2448
aS'30966'
p2449
aS'30982'
p2450
aS'31134'
p2451
aS'31137'
p2452
aS'31141'
p2453
aS'31224'
p2454
aS'31303'
p2455
aS'31515'
p2456
aS'31675'
p2457
aS'31785'
p2458
aS'31812'
p2459
aS'37075'
p2460
aS'37079'
p2461
aS'37083'
p2462
aS'37115'
p2463
aS'37574'
p2464
aS'38100'
p2465
aS'38104'
p2466
aS'38112'
p2467
aS'38116'
p2468
aS'38122'
p2469
aS'38126'
p2470
aS'38259'
p2471
aS'38300'
p2472
aS'38350'
p2473
aS'38442'
p2474
aS'38518'
p2475
aS'38642'
p2476
aS'38723'
p2477
aS'48529'
p2478
aS'49078'
p2479
aS'49082'
p2480
aS'49090'
p2481
aS'49134'
p2482
aS'49152'
p2483
aS'49324'
p2484
aS'49377'
p2485
aS'49610'
p2486
aS'49733'
p2487
aS'49809'
p2488
aS'21640'
p2489
aS'21706'
p2490
aS'26209'
p2491
aS'21217'
p2492
aS'21220'
p2493
aS'21266'
p2494
ag2494
aS'21337'
p2495
aS'21423'
p2496
aS'21629'
p2497
aS'21640'
p2498
aS'21680'
p2499
aS'21698'
p2500
aS'21706'
p2501
aS'26122'
p2502
aS'26127'
p2503
aS'26180'
p2504
aS'26203'
p2505
aS'26209'
p2506
aS'26382'
p2507
aS'26388'
p2508
aS'26409'
p2509
aS'26434'
p2510
aS'26452'
p2511
aS'26603'
p2512
aS'26655'
p2513
aS'26723'
p2514
aS'26831'
p2515
aS'26897'
p2516
aS'26954'
p2517
aS'27283'
p2518
aS'27404'
p2519
aS'27472'
p2520
aS'27726'
p2521
aS'27777'
p2522
aS'28790'
p2523
aS'28832'
p2524
aS'28857'
p2525
aS'28876'
p2526
aS'29223'
p2527
aS'29439'
p2528
aS'29556'
p2529
aS'29640'
p2530
aS'30159'
p2531
aS'30167'
p2532
aS'30171'
p2533
aS'30419'
p2534
aS'30451'
p2535
aS'30459'
p2536
aS'30521'
p2537
aS'30559'
p2538
aS'30659'
p2539
aS'30827'
p2540
aS'30855'
p2541
aS'30890'
p2542
aS'30916'
p2543
aS'30938'
p2544
aS'30966'
p2545
aS'30982'
p2546
aS'31141'
p2547
aS'31224'
p2548
aS'31303'
p2549
aS'31515'
p2550
aS'31675'
p2551
aS'31785'
p2552
aS'31812'
p2553
aS'37075'
p2554
aS'37079'
p2555
aS'37083'
p2556
aS'37115'
p2557
aS'37574'
p2558
aS'38100'
p2559
aS'38104'
p2560
aS'38112'
p2561
aS'38116'
p2562
aS'38122'
p2563
aS'38126'
p2564
aS'38259'
p2565
aS'38300'
p2566
aS'38350'
p2567
aS'38442'
p2568
aS'38518'
p2569
aS'38642'
p2570
aS'38723'
p2571
aS'48529'
p2572
aS'49074'
p2573
aS'49078'
p2574
aS'49082'
p2575
aS'49090'
p2576
aS'49134'
p2577
aS'49152'
p2578
aS'49324'
p2579
aS'49377'
p2580
aS'49610'
p2581
aS'49733'
p2582
aS'49809'
p2583
asS'J\xc3\xa1kfa'
p2584
(lp2585
S'9643'
p2586
aS'9643'
p2587
asS'Jansen'
p2588
(lp2589
S'68377'
p2590
aS'68377'
p2591
asS'Ji\xc4\x8d\xc3\xadn-Valdick\xc3\xa9 P\xc5\x99edm\xc4\x9bst\xc3\xad x)'
p2592
(lp2593
S'506 01'
p2594
asS'Jaraiz De La Vera'
p2595
(lp2596
S'10400'
p2597
aS'10400'
p2598
asS'Janpath'
p2599
(lp2600
S'110001'
p2601
aS'110001'
p2602
asS'Jorasanko'
p2603
(lp2604
S'700006'
p2605
asS'Jince'
p2606
(lp2607
S'262 23'
p2608
asS'Jarpice'
p2609
(lp2610
S'273 72'
p2611
asS'Jalon De Cameros'
p2612
(lp2613
S'26134'
p2614
aS'26134'
p2615
asS'Jehn\xc4\x9bd\xc3\xad'
p2616
(lp2617
S'562 01'
p2618
asS'Jasper'
p2619
(lp2620
S'35501'
p2621
aS'35501'
p2622
aS'32052'
p2623
asS'Jailhari Khal'
p2624
(lp2625
S'246193'
p2626
aS'246193'
p2627
asS'Jabiru'
p2628
(lp2629
S'0886'
p2630
aS'0886'
p2631
asS'Jarandilla'
p2632
(lp2633
S'10450'
p2634
aS'10450'
p2635
asS'Jaura Amb'
p2636
(lp2637
S'174312'
p2638
aS'174312'
p2639
asS'Ji\xc5\x99et\xc3\xadn pod Bukovou'
p2640
(lp2641
g1889
asS'Jowai'
p2642
(lp2643
S'793150'
p2644
aS'793150'
p2645
asS'Japigia'
p2646
(lp2647
S'70126'
p2648
asS'Jammu Market'
p2649
(lp2650
g1593
asS'Je\xc5\xbeovice'
p2651
(lp2652
S'285 06'
p2653
asS'Jakartovice'
p2654
(lp2655
S'747 53'
p2656
asS'Je\xc5\x99manice'
p2657
(lp2658
S'463 12'
p2659
asS'Juta'
p2660
(lp2661
S'7431'
p2662
asS'Jokkmokk'
p2663
(lp2664
S'96223'
p2665
aS'96232'
p2666
aS'96223'
p2667
aS'96232'
p2668
asS'Ji\xc5\x99ice u Moravsk\xc3\xbdch Bud\xc4\x9bjovic'
p2669
(lp2670
S'671 54'
p2671
asS'Jericho'
p2672
(lp2673
S'05465'
p2674
aS'05465'
p2675
asS'Janovi\xc4\x8dky'
p2676
(lp2677
S'566 01'
p2678
aS'593 01'
p2679
asS'Jealgora'
p2680
(lp2681
g1037
ag1133
asS'J\xc3\xa1szboldogh\xc3\xa1za'
p2682
(lp2683
g1227
asS'Jimboomba'
p2684
(lp2685
S'4280'
p2686
aS'4280'
p2687
asS'Javorek'
p2688
(lp2689
S'592 03'
p2690
asS'Jazovice'
p2691
(lp2692
S'671 06'
p2693
asS'Jenkinsville'
p2694
(lp2695
S'29065'
p2696
aS'29065'
p2697
asS'Jedouchov'
p2698
(lp2699
S'580 01'
p2700
asS'Jalahalli'
p2701
(lp2702
S'560013'
p2703
aS'560057'
p2704
aS'560025'
p2705
aS'560001'
p2706
aS'560001'
p2707
aS'560001'
p2708
aS'560002'
p2709
aS'560002'
p2710
aS'560003'
p2711
aS'560003'
p2712
aS'560004'
p2713
aS'560007'
p2714
aS'560008'
p2715
aS'560009'
p2716
aS'560009'
p2717
aS'560010'
p2718
aS'560010'
p2719
aS'560010'
p2720
aS'560010'
p2721
ag1947
ag728
aS'560017'
p2722
aS'560018'
p2723
aS'560021'
p2724
aS'560023'
p2725
aS'560024'
p2726
aS'560026'
p2727
aS'560027'
p2728
aS'560030'
p2729
aS'560032'
p2730
aS'560037'
p2731
aS'560038'
p2732
aS'560040'
p2733
aS'560042'
p2734
ag748
aS'560047'
p2735
aS'560049'
p2736
aS'560051'
p2737
aS'560051'
p2738
aS'560051'
p2739
aS'560052'
p2740
aS'560059'
p2741
aS'560064'
p2742
aS'560065'
p2743
aS'560067'
p2744
aS'560070'
p2745
ag1555
aS'560079'
p2746
aS'560080'
p2747
aS'560081'
p2748
ag2079
aS'560084'
p2749
aS'560087'
p2750
aS'561201'
p2751
aS'561206'
p2752
aS'561212'
p2753
aS'561217'
p2754
aS'561227'
p2755
aS'562108'
p2756
aS'562118'
p2757
aS'562122'
p2758
aS'562134'
p2759
ag2205
aS'562149'
p2760
ag2061
aS'563117'
p2761
aS'563120'
p2762
aS'563121'
p2763
aS'563128'
p2764
aS'563136'
p2765
aS'563138'
p2766
aS'565277'
p2767
aS'570001'
p2768
aS'570001'
p2769
aS'570004'
p2770
aS'570004'
p2771
aS'570006'
p2772
aS'570007'
p2773
aS'570008'
p2774
aS'570010'
p2775
aS'570011'
p2776
ag360
aS'570018'
p2777
aS'570019'
p2778
aS'570020'
p2779
aS'570024'
p2780
aS'571114'
p2781
aS'571119'
p2782
aS'571122'
p2783
aS'571125'
p2784
aS'571143'
p2785
aS'571149'
p2786
aS'571166'
p2787
aS'571172'
p2788
aS'571178'
p2789
aS'571201'
p2790
aS'571220'
p2791
aS'571222'
p2792
aS'571251'
p2793
aS'571266'
p2794
aS'560001'
p2795
aS'560002'
p2796
aS'560003'
p2797
aS'560004'
p2798
aS'560007'
p2799
aS'560008'
p2800
aS'560009'
p2801
aS'560010'
p2802
aS'560013'
p2803
ag2803
ag729
aS'560017'
p2804
aS'560018'
p2805
aS'560021'
p2806
aS'560023'
p2807
aS'560024'
p2808
aS'560025'
p2809
aS'560026'
p2810
aS'560027'
p2811
aS'560030'
p2812
aS'560032'
p2813
aS'560037'
p2814
aS'560038'
p2815
aS'560040'
p2816
aS'560042'
p2817
ag749
aS'560047'
p2818
aS'560049'
p2819
aS'560051'
p2820
aS'560052'
p2821
aS'560057'
p2822
aS'560059'
p2823
aS'560064'
p2824
aS'560065'
p2825
aS'560067'
p2826
aS'560070'
p2827
ag1556
aS'560079'
p2828
aS'560080'
p2829
aS'560081'
p2830
ag2080
aS'560084'
p2831
aS'560087'
p2832
aS'561201'
p2833
aS'561206'
p2834
aS'561212'
p2835
aS'561217'
p2836
aS'561227'
p2837
aS'562108'
p2838
aS'562118'
p2839
aS'562122'
p2840
aS'562134'
p2841
ag2206
aS'562149'
p2842
ag2062
aS'563117'
p2843
aS'563120'
p2844
aS'563121'
p2845
aS'563128'
p2846
aS'563136'
p2847
aS'563138'
p2848
aS'565277'
p2849
aS'570001'
p2850
aS'570004'
p2851
aS'570006'
p2852
aS'570007'
p2853
aS'570008'
p2854
aS'570010'
p2855
aS'570011'
p2856
ag361
aS'570018'
p2857
aS'570019'
p2858
aS'570020'
p2859
aS'570024'
p2860
aS'571114'
p2861
aS'571119'
p2862
aS'571122'
p2863
aS'571125'
p2864
aS'571143'
p2865
aS'571149'
p2866
aS'571166'
p2867
aS'571172'
p2868
aS'571178'
p2869
aS'571201'
p2870
aS'571220'
p2871
aS'571222'
p2872
aS'571251'
p2873
aS'571266'
p2874
asS'Jegenstorf'
p2875
(lp2876
S'3303'
p2877
asS'Jobova Lhota'
p2878
(lp2879
S'679 74'
p2880
asS'J\xc3\xbcrgenstorf'
p2881
(lp2882
S'17153'
p2883
aS'17153'
p2884
asS'Jonqui\xc3\xa8re Southeast'
p2885
(lp2886
S'G7T'
p2887
aS'G7T'
p2888
asS'Jankov'
p2889
(lp2890
S'393 01'
p2891
asS'J L N Hospital Ajmer'
p2892
(lp2893
S'305001'
p2894
asS'Jhikarhatti'
p2895
(lp2896
g994
ag1090
asS'J\xc3\xa4rpen'
p2897
(lp2898
g1266
ag1315
asS'Jagraon Tehsil'
p2899
(lp2900
S'142026'
p2901
aS'142026'
p2902
asS'J\xc3\xb6nk\xc3\xb6ping'
p2903
(lp2904
S'33010'
p2905
aS'33012'
p2906
aS'33031'
p2907
aS'33122'
p2908
aS'33135'
p2909
aS'33141'
p2910
aS'33143'
p2911
aS'33195'
p2912
aS'33221'
p2913
aS'33231'
p2914
aS'33235'
p2915
aS'33236'
p2916
aS'33323'
p2917
aS'33421'
p2918
aS'33431'
p2919
aS'33432'
p2920
aS'33530'
p2921
aS'33533'
p2922
aS'33591'
p2923
aS'55002'
p2924
ag2924
aS'55110'
p2925
ag2925
aS'55111'
p2926
ag2926
aS'55113'
p2927
ag2927
aS'55117'
p2928
ag2928
aS'55182'
p2929
ag2929
aS'55302'
p2930
ag2930
aS'55308'
p2931
ag2931
aS'55317'
p2932
ag2932
aS'55321'
p2933
ag2933
aS'55338'
p2934
ag2934
aS'55446'
p2935
ag2935
aS'55458'
p2936
ag2936
aS'55474'
p2937
ag2937
aS'55626'
p2938
ag2938
aS'55627'
p2939
ag2939
aS'56013'
p2940
aS'56027'
p2941
aS'56034'
p2942
aS'56123'
p2943
aS'56131'
p2944
aS'56132'
p2945
aS'56135'
p2946
aS'56139'
p2947
aS'56149'
p2948
aS'56202'
p2949
aS'56230'
p2950
aS'56231'
p2951
aS'56250'
p2952
aS'56331'
p2953
aS'56423'
p2954
aS'56434'
p2955
aS'56435'
p2956
aS'56532'
p2957
aS'56533'
p2958
aS'56622'
p2959
aS'56631'
p2960
aS'56634'
p2961
aS'56721'
p2962
aS'56730'
p2963
aS'56732'
p2964
aS'56832'
p2965
aS'56892'
p2966
aS'57021'
p2967
aS'57034'
p2968
aS'57123'
p2969
aS'57133'
p2970
aS'57138'
p2971
aS'57142'
p2972
aS'57175'
p2973
aS'57177'
p2974
aS'57324'
p2975
aS'57336'
p2976
aS'57361'
p2977
aS'57393'
p2978
aS'57397'
p2979
aS'57421'
p2980
aS'57422'
p2981
aS'57432'
p2982
aS'57434'
p2983
aS'57438'
p2984
aS'57474'
p2985
aS'57495'
p2986
aS'57498'
p2987
aS'57528'
p2988
aS'57532'
p2989
aS'57536'
p2990
aS'57631'
p2991
aS'57633'
p2992
aS'33010'
p2993
ag2993
aS'33235'
p2994
aS'56027'
p2995
aS'33012'
p2996
aS'33130'
p2997
aS'55302'
p2998
ag2998
aS'56132'
p2999
aS'57421'
p3000
aS'33122'
p3001
aS'33221'
p3002
aS'33432'
p3003
aS'33533'
p3004
aS'55008'
p3005
ag3005
aS'55182'
p3006
ag3006
aS'55317'
p3007
ag3007
aS'55446'
p3008
ag3008
aS'56135'
p3009
aS'56331'
p3010
aS'56423'
p3011
aS'56435'
p3012
aS'56721'
p3013
aS'56832'
p3014
aS'57015'
p3015
aS'57323'
p3016
aS'57495'
p3017
aS'57631'
p3018
aS'33021'
p3019
aS'33323'
p3020
aS'55002'
p3021
ag3021
aS'55111'
p3022
ag3022
aS'55626'
p3023
ag3023
aS'56034'
p3024
aS'56230'
p3025
aS'56533'
p3026
aS'56730'
p3027
aS'57021'
p3028
aS'57124'
p3029
aS'57432'
p3030
aS'57633'
p3031
aS'33031'
p3032
aS'33125'
p3033
aS'33135'
p3034
aS'33141'
p3035
aS'33143'
p3036
aS'33195'
p3037
aS'33231'
p3038
aS'33236'
p3039
aS'33421'
p3040
aS'33431'
p3041
aS'33530'
p3042
aS'33591'
p3043
aS'55110'
p3044
ag3044
aS'55113'
p3045
ag3045
aS'55117'
p3046
ag3046
aS'55305'
p3047
ag3047
aS'55308'
p3048
ag3048
aS'55316'
p3049
ag3049
aS'55321'
p3050
ag3050
aS'55338'
p3051
ag3051
aS'55458'
p3052
ag3052
aS'55474'
p3053
ag3053
aS'55627'
p3054
ag3054
aS'56013'
p3055
aS'56123'
p3056
aS'56131'
p3057
aS'56139'
p3058
aS'56149'
p3059
aS'56202'
p3060
aS'56231'
p3061
aS'56250'
p3062
aS'56434'
p3063
aS'56532'
p3064
aS'56622'
p3065
aS'56631'
p3066
aS'56634'
p3067
aS'56732'
p3068
aS'56892'
p3069
aS'57013'
p3070
aS'57034'
p3071
aS'57121'
p3072
aS'57123'
p3073
aS'57133'
p3074
aS'57138'
p3075
aS'57142'
p3076
aS'57175'
p3077
aS'57177'
p3078
aS'57324'
p3079
aS'57332'
p3080
aS'57336'
p3081
aS'57361'
p3082
aS'57393'
p3083
aS'57397'
p3084
aS'57422'
p3085
aS'57434'
p3086
aS'57438'
p3087
aS'57474'
p3088
aS'57498'
p3089
aS'57528'
p3090
aS'57532'
p3091
aS'57536'
p3092
asS'Jaipur 5 Rajasecretariat'
p3093
(lp3094
S'302005'
p3095
aS'302005'
p3096
asS'Jamartice'
p3097
(lp3098
S'795 01'
p3099
asS'Javorn\xc3\xadk'
p3100
(lp3101
S'384 73'
p3102
aS'568 02'
p3103
aS'543 72'
p3104
asS'Johnston'
p3105
(lp3106
S'02919'
p3107
aS'50131'
p3108
aS'02919'
p3109
asS'Jagatsinghpur Bazar'
p3110
(lp3111
S'754103'
p3112
aS'754103'
p3113
asS'Jasenice'
p3114
(lp3115
S'675 71'
p3116
aS'756 41'
p3117
asS'Jamjuri'
p3118
(lp3119
S'799123'
p3120
aS'799123'
p3121
asS'Jawahar Nagar'
p3122
(lp3123
S'110007'
p3124
aS'600082'
p3125
aS'110007'
p3126
aS'600082'
p3127
asS'Josefovice'
p3128
(lp3129
S'742 83'
p3130
asS'Jen\xc3\xadkov'
p3131
(lp3132
S'417 24'
p3133
asS'Jivina'
p3134
(lp3135
S'267 62'
p3136
aS'294 14'
p3137
aS'512 63'
p3138
asS'Jesse'
p3139
(lp3140
S'24849'
p3141
aS'24849'
p3142
asS'Jagerberg'
p3143
(lp3144
S'8091'
p3145
aS'8091'
p3146
asS'Jarmen'
p3147
(lp3148
S'17126'
p3149
aS'17126'
p3150
asS'Jablo\xc5\x88any'
p3151
(lp3152
S'679 01'
p3153
aS'679 01'
p3154
asS'Jarg'
p3155
(lp3156
S'141415'
p3157
aS'141415'
p3158
aS'141415'
p3159
asS'Javorka'
p3160
(lp3161
S'538 07'
p3162
asS'Jamnagar H O'
p3163
(lp3164
S'361001'
p3165
aS'361001'
p3166
asS'Jetzelsdorf'
p3167
(lp3168
S'2053'
p3169
aS'2053'
p3170
asS'Jizbick\xc3\xa1 Zavadilka'
p3171
(lp3172
S'288 02'
p3173
asS'Je\xc5\x99\xc3\xa1b'
p3174
(lp3175
S'460 07'
p3176
asS'Jakh'
p3177
(lp3178
g1625
ag1707
asS'Je\xc5\xbekovice'
p3179
(lp3180
S'517 21'
p3181
asS'Ji\xc4\x8dina'
p3182
(lp3183
S'741 01'
p3184
asS'Jatznick'
p3185
(lp3186
S'17309'
p3187
aS'17309'
p3188
asS'Jacksonville'
p3189
(lp3190
S'05342'
p3191
aS'32099'
p3192
aS'32216'
p3193
aS'32256'
p3194
aS'72076'
p3195
aS'72076'
p3196
aS'32216'
p3197
aS'32256'
p3198
aS'32099'
p3199
aS'05342'
p3200
asS'Jamison Centre'
p3201
(lp3202
S'2614'
p3203
aS'2614'
p3204
asS'Johnstown'
p3205
(lp3206
S'15904'
p3207
aS'15904'
p3208
asS'J\xc3\xa4rbo'
p3209
(lp3210
S'81171'
p3211
aS'81171'
p3212
asS'Jarmundi'
p3213
(lp3214
g977
ag1073
asS'Jormannsdorf'
p3215
(lp3216
S'7431'
p3217
aS'7431'
p3218
asS'Ji\xc4\x8d\xc3\xadn'
p3219
(lp3220
S'508 01'
p3221
aS'507 81'
p3222
aS'507 43'
p3223
aS'507 06'
p3224
aS'507 23'
p3225
ag714
aS'507 52'
p3226
aS'507 91'
p3227
aS'507 12'
p3228
aS'507 04'
p3229
aS'507 21'
p3230
aS'507 44'
p3231
ag2100
aS'507 77'
p3232
aS'507 73'
p3233
aS'507 03'
p3234
aS'507 13'
p3235
aS'507 54'
p3236
ag2368
ag128
aS'506 01'
p3237
aS'506 01'
p3238
aS'506 01'
p3239
ag2594
aS'506 01'
p3240
ag1807
ag1972
ag122
aS'506 01'
p3241
aS'506 01'
p3242
aS'506 01'
p3243
aS'506 01'
p3244
aS'506 01'
p3245
aS'506 01'
p3246
aS'506 01'
p3247
aS'506 01'
p3248
aS'506 01'
p3249
aS'506 01'
p3250
aS'506 01'
p3251
aS'506 01'
p3252
aS'506 01'
p3253
aS'506 01'
p3254
aS'506 01'
p3255
aS'506 01'
p3256
aS'506 01'
p3257
aS'506 01'
p3258
aS'506 01'
p3259
aS'506 01'
p3260
aS'506 01'
p3261
aS'507 03'
p3262
aS'507 03'
p3263
aS'507 03'
p3264
aS'507 03'
p3265
ag1426
aS'507 13'
p3266
aS'507 13'
p3267
aS'507 13'
p3268
aS'507 13'
p3269
aS'507 13'
p3270
aS'507 21'
p3271
aS'507 23'
p3272
aS'507 23'
p3273
aS'507 23'
p3274
aS'507 23'
p3275
aS'507 23'
p3276
aS'507 23'
p3277
aS'507 23'
p3278
aS'507 32'
p3279
aS'507 32'
p3280
aS'507 32'
p3281
aS'507 32'
p3282
aS'507 33'
p3283
aS'507 43'
p3284
aS'507 43'
p3285
aS'507 43'
p3286
aS'507 43'
p3287
aS'507 43'
p3288
aS'507 43'
p3289
aS'507 43'
p3290
aS'507 53'
p3291
aS'507 71'
p3292
aS'507 71'
p3293
aS'507 81'
p3294
aS'507 81'
p3295
aS'507 81'
p3296
aS'507 81'
p3297
aS'507 81'
p3298
aS'507 82'
p3299
aS'507 82'
p3300
aS'507 82'
p3301
aS'508 01'
p3302
aS'508 01'
p3303
aS'508 01'
p3304
aS'508 01'
p3305
aS'508 01'
p3306
aS'508 01'
p3307
aS'506 01'
p3308
aS'507 03'
p3309
aS'508 01'
p3310
asS'Jaspal Bangar'
p3311
(lp3312
S'141122'
p3313
aS'141122'
p3314
aS'141122'
p3315
asS'Juneau'
p3316
(lp3317
S'53039'
p3318
aS'99801'
p3319
aS'99803'
p3320
aS'99801'
p3321
aS'99803'
p3322
aS'53039'
p3323
asS'Jetonice'
p3324
(lp3325
S'538 03'
p3326
asS'Jean-Talon Southeast'
p3327
(lp3328
S'G1G'
p3329
aS'G1G'
p3330
asS'Jangli Ghat'
p3331
(lp3332
S'744103'
p3333
aS'744103'
p3334
asS'Jamn\xc3\xa9'
p3335
(lp3336
S'370 01'
p3337
ag2260
asS'Jirsko 1.d\xc3\xadl'
p3338
(lp3339
S'294 11'
p3340
asS'Jerez De La Frontera'
p3341
(lp3342
S'11402'
p3343
aS'11405'
p3344
aS'11407'
p3345
aS'11402'
p3346
aS'11405'
p3347
aS'11407'
p3348
asS'Jamn\xc3\xbd'
p3349
(lp3350
S'397 01'
p3351
asS'Ji\xc5\x99ice u Miroslavi'
p3352
(lp3353
S'671 78'
p3354
asS'J\xc3\xa1sz\xc3\xa1g\xc3\xb3'
p3355
(lp3356
g1206
ag1237
asS'Jan\xc5\xafv D\xc5\xafl'
p3357
(lp3358
S'460 07'
p3359
aS'463 52'
p3360
as.