(dp1
S'Gachibowli'
p2
(lp3
S'500032'
p4
aS'500032'
p5
asS'Gr\xc3\xbcnwald'
p6
(lp7
S'82031'
p8
aS'82031'
p9
asS'Gide\xc3\xa5'
p10
(lp11
S'89037'
p12
aS'89037'
p13
asS'Ganna'
p14
(lp15
S'8597'
p16
asS'G\xc3\xb6ppingen'
p17
(lp18
S'73033'
p19
aS'73037'
p20
aS'73037'
p21
asS'Gryllefjord'
p22
(lp23
S'9380'
p24
aS'9380'
p25
asS'Gawler'
p26
(lp27
S'5118'
p28
aS'5118'
p29
asS'Galgam\xc3\xa1csa'
p30
(lp31
S'2183'
p32
aS'2183'
p33
asS'Goppenstein'
p34
(lp35
S'3917'
p36
asS'Gerersdorf bei G\xc3\xbcssing'
p37
(lp38
S'7542'
p39
asS'Giriak'
p40
(lp41
S'803109'
p42
aS'803109'
p43
asS'Gro\xe2\x88\x9a\xc3\xbcmugl'
p44
(lp45
S'2002'
p46
aS'2014'
p47
aS'2020'
p48
aS'2053'
p49
aS'2124'
p50
aS'2141'
p51
aS'2144'
p52
aS'2164'
p53
aS'2171'
p54
aS'2192'
p55
aS'2211'
p56
aS'2214'
p57
aS'2215'
p58
aS'2222'
p59
aS'2232'
p60
aS'2263'
p61
aS'2265'
p62
aS'2275'
p63
aS'2282'
p64
aS'2286'
p65
aS'2292'
p66
aS'2301'
p67
aS'2333'
p68
aS'2334'
p69
aS'2352'
p70
aS'2353'
p71
aS'2362'
p72
aS'2442'
p73
aS'2460'
p74
aS'2464'
p75
aS'2483'
p76
aS'2521'
p77
aS'2540'
p78
aS'2542'
p79
aS'2640'
p80
aS'2734'
p81
aS'2751'
p82
aS'2754'
p83
aS'2770'
p84
aS'3150'
p85
aS'3264'
p86
aS'3300'
p87
aS'3382'
p88
aS'3390'
p89
aS'3420'
p90
aS'3462'
p91
aS'3542'
p92
aS'3601'
p93
aS'3633'
p94
aS'3710'
p95
aS'3822'
p96
aS'3874'
p97
aS'3970'
p98
asS'Gencsap\xc3\xa1ti'
p99
(lp100
S'9721'
p101
aS'9721'
p102
asS'Gro\xc3\x9fsch\xc3\xb6nau'
p103
(lp104
S'02779'
p105
aS'02779'
p106
asS'Grand Haven'
p107
(lp108
S'49417'
p109
aS'49417'
p110
asS'Gro\xc3\x9f Nemerow'
p111
(lp112
S'17094'
p113
aS'17094'
p114
asS'Gabrielka'
p115
(lp116
S'394 70'
p117
asS'Geroldswil'
p118
(lp119
S'8954'
p120
aS'8954'
p121
asS'Granja De Torrehermosa'
p122
(lp123
S'06910'
p124
aS'06910'
p125
asS'Grenada'
p126
(lp127
S'38901'
p128
aS'38901'
p129
asS'Gyermely'
p130
(lp131
S'2821'
p132
aS'2821'
p133
asS'Galterud'
p134
(lp135
S'2223'
p136
aS'2223'
p137
asS'Gen\xc3\xa8ve 10'
p138
(lp139
S'1211'
p140
asS'Gra\xc3\xb1on'
p141
(lp142
S'26259'
p143
aS'26259'
p144
asS'Gurkothu'
p145
(lp146
S'175036'
p147
aS'175036'
p148
asS'Ghanghora'
p149
(lp150
S'248141'
p151
aS'248141'
p152
asS'Ganterschwil'
p153
(lp154
S'9608'
p155
aS'9608'
p156
asS'Glenelg South'
p157
(lp158
S'5045'
p159
asS'Granollers'
p160
(lp161
S'08400'
p162
aS'08402'
p163
aS'08400'
p164
aS'08402'
p165
asS'G\xc3\xb6ttingen'
p166
(lp167
S'37073'
p168
aS'37075'
p169
aS'37079'
p170
aS'37083'
p171
aS'37075'
p172
aS'37079'
p173
aS'37083'
p174
asS'Gania'
p175
(lp176
S'752085'
p177
aS'752085'
p178
asS'Gondomar'
p179
(lp180
S'36380'
p181
aS'36380'
p182
asS'Gyarmat'
p183
(lp184
S'8545'
p185
aS'8545'
p186
asS'Goshen'
p187
(lp188
S'40026'
p189
aS'46526'
p190
aS'46526'
p191
aS'40026'
p192
asS'Gro\xc3\x9f-Umstadt'
p193
(lp194
S'64823'
p195
aS'64823'
p196
asS'Goldau'
p197
(lp198
S'6410'
p199
aS'6415'
p200
aS'6418'
p201
aS'6424'
p202
aS'6431'
p203
ag203
aS'6434'
p204
aS'6436'
p205
aS'6440'
p206
aS'8640'
p207
aS'8806'
p208
aS'8807'
p209
aS'8835'
p210
aS'8842'
p211
aS'8843'
p212
aS'8847'
p213
aS'8849'
p214
aS'8853'
p215
aS'8854'
p216
aS'8856'
p217
aS'8857'
p218
aS'8863'
p219
aS'8864'
p220
aS'6410'
p221
ag221
aS'6440'
p222
aS'8840'
p223
aS'6431'
p224
ag224
aS'8806'
p225
aS'8854'
p226
aS'6415'
p227
aS'6436'
p228
aS'8842'
p229
aS'8854'
p230
aS'8856'
p231
aS'6414'
p232
aS'6418'
p233
aS'6434'
p234
aS'8807'
p235
aS'8835'
p236
aS'8840'
p237
aS'8843'
p238
aS'8849'
p239
aS'6403'
p240
aS'8640'
p241
aS'8857'
p242
aS'6410'
p243
aS'6436'
p244
aS'8847'
p245
aS'8864'
p246
aS'6410'
p247
aS'6424'
p248
aS'6436'
p249
aS'8863'
p250
aS'8808'
p251
aS'6430'
p252
aS'6403'
p253
aS'8853'
p254
aS'6424'
p255
aS'8854'
p256
asS'Gabakund'
p257
(lp258
S'752045'
p259
aS'752045'
p260
asS'Gazzera'
p261
(lp262
S'30174'
p263
aS'30174'
p264
asS'Groton'
p265
(lp266
S'01450'
p267
aS'01450'
p268
asS'Gen\xc3\xa8ve 2 Swisscom'
p269
(lp270
S'1211'
p271
asS'Gustafs'
p272
(lp273
S'78350'
p274
aS'78350'
p275
asS'Garding'
p276
(lp277
S'25836'
p278
aS'25836'
p279
asS'Grand Bay-Westfield'
p280
(lp281
S'E5K'
p282
aS'E5K'
p283
aS'E5K'
p284
asS'Guaza'
p285
(lp286
S'38627'
p287
asS'Ghanaur'
p288
(lp289
S'140702'
p290
aS'140702'
p291
aS'140702'
p292
asS'Genova'
p293
(lp294
S'16121'
p295
aS'16122'
p296
ag296
aS'16126'
p297
ag297
aS'16129'
p298
ag298
aS'16146'
p299
ag299
aS'17100'
p300
aS'16100'
p301
ag301
aS'16152'
p302
ag302
aS'16138'
p303
ag303
aS'16147'
p304
ag304
aS'16154'
p305
ag305
aS'19100'
p306
aS'16133'
p307
ag307
aS'16137'
p308
ag308
aS'16141'
p309
ag309
aS'16151'
p310
ag310
aS'16155'
p311
ag311
aS'16158'
p312
ag312
aS'16162'
p313
ag313
aS'16165'
p314
ag314
aS'16144'
p315
ag315
aS'16159'
p316
ag316
aS'16135'
p317
ag317
aS'16154'
p318
aS'16166'
p319
ag319
aS'16155'
p320
aS'16164'
p321
aS'16158'
p322
aS'18100'
p323
aS'19137'
p324
aS'18100'
p325
aS'16133'
p326
aS'19139'
p327
aS'19132'
p328
aS'16159'
p329
aS'19125'
p330
aS'16147'
p331
aS'16153'
p332
aS'16166'
p333
aS'19133'
p334
aS'16151'
p335
aS'16155'
p336
aS'19121'
p337
aS'19132'
p338
aS'19134'
p339
aS'16158'
p340
aS'19126'
p341
aS'19136'
p342
aS'16133'
p343
aS'16141'
p344
aS'16157'
p345
aS'16163'
p346
aS'16167'
p347
aS'17100'
p348
aS'18100'
p349
aS'19122'
p350
aS'19123'
p351
aS'19125'
p352
aS'19132'
p353
aS'19135'
p354
aS'19136'
p355
aS'19138'
p356
aS'16100'
p357
ag357
aS'16121'
p358
ag358
aS'16122'
p359
ag359
aS'16126'
p360
ag360
aS'16129'
p361
ag361
aS'16133'
p362
aS'16135'
p363
ag363
aS'16137'
p364
ag364
aS'16138'
p365
ag365
aS'16141'
p366
ag366
aS'16144'
p367
ag367
aS'16146'
p368
ag368
aS'16147'
p369
ag369
aS'16151'
p370
aS'16152'
p371
ag371
aS'16153'
p372
aS'16154'
p373
ag373
aS'16155'
p374
ag374
aS'16157'
p375
aS'16158'
p376
aS'16159'
p377
ag377
aS'16162'
p378
ag378
aS'16163'
p379
aS'16164'
p380
aS'16165'
p381
ag381
aS'16166'
p382
ag382
aS'16167'
p383
aS'17100'
p384
aS'18100'
p385
aS'19100'
p386
aS'19121'
p387
aS'19122'
p388
aS'19123'
p389
aS'19125'
p390
aS'19126'
p391
aS'19132'
p392
aS'19133'
p393
aS'19134'
p394
aS'19135'
p395
aS'19136'
p396
aS'19137'
p397
aS'19138'
p398
aS'19139'
p399
asS'Gro\xc3\x9fmugl'
p400
(lp401
S'2002'
p402
asS'Giumaglio'
p403
(lp404
S'6678'
p405
aS'6678'
p406
asS'Guty'
p407
(lp408
S'739 55'
p409
asS'Gilman'
p410
(lp411
S'50106'
p412
aS'50106'
p413
asS'Gr\xc3\xb6dig'
p414
(lp415
S'5082'
p416
asS'Garuphela Bazar'
p417
(lp418
S'783362'
p419
aS'783362'
p420
asS'Grossaffoltern'
p421
(lp422
S'3257'
p423
aS'3257'
p424
asS'Garjee'
p425
(lp426
S'799125'
p427
aS'799125'
p428
asS'Godella'
p429
(lp430
S'46110'
p431
aS'46110'
p432
asS'Gro\xc3\x9ffeldsiedlung'
p433
(lp434
S'1210'
p435
asS'Gy\xc3\xb6ngy\xc3\xb6starj\xc3\xa1n'
p436
(lp437
S'3036'
p438
aS'3036'
p439
asS'Gillarens'
p440
(lp441
S'1673'
p442
aS'1673'
p443
asS'Grandvillard'
p444
(lp445
S'1666'
p446
aS'1666'
p447
asS'Gau-Odernheim'
p448
(lp449
S'55239'
p450
aS'55239'
p451
asS'Gresten'
p452
(lp453
S'3264'
p454
ag86
asS'Ginzling'
p455
(lp456
S'6295'
p457
aS'6295'
p458
asS'Gaupen'
p459
(lp460
S'2355'
p461
aS'2355'
p462
asS'Grande Prairie Central'
p463
(lp464
S'T8V'
p465
aS'T8V'
p466
asS'Gossain Gaon'
p467
(lp468
S'783360'
p469
aS'783360'
p470
asS'G\xe2\x88\x9a\xe2\x88\x82ming'
p471
(lp472
S'5114'
p473
asS'G\xc3\xb6ttlesbrunn'
p474
(lp475
S'2464'
p476
asS'Garafia'
p477
(lp478
S'38787'
p479
aS'38787'
p480
asS'Gjes\xc3\xa5sen'
p481
(lp482
S'2280'
p483
aS'2280'
p484
asS'G\xe2\x88\x9a\xe2\x88\x82rtschach'
p485
(lp486
S'9615'
p487
asS'Gro\xc3\x9f-Gerau'
p488
(lp489
S'64521'
p490
aS'64521'
p491
asS'Gadsden'
p492
(lp493
S'29052'
p494
aS'29052'
p495
asS'G\xc3\xb6teborg'
p496
(lp497
S'40015'
p498
aS'40032'
p499
ag499
aS'40053'
p500
ag500
aS'40091'
p501
ag501
aS'40120'
p502
ag502
aS'40530'
p503
ag503
aS'41104'
p504
ag504
aS'41107'
p505
ag505
aS'41136'
p506
ag506
aS'41139'
p507
ag507
aS'41250'
p508
ag508
aS'41265'
p509
ag509
aS'41266'
p510
ag510
aS'41296'
p511
ag511
aS'41328'
p512
ag512
aS'41345'
p513
ag513
aS'41451'
p514
ag514
aS'41503'
p515
ag515
aS'41507'
p516
ag516
aS'41664'
p517
ag517
aS'41674'
p518
ag518
aS'41707'
p519
ag519
aS'41744'
p520
ag520
aS'41755'
p521
ag521
aS'41834'
p522
ag522
aS'42123'
p523
aS'42130'
p524
aS'42132'
p525
aS'42139'
p526
aS'42243'
p527
aS'42246'
p528
aS'42432'
p529
aS'42439'
p530
aS'42502'
p531
aS'42534'
p532
aS'42565'
p533
aS'42605'
p534
aS'42654'
p535
aS'42721'
p536
aS'42834'
p537
aS'43033'
p538
aS'43091'
p539
aS'43124'
p540
aS'43133'
p541
aS'43137'
p542
aS'43153'
p543
aS'43304'
p544
aS'43544'
p545
aS'43632'
p546
aS'43735'
p547
aS'43892'
p548
aS'44180'
p549
aS'44240'
p550
aS'44294'
p551
aS'44331'
p552
aS'44339'
p553
aS'44421'
p554
aS'44423'
p555
aS'45043'
p556
aS'45071'
p557
aS'45152'
p558
aS'45193'
p559
aS'45194'
p560
aS'45230'
p561
aS'46064'
p562
aS'46138'
p563
aS'46235'
p564
aS'47141'
p565
aS'50115'
p566
aS'50336'
p567
aS'50412'
p568
aS'50431'
p569
aS'50494'
p570
aS'50740'
p571
aS'50742'
p572
aS'51104'
p573
aS'51156'
p574
aS'51157'
p575
aS'51491'
p576
aS'52010'
p577
aS'52040'
p578
aS'52102'
p579
aS'52141'
p580
aS'52231'
p581
aS'52326'
p582
aS'52390'
p583
aS'53102'
p584
aS'53198'
p585
aS'53374'
p586
aS'54106'
p587
aS'54128'
p588
aS'54131'
p589
aS'54421'
p590
aS'54531'
p591
aS'40032'
p592
ag592
aS'40530'
p593
ag593
aS'41296'
p594
ag594
aS'41451'
p595
ag595
aS'42130'
p596
aS'42132'
p597
aS'42534'
p598
aS'43153'
p599
aS'43632'
p600
aS'44339'
p601
aS'51157'
p602
aS'52326'
p603
aS'53374'
p604
aS'41250'
p605
ag605
aS'41674'
p606
ag606
aS'42246'
p607
aS'42502'
p608
aS'43033'
p609
aS'43137'
p610
aS'44240'
p611
aS'45193'
p612
aS'50412'
p613
aS'50742'
p614
aS'52040'
p615
aS'53198'
p616
aS'54128'
p617
aS'40015'
p618
ag618
aS'40091'
p619
ag619
aS'41101'
p620
ag620
aS'41104'
p621
ag621
aS'41107'
p622
ag622
aS'41136'
p623
ag623
aS'41266'
p624
ag624
aS'41328'
p625
ag625
aS'41503'
p626
ag626
aS'41664'
p627
ag627
aS'41707'
p628
ag628
aS'41755'
p629
ag629
aS'41834'
p630
ag630
aS'42123'
p631
aS'42139'
p632
aS'42432'
p633
aS'42605'
p634
aS'42654'
p635
aS'42721'
p636
aS'43091'
p637
aS'43124'
p638
aS'43304'
p639
aS'43521'
p640
aS'43544'
p641
aS'43735'
p642
aS'43892'
p643
aS'44180'
p644
aS'44294'
p645
aS'44331'
p646
aS'44421'
p647
aS'44423'
p648
aS'45043'
p649
aS'45071'
p650
aS'45152'
p651
aS'45194'
p652
aS'45230'
p653
aS'46064'
p654
aS'46138'
p655
aS'46235'
p656
aS'47141'
p657
aS'50115'
p658
aS'50336'
p659
aS'50431'
p660
aS'50494'
p661
aS'50740'
p662
aS'51104'
p663
aS'51156'
p664
aS'51491'
p665
aS'52010'
p666
aS'52102'
p667
aS'52141'
p668
aS'52231'
p669
aS'52390'
p670
aS'53102'
p671
aS'53221'
p672
aS'54106'
p673
aS'54131'
p674
aS'54421'
p675
aS'54531'
p676
aS'40013'
p677
ag677
aS'40053'
p678
ag678
aS'40120'
p679
ag679
aS'41139'
p680
ag680
aS'41265'
p681
ag681
aS'41345'
p682
ag682
aS'41507'
p683
ag683
aS'41744'
p684
ag684
aS'42243'
p685
aS'42439'
p686
aS'42565'
p687
aS'42834'
p688
aS'43133'
p689
asS'Gardelegen'
p690
(lp691
S'39638'
p692
aS'39638'
p693
asS'Geraldton'
p694
(lp695
S'6530'
p696
aS'6530'
p697
asS'Ghagwal'
p698
(lp699
S'184141'
p700
aS'184141'
p701
asS'Ganesh Nagar'
p702
(lp703
S'600088'
p704
aS'600088'
p705
asS'Giralang'
p706
(lp707
S'2617'
p708
asS'Gunten'
p709
(lp710
S'3654'
p711
asS'Gro\xc3\x9frosseln'
p712
(lp713
S'66352'
p714
aS'66352'
p715
asS'Gibson'
p716
(lp717
S'50104'
p718
aS'50104'
p719
asS'Great Cacapon'
p720
(lp721
S'25422'
p722
aS'25422'
p723
asS'Gimo'
p724
(lp725
S'74702'
p726
aS'74742'
p727
aS'74702'
p728
aS'74742'
p729
asS'G\xe2\x88\x9a\xe2\x88\x82ttlesbrunn'
p730
(lp731
g75
asS'Grandview'
p732
(lp733
S'64030'
p734
aS'64030'
p735
asS'Glen Burnie'
p736
(lp737
S'21061'
p738
aS'21061'
p739
asS'Greenbank'
p740
(lp741
S'98253'
p742
aS'98253'
p743
asS'Gunterswilen'
p744
(lp745
S'8564'
p746
asS'Gnesta'
p747
(lp748
S'64630'
p749
aS'64634'
p750
aS'64691'
p751
aS'64630'
p752
aS'64634'
p753
aS'64691'
p754
asS'Graus'
p755
(lp756
S'22430'
p757
aS'22430'
p758
asS'Gold Hill'
p759
(lp760
S'28071'
p761
aS'28071'
p762
asS'Gea Y Truyols'
p763
(lp764
S'30590'
p765
aS'30590'
p766
asS'Grandvaux'
p767
(lp768
S'1091'
p769
asS'Gazzi'
p770
(lp771
S'98124'
p772
aS'98124'
p773
asS'Gabbs'
p774
(lp775
S'89409'
p776
aS'89409'
p777
asS'Greendale'
p778
(lp779
S'53129'
p780
aS'53129'
p781
asS'Guntmadingen'
p782
(lp783
S'8223'
p784
aS'8223'
p785
asS'Green Valley'
p786
(lp787
S'85614'
p788
aS'85614'
p789
asS'Glynde Plaza'
p790
(lp791
S'5070'
p792
aS'5070'
p793
asS'Gauchar'
p794
(lp795
S'246429'
p796
aS'246429'
p797
asS'Gyan\xc3\xb3geregye'
p798
(lp799
S'9774'
p800
aS'9774'
p801
asS'Granja Nova'
p802
(lp803
S'4870-211'
p804
aS'4870-211'
p805
asS'Gaibola'
p806
(lp807
S'40136'
p808
aS'40136'
p809
asS'Gettnau'
p810
(lp811
S'6142'
p812
aS'6142'
p813
asS'Gandhi Nagar'
p814
(lp815
S'560009'
p816
asS'Glendora'
p817
(lp818
S'38928'
p819
aS'38928'
p820
asS'Guadalupe'
p821
(lp822
S'9880-021'
p823
aS'9880-021'
p824
aS'30107'
p825
asS'Gaspoltshofen'
p826
(lp827
S'4673'
p828
aS'4673'
p829
asS'Gambrills'
p830
(lp831
S'21054'
p832
aS'21054'
p833
asS'Guwahati University H O'
p834
(lp835
S'781014'
p836
aS'781014'
p837
asS'Gnosj\xc3\xb6'
p838
(lp839
S'33530'
p840
aS'33533'
p841
aS'33591'
p842
aS'33533'
p843
aS'33530'
p844
aS'33591'
p845
asS'Gen\xc3\xa8ve Services Sp\xc3\xa9ciaux'
p846
(lp847
S'1289'
p848
aS'1289'
p849
asS'Geschwenda'
p850
(lp851
S'98716'
p852
aS'98716'
p853
asS'Guthrie'
p854
(lp855
S'73044'
p856
aS'73044'
p857
asS'Ganguly Bagan'
p858
(lp859
S'700047'
p860
aS'700047'
p861
asS'G\xc3\xa4llstad'
p862
(lp863
g577
ag666
asS'Guntershausen b. Aadorf'
p864
(lp865
S'8357'
p866
aS'8357'
p867
asS'Gornergrat'
p868
(lp869
S'3920'
p870
aS'3920'
p871
asS'Garbyang'
p872
(lp873
S'262546'
p874
aS'262546'
p875
asS'Gy\xc5\x91rs\xc3\xb6v\xc3\xa9nyh\xc3\xa1z'
p876
(lp877
S'9161'
p878
asS'Gy\xc5\x91rs\xc3\xa1g'
p879
(lp880
S'9084'
p881
aS'9084'
p882
asS'Guma'
p883
(lp884
S'171017'
p885
aS'171017'
p886
asS'Garland City'
p887
(lp888
S'71839'
p889
aS'71839'
p890
asS'Grytg\xc3\xb6l'
p891
(lp892
S'61011'
p893
aS'61011'
p894
asS'Glion'
p895
(lp896
S'1823'
p897
aS'1823'
p898
asS'Glen Osmond'
p899
(lp900
S'5064'
p901
asS'Gould'
p902
(lp903
S'71643'
p904
aS'71643'
p905
asS'Ginestreto'
p906
(lp907
S'61100'
p908
asS'Gaston'
p909
(lp910
S'97119'
p911
aS'97119'
p912
asS'Gro\xc3\x9fenaspe'
p913
(lp914
S'24623'
p915
aS'24623'
p916
asS'Godvik'
p917
(lp918
S'5179'
p919
aS'5179'
p920
asS'Gen\xc3\xa8ve 11'
p921
(lp922
S'1200'
p923
asS'Gand\xc3\xada'
p924
(lp925
S'46700'
p926
asS'Gen\xc3\xa8ve 13'
p927
(lp928
S'1211'
p929
asS'Gen\xc3\xa8ve 12'
p930
(lp931
S'1211'
p932
aS'1200'
p933
asS'Greenfield'
p934
(lp935
S'01301'
p936
aS'03047'
p937
aS'46140'
p938
aS'46140'
p939
aS'01301'
p940
aS'03047'
p941
asS'Gabhana'
p942
(lp943
S'202136'
p944
aS'202136'
p945
asS'Gen\xc3\xa8ve 18'
p946
(lp947
S'1211'
p948
aS'1200'
p949
asS'Ghanghli'
p950
(lp951
S'364241'
p952
aS'364241'
p953
asS'Granges (Veveyse)'
p954
(lp955
S'1614'
p956
asS'Garrapinillos'
p957
(lp958
S'50190'
p959
aS'50190'
p960
asS'Gallatin'
p961
(lp962
S'37066'
p963
aS'37066'
p964
asS'Gholeng'
p965
(lp966
S'496338'
p967
aS'496338'
p968
asS'Grot\xc3\xa3o'
p969
(lp970
S'9960-350'
p971
aS'9960-350'
p972
asS'Grosse Pointe'
p973
(lp974
S'48236'
p975
aS'48236'
p976
asS'Gattman'
p977
(lp978
S'38844'
p979
aS'38844'
p980
asS'G\xc3\xbcstrow'
p981
(lp982
S'18273'
p983
aS'18273'
p984
asS'Giddi'
p985
(lp986
S'829108'
p987
aS'829108'
p988
asS'Graubunden'
p989
(lp990
S'6537'
p991
aS'6538'
p992
aS'6542'
p993
aS'6546'
p994
aS'6548'
p995
aS'6556'
p996
aS'6557'
p997
aS'7000'
p998
aS'7002'
p999
aS'7004'
p1000
aS'7007'
p1001
aS'7016'
p1002
aS'7017'
p1003
aS'7018'
p1004
aS'7050'
p1005
aS'7057'
p1006
aS'7074'
p1007
aS'7075'
p1008
aS'7076'
p1009
aS'7078'
p1010
aS'7106'
p1011
aS'7127'
p1012
aS'7133'
p1013
aS'7138'
p1014
aS'7141'
p1015
aS'7146'
p1016
aS'7147'
p1017
aS'7152'
p1018
aS'7157'
p1019
aS'7159'
p1020
aS'7168'
p1021
aS'7172'
p1022
aS'7188'
p1023
aS'7204'
p1024
aS'7206'
p1025
aS'7220'
p1026
aS'7231'
p1027
aS'7233'
p1028
aS'7235'
p1029
aS'7250'
p1030
aS'7265'
p1031
aS'7272'
p1032
aS'7277'
p1033
aS'7278'
p1034
aS'7402'
p1035
aS'7403'
p1036
aS'7405'
p1037
aS'7412'
p1038
aS'7415'
p1039
aS'7419'
p1040
aS'7425'
p1041
aS'7433'
p1042
aS'7438'
p1043
aS'7442'
p1044
aS'7444'
p1045
aS'7448'
p1046
aS'7450'
p1047
aS'7454'
p1048
aS'7456'
p1049
aS'7459'
p1050
aS'7477'
p1051
aS'7492'
p1052
aS'7512'
p1053
aS'7524'
p1054
aS'7532'
p1055
aS'7537'
p1056
aS'7545'
p1057
aS'7554'
p1058
aS'7742'
p1059
aS'7743'
p1060
aS'7000'
p1061
aS'7500'
p1062
aS'7002'
p1063
aS'7050'
p1064
aS'7250'
p1065
aS'7304'
p1066
aS'7503'
p1067
aS'7524'
p1068
aS'7007'
p1069
aS'7017'
p1070
aS'7188'
p1071
aS'7204'
p1072
aS'7220'
p1073
aS'7402'
p1074
aS'7513'
p1075
aS'6537'
p1076
ag1076
aS'7004'
p1077
aS'7015'
p1078
aS'7075'
p1079
aS'7078'
p1080
aS'7132'
p1081
aS'7144'
p1082
aS'7148'
p1083
aS'7159'
p1084
aS'7172'
p1085
aS'7206'
p1086
aS'7213'
p1087
aS'7235'
p1088
aS'7265'
p1089
aS'7277'
p1090
aS'7403'
p1091
aS'7412'
p1092
aS'7432'
p1093
aS'7435'
p1094
aS'7450'
p1095
aS'7477'
p1096
aS'7512'
p1097
aS'7537'
p1098
aS'7545'
p1099
aS'7554'
p1100
aS'7742'
p1101
aS'6557'
p1102
aS'6562'
p1103
aS'7018'
p1104
aS'7076'
p1105
aS'7138'
p1106
aS'7147'
p1107
aS'7233'
p1108
aS'7272'
p1109
aS'7405'
p1110
aS'7423'
p1111
aS'7438'
p1112
aS'7453'
p1113
aS'7459'
p1114
aS'7492'
p1115
aS'7532'
p1116
aS'7743'
p1117
aS'6538'
p1118
aS'6542'
p1119
aS'6546'
p1120
aS'6548'
p1121
aS'6556'
p1122
aS'7016'
p1123
aS'7026'
p1124
aS'7057'
p1125
aS'7074'
p1126
aS'7106'
p1127
aS'7109'
p1128
aS'7112'
p1129
aS'7122'
p1130
aS'7127'
p1131
aS'7133'
p1132
aS'7141'
p1133
aS'7146'
p1134
aS'7152'
p1135
aS'7155'
p1136
aS'7157'
p1137
aS'7163'
p1138
aS'7168'
p1139
aS'7175'
p1140
aS'7185'
p1141
aS'7201'
p1142
aS'7215'
p1143
aS'7231'
p1144
aS'7243'
p1145
aS'7278'
p1146
aS'7307'
p1147
aS'7411'
p1148
aS'7415'
p1149
aS'7419'
p1150
aS'7422'
p1151
aS'7425'
p1152
aS'7427'
p1153
aS'7431'
p1154
aS'7433'
p1155
aS'7442'
p1156
aS'7444'
p1157
aS'7448'
p1158
aS'7454'
p1159
aS'7456'
p1160
asS'Gholtir'
p1161
(lp1162
S'246438'
p1163
aS'246438'
p1164
asS'Gandhi Bhawan'
p1165
(lp1166
S'753001'
p1167
aS'753001'
p1168
asS'Glasgow'
p1169
(lp1170
S'42141'
p1171
aS'42141'
p1172
asS'Gen\xc3\xa8ve 16'
p1173
(lp1174
S'1211'
p1175
asS'Gy\xc5\x91r-Moson-Sopron'
p1176
(lp1177
S'9400'
p1178
aS'9022'
p1179
aS'9024'
p1180
aS'9028'
p1181
aS'9224'
p1182
aS'9026'
p1183
aS'9002'
p1184
aS'9012'
p1185
aS'9225'
p1186
aS'9401'
p1187
ag1187
aS'9451'
p1188
aS'9029'
p1189
aS'9081'
p1190
aS'9100'
p1191
aS'9151'
p1192
aS'9155'
p1193
aS'9174'
p1194
aS'9201'
p1195
aS'9228'
p1196
aS'9343'
p1197
aS'9421'
p1198
aS'9437'
p1199
aS'9474'
p1200
aS'9485'
p1201
aS'9495'
p1202
aS'9007'
p1203
aS'9143'
p1204
aS'9178'
p1205
aS'9226'
p1206
aS'9317'
p1207
aS'9461'
p1208
aS'9061'
p1209
aS'9073'
p1210
ag881
aS'9091'
p1211
aS'9097'
p1212
aS'9113'
p1213
aS'9141'
p1214
aS'9144'
p1215
aS'9154'
p1216
aS'9172'
p1217
aS'9176'
p1218
aS'9223'
p1219
aS'9232'
p1220
aS'9245'
p1221
aS'9324'
p1222
aS'9327'
p1223
aS'9342'
p1224
aS'9351'
p1225
aS'9362'
p1226
aS'9374'
p1227
aS'9436'
p1228
aS'9443'
p1229
aS'9476'
p1230
ag185
aS'9013'
p1231
aS'9063'
p1232
aS'9085'
p1233
aS'9096'
p1234
aS'9112'
p1235
aS'9124'
p1236
aS'9146'
p1237
ag878
aS'9163'
p1238
aS'9169'
p1239
aS'9234'
p1240
aS'9235'
p1241
aS'9312'
p1242
aS'9315'
p1243
aS'9321'
p1244
aS'9345'
p1245
aS'9352'
p1246
aS'9364'
p1247
aS'9372'
p1248
aS'9406'
p1249
ag1249
aS'9441'
p1250
aS'9481'
p1251
aS'9491'
p1252
aS'9092'
p1253
aS'9133'
p1254
aS'9165'
p1255
aS'9313'
p1256
aS'9353'
p1257
aS'9464'
p1258
aS'9134'
p1259
aS'9164'
p1260
aS'9331'
p1261
aS'9346'
p1262
aS'9462'
p1263
aS'8534'
p1264
aS'9020'
p1265
aS'9165'
p1266
aS'9243'
p1267
aS'9327'
p1268
aS'9343'
p1269
aS'9433'
p1270
aS'9133'
p1271
aS'8534'
p1272
ag186
aS'9002'
p1273
aS'9007'
p1274
aS'9012'
p1275
aS'9013'
p1276
aS'9020'
p1277
aS'9022'
p1278
aS'9024'
p1279
aS'9026'
p1280
aS'9028'
p1281
aS'9029'
p1282
aS'9073'
p1283
aS'9081'
p1284
ag882
aS'9085'
p1285
aS'9091'
p1286
aS'9092'
p1287
aS'9096'
p1288
aS'9097'
p1289
aS'9113'
p1290
aS'9124'
p1291
aS'9133'
p1292
aS'9134'
p1293
aS'9143'
p1294
aS'9144'
p1295
aS'9151'
p1296
aS'9154'
p1297
aS'9155'
p1298
aS'9163'
p1299
aS'9164'
p1300
aS'9165'
p1301
aS'9169'
p1302
aS'9172'
p1303
aS'9174'
p1304
aS'9176'
p1305
aS'9178'
p1306
aS'9223'
p1307
aS'9224'
p1308
aS'9225'
p1309
aS'9226'
p1310
aS'9228'
p1311
aS'9232'
p1312
aS'9234'
p1313
aS'9235'
p1314
aS'9245'
p1315
aS'9317'
p1316
aS'9321'
p1317
aS'9324'
p1318
aS'9327'
p1319
aS'9331'
p1320
aS'9343'
p1321
aS'9351'
p1322
aS'9352'
p1323
aS'9353'
p1324
aS'9364'
p1325
aS'9372'
p1326
aS'9374'
p1327
aS'9400'
p1328
ag1328
aS'9401'
p1329
ag1329
aS'9421'
p1330
aS'9433'
p1331
aS'9436'
p1332
aS'9437'
p1333
aS'9441'
p1334
aS'9443'
p1335
aS'9461'
p1336
aS'9462'
p1337
aS'9464'
p1338
aS'9474'
p1339
aS'9485'
p1340
aS'9491'
p1341
aS'9495'
p1342
asS'Gibostad'
p1343
(lp1344
S'9372'
p1345
aS'9382'
p1346
aS'9382'
p1347
asS'Gf\xc3\xb6hl'
p1348
(lp1349
S'3542'
p1350
asS'Gy\xc3\xa9k\xc3\xa9nyes'
p1351
(lp1352
S'8851'
p1353
aS'8851'
p1354
asS'Gardner'
p1355
(lp1356
S'01440'
p1357
aS'58036'
p1358
aS'66030'
p1359
aS'66030'
p1360
aS'01440'
p1361
aS'58036'
p1362
asS'Greiz'
p1363
(lp1364
S'07973'
p1365
aS'07973'
p1366
asS'Gopeswar Ho.'
p1367
(lp1368
S'246401'
p1369
aS'246401'
p1370
asS'Gloggnitz'
p1371
(lp1372
S'2640'
p1373
ag80
asS'Gilv\xc3\xa1nfa'
p1374
(lp1375
S'7954'
p1376
aS'7954'
p1377
asS'Gij\xc3\xb3n'
p1378
(lp1379
S'33200'
p1380
aS'33202'
p1381
aS'33203'
p1382
aS'33204'
p1383
aS'33207'
p1384
aS'33208'
p1385
aS'33210'
p1386
aS'33212'
p1387
aS'33299'
p1388
aS'33350'
p1389
aS'33207'
p1390
aS'33202'
p1391
aS'33203'
p1392
aS'33208'
p1393
aS'33204'
p1394
aS'33212'
p1395
aS'33210'
p1396
aS'33200'
p1397
aS'33299'
p1398
aS'33350'
p1399
asS'Guarda'
p1400
(lp1401
S'3570-001'
p1402
aS'3570-011'
p1403
aS'3570-013'
p1404
aS'3570-015'
p1405
aS'3570-017'
p1406
aS'3570-019'
p1407
aS'3570-021'
p1408
aS'3570-023'
p1409
aS'3570-025'
p1410
aS'3570-027'
p1411
aS'3570-029'
p1412
aS'3570-031'
p1413
aS'3570-033'
p1414
aS'3570-035'
p1415
aS'3570-037'
p1416
aS'3570-039'
p1417
aS'3570-041'
p1418
aS'3570-043'
p1419
aS'3570-045'
p1420
aS'3570-047'
p1421
aS'3570-049'
p1422
aS'3570-072'
p1423
aS'3570-074'
p1424
aS'3570-076'
p1425
aS'3570-100'
p1426
aS'3570-110'
p1427
aS'3570-120'
p1428
aS'3570-130'
p1429
aS'3570-130'
p1430
aS'3570-130'
p1431
aS'3570-130'
p1432
aS'3570-140'
p1433
aS'3570-140'
p1434
aS'3570-150'
p1435
aS'3570-160'
p1436
aS'3570-170'
p1437
aS'3570-170'
p1438
aS'3570-170'
p1439
aS'3570-180'
p1440
aS'3570-180'
p1441
aS'3570-191'
p1442
aS'3570-192'
p1443
aS'3570-200'
p1444
aS'3570-200'
p1445
aS'3570-200'
p1446
aS'3570-211'
p1447
aS'3570-999'
p1448
aS'5150-011'
p1449
aS'5150-013'
p1450
aS'5150-015'
p1451
aS'5150-017'
p1452
aS'5150-019'
p1453
aS'5150-021'
p1454
aS'5150-023'
p1455
aS'5150-025'
p1456
aS'5150-027'
p1457
aS'5150-029'
p1458
aS'5150-031'
p1459
aS'5150-033'
p1460
aS'5150-035'
p1461
aS'5150-037'
p1462
aS'5150-039'
p1463
aS'5150-041'
p1464
aS'5150-043'
p1465
aS'5150-045'
p1466
aS'5150-047'
p1467
aS'5150-049'
p1468
aS'5150-051'
p1469
aS'5150-053'
p1470
aS'5150-055'
p1471
aS'5150-057'
p1472
aS'5150-059'
p1473
aS'5150-061'
p1474
aS'5150-063'
p1475
aS'5150-065'
p1476
aS'5150-067'
p1477
aS'5150-069'
p1478
aS'5150-071'
p1479
aS'5150-073'
p1480
aS'5150-075'
p1481
aS'5150-077'
p1482
aS'5150-079'
p1483
aS'5150-081'
p1484
aS'5150-083'
p1485
aS'5150-085'
p1486
aS'5150-101'
p1487
aS'5150-103'
p1488
aS'5150-106'
p1489
aS'5150-108'
p1490
aS'5150-110'
p1491
aS'5150-112'
p1492
aS'5150-114'
p1493
aS'5150-116'
p1494
aS'5150-118'
p1495
aS'5150-120'
p1496
aS'5150-122'
p1497
aS'5150-124'
p1498
aS'5150-126'
p1499
aS'5150-128'
p1500
aS'5150-130'
p1501
aS'3570-001'
p1502
ag1502
aS'3570-011'
p1503
aS'3570-013'
p1504
aS'3570-015'
p1505
aS'3570-017'
p1506
aS'3570-019'
p1507
aS'3570-021'
p1508
aS'3570-023'
p1509
aS'3570-025'
p1510
aS'3570-027'
p1511
aS'3570-029'
p1512
aS'3570-031'
p1513
aS'3570-033'
p1514
aS'3570-035'
p1515
aS'3570-037'
p1516
aS'3570-039'
p1517
aS'3570-041'
p1518
aS'3570-043'
p1519
aS'3570-045'
p1520
aS'3570-047'
p1521
aS'3570-049'
p1522
aS'3570-072'
p1523
aS'3570-074'
p1524
aS'3570-076'
p1525
aS'3570-100'
p1526
aS'3570-110'
p1527
aS'3570-120'
p1528
aS'3570-130'
p1529
aS'3570-140'
p1530
aS'3570-150'
p1531
aS'3570-160'
p1532
aS'3570-170'
p1533
aS'3570-180'
p1534
aS'3570-191'
p1535
aS'3570-192'
p1536
aS'3570-200'
p1537
aS'3570-211'
p1538
aS'3570-999'
p1539
aS'5150-011'
p1540
aS'5150-013'
p1541
aS'5150-015'
p1542
aS'5150-017'
p1543
aS'5150-019'
p1544
aS'5150-021'
p1545
aS'5150-023'
p1546
aS'5150-025'
p1547
aS'5150-027'
p1548
aS'5150-029'
p1549
aS'5150-031'
p1550
aS'5150-033'
p1551
aS'5150-035'
p1552
aS'5150-037'
p1553
aS'5150-039'
p1554
aS'5150-041'
p1555
aS'5150-043'
p1556
aS'5150-045'
p1557
aS'5150-047'
p1558
aS'5150-049'
p1559
aS'5150-051'
p1560
aS'5150-053'
p1561
aS'5150-055'
p1562
aS'5150-057'
p1563
aS'5150-059'
p1564
aS'5150-061'
p1565
aS'5150-063'
p1566
aS'5150-065'
p1567
aS'5150-067'
p1568
aS'5150-069'
p1569
aS'5150-071'
p1570
aS'5150-073'
p1571
aS'5150-075'
p1572
aS'5150-077'
p1573
aS'5150-079'
p1574
aS'5150-081'
p1575
aS'5150-083'
p1576
aS'5150-085'
p1577
aS'5150-101'
p1578
aS'5150-103'
p1579
aS'5150-106'
p1580
aS'5150-108'
p1581
aS'5150-110'
p1582
aS'5150-112'
p1583
aS'5150-114'
p1584
aS'5150-116'
p1585
aS'5150-118'
p1586
aS'5150-120'
p1587
aS'5150-122'
p1588
aS'5150-124'
p1589
aS'5150-126'
p1590
aS'5150-128'
p1591
aS'5150-130'
p1592
ag1057
ag1099
asS'Gr\xc3\xb8tav\xc3\xa6r'
p1593
(lp1594
S'9423'
p1595
aS'9423'
p1596
asS'Goolwa'
p1597
(lp1598
S'5214'
p1599
aS'5214'
p1600
asS'G\xe2\x88\x9a\xe2\x88\x82tzis'
p1601
(lp1602
S'6840'
p1603
asS'Gaupne'
p1604
(lp1605
S'6866'
p1606
aS'6866'
p1607
asS'Grand-Lancy 1 Distribution'
p1608
(lp1609
S'1212'
p1610
asS'Gray Summit'
p1611
(lp1612
S'63039'
p1613
aS'63039'
p1614
asS'Groitzsch'
p1615
(lp1616
S'04539'
p1617
aS'04539'
p1618
asS'Goizueta'
p1619
(lp1620
S'31754'
p1621
aS'31754'
p1622
asS'Genthin'
p1623
(lp1624
S'39307'
p1625
aS'39307'
p1626
asS'Glarus'
p1627
(lp1628
S'8750'
p1629
ag1629
aS'8755'
p1630
aS'8756'
p1631
aS'8757'
p1632
aS'8758'
p1633
aS'8759'
p1634
aS'8772'
p1635
aS'8773'
p1636
aS'8775'
p1637
aS'8777'
p1638
aS'8867'
p1639
aS'8874'
p1640
aS'8750'
p1641
ag1641
aS'8753'
p1642
aS'8755'
p1643
aS'8756'
p1644
aS'8765'
p1645
aS'8783'
p1646
aS'8758'
p1647
aS'8772'
p1648
aS'8757'
p1649
aS'8773'
p1650
aS'8777'
p1651
aS'8867'
p1652
aS'8782'
p1653
aS'8759'
p1654
aS'8866'
p1655
aS'8874'
p1656
aS'8750'
p1657
aS'8756'
p1658
aS'8867'
p1659
aS'8775'
p1660
asS'Gas\xc3\xbcnd'
p1661
(lp1662
S'6700'
p1663
asS'Gujri'
p1664
(lp1665
S'454571'
p1666
aS'454571'
p1667
asS'Gerend\xc3\xa1s'
p1668
(lp1669
S'5925'
p1670
aS'5925'
p1671
asS'Guizza'
p1672
(lp1673
S'35125'
p1674
aS'35125'
p1675
asS'Grand-Saconnex Distribution'
p1676
(lp1677
S'1218'
p1678
aS'1218'
p1679
asS'Grangeville'
p1680
(lp1681
S'83530'
p1682
aS'83530'
p1683
asS'Gisikon'
p1684
(lp1685
S'6038'
p1686
aS'6038'
p1687
asS'Glengarry'
p1688
(lp1689
S'7275'
p1690
asS'Goldegg'
p1691
(lp1692
S'5622'
p1693
aS'5622'
p1694
asS'Gustavsberg'
p1695
(lp1696
S'13421'
p1697
aS'13421'
p1698
asS'Glommen'
p1699
(lp1700
S'31198'
p1701
aS'31198'
p1702
asS'Gy\xc3\xb6m\xc3\xb6re'
p1703
(lp1704
g1236
ag1291
asS'Golconda'
p1705
(lp1706
S'89414'
p1707
aS'89414'
p1708
asS'Grass Range'
p1709
(lp1710
S'59032'
p1711
aS'59032'
p1712
asS'Gonzales'
p1713
(lp1714
S'70737'
p1715
aS'70737'
p1716
asS'Gr\xc3\xbcningen'
p1717
(lp1718
S'8627'
p1719
aS'8627'
p1720
asS'Giri Nagar'
p1721
(lp1722
S'173020'
p1723
aS'173020'
p1724
asS'Glace Bay'
p1725
(lp1726
S'B1A'
p1727
aS'B1A'
p1728
asS'Garwood'
p1729
(lp1730
S'07027'
p1731
aS'07027'
p1732
asS'Gangadharpur'
p1733
(lp1734
S'752034'
p1735
aS'752034'
p1736
asS'Gr\xc3\xa4chen'
p1737
(lp1738
S'3925'
p1739
aS'3925'
p1740
asS'Gen\xc3\xa8ve'
p1741
(lp1742
S'1200'
p1743
aS'1204'
p1744
ag1744
aS'1206'
p1745
ag1745
aS'1208'
p1746
ag1746
aS'1212'
p1747
aS'1213'
p1748
aS'1217'
p1749
ag1678
aS'1219'
p1750
aS'1226'
p1751
aS'1227'
p1752
aS'1228'
p1753
aS'1232'
p1754
aS'1234'
p1755
aS'1237'
p1756
aS'1241'
p1757
aS'1243'
p1758
aS'1245'
p1759
aS'1248'
p1760
aS'1252'
p1761
aS'1254'
p1762
aS'1256'
p1763
aS'1258'
p1764
aS'1283'
p1765
aS'1286'
p1766
aS'1288'
p1767
ag848
aS'1293'
p1768
aS'1298'
p1769
aS'60134'
p1770
aS'68361'
p1771
aS'83238'
p1772
aS'1211'
p1773
aS'1202'
p1774
ag1774
aS'1204'
p1775
ag1775
aS'1206'
p1776
ag1776
aS'1208'
p1777
ag1777
aS'1211'
p1778
aS'1213'
p1779
aS'1217'
p1780
aS'1228'
p1781
aS'1200'
p1782
ag1782
aS'1211'
p1783
ag140
aS'1211'
p1784
aS'1211'
p1785
aS'1213'
p1786
aS'1218'
p1787
aS'1219'
p1788
aS'1222'
p1789
aS'1224'
p1790
aS'1226'
p1791
aS'1227'
p1792
aS'1232'
p1793
aS'1234'
p1794
aS'1237'
p1795
aS'1241'
p1796
aS'1243'
p1797
aS'1245'
p1798
aS'1248'
p1799
aS'1252'
p1800
aS'1254'
p1801
aS'1256'
p1802
aS'1258'
p1803
aS'1283'
p1804
aS'1286'
p1805
aS'1288'
p1806
aS'1293'
p1807
aS'1298'
p1808
ag932
aS'1211'
p1809
ag929
aS'1211'
p1810
aS'1217'
p1811
aS'1212'
p1812
aS'1211'
p1813
aS'1211'
p1814
aS'1213'
p1815
aS'1227'
p1816
aS'1283'
p1817
ag1175
ag923
ag948
aS'1200'
p1818
aS'1200'
p1819
ag849
aS'1200'
p1820
ag933
aS'1200'
p1821
aS'1200'
p1822
aS'1200'
p1823
aS'1211'
p1824
aS'1215'
p1825
aS'1219'
p1826
ag949
aS'1200'
p1827
ag271
aS'1215'
p1828
aS'1211'
p1829
aS'1215'
p1830
aS'1200'
p1831
ag1610
aS'1214'
p1832
ag1679
aS'1222'
p1833
aS'1225'
p1834
aS'1234'
p1835
aS'83238'
p1836
aS'60134'
p1837
aS'68361'
p1838
asS'Gois'
p1839
(lp1840
S'5071'
p1841
asS'Grand Falls Northeast'
p1842
(lp1843
S'E3Y'
p1844
aS'E3Y'
p1845
aS'E3Y'
p1846
asS'Ghattia'
p1847
(lp1848
S'456550'
p1849
aS'456550'
p1850
asS'Gandhi Bazar'
p1851
(lp1852
S'143006'
p1853
aS'143006'
p1854
asS'Gurna'
p1855
(lp1856
S'262529'
p1857
aS'262529'
p1858
asS'Greeneville'
p1859
(lp1860
S'37745'
p1861
aS'37745'
p1862
asS'G\xc3\xa4vleborg'
p1863
(lp1864
S'79026'
p1865
aS'80102'
p1866
aS'80126'
p1867
aS'80129'
p1868
aS'80187'
p1869
aS'80251'
p1870
aS'80257'
p1871
aS'80263'
p1872
aS'80266'
p1873
aS'80282'
p1874
aS'80283'
p1875
aS'80286'
p1876
aS'80288'
p1877
aS'80309'
p1878
aS'80311'
p1879
aS'80320'
p1880
aS'80423'
p1881
aS'80426'
p1882
aS'80429'
p1883
aS'80431'
p1884
aS'80595'
p1885
aS'80633'
p1886
aS'80642'
p1887
aS'80648'
p1888
aS'81040'
p1889
aS'81121'
p1890
aS'81132'
p1891
aS'81133'
p1892
aS'81137'
p1893
aS'81140'
p1894
aS'81171'
p1895
aS'81180'
p1896
aS'81181'
p1897
aS'81193'
p1898
aS'81230'
p1899
aS'81241'
p1900
aS'81293'
p1901
aS'81332'
p1902
aS'81333'
p1903
aS'81340'
p1904
aS'81626'
p1905
aS'81694'
p1906
aS'81740'
p1907
aS'81830'
p1908
aS'81832'
p1909
aS'81833'
p1910
aS'81891'
p1911
aS'82021'
p1912
aS'82022'
p1913
aS'82023'
p1914
aS'82029'
p1915
aS'82040'
p1916
aS'82041'
p1917
aS'82042'
p1918
aS'82065'
p1919
aS'82070'
p1920
aS'82071'
p1921
aS'82075'
p1922
aS'82078'
p1923
aS'82136'
p1924
aS'82143'
p1925
aS'82158'
p1926
aS'82193'
p1927
aS'82195'
p1928
aS'82230'
p1929
aS'82231'
p1930
aS'82292'
p1931
aS'82330'
p1932
aS'82393'
p1933
aS'82430'
p1934
aS'82433'
p1935
aS'82442'
p1936
aS'82443'
p1937
aS'82452'
p1938
aS'82492'
p1939
aS'82593'
p1940
aS'82622'
p1941
aS'82623'
p1942
aS'82627'
p1943
aS'82631'
p1944
aS'82637'
p1945
aS'82660'
p1946
aS'82662'
p1947
aS'82694'
p1948
aS'82722'
p1949
aS'82730'
p1950
aS'82733'
p1951
aS'82822'
p1952
aS'82833'
p1953
aS'82627'
p1954
aS'81181'
p1955
aS'82040'
p1956
aS'80311'
p1957
aS'81040'
p1958
aS'81833'
p1959
aS'82041'
p1960
aS'82065'
p1961
aS'82430'
p1962
aS'80011'
p1963
aS'80266'
p1964
aS'80286'
p1965
aS'80320'
p1966
aS'80423'
p1967
aS'80633'
p1968
aS'81171'
p1969
aS'81830'
p1970
aS'82022'
p1971
aS'82070'
p1972
aS'82231'
p1973
aS'82442'
p1974
aS'82622'
p1975
aS'82833'
p1976
aS'80006'
p1977
aS'80251'
p1978
aS'80288'
p1979
aS'81132'
p1980
aS'81160'
p1981
aS'81333'
p1982
aS'82023'
p1983
aS'82330'
p1984
aS'82492'
p1985
aS'82637'
p1986
aS'82694'
p1987
aS'82730'
p1988
aS'79026'
p1989
ag1989
aS'80102'
p1990
aS'80126'
p1991
aS'80250'
p1992
aS'80257'
p1993
aS'80283'
p1994
aS'80309'
p1995
aS'80426'
p1996
aS'80431'
p1997
aS'80595'
p1998
aS'80642'
p1999
aS'81121'
p2000
aS'81133'
p2001
aS'81137'
p2002
aS'81140'
p2003
aS'81180'
p2004
aS'81193'
p2005
aS'81230'
p2006
aS'81241'
p2007
aS'81293'
p2008
aS'81340'
p2009
aS'81621'
p2010
aS'81694'
p2011
aS'81740'
p2012
aS'81832'
p2013
aS'81891'
p2014
aS'82021'
p2015
aS'82042'
p2016
aS'82071'
p2017
aS'82075'
p2018
aS'82078'
p2019
aS'82136'
p2020
aS'82143'
p2021
aS'82158'
p2022
aS'82195'
p2023
aS'82230'
p2024
aS'82292'
p2025
aS'82393'
p2026
aS'82414'
p2027
aS'82433'
p2028
aS'82452'
p2029
aS'82593'
p2030
aS'82601'
p2031
aS'82623'
p2032
aS'82631'
p2033
aS'82639'
p2034
aS'82660'
p2035
aS'82662'
p2036
aS'82722'
p2037
aS'82733'
p2038
aS'82822'
p2039
aS'82832'
p2040
aS'80129'
p2041
aS'80187'
p2042
aS'80263'
p2043
aS'80282'
p2044
aS'80429'
p2045
aS'80648'
p2046
aS'81130'
p2047
aS'81332'
p2048
aS'81626'
p2049
aS'82029'
p2050
aS'82193'
p2051
aS'82443'
p2052
asS'Guntramsdorf'
p2053
(lp2054
S'2353'
p2055
ag71
asS'Glentana'
p2056
(lp2057
S'59240'
p2058
aS'59240'
p2059
asS'Gasp\xc3\xa9sie-Sud (New Richmond)'
p2060
(lp2061
S'G0C'
p2062
aS'G0C'
p2063
asS'Grace'
p2064
(lp2065
S'38745'
p2066
aS'83241'
p2067
aS'83241'
p2068
aS'38745'
p2069
asS'Gland'
p2070
(lp2071
S'1196'
p2072
asS'Gen\xc3\xa8ve 15 A\xc3\xa9roport D\xc3\xa9p\xc3\xb4t'
p2073
(lp2074
g1828
asS'Grythyttan'
p2075
(lp2076
S'71202'
p2077
aS'71260'
p2078
aS'71202'
p2079
aS'71260'
p2080
asS'Gwinner'
p2081
(lp2082
S'58040'
p2083
aS'58040'
p2084
asS'Great Bend'
p2085
(lp2086
S'67530'
p2087
aS'67530'
p2088
asS'Grantsville'
p2089
(lp2090
S'84029'
p2091
aS'84029'
p2092
asS'Gleisdorf'
p2093
(lp2094
S'8200'
p2095
asS'Gauri Kund'
p2096
(lp2097
S'246476'
p2098
aS'246476'
p2099
asS'Girincs'
p2100
(lp2101
S'3578'
p2102
aS'3578'
p2103
asS'Greensborough'
p2104
(lp2105
S'3088'
p2106
asS'Green River'
p2107
(lp2108
S'82935'
p2109
aS'82935'
p2110
asS'Gordon'
p2111
(lp2112
S'2906'
p2113
aS'2906'
p2114
asS'Gallspach'
p2115
(lp2116
S'4713'
p2117
aS'4713'
p2118
asS'Grubville'
p2119
(lp2120
S'63041'
p2121
aS'63041'
p2122
asS'Garyville'
p2123
(lp2124
S'70051'
p2125
aS'70051'
p2126
asS'Gumpoldskirchen'
p2127
(lp2128
S'2352'
p2129
ag70
asS'Germering'
p2130
(lp2131
S'82110'
p2132
aS'82110'
p2133
asS'Gotland'
p2134
(lp2135
S'62010'
p2136
aS'62016'
p2137
aS'62023'
p2138
aS'62024'
p2139
aS'62033'
p2140
aS'62035'
p2141
aS'62111'
p2142
aS'62112'
p2143
aS'62114'
p2144
aS'62116'
p2145
aS'62121'
p2146
aS'62123'
p2147
aS'62124'
p2148
aS'62141'
p2149
aS'62144'
p2150
aS'62145'
p2151
aS'62146'
p2152
aS'62148'
p2153
aS'62151'
p2154
aS'62153'
p2155
aS'62154'
p2156
aS'62157'
p2157
aS'62167'
p2158
aS'62173'
p2159
aS'62175'
p2160
aS'62176'
p2161
aS'62177'
p2162
aS'62178'
p2163
aS'62179'
p2164
aS'62185'
p2165
aS'62186'
p2166
aS'62189'
p2167
aS'62190'
p2168
aS'62191'
p2169
aS'62192'
p2170
aS'62198'
p2171
aS'62141'
p2172
aS'62023'
p2173
aS'62145'
p2174
aS'62016'
p2175
aS'62033'
p2176
aS'62035'
p2177
aS'62150'
p2178
aS'62157'
p2179
aS'62191'
p2180
aS'62123'
p2181
aS'62010'
p2182
ag2182
aS'62121'
p2183
aS'62124'
p2184
aS'62146'
p2185
aS'62148'
p2186
aS'62153'
p2187
aS'62175'
p2188
aS'62186'
p2189
aS'62198'
p2190
aS'62177'
p2191
aS'62024'
p2192
aS'62151'
p2193
aS'62154'
p2194
aS'62173'
p2195
aS'62178'
p2196
aS'62190'
p2197
aS'62100'
p2198
aS'62144'
p2199
aS'62167'
p2200
aS'62179'
p2201
aS'62185'
p2202
aS'62192'
p2203
aS'62176'
p2204
aS'62111'
p2205
aS'62112'
p2206
aS'62114'
p2207
aS'62116'
p2208
aS'62189'
p2209
asS'Geistthal'
p2210
(lp2211
S'8153'
p2212
aS'8153'
p2213
asS'Grimisuat'
p2214
(lp2215
S'1971'
p2216
aS'1971'
p2217
asS'Ghat'
p2218
(lp2219
S'246435'
p2220
aS'246435'
p2221
asS'Grants'
p2222
(lp2223
S'87020'
p2224
aS'87020'
p2225
asS'Gelterkinden'
p2226
(lp2227
S'4460'
p2228
aS'4460'
p2229
asS'Garnett'
p2230
(lp2231
S'66032'
p2232
aS'66032'
p2233
asS'Grimsby'
p2234
(lp2235
S'L3M'
p2236
aS'L3M'
p2237
asS'Gretna'
p2238
(lp2239
S'70054'
p2240
aS'70056'
p2241
aS'70054'
p2242
aS'70056'
p2243
asS'G\xc3\xb6ssendorf'
p2244
(lp2245
S'8071'
p2246
asS'Goslar'
p2247
(lp2248
S'38642'
p2249
aS'38642'
p2250
asS'Glen Dhu'
p2251
(lp2252
S'7249'
p2253
aS'7249'
p2254
asS'Gardena'
p2255
(lp2256
S'90248'
p2257
aS'90248'
p2258
asS'Giswil'
p2259
(lp2260
S'6074'
p2261
aS'6074'
p2262
asS'Grimsbu'
p2263
(lp2264
S'2582'
p2265
aS'2582'
p2266
asS'Gro\xc3\x9fp\xc3\xb6sna'
p2267
(lp2268
S'04463'
p2269
aS'04463'
p2270
asS'Geddes'
p2271
(lp2272
S'57342'
p2273
aS'57342'
p2274
asS'Gap Mills'
p2275
(lp2276
S'24941'
p2277
asS'Granville'
p2278
(lp2279
S'01034'
p2280
aS'01034'
p2281
asS'Gloucester (West Orleans)'
p2282
(lp2283
S'K1C'
p2284
aS'K1C'
p2285
asS'Gen\xc3\xa8ve 4'
p2286
(lp2287
g1818
asS'Gradiz'
p2288
(lp2289
g1436
ag1532
asS'Goldvein'
p2290
(lp2291
S'22720'
p2292
aS'22720'
p2293
asS'Gutenswil'
p2294
(lp2295
S'8605'
p2296
aS'8605'
p2297
asS'Gilching'
p2298
(lp2299
S'82205'
p2300
aS'82205'
p2301
asS'Gilbertville'
p2302
(lp2303
S'01031'
p2304
aS'01031'
p2305
asS'Gander'
p2306
(lp2307
S'A1V'
p2308
aS'A1V'
p2309
aS'A1V'
p2310
asS'Gau-Algesheim'
p2311
(lp2312
S'55435'
p2313
aS'55435'
p2314
asS'Gro\xc3\x9fwilfersdorf'
p2315
(lp2316
S'8263'
p2317
asS'Galdakao'
p2318
(lp2319
S'48960'
p2320
aS'48960'
p2321
asS'Gislaved'
p2322
(lp2323
S'33221'
p2324
aS'33231'
p2325
aS'33235'
p2326
aS'33236'
p2327
aS'33235'
p2328
aS'33221'
p2329
aS'33231'
p2330
aS'33236'
p2331
asS'Gilby'
p2332
(lp2333
S'58235'
p2334
aS'58235'
p2335
asS'Gurur'
p2336
(lp2337
S'491227'
p2338
aS'491227'
p2339
asS'Gersekar\xc3\xa1t'
p2340
(lp2341
S'9813'
p2342
aS'9813'
p2343
asS'Gokal Bazar Rewari'
p2344
(lp2345
S'123401'
p2346
aS'123401'
p2347
asS'Granby'
p2348
(lp2349
S'06035'
p2350
aS'06035'
p2351
asS'Gj\xc3\xb8vik'
p2352
(lp2353
S'2815'
p2354
aS'2801'
p2355
aS'2817'
p2356
aS'2819'
p2357
aS'2805'
p2358
aS'2810'
p2359
aS'2801'
p2360
aS'2805'
p2361
aS'2810'
p2362
aS'2815'
p2363
aS'2817'
p2364
aS'2819'
p2365
asS'Grove'
p2366
(lp2367
S'7109'
p2368
aS'7109'
p2369
asS'Grenchen 2'
p2370
(lp2371
S'2540'
p2372
asS'Gallina'
p2373
(lp2374
S'87017'
p2375
aS'87017'
p2376
asS'Grovfjord'
p2377
(lp2378
S'9446'
p2379
aS'9446'
p2380
asS'Gy\xc3\xb6ngy\xc3\xb6ssolymos'
p2381
(lp2382
S'3231'
p2383
aS'3234'
p2384
aS'3233'
p2385
aS'3231'
p2386
aS'3233'
p2387
aS'3234'
p2388
asS'Grimstad'
p2389
(lp2390
S'4879'
p2391
aS'4878'
p2392
aS'4886'
p2393
aS'4898'
p2394
aS'4892'
p2395
aS'4896'
p2396
aS'4895'
p2397
aS'4878'
p2398
aS'4879'
p2399
aS'4886'
p2400
aS'4892'
p2401
aS'4895'
p2402
aS'4896'
p2403
aS'4898'
p2404
asS'Gambier'
p2405
(lp2406
S'43022'
p2407
aS'43022'
p2408
asS'Gol Park'
p2409
(lp2410
S'700019'
p2411
asS'Greeleyville'
p2412
(lp2413
S'29056'
p2414
aS'29056'
p2415
asS'Giske'
p2416
(lp2417
S'6052'
p2418
aS'6052'
p2419
asS'Govindpuri'
p2420
(lp2421
S'110019'
p2422
aS'110019'
p2423
asS'Gokhale Road'
p2424
(lp2425
S'700020'
p2426
asS'Grado'
p2427
(lp2428
S'33820'
p2429
aS'33820'
p2430
asS'Garobandha'
p2431
(lp2432
S'794105'
p2433
aS'794105'
p2434
asS'Gerlos'
p2435
(lp2436
S'6281'
p2437
asS'Guadarrama'
p2438
(lp2439
S'28440'
p2440
aS'28440'
p2441
asS'Gy\xc3\xb6ngy\xc3\xb6s'
p2442
(lp2443
S'3200'
p2444
aS'3202'
p2445
aS'3200'
p2446
aS'3202'
p2447
asS'Grand Forks Afb'
p2448
(lp2449
S'58204'
p2450
aS'58204'
p2451
asS'Gerlach'
p2452
(lp2453
S'89412'
p2454
aS'89412'
p2455
asS'Glanshammar'
p2456
(lp2457
S'70597'
p2458
aS'70597'
p2459
asS'Gudvangen'
p2460
(lp2461
S'5747'
p2462
asS'Gorawar'
p2463
(lp2464
S'124516'
p2465
aS'124516'
p2466
asS'Gloucester (Blossom Park / Hunt Club East / Leitrim)'
p2467
(lp2468
S'K1T'
p2469
aS'K1T'
p2470
asS'Gunn'
p2471
(lp2472
S'0832'
p2473
asS'Glenaven'
p2474
(lp2475
S'4355'
p2476
aS'4355'
p2477
asS'Gr\xc3\xa4fenhainichen'
p2478
(lp2479
S'06773'
p2480
aS'06773'
p2481
asS'Grand Island'
p2482
(lp2483
S'68801'
p2484
aS'68801'
p2485
asS'Gaishorn am See'
p2486
(lp2487
S'8783'
p2488
aS'8783'
p2489
asS'G\xc3\xbcttingen'
p2490
(lp2491
S'8594'
p2492
aS'8594'
p2493
asS'Granton'
p2494
(lp2495
S'7030'
p2496
asS'Gilbert'
p2497
(lp2498
S'29054'
p2499
aS'85234'
p2500
aS'85234'
p2501
aS'29054'
p2502
asS'Glenpool'
p2503
(lp2504
S'74033'
p2505
aS'74033'
p2506
asS'Garray'
p2507
(lp2508
S'42162'
p2509
aS'42162'
p2510
asS'Gen\xc3\xa8ve 2 CC Distribution'
p2511
(lp2512
g1831
asS'G\xe2\x88\x9a\xe2\x88\x82fis'
p2513
(lp2514
S'6811'
p2515
asS'Gumti Project'
p2516
(lp2517
S'799104'
p2518
aS'799104'
p2519
asS'G C Road Ajmer'
p2520
(lp2521
S'305007'
p2522
aS'305007'
p2523
asS'Ghed Koylana'
p2524
(lp2525
S'362633'
p2526
aS'362633'
p2527
asS'Greenwith'
p2528
(lp2529
S'5125'
p2530
aS'5125'
p2531
asS'Gilmanton'
p2532
(lp2533
S'03237'
p2534
aS'03237'
p2535
asS'Garran'
p2536
(lp2537
S'2605'
p2538
asS'Galicia'
p2539
(lp2540
S'15002'
p2541
aS'15003'
p2542
ag2542
aS'15006'
p2543
ag2543
aS'15007'
p2544
ag2544
aS'15009'
p2545
ag2545
aS'15071'
p2546
ag2546
aS'15110'
p2547
aS'15124'
p2548
aS'15130'
p2549
aS'15145'
p2550
aS'15160'
p2551
aS'15179'
p2552
aS'15180'
p2553
aS'15214'
p2554
aS'15250'
p2555
aS'15256'
p2556
aS'15291'
p2557
aS'15300'
p2558
aS'15310'
p2559
aS'15318'
p2560
aS'15330'
p2561
aS'15379'
p2562
aS'15401'
p2563
aS'15403'
p2564
aS'15405'
p2565
aS'15480'
p2566
aS'15500'
p2567
aS'15550'
p2568
aS'15552'
p2569
aS'15600'
p2570
aS'15637'
p2571
aS'15686'
p2572
aS'15701'
p2573
aS'15703'
p2574
aS'15704'
p2575
aS'15780'
p2576
aS'15782'
p2577
aS'15810'
p2578
aS'15821'
p2579
aS'15830'
p2580
aS'15873'
p2581
aS'15911'
p2582
aS'15920'
p2583
aS'15970'
p2584
aS'27002'
p2585
aS'27004'
p2586
aS'27080'
p2587
aS'27297'
p2588
aS'27373'
p2589
aS'27891'
p2590
aS'32001'
p2591
aS'32004'
p2592
aS'32005'
p2593
aS'32071'
p2594
aS'32160'
p2595
aS'32310'
p2596
aS'32400'
p2597
aS'32411'
p2598
aS'32420'
p2599
aS'32540'
p2600
aS'32570'
p2601
aS'32613'
p2602
aS'32630'
p2603
aS'32650'
p2604
aS'32700'
p2605
aS'32701'
p2606
aS'32781'
p2607
aS'32800'
p2608
aS'32930'
p2609
aS'36002'
p2610
aS'36003'
p2611
aS'36005'
p2612
aS'36162'
p2613
aS'36200'
p2614
aS'36202'
p2615
aS'36204'
p2616
aS'36208'
p2617
aS'36209'
p2618
aS'36211'
p2619
aS'36213'
p2620
aS'36215'
p2621
aS'36216'
p2622
aS'36300'
p2623
aS'36317'
p2624
aS'36330'
p2625
ag181
aS'36440'
p2626
aS'36450'
p2627
aS'36590'
p2628
aS'36600'
p2629
aS'36620'
p2630
aS'36691'
p2631
aS'36700'
p2632
aS'36780'
p2633
aS'36820'
p2634
aS'36880'
p2635
aS'36900'
p2636
aS'36960'
p2637
aS'36968'
p2638
aS'36970'
p2639
aS'15704'
p2640
aS'36211'
p2641
aS'15782'
p2642
aS'27002'
p2643
aS'36200'
p2644
aS'36202'
p2645
aS'15003'
p2646
ag2646
aS'15006'
p2647
ag2647
aS'15009'
p2648
ag2648
aS'15703'
p2649
aS'27004'
p2650
aS'32004'
p2651
aS'36204'
p2652
aS'36208'
p2653
aS'15002'
p2654
ag2654
aS'15007'
p2655
ag2655
aS'15071'
p2656
ag2656
aS'15403'
p2657
aS'15701'
p2658
aS'32001'
p2659
aS'32005'
p2660
aS'36002'
p2661
aS'36209'
p2662
aS'36213'
p2663
aS'36300'
p2664
aS'36960'
p2665
aS'15300'
p2666
aS'15780'
p2667
aS'36003'
p2668
aS'36600'
p2669
aS'36700'
p2670
aS'15160'
p2671
aS'15250'
p2672
aS'15310'
p2673
aS'15401'
p2674
aS'15405'
p2675
aS'15500'
p2676
aS'15600'
p2677
aS'15810'
p2678
aS'15970'
p2679
aS'27080'
p2680
aS'32071'
p2681
aS'32400'
p2682
aS'32630'
p2683
aS'32700'
p2684
aS'32800'
p2685
aS'36005'
p2686
aS'36162'
p2687
aS'36215'
p2688
aS'36330'
p2689
ag182
aS'36620'
p2690
aS'36780'
p2691
aS'36900'
p2692
aS'36970'
p2693
aS'15330'
p2694
aS'15552'
p2695
aS'15830'
p2696
aS'15920'
p2697
aS'27297'
p2698
aS'32420'
p2699
aS'36216'
p2700
aS'36691'
p2701
aS'15110'
p2702
aS'15124'
p2703
aS'15130'
p2704
aS'15214'
p2705
aS'15256'
p2706
aS'15318'
p2707
aS'15480'
p2708
aS'15821'
p2709
aS'15873'
p2710
aS'15911'
p2711
aS'27373'
p2712
aS'27891'
p2713
aS'32160'
p2714
aS'32310'
p2715
aS'32411'
p2716
aS'32540'
p2717
aS'32570'
p2718
aS'32613'
p2719
aS'32650'
p2720
aS'32701'
p2721
aS'32781'
p2722
aS'32930'
p2723
aS'36317'
p2724
aS'36440'
p2725
aS'36450'
p2726
aS'36590'
p2727
aS'36820'
p2728
aS'36880'
p2729
aS'36968'
p2730
aS'15145'
p2731
aS'15179'
p2732
aS'15180'
p2733
aS'15291'
p2734
aS'15379'
p2735
aS'15550'
p2736
aS'15637'
p2737
aS'15686'
p2738
asS'Great Falls'
p2739
(lp2740
S'22066'
p2741
aS'59401'
p2742
aS'59404'
p2743
aS'59406'
p2744
aS'59401'
p2745
aS'59404'
p2746
aS'59406'
p2747
aS'22066'
p2748
asS'G\xc3\xa4nsbrunnen'
p2749
(lp2750
S'4716'
p2751
aS'4716'
p2752
asS'Gardvik'
p2753
(lp2754
S'2133'
p2755
aS'2133'
p2756
asS'Gulf Shores'
p2757
(lp2758
S'36542'
p2759
aS'36542'
p2760
asS'Gunnarskog'
p2761
(lp2762
S'67035'
p2763
aS'67035'
p2764
asS'Grand Junction'
p2765
(lp2766
S'81506'
p2767
aS'81506'
p2768
asS'Gorla'
p2769
(lp2770
S'20125'
p2771
aS'20125'
p2772
asS'Gnesau'
p2773
(lp2774
S'9563'
p2775
aS'9563'
p2776
asS'Grunta'
p2777
(lp2778
S'280 02'
p2779
asS'Grums'
p2780
(lp2781
S'66421'
p2782
aS'66432'
p2783
aS'66433'
p2784
aS'66491'
p2785
aS'66421'
p2786
aS'66432'
p2787
aS'66433'
p2788
aS'66491'
p2789
asS'Galar'
p2790
(lp2791
S'31191'
p2792
asS'Ghurani Kalan'
p2793
(lp2794
S'141419'
p2795
aS'141419'
p2796
aS'141419'
p2797
asS'Glendale Heights'
p2798
(lp2799
S'60139'
p2800
aS'60139'
p2801
asS'Gifford'
p2802
(lp2803
S'50259'
p2804
aS'50259'
p2805
asS'Gie\xc3\x9fen'
p2806
(lp2807
S'35392'
p2808
aS'35396'
p2809
aS'35398'
p2810
aS'35392'
p2811
aS'35396'
p2812
aS'35398'
p2813
asS'Gullabo'
p2814
(lp2815
S'38596'
p2816
aS'38596'
p2817
asS'Ganapathipuram'
p2818
(lp2819
S'600059'
p2820
aS'600059'
p2821
asS'Ginninderra Village'
p2822
(lp2823
S'2913'
p2824
aS'2913'
p2825
asS'Gobindpur (Nawadah)'
p2826
(lp2827
S'805102'
p2828
aS'805102'
p2829
asS'Gervais'
p2830
(lp2831
S'97026'
p2832
aS'97026'
p2833
asS'G\xc3\xb6d'
p2834
(lp2835
S'2131'
p2836
aS'2131'
p2837
asS'Gol'
p2838
(lp2839
S'3550'
p2840
asS'Gerlingen'
p2841
(lp2842
S'70839'
p2843
aS'70839'
p2844
asS'Gera'
p2845
(lp2846
S'07545'
p2847
aS'07549'
p2848
aS'07546'
p2849
aS'07545'
p2850
aS'07546'
p2851
aS'07549'
p2852
asS'Grand Forks'
p2853
(lp2854
S'58202'
p2855
aS'58206'
p2856
aS'58208'
p2857
aS'58202'
p2858
aS'58206'
p2859
aS'58208'
p2860
asS'Gam\xc3\xa1s'
p2861
(lp2862
S'8685'
p2863
aS'8685'
p2864
asS'G E H'
p2865
(lp2866
S'202001'
p2867
asS'Gunter'
p2868
(lp2869
S'75058'
p2870
aS'75058'
p2871
asS'G V D P Chowk'
p2872
(lp2873
S'400004'
p2874
asS'Gracemont'
p2875
(lp2876
S'73042'
p2877
aS'73042'
p2878
asS'Goa'
p2879
(lp2880
S'403516'
p2881
aS'403519'
p2882
aS'403401'
p2883
aS'403702'
p2884
aS'403001'
p2885
aS'403001'
p2886
aS'403001'
p2887
aS'403103'
p2888
aS'403106'
p2889
aS'403110'
p2890
aS'403112'
p2891
aS'403402'
p2892
aS'403404'
p2893
aS'403407'
p2894
aS'403505'
p2895
aS'403508'
p2896
aS'403517'
p2897
aS'403521'
p2898
aS'403526'
p2899
aS'403601'
p2900
aS'403603'
p2901
aS'403706'
p2902
aS'403710'
p2903
aS'403716'
p2904
aS'403720'
p2905
aS'403724'
p2906
aS'403725'
p2907
aS'403727'
p2908
aS'403730'
p2909
aS'403802'
p2910
aS'403803'
p2911
aS'403004'
p2912
aS'403102'
p2913
aS'403108'
p2914
aS'403501'
p2915
aS'403503'
p2916
aS'403506'
p2917
aS'403512'
p2918
aS'403602'
p2919
aS'403701'
p2920
aS'403705'
p2921
aS'403708'
p2922
aS'403713'
p2923
aS'403717'
p2924
aS'403723'
p2925
aS'403801'
p2926
aS'403001'
p2927
aS'403004'
p2928
aS'403102'
p2929
aS'403103'
p2930
aS'403106'
p2931
aS'403108'
p2932
aS'403110'
p2933
aS'403112'
p2934
aS'403401'
p2935
aS'403402'
p2936
aS'403404'
p2937
aS'403407'
p2938
aS'403501'
p2939
aS'403503'
p2940
aS'403505'
p2941
aS'403506'
p2942
aS'403508'
p2943
aS'403512'
p2944
aS'403516'
p2945
ag2945
aS'403517'
p2946
aS'403519'
p2947
aS'403521'
p2948
aS'403526'
p2949
aS'403601'
p2950
aS'403602'
p2951
aS'403603'
p2952
aS'403701'
p2953
aS'403702'
p2954
aS'403705'
p2955
aS'403706'
p2956
aS'403708'
p2957
aS'403710'
p2958
aS'403713'
p2959
aS'403716'
p2960
aS'403717'
p2961
aS'403720'
p2962
aS'403723'
p2963
aS'403724'
p2964
aS'403725'
p2965
aS'403727'
p2966
aS'403730'
p2967
aS'403801'
p2968
aS'403802'
p2969
aS'403803'
p2970
asS'Gyland'
p2971
(lp2972
S'4436'
p2973
aS'4436'
p2974
asS'Gerolstein'
p2975
(lp2976
S'54568'
p2977
aS'54568'
p2978
asS'Gommiswald'
p2979
(lp2980
S'8737'
p2981
aS'8737'
p2982
asS'G\xc3\xa4vle'
p2983
(lp2984
g1866
ag1867
ag1868
ag1869
ag1870
ag1871
ag1872
ag1873
ag1874
ag1875
ag1876
ag1877
ag1878
ag1879
ag1880
ag1881
ag1882
ag1883
ag1884
ag1885
ag1886
ag1887
ag1888
ag1957
ag1963
ag1964
ag1965
ag1966
ag1967
ag1968
ag1977
ag1978
ag1979
ag1990
ag1991
ag1992
ag1993
ag1994
ag1995
ag1996
ag1997
ag1998
ag1999
ag2041
ag2042
ag2043
ag2044
ag2045
ag2046
asS'G\xe2\x88\x9a\xc2\xbattenbach'
p2985
(lp2986
S'7535'
p2987
asS'Gro\xc3\x9f Gr\xc3\xb6nau'
p2988
(lp2989
S'23627'
p2990
aS'23627'
p2991
asS'Gyomaendr\xc5\x91d'
p2992
(lp2993
S'5500'
p2994
aS'5501'
p2995
aS'5500'
p2996
aS'5501'
p2997
asS'Gop'
p2998
(lp2999
S'752110'
p3000
aS'752110'
p3001
asS'Gen\xc3\xa8ve 24'
p3002
(lp3003
g1827
asS'Gebertingen'
p3004
(lp3005
S'8725'
p3006
asS'Gen\xc3\xa8ve 27'
p3007
(lp3008
g1809
asS'Gen\xc3\xa8ve 21'
p3009
(lp3010
g1785
ag1823
asS'Grafton'
p3011
(lp3012
S'03240'
p3013
aS'05146'
p3014
aS'58237'
p3015
aS'58237'
p3016
aS'03240'
p3017
aS'05146'
p3018
asS'Gen\xc3\xa8ve 28'
p3019
(lp3020
g1810
asS'Gloucester (South Orleans)'
p3021
(lp3022
S'K1W'
p3023
aS'K1W'
p3024
asS'Gai\xc3\x9fau'
p3025
(lp3026
S'5421'
p3027
aS'6974'
p3028
asS'Grand Rapids'
p3029
(lp3030
S'49501'
p3031
aS'49503'
p3032
aS'49546'
p3033
aS'55744'
p3034
aS'49503'
p3035
aS'49501'
p3036
aS'49546'
p3037
aS'55744'
p3038
asS'Galilea'
p3039
(lp3040
S'07195'
p3041
aS'07195'
p3042
asS'G\xc3\xbcttenbach'
p3043
(lp3044
S'7535'
p3045
asS'Gryon'
p3046
(lp3047
S'1882'
p3048
aS'1882'
p3049
asS'Garphyttan'
p3050
(lp3051
S'71940'
p3052
asS'Gai\xe2\x88\x9a\xc3\xbcau'
p3053
(lp3054
S'6974'
p3055
asS'Getafe'
p3056
(lp3057
S'28901'
p3058
aS'28904'
p3059
aS'28905'
p3060
aS'28901'
p3061
aS'28905'
p3062
aS'28904'
p3063
asS'Gosdorf'
p3064
(lp3065
S'8482'
p3066
aS'8482'
p3067
asS'Galambok'
p3068
(lp3069
S'8754'
p3070
aS'8754'
p3071
asS'Gujarat'
p3072
(lp3073
S'396210'
p3074
aS'380025'
p3075
aS'387370'
p3076
aS'364290'
p3077
aS'389350'
p3078
aS'360001'
p3079
aS'360001'
p3080
aS'360001'
p3081
aS'360001'
p3082
aS'360002'
p3083
aS'360003'
p3084
aS'360004'
p3085
aS'360005'
p3086
aS'360022'
p3087
aS'360035'
p3088
aS'360360'
p3089
aS'360375'
p3090
aS'360410'
p3091
aS'360452'
p3092
aS'360490'
p3093
aS'360490'
p3094
aS'360530'
p3095
aS'360550'
p3096
aS'360570'
p3097
aS'360575'
p3098
aS'360575'
p3099
aS'360583'
p3100
aS'360592'
p3101
aS'361001'
p3102
aS'361001'
p3103
aS'361003'
p3104
aS'361004'
p3105
aS'361007'
p3106
aS'361009'
p3107
aS'361010'
p3108
aS'361012'
p3109
aS'361160'
p3110
aS'361220'
p3111
aS'361240'
p3112
aS'361295'
p3113
aS'361305'
p3114
aS'361316'
p3115
aS'361321'
p3116
aS'361350'
p3117
aS'362001'
p3118
aS'362001'
p3119
aS'362001'
p3120
aS'362014'
p3121
aS'362036'
p3122
aS'362140'
p3123
aS'362151'
p3124
aS'362215'
p3125
aS'362220'
p3126
aS'362221'
p3127
aS'362226'
p3128
aS'362230'
p3129
aS'362245'
p3130
aS'362257'
p3131
aS'362263'
p3132
aS'362310'
p3133
aS'362520'
p3134
aS'362540'
p3135
aS'362560'
p3136
aS'362621'
p3137
aS'362624'
p3138
aS'362626'
p3139
ag2526
aS'362710'
p3140
aS'362727'
p3141
aS'362733'
p3142
aS'363001'
p3143
aS'363001'
p3144
aS'363030'
p3145
aS'363320'
p3146
aS'363331'
p3147
aS'363416'
p3148
aS'363421'
p3149
aS'363423'
p3150
aS'363425'
p3151
aS'363535'
p3152
aS'363622'
p3153
aS'363641'
p3154
aS'363670'
p3155
aS'364001'
p3156
aS'364002'
p3157
aS'364071'
p3158
aS'364130'
p3159
aS'364140'
p3160
aS'364146'
p3161
aS'364230'
p3162
ag952
aS'364260'
p3163
aS'364270'
p3164
aS'364275'
p3165
aS'364292'
p3166
aS'364296'
p3167
aS'364312'
p3168
aS'364330'
p3169
aS'364410'
p3170
aS'364430'
p3171
aS'141003'
p3172
aS'141008'
p3173
aS'144004'
p3174
aS'143006'
p3175
aS'144002'
p3176
aS'144003'
p3177
aS'145001'
p3178
aS'144401'
p3179
aS'147301'
p3180
aS'140001'
p3181
aS'140001'
p3182
aS'140104'
p3183
aS'140109'
p3184
aS'140113'
p3185
aS'140119'
p3186
aS'140124'
p3187
aS'140124'
p3188
aS'140125'
p3189
aS'140126'
p3190
aS'140126'
p3191
aS'140301'
p3192
aS'140307'
p3193
aS'140401'
p3194
aS'140401'
p3195
aS'140406'
p3196
aS'140501'
p3197
aS'140506'
p3198
aS'140602'
p3199
ag290
aS'140802'
p3200
aS'141001'
p3201
aS'141001'
p3202
aS'141001'
p3203
aS'141001'
p3204
aS'141003'
p3205
aS'141003'
p3206
aS'141003'
p3207
aS'141004'
p3208
aS'141005'
p3209
aS'141008'
p3210
aS'141008'
p3211
aS'141008'
p3212
aS'141008'
p3213
aS'141008'
p3214
aS'141102'
p3215
aS'141105'
p3216
aS'141107'
p3217
aS'141109'
p3218
aS'141113'
p3219
aS'141115'
p3220
aS'141118'
p3221
aS'141120'
p3222
aS'141122'
p3223
aS'141201'
p3224
aS'141204'
p3225
aS'141206'
p3226
aS'141302'
p3227
aS'141305'
p3228
aS'141307'
p3229
aS'141309'
p3230
aS'141310'
p3231
aS'141311'
p3232
aS'141317'
p3233
aS'141401'
p3234
aS'141402'
p3235
aS'141413'
p3236
aS'141415'
p3237
aS'141417'
p3238
ag2795
aS'142001'
p3239
aS'142021'
p3240
aS'142026'
p3241
aS'142026'
p3242
aS'142029'
p3243
aS'142031'
p3244
aS'142034'
p3245
aS'142036'
p3246
aS'142040'
p3247
aS'142044'
p3248
aS'142047'
p3249
aS'142048'
p3250
aS'142050'
p3251
aS'142052'
p3252
aS'142055'
p3253
aS'142057'
p3254
aS'142061'
p3255
aS'143001'
p3256
aS'143001'
p3257
aS'143001'
p3258
aS'143001'
p3259
aS'143001'
p3260
aS'143001'
p3261
aS'143001'
p3262
aS'143001'
p3263
aS'143002'
p3264
aS'143004'
p3265
aS'143006'
p3266
aS'143006'
p3267
ag1853
aS'143006'
p3268
aS'140001'
p3269
aS'140104'
p3270
aS'140109'
p3271
aS'140113'
p3272
aS'140119'
p3273
aS'140124'
p3274
aS'140125'
p3275
aS'140126'
p3276
aS'140301'
p3277
aS'140307'
p3278
aS'140401'
p3279
aS'140406'
p3280
aS'140501'
p3281
aS'140506'
p3282
aS'140602'
p3283
ag292
aS'140802'
p3284
aS'141001'
p3285
aS'141003'
p3286
aS'141004'
p3287
aS'141005'
p3288
aS'141008'
p3289
aS'141102'
p3290
aS'141105'
p3291
aS'141107'
p3292
aS'141109'
p3293
aS'141113'
p3294
aS'141115'
p3295
aS'141118'
p3296
aS'141120'
p3297
aS'141122'
p3298
aS'141201'
p3299
aS'141204'
p3300
aS'141206'
p3301
aS'141302'
p3302
aS'141305'
p3303
aS'141307'
p3304
aS'141309'
p3305
aS'141310'
p3306
aS'141311'
p3307
aS'141317'
p3308
aS'141401'
p3309
aS'141402'
p3310
aS'141413'
p3311
aS'141415'
p3312
aS'141417'
p3313
ag2797
aS'142001'
p3314
aS'142021'
p3315
aS'142026'
p3316
aS'142029'
p3317
aS'142031'
p3318
aS'142034'
p3319
aS'142036'
p3320
aS'142040'
p3321
aS'142044'
p3322
aS'142047'
p3323
aS'142048'
p3324
aS'142050'
p3325
aS'142052'
p3326
aS'142055'
p3327
aS'142057'
p3328
aS'142061'
p3329
aS'143001'
p3330
aS'143002'
p3331
aS'143004'
p3332
aS'143006'
p3333
aS'144002'
p3334
aS'144003'
p3335
aS'144004'
p3336
aS'144401'
p3337
aS'145001'
p3338
aS'147301'
p3339
aS'360001'
p3340
aS'360002'
p3341
aS'360003'
p3342
aS'360004'
p3343
aS'360005'
p3344
aS'360022'
p3345
aS'360035'
p3346
aS'360360'
p3347
aS'360375'
p3348
aS'360410'
p3349
aS'360452'
p3350
aS'360490'
p3351
aS'360530'
p3352
aS'360550'
p3353
aS'360570'
p3354
aS'360575'
p3355
aS'360583'
p3356
aS'360592'
p3357
aS'361001'
p3358
aS'361003'
p3359
aS'361004'
p3360
aS'361007'
p3361
aS'361009'
p3362
aS'361010'
p3363
aS'361012'
p3364
aS'361160'
p3365
aS'361220'
p3366
aS'361240'
p3367
aS'361295'
p3368
aS'361305'
p3369
aS'361316'
p3370
aS'361321'
p3371
aS'361350'
p3372
aS'362001'
p3373
aS'362014'
p3374
aS'362036'
p3375
aS'362140'
p3376
aS'362151'
p3377
aS'362215'
p3378
aS'362220'
p3379
aS'362221'
p3380
aS'362226'
p3381
aS'362230'
p3382
aS'362245'
p3383
aS'362257'
p3384
aS'362263'
p3385
aS'362310'
p3386
aS'362520'
p3387
aS'362540'
p3388
aS'362560'
p3389
aS'362621'
p3390
aS'362624'
p3391
aS'362626'
p3392
ag2527
aS'362710'
p3393
aS'362727'
p3394
aS'362733'
p3395
aS'363001'
p3396
aS'363030'
p3397
aS'363320'
p3398
aS'363331'
p3399
aS'363416'
p3400
aS'363421'
p3401
aS'363423'
p3402
aS'363425'
p3403
aS'363535'
p3404
aS'363622'
p3405
aS'363641'
p3406
aS'363670'
p3407
aS'364001'
p3408
aS'364002'
p3409
aS'364071'
p3410
aS'364130'
p3411
aS'364140'
p3412
aS'364146'
p3413
aS'364230'
p3414
ag953
aS'364260'
p3415
aS'364270'
p3416
aS'364275'
p3417
aS'364290'
p3418
aS'364292'
p3419
aS'364296'
p3420
aS'364312'
p3421
aS'364330'
p3422
aS'364410'
p3423
aS'364430'
p3424
aS'380025'
p3425
aS'387370'
p3426
aS'389350'
p3427
asS'Gams'
p3428
(lp3429
S'9473'
p3430
aS'9473'
p3431
asS'Glendive'
p3432
(lp3433
S'59330'
p3434
aS'59330'
p3435
asS'Green Bank'
p3436
(lp3437
S'24944'
p3438
aS'24944'
p3439
asS'Gy\xc3\xb6mr\xc5\x91'
p3440
(lp3441
S'2230'
p3442
aS'2230'
p3443
asS'Goldsboro'
p3444
(lp3445
S'27534'
p3446
aS'27534'
p3447
asS'Gudo'
p3448
(lp3449
S'6515'
p3450
aS'6515'
p3451
asS'Glenwood'
p3452
(lp3453
S'07418'
p3454
aS'07418'
p3455
asS'Galena'
p3456
(lp3457
S'43021'
p3458
aS'43021'
p3459
asS'Greenbrier'
p3460
(lp3461
S'37073'
p3462
aS'37073'
p3463
asS'Geesthacht'
p3464
(lp3465
S'21502'
p3466
aS'21502'
p3467
asS'Girona'
p3468
(lp3469
S'17001'
p3470
aS'17002'
p3471
aS'17003'
p3472
aS'17001'
p3473
aS'17002'
p3474
aS'17003'
p3475
asS'Gamleby'
p3476
(lp3477
S'59430'
p3478
aS'59493'
p3479
aS'59432'
p3480
aS'59430'
p3481
aS'59493'
p3482
asS'Gaganmahal'
p3483
(lp3484
S'500029'
p3485
aS'500029'
p3486
asS'Goodhue'
p3487
(lp3488
S'55027'
p3489
aS'55027'
p3490
asS'Gambell'
p3491
(lp3492
S'99742'
p3493
aS'99742'
p3494
asS'Grono'
p3495
g990
sS'Gl\xe2\x88\x9a\xe2\x88\x82dnitz'
p3496
(lp3497
S'9346'
p3498
asS'Gamdevi'
p3499
(lp3500
S'400007'
p3501
aS'416115'
p3502
aS'400059'
p3503
aS'410401'
p3504
aS'400001'
p3505
aS'400001'
p3506
aS'400001'
p3507
aS'400001'
p3508
aS'400001'
p3509
aS'400001'
p3510
aS'400001'
p3511
aS'400001'
p3512
aS'400001'
p3513
aS'400001'
p3514
aS'400001'
p3515
aS'400001'
p3516
aS'400001'
p3517
aS'400002'
p3518
aS'400002'
p3519
aS'400002'
p3520
aS'400002'
p3521
aS'400002'
p3522
aS'400002'
p3523
aS'400002'
p3524
aS'400002'
p3525
aS'400002'
p3526
aS'400002'
p3527
aS'400002'
p3528
aS'400002'
p3529
aS'400002'
p3530
aS'400002'
p3531
aS'400002'
p3532
aS'400002'
p3533
aS'400002'
p3534
aS'400002'
p3535
aS'400002'
p3536
aS'400002'
p3537
aS'400002'
p3538
aS'400002'
p3539
aS'400002'
p3540
aS'400003'
p3541
aS'400003'
p3542
aS'400003'
p3543
aS'400003'
p3544
aS'400003'
p3545
aS'400003'
p3546
aS'400003'
p3547
aS'400003'
p3548
aS'400003'
p3549
aS'400003'
p3550
aS'400003'
p3551
aS'400003'
p3552
aS'400004'
p3553
aS'400004'
p3554
aS'400004'
p3555
aS'400004'
p3556
aS'400004'
p3557
aS'400004'
p3558
ag2874
aS'400004'
p3559
aS'400004'
p3560
aS'400004'
p3561
aS'400004'
p3562
aS'400004'
p3563
aS'400005'
p3564
aS'400005'
p3565
aS'400005'
p3566
aS'400005'
p3567
aS'400005'
p3568
aS'400005'
p3569
aS'400006'
p3570
aS'400006'
p3571
aS'400007'
p3572
aS'400007'
p3573
aS'400007'
p3574
aS'400007'
p3575
aS'400007'
p3576
aS'400007'
p3577
aS'400007'
p3578
aS'400007'
p3579
aS'400007'
p3580
aS'400007'
p3581
aS'400008'
p3582
aS'400008'
p3583
aS'400008'
p3584
aS'400008'
p3585
aS'400008'
p3586
aS'400008'
p3587
aS'400008'
p3588
aS'400008'
p3589
aS'400008'
p3590
aS'400008'
p3591
aS'400008'
p3592
aS'400008'
p3593
aS'400008'
p3594
aS'400008'
p3595
aS'400009'
p3596
aS'400009'
p3597
aS'400009'
p3598
aS'400009'
p3599
aS'400001'
p3600
aS'400002'
p3601
aS'400003'
p3602
aS'400004'
p3603
aS'400005'
p3604
aS'400006'
p3605
aS'400007'
p3606
aS'400008'
p3607
aS'400009'
p3608
aS'400059'
p3609
aS'410401'
p3610
aS'416115'
p3611
asS'Gro\xc3\x9f Wittensee'
p3612
(lp3613
S'24361'
p3614
aS'24361'
p3615
asS'Gopalpur (Cuttack 2)'
p3616
(lp3617
S'753011'
p3618
aS'753011'
p3619
asS'Gogawan'
p3620
(lp3621
S'451335'
p3622
aS'451335'
p3623
asS'Gurk'
p3624
(lp3625
S'9342'
p3626
aS'9342'
p3627
asS'Genesee Depot'
p3628
(lp3629
S'53127'
p3630
aS'53127'
p3631
asS'Gen\xc3\xa8ve 28 Balexert'
p3632
(lp3633
g1822
asS'Gurrea De Gallego'
p3634
(lp3635
S'22280'
p3636
aS'22280'
p3637
asS'G\xc3\xb3r'
p3638
(lp3639
S'9625'
p3640
aS'9625'
p3641
asS'G\xc3\xb6\xc3\x9fnitz'
p3642
(lp3643
S'04639'
p3644
aS'04639'
p3645
asS'Glastonbury'
p3646
(lp3647
S'06033'
p3648
aS'06033'
p3649
asS'Garinoain'
p3650
(lp3651
S'31395'
p3652
aS'31395'
p3653
asS'Getinge'
p3654
(lp3655
S'31044'
p3656
aS'31044'
p3657
asS'Gr\xc3\xa5lum'
p3658
(lp3659
S'1712'
p3660
aS'1712'
p3661
asS'Gasp\xc3\xa9'
p3662
(lp3663
S'G4X'
p3664
aS'G4X'
p3665
asS'Greensboro'
p3666
(lp3667
S'27401'
p3668
aS'27405'
p3669
aS'27407'
p3670
aS'27409'
p3671
aS'27455'
p3672
aS'27401'
p3673
aS'27405'
p3674
aS'27407'
p3675
aS'27409'
p3676
aS'27455'
p3677
asS'Guia De Isora'
p3678
(lp3679
S'38680'
p3680
aS'38680'
p3681
asS'Granger'
p3682
(lp3683
S'46530'
p3684
aS'82934'
p3685
aS'46530'
p3686
aS'82934'
p3687
asS'Geary'
p3688
(lp3689
S'73040'
p3690
aS'73040'
p3691
asS'Gisingen'
p3692
(lp3693
S'6800'
p3694
asS'Gro\xc3\x9fhansdorf'
p3695
(lp3696
S'22927'
p3697
aS'22927'
p3698
asS'Gressvik'
p3699
(lp3700
S'1620'
p3701
aS'1620'
p3702
asS'Grosvenor Dale'
p3703
(lp3704
S'06246'
p3705
aS'06246'
p3706
asS'Gy\xc3\xb6rk\xc3\xb6ny'
p3707
(lp3708
S'7045'
p3709
aS'7045'
p3710
asS'Greencreek'
p3711
(lp3712
S'83533'
p3713
aS'83533'
p3714
asS'Golden'
p3715
(lp3716
S'38847'
p3717
aS'80401'
p3718
aS'80403'
p3719
aS'80401'
p3720
aS'80403'
p3721
aS'38847'
p3722
asS'Gamle Fredrikstad'
p3723
(lp3724
S'1629'
p3725
aS'1630'
p3726
aS'1639'
p3727
aS'1634'
p3728
aS'1629'
p3729
aS'1634'
p3730
aS'1639'
p3731
asS'Gallur'
p3732
(lp3733
S'50650'
p3734
aS'50650'
p3735
asS'Gr\xc3\xbct (Gossau ZH)'
p3736
(lp3737
S'8624'
p3738
aS'8624'
p3739
asS'George Town'
p3740
(lp3741
S'7253'
p3742
asS'Gre\xc3\xa5ker'
p3743
(lp3744
S'1718'
p3745
aS'1720'
p3746
aS'1718'
p3747
asS'Gruy\xc3\xa8res'
p3748
(lp3749
S'1663'
p3750
asS'Gold Bar'
p3751
(lp3752
S'98251'
p3753
aS'98251'
p3754
asS'G\xc3\xa4chlingen'
p3755
(lp3756
S'8214'
p3757
aS'8214'
p3758
asS'Gasp\xc3\xa9sie-Ouest (Causapscal)'
p3759
(lp3760
S'G0J'
p3761
aS'G0J'
p3762
asS'Grossh\xc3\xb6chstetten'
p3763
(lp3764
S'3506'
p3765
aS'3506'
p3766
asS'Ghall Kalan'
p3767
(lp3768
g3250
aS'142048'
p3769
ag3324
asS'Grue Finnskog'
p3770
(lp3771
S'2256'
p3772
aS'2256'
p3773
asS'G\xc3\xb6llersdorf'
p3774
(lp3775
S'2013'
p3776
asS'Gerersdorf bei G\xe2\x88\x9a\xc2\xbassing'
p3777
(lp3778
S'7542'
p3779
asS'Garden Reach'
p3780
(lp3781
S'700024'
p3782
aS'700024'
p3783
asS'Gilmore'
p3784
(lp3785
S'2905'
p3786
asS'Garrucha'
p3787
(lp3788
S'04630'
p3789
aS'04630'
p3790
asS'Grand Saline'
p3791
(lp3792
S'75140'
p3793
aS'75140'
p3794
asS'Guwahati H O'
p3795
(lp3796
S'781001'
p3797
aS'781001'
p3798
asS'Ger\xc3\xa9nyes'
p3799
(lp3800
S'7362'
p3801
aS'7362'
p3802
asS'Grancy'
p3803
(lp3804
S'1117'
p3805
aS'1117'
p3806
asS'Gulfport'
p3807
(lp3808
S'39503'
p3809
aS'39503'
p3810
asS'Galloway'
p3811
(lp3812
S'43119'
p3813
aS'43119'
p3814
asS'G\xc3\xb3g\xc3\xa1nfa'
p3815
(lp3816
S'8346'
p3817
aS'8346'
p3818
asS'Grana'
p3819
(lp3820
S'06712'
p3821
asS'Gotha'
p3822
(lp3823
S'99867'
p3824
aS'99867'
p3825
asS'Gollion'
p3826
(lp3827
S'1124'
p3828
aS'1124'
p3829
asS'Grindvoll'
p3830
(lp3831
S'2720'
p3832
aS'2720'
p3833
asS'Grantham'
p3834
(lp3835
S'03753'
p3836
aS'03753'
p3837
asS'Gowrie'
p3838
(lp3839
S'2904'
p3840
aS'2904'
p3841
asS'Givisiez'
p3842
(lp3843
S'1762'
p3844
aS'1762'
p3845
asS'Givrins'
p3846
(lp3847
S'1271'
p3848
aS'1271'
p3849
asS'Gurgaon H O'
p3850
(lp3851
S'122001'
p3852
aS'122001'
p3853
asS'Gro\xe2\x88\x9a\xc3\xbc-Enzersdorf'
p3854
(lp3855
g67
asS'Geisa'
p3856
(lp3857
S'36419'
p3858
aS'36419'
p3859
asS'Gaigali (Cow Lane)'
p3860
(lp3861
g3563
asS'Gymkhana Club'
p3862
(lp3863
S'110011'
p3864
aS'110011'
p3865
asS'Gallup'
p3866
(lp3867
S'87301'
p3868
aS'87302'
p3869
aS'87301'
p3870
aS'87302'
p3871
asS'Greenbelt'
p3872
(lp3873
S'20770'
p3874
aS'20770'
p3875
asS'Grants Pass'
p3876
(lp3877
S'97526'
p3878
aS'97526'
p3879
asS'Geiss'
p3880
(lp3881
S'6123'
p3882
aS'6123'
p3883
asS'Granadilla'
p3884
(lp3885
S'38600'
p3886
aS'38600'
p3887
asS'Gloucester (Beacon Hill / Cyrville)'
p3888
(lp3889
S'K1J'
p3890
aS'K1J'
p3891
asS'Gorizia'
p3892
(lp3893
S'34170'
p3894
aS'34170'
p3895
asS'Gries im Sellrain'
p3896
(lp3897
S'6182'
p3898
aS'6182'
p3899
asS'Gibsonville'
p3900
(lp3901
S'27249'
p3902
aS'27249'
p3903
asS'Grand-Lancy 1'
p3904
(lp3905
g1747
ag1812
asS'Gommern'
p3906
(lp3907
S'39245'
p3908
aS'39245'
p3909
asS'Geinberg'
p3910
(lp3911
S'4943'
p3912
aS'4943'
p3913
asS'Grins'
p3914
(lp3915
S'6591'
p3916
aS'6591'
p3917
asS'Grimentz'
p3918
(lp3919
S'3961'
p3920
asS'G M Khanna'
p3921
(lp3922
g3234
aS'141401'
p3923
ag3309
asS'Greene'
p3924
(lp3925
S'02827'
p3926
aS'04236'
p3927
aS'04236'
p3928
aS'02827'
p3929
asS'G\xc3\xa4nserndorf'
p3930
(lp3931
S'2230'
p3932
asS'Gaggenau'
p3933
(lp3934
S'76571'
p3935
aS'76571'
p3936
asS'Galapagar'
p3937
(lp3938
S'28260'
p3939
aS'28260'
p3940
asS'Ghed Bamnasa'
p3941
(lp3942
g3139
ag3392
asS'Garpenberg'
p3943
(lp3944
S'77698'
p3945
aS'77698'
p3946
asS'Glim\xc3\xa5kra'
p3947
(lp3948
S'28064'
p3949
aS'28064'
p3950
asS'Ghunsia'
p3951
(lp3952
g3124
ag3377
asS'Gariahat Market'
p3953
(lp3954
S'700019'
p3955
asS'Grotli'
p3956
(lp3957
S'2695'
p3958
aS'2695'
p3959
asS'Gaudarh Rudranagar'
p3960
(lp3961
S'802183'
p3962
aS'802183'
p3963
asS'Goff'
p3964
(lp3965
S'66428'
p3966
aS'66428'
p3967
asS'Graham'
p3968
(lp3969
S'27253'
p3970
aS'27253'
p3971
asS'Grand Prairie'
p3972
(lp3973
S'75051'
p3974
aS'75053'
p3975
aS'75051'
p3976
aS'75053'
p3977
asS'Gartenheim'
p3978
(lp3979
S'1220'
p3980
asS'G\xc3\xa4chliwil'
p3981
(lp3982
S'4584'
p3983
aS'4584'
p3984
asS'Gooding'
p3985
(lp3986
S'83330'
p3987
aS'83330'
p3988
asS'Gho Brahamana'
p3989
(lp3990
S'181142'
p3991
aS'181142'
p3992
asS'G\xc3\xb6rlitz'
p3993
(lp3994
S'02826'
p3995
aS'02828'
p3996
aS'02826'
p3997
asS'G\xc3\xb6fis'
p3998
(lp3999
S'6811'
p4000
asS'Gillette'
p4001
(lp4002
S'82716'
p4003
aS'82717'
p4004
aS'82716'
p4005
aS'82717'
p4006
asS'Gardiner'
p4007
(lp4008
S'59030'
p4009
aS'59030'
p4010
asS'Ganzo'
p4011
(lp4012
S'39300'
p4013
asS'Ghoghla'
p4014
(lp4015
g3135
ag3388
asS'Grabserberg'
p4016
(lp4017
S'9472'
p4018
aS'9472'
p4019
asS'G\xc3\xb6tzis'
p4020
(lp4021
S'6840'
p4022
asS'God\xc3\xb8ya'
p4023
(lp4024
S'6055'
p4025
asS'Germantown'
p4026
(lp4027
S'20874'
p4028
aS'20876'
p4029
aS'38138'
p4030
aS'53022'
p4031
aS'20874'
p4032
aS'20876'
p4033
aS'38138'
p4034
aS'53022'
p4035
asS'Gandhra'
p4036
(lp4037
S'124529'
p4038
aS'124529'
p4039
asS'Gamvik'
p4040
(lp4041
S'9775'
p4042
aS'9775'
p4043
asS'Gr\xc3\xbcnen'
p4044
(lp4045
S'3455'
p4046
aS'3455'
p4047
asS'General Bus Stand'
p4048
(lp4049
S'160017'
p4050
aS'180001'
p4051
asS'Gajgajganj'
p4052
(lp4053
S'802157'
p4054
aS'802157'
p4055
asS'Georgian Bay South Shore (Angus)'
p4056
(lp4057
S'L0M'
p4058
aS'L0M'
p4059
asS'G\xc3\xb6rtschach'
p4060
(lp4061
S'9615'
p4062
asS'Gordola'
p4063
(lp4064
S'6596'
p4065
aS'6596'
p4066
asS'Guernsey'
p4067
(lp4068
S'82214'
p4069
aS'82214'
p4070
asS'Grannis'
p4071
(lp4072
S'71944'
p4073
aS'71944'
p4074
asS'Glommerstr\xc3\xa4sk'
p4075
(lp4076
S'93081'
p4077
aS'93090'
p4078
aS'93331'
p4079
aS'93333'
p4080
aS'93334'
p4081
aS'93399'
p4082
aS'94128'
p4083
aS'94132'
p4084
aS'94134'
p4085
aS'94139'
p4086
aS'94140'
p4087
aS'94142'
p4088
aS'94147'
p4089
aS'94150'
p4090
aS'94163'
p4091
aS'94291'
p4092
aS'94294'
p4093
aS'94493'
p4094
aS'94533'
p4095
aS'94591'
p4096
aS'94631'
p4097
aS'94640'
p4098
aS'95040'
p4099
aS'95204'
p4100
aS'95233'
p4101
aS'95236'
p4102
aS'95261'
p4103
aS'95270'
p4104
aS'95271'
p4105
aS'95323'
p4106
aS'95331'
p4107
aS'95334'
p4108
aS'95336'
p4109
aS'95385'
p4110
aS'95392'
p4111
aS'95441'
p4112
aS'95442'
p4113
aS'95521'
p4114
aS'95596'
p4115
aS'96030'
p4116
aS'96131'
p4117
aS'96134'
p4118
aS'96137'
p4119
aS'96142'
p4120
aS'96146'
p4121
aS'96151'
p4122
aS'96175'
p4123
aS'96191'
p4124
aS'96193'
p4125
aS'96197'
p4126
aS'96198'
p4127
aS'96223'
p4128
aS'96232'
p4129
aS'97187'
p4130
aS'97232'
p4131
aS'97233'
p4132
aS'97239'
p4133
aS'97242'
p4134
aS'97245'
p4135
aS'97252'
p4136
aS'97254'
p4137
aS'97342'
p4138
aS'97432'
p4139
aS'97442'
p4140
aS'97592'
p4141
aS'97594'
p4142
aS'97596'
p4143
aS'97627'
p4144
aS'97633'
p4145
aS'97753'
p4146
aS'98010'
p4147
aS'98060'
p4148
aS'98102'
p4149
aS'98121'
p4150
aS'98123'
p4151
aS'98129'
p4152
aS'98132'
p4153
aS'98134'
p4154
aS'98135'
p4155
aS'98138'
p4156
aS'98185'
p4157
aS'98186'
p4158
aS'98192'
p4159
aS'98222'
p4160
aS'98235'
p4161
aS'98331'
p4162
aS'98341'
p4163
aS'98431'
p4164
aS'98492'
p4165
aS'96175'
p4166
aS'95331'
p4167
aS'97187'
p4168
aS'93090'
p4169
aS'94163'
p4170
aS'94533'
p4171
aS'95336'
p4172
aS'95442'
p4173
aS'97103'
p4174
aS'97233'
p4175
aS'97252'
p4176
aS'97442'
p4177
aS'97633'
p4178
aS'98129'
p4179
aS'98132'
p4180
aS'98134'
p4181
aS'98431'
p4182
aS'93333'
p4183
aS'94493'
p4184
aS'94631'
p4185
aS'95270'
p4186
aS'95521'
p4187
aS'96193'
p4188
aS'97592'
p4189
aS'97596'
p4190
aS'98138'
p4191
aS'98222'
p4192
aS'93081'
p4193
ag4193
aS'93331'
p4194
aS'93334'
p4195
aS'94128'
p4196
aS'94132'
p4197
aS'94142'
p4198
aS'94147'
p4199
aS'94294'
p4200
aS'94591'
p4201
aS'94640'
p4202
aS'95040'
p4203
aS'95233'
p4204
aS'95236'
p4205
aS'95261'
p4206
aS'95323'
p4207
aS'95334'
p4208
aS'95392'
p4209
aS'95596'
p4210
aS'96030'
p4211
aS'96131'
p4212
aS'96137'
p4213
aS'96142'
p4214
aS'96146'
p4215
aS'96191'
p4216
aS'96198'
p4217
aS'96223'
p4218
aS'96232'
p4219
aS'97232'
p4220
aS'97239'
p4221
aS'97245'
p4222
aS'97254'
p4223
aS'97333'
p4224
aS'97342'
p4225
aS'97594'
p4226
aS'97627'
p4227
aS'98010'
p4228
aS'98060'
p4229
aS'98102'
p4230
aS'98121'
p4231
aS'98135'
p4232
aS'98185'
p4233
aS'98192'
p4234
aS'98231'
p4235
aS'98235'
p4236
aS'98238'
p4237
aS'98492'
p4238
aS'94139'
p4239
aS'95204'
p4240
aS'95271'
p4241
aS'95385'
p4242
aS'95441'
p4243
aS'96134'
p4244
aS'96151'
p4245
aS'96197'
p4246
aS'97242'
p4247
aS'97432'
p4248
aS'97753'
p4249
aS'98123'
p4250
aS'98186'
p4251
aS'98331'
p4252
aS'98341'
p4253
aS'93399'
p4254
aS'94134'
p4255
aS'94140'
p4256
aS'94150'
p4257
aS'94291'
p4258
asS'Gl\xc3\xb6dnitz'
p4259
(lp4260
S'9346'
p4261
asS'Gayville'
p4262
(lp4263
S'57031'
p4264
aS'57031'
p4265
asS'Ganderkesee'
p4266
(lp4267
S'27777'
p4268
aS'27777'
p4269
asS'Gardners Bay'
p4270
(lp4271
S'7112'
p4272
asS'Galgenen'
p4273
(lp4274
g216
ag230
asS'Guruvayur'
p4275
(lp4276
S'680101'
p4277
aS'680101'
p4278
asS'Gy\xc3\xb6re'
p4279
(lp4280
S'7352'
p4281
aS'7352'
p4282
asS'G T Road Ludhiana'
p4283
(lp4284
g3207
aS'141003'
p4285
ag3286
asS'Gandhi Samarak'
p4286
(lp4287
S'110002'
p4288
asS'Gr\xc3\xa4n'
p4289
(lp4290
S'6673'
p4291
asS'Gro\xc3\x9fgmain'
p4292
(lp4293
S'5084'
p4294
asS'Geilo'
p4295
(lp4296
S'3580'
p4297
aS'3581'
p4298
aS'3580'
p4299
aS'3581'
p4300
asS'Grendi'
p4301
(lp4302
S'4742'
p4303
aS'4742'
p4304
asS'Gramastetten'
p4305
(lp4306
S'4201'
p4307
aS'4201'
p4308
asS'Graysville'
p4309
(lp4310
S'35073'
p4311
aS'35073'
p4312
asS'Gersthofen'
p4313
(lp4314
S'86368'
p4315
aS'86368'
p4316
asS'Gy\xc5\x91rz\xc3\xa1moly'
p4317
(lp4318
g1217
ag1303
asS'Gyulah\xc3\xa1za'
p4319
(lp4320
S'4545'
p4321
aS'4545'
p4322
asS'Gillham'
p4323
(lp4324
S'71841'
p4325
aS'71841'
p4326
asS'Gutenstein'
p4327
(lp4328
S'2770'
p4329
ag84
asS'Gyula'
p4330
(lp4331
S'5700'
p4332
aS'5701'
p4333
aS'5700'
p4334
aS'5701'
p4335
asS'Gandia'
p4336
(lp4337
S'46700'
p4338
aS'46700'
p4339
asS'Garhwal'
p4340
(lp4341
S'124316'
p4342
aS'124316'
p4343
asS'Georgetown'
p4344
(lp4345
S'5472'
p4346
aS'L7G'
p4347
aS'L7G'
p4348
aS'5472'
p4349
aS'29440'
p4350
aS'29440'
p4351
asS'Goehner'
p4352
(lp4353
S'68364'
p4354
aS'68364'
p4355
asS'Graham Bazar'
p4356
(lp4357
S'786001'
p4358
asS'G\xc3\xa9derlak'
p4359
(lp4360
S'6334'
p4361
aS'6334'
p4362
asS'Gunskirchen'
p4363
(lp4364
S'4623'
p4365
aS'4623'
p4366
asS'Grymov'
p4367
(lp4368
S'751 21'
p4369
asS'Galesville'
p4370
(lp4371
S'20765'
p4372
aS'20765'
p4373
asS'Gavi\xc3\xa3o'
p4374
(lp4375
S'6040-101'
p4376
aS'6040-103'
p4377
aS'6040-105'
p4378
aS'6040-107'
p4379
aS'6040-109'
p4380
aS'6040-111'
p4381
aS'6040-113'
p4382
aS'6040-115'
p4383
aS'6040-117'
p4384
aS'6040-119'
p4385
aS'6040-121'
p4386
aS'6040-123'
p4387
aS'6040-125'
p4388
aS'6040-127'
p4389
aS'6040-129'
p4390
aS'6040-999'
p4391
aS'6040-101'
p4392
aS'6040-103'
p4393
aS'6040-105'
p4394
aS'6040-107'
p4395
aS'6040-109'
p4396
aS'6040-111'
p4397
aS'6040-113'
p4398
aS'6040-115'
p4399
aS'6040-117'
p4400
aS'6040-119'
p4401
aS'6040-121'
p4402
aS'6040-123'
p4403
aS'6040-125'
p4404
aS'6040-127'
p4405
aS'6040-129'
p4406
aS'6040-999'
p4407
asS'Garden City'
p4408
(lp4409
S'35070'
p4410
aS'57236'
p4411
aS'67846'
p4412
aS'35070'
p4413
aS'67846'
p4414
aS'57236'
p4415
asS'Gjerstad'
p4416
(lp4417
S'4980'
p4418
aS'4972'
p4419
aS'4972'
p4420
aS'4980'
p4421
asS'G\xc3\xa5l\xc3\xa5'
p4422
(lp4423
S'2646'
p4424
aS'2646'
p4425
asS'Gy\xc5\x91r\xc3\xbajbar\xc3\xa1t'
p4426
(lp4427
g1190
ag1284
asS'Gol\xc4\x8d\xc5\xafv Jen\xc3\xadkov'
p4428
(lp4429
S'582 82'
p4430
asS'Glen Forrest'
p4431
(lp4432
S'6071'
p4433
aS'6071'
p4434
asS'Gastonia'
p4435
(lp4436
S'28053'
p4437
aS'28056'
p4438
aS'28053'
p4439
aS'28056'
p4440
asS'Guttaring'
p4441
(lp4442
S'9334'
p4443
aS'9334'
p4444
asS'Ghanauli'
p4445
(lp4446
g3185
aS'140113'
p4447
ag3272
asS'Geraldine'
p4448
(lp4449
S'59446'
p4450
aS'59446'
p4451
asS'Gardermoen'
p4452
(lp4453
S'2061'
p4454
aS'2065'
p4455
aS'2061'
p4456
aS'2065'
p4457
asS'Gorraiz'
p4458
(lp4459
S'31620'
p4460
aS'31620'
p4461
asS'Grand River'
p4462
(lp4463
S'50108'
p4464
aS'50108'
p4465
asS'Glen Arm'
p4466
(lp4467
S'21057'
p4468
aS'21057'
p4469
asS'Grover'
p4470
(lp4471
S'83122'
p4472
aS'83122'
p4473
asS'Ghantvad'
p4474
(lp4475
g3140
ag3393
asS'Gores War'
p4476
(lp4477
S'781366'
p4478
aS'781366'
p4479
asS'Glendale'
p4480
(lp4481
S'85301'
p4482
aS'85303'
p4483
aS'85305'
p4484
aS'85307'
p4485
aS'85310'
p4486
aS'85311'
p4487
aS'85313'
p4488
aS'85301'
p4489
aS'85303'
p4490
aS'85305'
p4491
aS'85307'
p4492
aS'85310'
p4493
aS'85311'
p4494
aS'85313'
p4495
asS'Geedam'
p4496
(lp4497
S'494441'
p4498
aS'494441'
p4499
asS'Grimes'
p4500
(lp4501
S'50111'
p4502
aS'50111'
p4503
asS'Gopal Bazar'
p4504
(lp4505
S'781353'
p4506
aS'781353'
p4507
asS'Gruben'
p4508
(lp4509
S'3946'
p4510
aS'3946'
p4511
asS'Glenelg'
p4512
(lp4513
S'5045'
p4514
asS'Gales Creek'
p4515
(lp4516
S'97117'
p4517
aS'97117'
p4518
asS'Gr\xc3\xb6ditz'
p4519
(lp4520
S'01609'
p4521
aS'01609'
p4522
asS'Glen Iris'
p4523
(lp4524
S'3146'
p4525
aS'3146'
p4526
asS'Gaura'
p4527
(lp4528
S'172002'
p4529
aS'172002'
p4530
asS'Grand Falls'
p4531
(lp4532
S'A2A'
p4533
aS'A2A'
p4534
aS'A2A'
p4535
asS'Gy\xc5\x91r'
p4536
(lp4537
g1179
ag1180
ag1181
ag1183
ag1184
ag1185
ag1189
ag1203
ag1231
ag1265
ag1273
ag1274
ag1275
ag1276
ag1277
ag1278
ag1279
ag1280
ag1281
ag1282
asS'Griffin'
p4538
(lp4539
S'30224'
p4540
aS'30224'
p4541
asS'Great Mills'
p4542
(lp4543
S'20634'
p4544
aS'20634'
p4545
asS'Gattikon'
p4546
(lp4547
S'8136'
p4548
aS'8136'
p4549
asS'Grosseto'
p4550
(lp4551
S'58100'
p4552
aS'58100'
p4553
asS'Gasen'
p4554
(lp4555
S'8616'
p4556
aS'8616'
p4557
asS'Gf\xe2\x88\x9a\xe2\x88\x82hl'
p4558
(lp4559
g92
asS'Glen Allen'
p4560
(lp4561
S'23060'
p4562
aS'23060'
p4563
asS'Grinzing'
p4564
(lp4565
S'1190'
p4566
asS'Geithain'
p4567
(lp4568
S'04643'
p4569
aS'04643'
p4570
asS'Giornico'
p4571
(lp4572
S'6745'
p4573
aS'6745'
p4574
asS'Gariaband'
p4575
(lp4576
S'493889'
p4577
aS'493889'
p4578
asS'Galt\xc3\xbcr'
p4579
(lp4580
S'6563'
p4581
asS'G\xc3\xb6rbeh\xc3\xa1za'
p4582
(lp4583
S'4078'
p4584
asS'Ghana Ki Hatti'
p4585
(lp4586
S'171101'
p4587
aS'171101'
p4588
asS'Gan'
p4589
(lp4590
S'1903'
p4591
aS'1903'
p4592
asS'Guntown'
p4593
(lp4594
S'38849'
p4595
aS'38849'
p4596
asS'Goodna'
p4597
(lp4598
S'4300'
p4599
aS'4300'
p4600
asS'Glomfjord'
p4601
(lp4602
S'8160'
p4603
aS'8161'
p4604
aS'8160'
p4605
aS'8161'
p4606
asS'Greenwood'
p4607
(lp4608
S'4401'
p4609
aS'19950'
p4610
aS'29649'
p4611
aS'38930'
p4612
aS'46143'
p4613
aS'68366'
p4614
aS'19950'
p4615
aS'46143'
p4616
aS'38930'
p4617
aS'68366'
p4618
aS'29649'
p4619
asS'G\xc3\xbcnselsdorf'
p4620
(lp4621
S'2525'
p4622
asS'Gore Hill'
p4623
(lp4624
S'2065'
p4625
asS'Gopinath Nagar'
p4626
(lp4627
S'781016'
p4628
aS'781016'
p4629
asS'Gerrardstown'
p4630
(lp4631
S'25420'
p4632
aS'25420'
p4633
asS'Glasenbach'
p4634
(lp4635
S'5061'
p4636
asS'Grande Prairie East'
p4637
(lp4638
S'T8X'
p4639
aS'T8X'
p4640
asS'Grevenbroich'
p4641
(lp4642
S'41516'
p4643
aS'41516'
p4644
asS'Grapetree'
p4645
(lp4646
S'4352'
p4647
aS'4352'
p4648
asS'Gehlberg'
p4649
(lp4650
S'98559'
p4651
aS'98559'
p4652
asS'Gad\xc3\xa1ny'
p4653
(lp4654
S'8716'
p4655
aS'8716'
p4656
asS'Gandhi Nagar H O'
p4657
(lp4658
S'180004'
p4659
aS'180004'
p4660
asS'Gelsesziget'
p4661
(lp4662
S'8774'
p4663
aS'8774'
p4664
asS'Gnigl'
p4665
(lp4666
S'5023'
p4667
aS'5023'
p4668
asS'Gilsum'
p4669
(lp4670
S'03448'
p4671
aS'03448'
p4672
asS'Golf Links'
p4673
(lp4674
S'110003'
p4675
aS'110003'
p4676
asS'Georges Mills'
p4677
(lp4678
S'03751'
p4679
aS'03751'
p4680
asS'Gifhorn'
p4681
(lp4682
S'38518'
p4683
aS'38518'
p4684
asS'Gratangen'
p4685
(lp4686
S'9470'
p4687
asS'Grades'
p4688
(lp4689
S'9362'
p4690
aS'9362'
p4691
asS'Goumoens-le-Jux'
p4692
(lp4693
S'1376'
p4694
asS'G\xc3\xb6schenen'
p4695
(lp4696
S'6487'
p4697
aS'6487'
p4698
asS'Gelfingen'
p4699
(lp4700
S'6284'
p4701
aS'6284'
p4702
asS'Gibbstown'
p4703
(lp4704
S'08027'
p4705
aS'08027'
p4706
asS'Griesheim'
p4707
(lp4708
S'64347'
p4709
aS'64347'
p4710
asS'Graltshausen'
p4711
(lp4712
S'8572'
p4713
asS'Gandhi Hospital'
p4714
(lp4715
S'500003'
p4716
aS'500003'
p4717
asS'Greifenburg'
p4718
(lp4719
S'9761'
p4720
aS'9761'
p4721
asS'Gnas'
p4722
(lp4723
S'8342'
p4724
aS'8342'
p4725
asS'Gerald'
p4726
(lp4727
S'63037'
p4728
aS'63037'
p4729
asS'G\xc3\xa1t\xc3\xa9r'
p4730
(lp4731
S'6111'
p4732
aS'6111'
p4733
asS'G\xc3\xa1rdony'
p4734
(lp4735
S'2483'
p4736
aS'2484'
p4737
aS'2485'
p4738
aS'2484'
p4739
aS'2485'
p4740
asS'Gainesville'
p4741
(lp4742
S'20155'
p4743
aS'30504'
p4744
aS'32601'
p4745
aS'32601'
p4746
aS'30504'
p4747
aS'20155'
p4748
asS'Gosau'
p4749
(lp4750
S'4824'
p4751
aS'4824'
p4752
asS'Glenview'
p4753
(lp4754
S'60025'
p4755
aS'60025'
p4756
asS'Goodyear'
p4757
(lp4758
S'85338'
p4759
aS'85338'
p4760
asS'Gunzwil'
p4761
(lp4762
S'6222'
p4763
aS'6222'
p4764
asS'Gurdon'
p4765
(lp4766
S'71743'
p4767
aS'71743'
p4768
asS'Glassport'
p4769
(lp4770
S'15045'
p4771
aS'15045'
p4772
asS'Grayling'
p4773
(lp4774
S'49738'
p4775
aS'99590'
p4776
aS'99590'
p4777
aS'49738'
p4778
asS'Gerbstedt'
p4779
(lp4780
S'06347'
p4781
aS'06347'
p4782
asS'Gernrode'
p4783
(lp4784
S'06507'
p4785
asS'Gen\xc3\xa8ve 15 A\xc3\xa9roport cases'
p4786
(lp4787
g1830
asS'Guilford'
p4788
(lp4789
S'06437'
p4790
aS'06437'
p4791
asS'Goa Velha'
p4792
(lp4793
g2914
ag2932
asS'Geszter\xc3\xa9d'
p4794
(lp4795
S'4232'
p4796
asS'Greenway'
p4797
(lp4798
S'2900'
p4799
asS'Grandsivaz'
p4800
(lp4801
S'1775'
p4802
aS'1775'
p4803
asS'Gwelup'
p4804
(lp4805
S'6018'
p4806
asS'Geretsried'
p4807
(lp4808
S'82538'
p4809
aS'82538'
p4810
asS'G\xc3\xa1vavencsell\xc5\x91'
p4811
(lp4812
S'4472'
p4813
aS'4472'
p4814
asS'Gandala'
p4815
(lp4816
S'301709'
p4817
aS'301709'
p4818
asS'Gray'
p4819
(lp4820
S'0830'
p4821
asS'Graz'
p4822
(lp4823
S'8010'
p4824
aS'8160'
p4825
aS'8041'
p4826
ag4826
aS'8045'
p4827
ag4827
aS'8054'
p4828
ag4828
aS'8055'
p4829
ag4829
aS'8530'
p4830
aS'8700'
p4831
aS'8970'
p4832
aS'8053'
p4833
ag4833
aS'8130'
p4834
aS'8600'
p4835
aS'8753'
p4836
aS'8990'
p4837
aS'8043'
p4838
ag4838
aS'8046'
p4839
ag4839
aS'8074'
p4840
aS'8225'
p4841
ag2317
aS'8350'
p4842
aS'8435'
p4843
aS'8463'
p4844
aS'8490'
p4845
aS'8502'
p4846
aS'8510'
p4847
aS'8552'
p4848
aS'8572'
p4849
aS'8630'
p4850
aS'8670'
p4851
aS'8712'
p4852
aS'8850'
p4853
aS'8952'
p4854
aS'8983'
p4855
aS'8993'
p4856
aS'8102'
p4857
aS'8162'
p4858
ag2095
aS'8250'
p4859
ag4724
aS'8401'
p4860
aS'8454'
p4861
aS'8561'
p4862
aS'8742'
p4863
aS'8786'
p4864
aS'8950'
p4865
aS'8982'
p4866
aS'8055'
p4867
aS'8063'
p4868
ag2246
aS'8072'
p4869
aS'8091'
p4870
aS'8114'
p4871
aS'8131'
p4872
aS'8144'
p4873
ag2212
aS'8182'
p4874
aS'8191'
p4875
aS'8230'
p4876
aS'8240'
p4877
aS'8243'
p4878
aS'8254'
p4879
aS'8261'
p4880
aS'8272'
p4881
aS'8291'
p4882
aS'8301'
p4883
aS'8323'
p4884
aS'8330'
p4885
aS'8344'
p4886
aS'8353'
p4887
aS'8355'
p4888
aS'8402'
p4889
aS'8423'
p4890
aS'8430'
p4891
aS'8430'
p4892
aS'8441'
p4893
ag3066
aS'8484'
p4894
aS'8511'
p4895
aS'8544'
p4896
aS'8564'
p4897
aS'8592'
p4898
ag4556
aS'8625'
p4899
aS'8644'
p4900
aS'8662'
p4901
aS'8671'
p4902
aS'8674'
p4903
aS'8691'
p4904
aS'8714'
p4905
aS'8732'
p4906
aS'8740'
p4907
aS'8761'
p4908
aS'8764'
p4909
aS'8774'
p4910
ag2488
aS'8785'
p4911
aS'8811'
p4912
aS'8813'
p4913
aS'8831'
p4914
aS'8833'
p4915
aS'8043'
p4916
ag4916
aS'8045'
p4917
ag4917
aS'8054'
p4918
ag4918
aS'8063'
p4919
aS'8072'
p4920
aS'8074'
p4921
aS'8091'
p4922
aS'8102'
p4923
aS'8114'
p4924
ag2213
aS'8182'
p4925
aS'8191'
p4926
aS'8225'
p4927
aS'8240'
p4928
aS'8250'
p4929
aS'8261'
p4930
aS'8272'
p4931
aS'8291'
p4932
aS'8301'
p4933
aS'8323'
p4934
aS'8330'
p4935
ag4725
aS'8344'
p4936
aS'8350'
p4937
aS'8355'
p4938
aS'8402'
p4939
aS'8423'
p4940
aS'8435'
p4941
aS'8441'
p4942
aS'8454'
p4943
aS'8463'
p4944
ag3067
aS'8484'
p4945
aS'8490'
p4946
aS'8510'
p4947
aS'8530'
p4948
aS'8544'
p4949
aS'8552'
p4950
aS'8561'
p4951
aS'8572'
p4952
aS'8592'
p4953
aS'8600'
p4954
ag4557
aS'8630'
p4955
aS'8644'
p4956
aS'8662'
p4957
aS'8670'
p4958
aS'8671'
p4959
aS'8674'
p4960
aS'8691'
p4961
aS'8714'
p4962
aS'8732'
p4963
aS'8740'
p4964
aS'8742'
p4965
aS'8753'
p4966
aS'8761'
p4967
aS'8764'
p4968
ag2489
aS'8785'
p4969
aS'8786'
p4970
aS'8811'
p4971
aS'8813'
p4972
aS'8831'
p4973
aS'8833'
p4974
aS'8950'
p4975
aS'8952'
p4976
aS'8970'
p4977
aS'8982'
p4978
aS'8983'
p4979
aS'8990'
p4980
aS'8993'
p4981
asS'Glenorchy'
p4982
(lp4983
S'7010'
p4984
asS'Goulds'
p4985
(lp4986
S'A1S'
p4987
aS'A1S'
p4988
asS'G\xc3\xa9rce'
p4989
(lp4990
S'9672'
p4991
aS'9672'
p4992
asS'Gr\xe2\x88\x9a\xc2\xa7n'
p4993
(lp4994
S'6673'
p4995
asS'Gj\xc3\xb8ra'
p4996
(lp4997
S'6613'
p4998
aS'6613'
p4999
asS'Gardendale'
p5000
(lp5001
S'35071'
p5002
aS'35071'
p5003
asS'Gran'
p5004
(lp5005
S'2711'
p5006
aS'2711'
p5007
asS'Gen\xc3\xa8ve UBS'
p5008
(lp5009
g1829
asS'Ghawaddi'
p5010
(lp5011
g3226
aS'141206'
p5012
ag3301
asS'Gr\xc3\xa4ngesberg'
p5013
(lp5014
S'77231'
p5015
aS'77231'
p5016
asS'Gandhi Krishi'
p5017
(lp5018
S'560009'
p5019
aS'560009'
p5020
asS'Groveton'
p5021
(lp5022
S'03582'
p5023
aS'03582'
p5024
asS'Galmiz'
p5025
(lp5026
S'3285'
p5027
aS'3285'
p5028
asS'Gangaghat (Unnao)'
p5029
(lp5030
S'209861'
p5031
aS'209861'
p5032
asS'G\xc3\xb6tzens'
p5033
(lp5034
S'6091'
p5035
asS'Giampilieri'
p5036
(lp5037
S'98142'
p5038
aS'98142'
p5039
asS'Gro\xc3\x9f-Enzersdorf'
p5040
(lp5041
S'2301'
p5042
asS'Gandhi Gunj'
p5043
(lp5044
S'503001'
p5045
aS'503001'
p5046
asS'Garland'
p5047
(lp5048
S'75041'
p5049
aS'75043'
p5050
aS'75045'
p5051
aS'75047'
p5052
aS'75049'
p5053
aS'84312'
p5054
aS'75041'
p5055
aS'75043'
p5056
aS'75045'
p5057
aS'75047'
p5058
aS'75049'
p5059
aS'84312'
p5060
asS'Goppisberg'
p5061
(lp5062
S'3983'
p5063
aS'3983'
p5064
asS'Gen\xc3\xa8ve 71 CS CP'
p5065
(lp5066
g1824
asS'Goldingen'
p5067
(lp5068
S'8638'
p5069
asS'Grandas De Salime'
p5070
(lp5071
S'33730'
p5072
aS'33730'
p5073
asS'Gen\xc3\xa8ve 1'
p5074
(lp5075
g1784
asS'Gen\xc3\xa8ve 3'
p5076
(lp5077
g1778
asS'Gen\xc3\xa8ve 2'
p5078
(lp5079
g1773
asS'Gen\xc3\xa8ve 5'
p5080
(lp5081
g1814
asS'Gunnarsbyn'
p5082
(lp5083
g4126
ag4246
asS'Gen\xc3\xa8ve 7'
p5084
(lp5085
g1813
asS'Gen\xc3\xa8ve 6'
p5086
(lp5087
g1783
asS'Gen\xc3\xa8ve 9'
p5088
(lp5089
g1821
asS'Gen\xc3\xa8ve 8'
p5090
(lp5091
g1819
asS'Greifswald'
p5092
(lp5093
S'17489'
p5094
aS'17493'
p5095
aS'17489'
p5096
aS'17493'
p5097
asS'Grycksbo'
p5098
(lp5099
S'79020'
p5100
aS'79020'
p5101
asS'Greenville'
p5102
(lp5103
S'02828'
p5104
aS'16125'
p5105
aS'27834'
p5106
aS'29601'
p5107
aS'29615'
p5108
aS'38701'
p5109
aS'38703'
p5110
aS'38701'
p5111
aS'38703'
p5112
aS'27834'
p5113
aS'16125'
p5114
aS'02828'
p5115
aS'29601'
p5116
aS'29615'
p5117
asS'G\xc3\xbce\xc3\xb1es'
p5118
(lp5119
S'48840'
p5120
aS'48840'
p5121
asS'Gallarta'
p5122
(lp5123
S'48500'
p5124
aS'48500'
p5125
asS'Ghungrana'
p5126
(lp5127
g3225
aS'141204'
p5128
ag3300
asS'Groveport'
p5129
(lp5130
S'43125'
p5131
aS'43125'
p5132
asS'Grinder'
p5133
(lp5134
S'2264'
p5135
aS'2264'
p5136
asS'Gransherad'
p5137
(lp5138
S'3691'
p5139
aS'3691'
p5140
asS'Gaurajainagar'
p5141
(lp5142
S'274603'
p5143
aS'274603'
p5144
asS'Gries am Brenner'
p5145
(lp5146
S'6156'
p5147
aS'6156'
p5148
asS'Grenchen'
p5149
(lp5150
S'2540'
p5151
asS'Grancia'
p5152
(lp5153
S'6916'
p5154
asS'Garbsen'
p5155
(lp5156
S'30827'
p5157
aS'30827'
p5158
asS'Gra\xc3\xa7a'
p5159
(lp5160
S'9580-025'
p5161
aS'9580-025'
p5162
asS'Gangenahalli Extn'
p5163
(lp5164
S'560032'
p5165
aS'560032'
p5166
asS'Guston'
p5167
(lp5168
S'40142'
p5169
aS'40142'
p5170
asS'Gralla'
p5171
(lp5172
g4891
asS'G\xc3\xa4llivare'
p5173
(lp5174
g4160
ag4161
ag4192
ag4235
ag4236
ag4237
asS'G\xc3\xb6d\xc3\xb6ll\xc5\x91'
p5175
(lp5176
S'2100'
p5177
aS'2101'
p5178
aS'2105'
p5179
aS'2100'
p5180
aS'2101'
p5181
aS'2105'
p5182
asS'Garrett'
p5183
(lp5184
S'82058'
p5185
aS'82058'
p5186
asS'Green Bay'
p5187
(lp5188
S'54301'
p5189
aS'54301'
p5190
asS'Galib Kalan'
p5191
(lp5192
g3246
aS'142036'
p5193
ag3320
asS'Grota'
p5194
(lp5195
S'9930-108'
p5196
aS'9930-108'
p5197
asS'Gordevio'
p5198
(lp5199
S'6672'
p5200
aS'6672'
p5201
asS'Ghiri'
p5202
(lp5203
S'175044'
p5204
aS'175044'
p5205
asS'Guadalajara'
p5206
(lp5207
S'19003'
p5208
aS'19071'
p5209
aS'19003'
p5210
aS'19071'
p5211
asS'Genestrerio'
p5212
(lp5213
S'6852'
p5214
aS'6852'
p5215
asS'Giudecca Di Burano'
p5216
(lp5217
S'30142'
p5218
aS'30142'
p5219
asS'Garh Nokha'
p5220
(lp5221
S'802215'
p5222
aS'802215'
p5223
asS'Geiranger'
p5224
(lp5225
S'6216'
p5226
aS'6216'
p5227
asS'Glauchau'
p5228
(lp5229
S'08371'
p5230
aS'08371'
p5231
asS'Grundlsee'
p5232
(lp5233
g4856
ag4981
asS'Geislingen'
p5234
(lp5235
S'72351'
p5236
aS'72351'
p5237
asS'G\xc3\xb6ming'
p5238
(lp5239
S'5114'
p5240
asS'G\xc3\xb6dre'
p5241
(lp5242
S'7386'
p5243
aS'7386'
p5244
asS'Gablitz'
p5245
(lp5246
S'3003'
p5247
asS'Gola'
p5248
(lp5249
S'829110'
p5250
aS'829110'
p5251
asS'Guatiza'
p5252
(lp5253
S'35544'
p5254
aS'35544'
p5255
asS'Geyer'
p5256
(lp5257
S'09468'
p5258
aS'09468'
p5259
asS'Green Park Market'
p5260
(lp5261
S'110016'
p5262
aS'110016'
p5263
asS'Gols'
p5264
(lp5265
S'7122'
p5266
aS'7122'
p5267
asS'Greppen'
p5268
(lp5269
S'6404'
p5270
aS'6404'
p5271
asS'Gaithersburg'
p5272
(lp5273
S'20878'
p5274
aS'20882'
p5275
aS'20878'
p5276
aS'20882'
p5277
asS'Ghundarana'
p5278
(lp5279
g3167
ag3420
asS'Godma'
p5280
(lp5281
S'754159'
p5282
aS'754159'
p5283
asS'Gargellen'
p5284
(lp5285
S'6787'
p5286
aS'6787'
p5287
asS'Granada'
p5288
(lp5289
S'18002'
p5290
aS'18006'
p5291
aS'18007'
p5292
aS'18009'
p5293
aS'18012'
p5294
aS'18015'
p5295
aS'18071'
p5296
aS'18080'
p5297
aS'18071'
p5298
aS'18002'
p5299
aS'18009'
p5300
aS'18006'
p5301
aS'18012'
p5302
aS'18080'
p5303
aS'18007'
p5304
aS'18015'
p5305
asS'Glanegg'
p5306
(lp5307
S'9555'
p5308
aS'5082'
p5309
aS'5082'
p5310
aS'9555'
p5311
asS'Greenbush'
p5312
(lp5313
S'53026'
p5314
aS'53026'
p5315
asS'Governors Camp'
p5316
(lp5317
S'793025'
p5318
aS'793025'
p5319
asS'Gamerco'
p5320
(lp5321
S'87317'
p5322
aS'87317'
p5323
asS'Georgia'
p5324
(lp5325
S'30002'
p5326
aS'30004'
p5327
aS'30006'
p5328
aS'30008'
p5329
aS'30012'
p5330
aS'30013'
p5331
aS'30016'
p5332
aS'30019'
p5333
aS'30023'
p5334
aS'30028'
p5335
aS'30031'
p5336
aS'30033'
p5337
aS'30035'
p5338
aS'30038'
p5339
aS'30040'
p5340
aS'30042'
p5341
aS'30044'
p5342
aS'30046'
p5343
aS'30052'
p5344
aS'30058'
p5345
aS'30061'
p5346
aS'30064'
p5347
aS'30066'
p5348
aS'30067'
p5349
aS'30071'
p5350
aS'30074'
p5351
aS'30077'
p5352
aS'30079'
p5353
aS'30081'
p5354
aS'30083'
p5355
aS'30086'
p5356
aS'30088'
p5357
aS'30092'
p5358
aS'30094'
p5359
aS'30096'
p5360
aS'30098'
p5361
aS'30101'
p5362
aS'30103'
p5363
aS'30107'
p5364
aS'30110'
p5365
aS'30114'
p5366
aS'30116'
p5367
aS'30122'
p5368
aS'30125'
p5369
aS'30127'
p5370
aS'30133'
p5371
aS'30135'
p5372
aS'30141'
p5373
aS'30144'
p5374
aS'30168'
p5375
aS'30178'
p5376
aS'30183'
p5377
aS'30188'
p5378
aS'30213'
p5379
aS'30215'
p5380
ag4540
aS'30233'
p5381
aS'30252'
p5382
aS'30269'
p5383
aS'30274'
p5384
aS'30277'
p5385
aS'30287'
p5386
aS'30290'
p5387
aS'30294'
p5388
aS'30296'
p5389
aS'30301'
p5390
aS'30303'
p5391
aS'30306'
p5392
aS'30309'
p5393
aS'30310'
p5394
aS'30312'
p5395
aS'30315'
p5396
aS'30317'
p5397
aS'30318'
p5398
aS'30322'
p5399
aS'30326'
p5400
aS'30328'
p5401
aS'30330'
p5402
aS'30332'
p5403
aS'30336'
p5404
aS'30339'
p5405
aS'30341'
p5406
aS'30345'
p5407
aS'30350'
p5408
aS'30355'
p5409
aS'30361'
p5410
aS'30392'
p5411
ag4744
aS'30512'
p5412
aS'30515'
p5413
aS'30519'
p5414
aS'30303'
p5415
aS'30004'
p5416
aS'30013'
p5417
aS'30067'
p5418
aS'30083'
p5419
aS'30096'
p5420
aS'30144'
p5421
aS'30309'
p5422
aS'30318'
p5423
aS'30328'
p5424
aS'30339'
p5425
aS'30002'
p5426
ag5426
aS'30006'
p5427
aS'30008'
p5428
aS'30010'
p5429
aS'30012'
p5430
aS'30016'
p5431
aS'30019'
p5432
aS'30023'
p5433
aS'30028'
p5434
aS'30031'
p5435
aS'30033'
p5436
aS'30035'
p5437
aS'30038'
p5438
aS'30040'
p5439
aS'30042'
p5440
aS'30044'
p5441
aS'30046'
p5442
aS'30052'
p5443
aS'30058'
p5444
aS'30061'
p5445
aS'30064'
p5446
aS'30066'
p5447
aS'30071'
p5448
aS'30074'
p5449
aS'30077'
p5450
aS'30079'
p5451
aS'30081'
p5452
aS'30086'
p5453
aS'30088'
p5454
aS'30092'
p5455
aS'30094'
p5456
aS'30098'
p5457
aS'30101'
p5458
aS'30103'
p5459
aS'30107'
p5460
aS'30110'
p5461
aS'30114'
p5462
aS'30116'
p5463
aS'30120'
p5464
aS'30122'
p5465
aS'30125'
p5466
aS'30127'
p5467
aS'30133'
p5468
aS'30135'
p5469
aS'30141'
p5470
aS'30152'
p5471
aS'30161'
p5472
aS'30168'
p5473
aS'30178'
p5474
aS'30180'
p5475
aS'30183'
p5476
aS'30188'
p5477
aS'30213'
p5478
aS'30215'
p5479
ag4541
aS'30233'
p5480
aS'30237'
p5481
aS'30248'
p5482
aS'30252'
p5483
aS'30260'
p5484
aS'30265'
p5485
aS'30269'
p5486
aS'30274'
p5487
aS'30277'
p5488
aS'30287'
p5489
aS'30290'
p5490
aS'30294'
p5491
aS'30296'
p5492
aS'30301'
p5493
aS'30306'
p5494
aS'30310'
p5495
aS'30312'
p5496
aS'30315'
p5497
aS'30317'
p5498
aS'30322'
p5499
aS'30326'
p5500
aS'30330'
p5501
aS'30332'
p5502
aS'30336'
p5503
aS'30341'
p5504
aS'30345'
p5505
aS'30350'
p5506
aS'30355'
p5507
aS'30361'
p5508
aS'30392'
p5509
ag4747
aS'30512'
p5510
aS'30515'
p5511
aS'30519'
p5512
asS'Gouri Pur'
p5513
(lp5514
S'783331'
p5515
aS'783331'
p5516
asS'Grayslake'
p5517
(lp5518
S'60030'
p5519
aS'60030'
p5520
asS'Grindel'
p5521
(lp5522
S'4247'
p5523
aS'4247'
p5524
asS'G\xc3\xbcltz'
p5525
(lp5526
S'17089'
p5527
aS'17089'
p5528
asS'Gritsch'
p5529
(lp5530
S'8383'
p5531
aS'8383'
p5532
asS'Greenup'
p5533
(lp5534
S'41144'
p5535
aS'41144'
p5536
asS'Geneva'
p5537
g1742
sS'Gamsen'
p5538
(lp5539
S'3900'
p5540
asS'Gr\xc3\xa4nna'
p5541
(lp5542
S'56331'
p5543
aS'56331'
p5544
asS'Gen\xc3\xa8ve 2 Cornavin D\xc3\xa9p\xc3\xb4t'
p5545
(lp5546
g1820
asS'Gnosca'
p5547
(lp5548
S'6525'
p5549
aS'6525'
p5550
asS'G\xc3\xa4strike-Hammarby'
p5551
(lp5552
g1900
ag2007
asS'Gjerdrum'
p5553
(lp5554
S'2024'
p5555
asS'Gyulaj'
p5556
(lp5557
S'7227'
p5558
aS'7227'
p5559
asS'Gagwana'
p5560
(lp5561
S'305023'
p5562
aS'305023'
p5563
asS'Grasston'
p5564
(lp5565
S'55030'
p5566
aS'55030'
p5567
asS'Gr\xc3\xa4nichen'
p5568
(lp5569
S'5722'
p5570
aS'5722'
p5571
asS'Gelbensande'
p5572
(lp5573
S'18182'
p5574
aS'18182'
p5575
asS'Goodwin'
p5576
(lp5577
S'57238'
p5578
aS'57238'
p5579
asS'Grevesm\xc3\xbchlen'
p5580
(lp5581
S'23936'
p5582
aS'23936'
p5583
asS'Gandai Paderia'
p5584
(lp5585
S'491888'
p5586
aS'491888'
p5587
asS'Gursk\xc3\xb8y'
p5588
(lp5589
S'6080'
p5590
aS'6080'
p5591
asS'Georgenthal'
p5592
(lp5593
S'99887'
p5594
aS'99887'
p5595
asS'Government Camp'
p5596
(lp5597
S'97028'
p5598
aS'97028'
p5599
asS'G\xc3\xbctersloh'
p5600
(lp5601
S'33311'
p5602
aS'33332'
p5603
aS'33311'
p5604
aS'33332'
p5605
asS'Graceville'
p5606
(lp5607
S'4075'
p5608
asS'Gen\xc3\xa8ve ICC OLS'
p5609
(lp5610
g1825
asS'Gossau SG'
p5611
(lp5612
S'9200'
p5613
aS'9200'
p5614
asS'Gabelletta Di Cesi'
p5615
(lp5616
S'05100'
p5617
as.