(dp1
S'X\xc3\xa0tiva'
p2
(lp3
S'46800'
p4
aS'46800'
p5
asS'X\xc3\xa0bia'
p6
(lp7
S'03730'
p8
aS'03730'
p9
asS'Xinzo De Limia'
p10
(lp11
S'32630'
p12
aS'32630'
p13
asS'Xirivella'
p14
(lp15
S'46950'
p16
aS'46950'
p17
as.