(dp1
S'Langg\xc3\xb6ns'
p2
(lp3
S'35428'
p4
aS'35428'
p5
asS'Louro'
p6
(lp7
S'15291'
p8
aS'15291'
p9
asS'Lk\xc3\xa1\xc5\x88'
p10
(lp11
S'411 16'
p12
asS'Litol'
p13
(lp14
S'289 22'
p15
asS'Lazi\xc5\xa1t\xc4\x9b'
p16
(lp17
S'398 04'
p18
asS'Lofthus'
p19
(lp20
S'5781'
p21
aS'5781'
p22
asS'Lipenec'
p23
(lp24
S'440 01'
p25
asS'Leutschach'
p26
(lp27
S'8463'
p28
aS'8463'
p29
asS'Lun\xc3\xadkov'
p30
(lp31
S'273 21'
p32
asS'Lumino'
p33
(lp34
S'6533'
p35
asS'Lacona'
p36
(lp37
S'50139'
p38
aS'50139'
p39
asS'Loukov'
p40
(lp41
S'768 75'
p42
asS'Lule\xc4\x8d'
p43
(lp44
S'683 03'
p45
asS'Las Chafiras (San Miguel)'
p46
(lp47
S'38639'
p48
aS'38639'
p49
asS'Lu\xc4\x8dice'
p50
(lp51
S'339 01'
p52
aS'753 64'
p53
asS'Lailunga'
p54
(lp55
S'496113'
p56
aS'496113'
p57
asS'Libenice'
p58
(lp59
S'280 02'
p60
asS'Lignum'
p61
(lp62
S'22726'
p63
aS'22726'
p64
asS'Lidkovice'
p65
(lp66
S'257 91'
p67
asS'Lodge'
p68
(lp69
S'29082'
p70
aS'29082'
p71
asS'Louisiana'
p72
(lp73
S'70002'
p74
aS'70004'
p75
ag75
aS'70005'
p76
ag76
aS'70009'
p77
ag77
aS'70011'
p78
ag78
aS'70031'
p79
aS'70033'
p80
ag80
aS'70038'
p81
aS'70040'
p82
aS'70043'
p83
aS'70044'
p84
aS'70049'
p85
aS'70051'
p86
aS'70054'
p87
aS'70056'
p88
aS'70058'
p89
aS'70059'
p90
aS'70062'
p91
aS'70064'
p92
aS'70067'
p93
aS'70070'
p94
aS'70072'
p95
aS'70073'
p96
aS'70076'
p97
aS'70079'
p98
aS'70081'
p99
aS'70083'
p100
aS'70085'
p101
aS'70087'
p102
aS'70091'
p103
aS'70094'
p104
aS'70113'
p105
aS'70115'
p106
aS'70118'
p107
aS'70119'
p108
aS'70121'
p109
aS'70125'
p110
aS'70127'
p111
aS'70131'
p112
aS'70141'
p113
aS'70143'
p114
aS'70146'
p115
aS'70149'
p116
aS'70151'
p117
aS'70153'
p118
aS'70156'
p119
aS'70158'
p120
aS'70159'
p121
aS'70161'
p122
aS'70163'
p123
aS'70165'
p124
aS'70167'
p125
aS'70172'
p126
aS'70175'
p127
aS'70177'
p128
aS'70179'
p129
aS'70182'
p130
aS'70185'
p131
aS'70187'
p132
aS'70190'
p133
aS'70301'
p134
aS'70302'
p135
aS'70339'
p136
aS'70341'
p137
aS'70343'
p138
aS'70345'
p139
aS'70403'
p140
aS'70433'
p141
aS'70448'
p142
aS'70501'
p143
aS'70503'
p144
aS'70506'
p145
aS'70510'
p146
aS'70518'
p147
aS'70526'
p148
aS'70537'
p149
aS'70560'
p150
aS'70562'
p151
aS'70583'
p152
aS'70661'
p153
aS'70668'
p154
aS'70718'
p155
aS'70737'
p156
aS'70767'
p157
aS'70803'
p158
aS'70808'
p159
aS'70810'
p160
aS'70816'
p161
aS'71055'
p162
aS'71105'
p163
aS'71106'
p164
aS'71112'
p165
aS'71201'
p166
aS'71203'
p167
aS'71270'
p168
aS'71292'
p169
aS'71301'
p170
aS'70130'
p171
aS'70062'
p172
aS'70115'
p173
aS'70119'
p174
aS'70159'
p175
aS'70433'
p176
aS'70501'
p177
aS'70560'
p178
aS'70808'
p179
aS'71105'
p180
aS'71301'
p181
aS'70002'
p182
ag182
aS'70005'
p183
ag183
aS'70043'
p184
aS'70058'
p185
aS'70072'
p186
aS'70118'
p187
aS'70124'
p188
aS'70127'
p189
aS'70301'
p190
aS'70403'
p191
aS'70448'
p192
aS'70503'
p193
aS'70506'
p194
aS'70510'
p195
aS'70518'
p196
aS'70526'
p197
aS'70537'
p198
aS'70562'
p199
aS'70583'
p200
aS'70661'
p201
aS'70668'
p202
aS'70718'
p203
aS'70737'
p204
aS'70767'
p205
aS'70803'
p206
aS'70810'
p207
aS'70816'
p208
aS'71055'
p209
aS'71101'
p210
aS'71106'
p211
aS'71112'
p212
aS'71201'
p213
aS'71203'
p214
aS'71270'
p215
aS'71292'
p216
aS'70004'
p217
ag217
aS'70009'
p218
ag218
aS'70011'
p219
ag219
aS'70031'
p220
aS'70033'
p221
ag221
aS'70038'
p222
aS'70040'
p223
aS'70044'
p224
aS'70049'
p225
aS'70051'
p226
aS'70054'
p227
aS'70056'
p228
aS'70059'
p229
aS'70064'
p230
aS'70067'
p231
aS'70070'
p232
aS'70073'
p233
aS'70076'
p234
aS'70079'
p235
aS'70081'
p236
aS'70083'
p237
aS'70085'
p238
aS'70087'
p239
aS'70091'
p240
aS'70094'
p241
aS'70113'
p242
aS'70121'
p243
aS'70125'
p244
aS'70131'
p245
aS'70141'
p246
aS'70143'
p247
aS'70146'
p248
aS'70149'
p249
aS'70151'
p250
aS'70153'
p251
aS'70156'
p252
aS'70158'
p253
aS'70161'
p254
aS'70163'
p255
aS'70165'
p256
aS'70167'
p257
aS'70172'
p258
aS'70175'
p259
aS'70177'
p260
aS'70179'
p261
aS'70182'
p262
aS'70185'
p263
aS'70187'
p264
aS'70190'
p265
aS'70302'
p266
aS'70339'
p267
aS'70341'
p268
aS'70343'
p269
aS'70345'
p270
asS'Lleida'
p271
(lp272
S'25003'
p273
aS'25006'
p274
aS'25007'
p275
aS'25003'
p276
aS'25004'
p277
aS'25006'
p278
asS'Lost Springs'
p279
(lp280
S'82224'
p281
aS'82224'
p282
asS'Lamba Hari Singh'
p283
(lp284
S'304503'
p285
aS'304503'
p286
asS'Liverpool'
p287
(lp288
S'1871'
p289
aS'1871'
p290
asS'Le\xc3\xa1nyv\xc3\xa1r'
p291
(lp292
S'2518'
p293
aS'2518'
p294
asS'Lud\xc3\xa1nyhal\xc3\xa1szi'
p295
(lp296
S'3188'
p297
asS'Lihue'
p298
(lp299
S'96766'
p300
aS'96766'
p301
asS'Lys\xc3\xa1'
p302
(lp303
S'259 01'
p304
aS'580 01'
p305
asS'L\xc3\xa1senice'
p306
(lp307
S'378 01'
p308
aS'378 01'
p309
asS'Lake City'
p310
(lp311
S'32024'
p312
aS'32034'
p313
aS'32041'
p314
aS'32056'
p315
ag315
aS'32063'
p316
aS'32068'
p317
aS'32079'
p318
aS'32084'
p319
aS'32086'
p320
aS'32092'
p321
aS'32099'
p322
aS'32110'
p323
aS'32115'
p324
aS'32118'
p325
aS'32120'
p326
aS'32125'
p327
aS'32132'
p328
aS'32137'
p329
aS'32145'
p330
aS'32216'
p331
aS'32256'
p332
aS'32303'
p333
aS'32408'
p334
aS'32601'
p335
aS'32615'
p336
aS'32801'
p337
aS'32809'
p338
aS'32817'
p339
aS'32819'
p340
aS'32826'
p341
aS'32837'
p342
aS'32926'
p343
aS'32952'
p344
aS'33009'
p345
aS'33013'
p346
aS'33019'
p347
aS'33021'
p348
aS'33040'
p349
aS'33060'
p350
aS'33069'
p351
aS'33125'
p352
aS'33131'
p353
aS'33133'
p354
aS'33137'
p355
aS'33139'
p356
aS'33140'
p357
aS'33142'
p358
aS'33145'
p359
aS'33156'
p360
aS'33169'
p361
aS'33172'
p362
aS'33175'
p363
aS'33178'
p364
aS'33181'
p365
aS'33305'
p366
aS'33308'
p367
aS'33312'
p368
aS'33316'
p369
aS'33442'
p370
aS'33480'
p371
aS'33510'
p372
aS'33549'
p373
aS'33601'
p374
aS'33603'
p375
aS'33605'
p376
aS'33609'
p377
aS'33613'
p378
aS'33618'
p379
aS'33624'
p380
aS'33626'
p381
aS'33634'
p382
aS'33637'
p383
aS'33755'
p384
aS'33762'
p385
aS'33901'
p386
aS'33907'
p387
aS'33912'
p388
aS'33931'
p389
aS'33952'
p390
aS'34102'
p391
aS'34104'
p392
aS'34109'
p393
aS'34113'
p394
aS'34145'
p395
aS'34446'
p396
aS'34606'
p397
aS'34613'
p398
aS'34667'
p399
aS'34741'
p400
aS'34747'
p401
aS'37769'
p402
aS'32819'
p403
aS'33040'
p404
aS'33131'
p405
aS'33139'
p406
aS'33172'
p407
aS'33431'
p408
aS'32118'
p409
aS'32216'
p410
aS'32256'
p411
aS'32303'
p412
aS'32408'
p413
aS'32601'
p414
aS'32615'
p415
aS'32801'
p416
aS'32809'
p417
aS'32817'
p418
aS'32826'
p419
aS'32837'
p420
aS'32926'
p421
aS'32952'
p422
aS'33009'
p423
aS'33013'
p424
aS'33019'
p425
aS'33021'
p426
aS'33060'
p427
aS'33069'
p428
aS'33125'
p429
aS'33129'
p430
aS'33133'
p431
aS'33137'
p432
aS'33140'
p433
aS'33142'
p434
aS'33145'
p435
aS'33156'
p436
aS'33169'
p437
aS'33175'
p438
aS'33178'
p439
aS'33181'
p440
aS'33186'
p441
aS'33305'
p442
aS'33308'
p443
aS'33312'
p444
aS'33316'
p445
aS'33401'
p446
aS'33432'
p447
aS'33442'
p448
aS'33480'
p449
aS'33510'
p450
aS'33549'
p451
aS'33570'
p452
aS'33601'
p453
aS'33603'
p454
aS'33605'
p455
aS'33609'
p456
aS'33611'
p457
aS'33613'
p458
aS'33615'
p459
aS'33618'
p460
aS'33624'
p461
aS'33626'
p462
aS'33634'
p463
aS'33637'
p464
aS'33755'
p465
aS'33762'
p466
aS'33901'
p467
aS'33907'
p468
aS'33912'
p469
aS'33931'
p470
aS'33952'
p471
aS'34102'
p472
aS'34104'
p473
aS'34109'
p474
aS'34113'
p475
aS'34119'
p476
aS'34145'
p477
aS'34446'
p478
aS'34606'
p479
aS'34613'
p480
aS'34667'
p481
aS'34741'
p482
aS'34747'
p483
aS'32024'
p484
ag484
aS'32034'
p485
aS'32041'
p486
aS'32052'
p487
aS'32056'
p488
ag488
aS'32063'
p489
aS'32068'
p490
aS'32079'
p491
aS'32084'
p492
aS'32086'
p493
aS'32092'
p494
aS'32099'
p495
aS'32110'
p496
aS'32115'
p497
aS'32120'
p498
aS'32125'
p499
aS'32132'
p500
aS'32137'
p501
aS'32145'
p502
aS'37769'
p503
asS'L\xc3\xa9vis South'
p504
(lp505
S'G6W'
p506
aS'G6W'
p507
asS'Lindome'
p508
(lp509
S'43735'
p510
aS'43735'
p511
asS'Lu\xc5\xbeec'
p512
(lp513
S'441 01'
p514
asS'Li\xc4\x8dov'
p515
(lp516
S'382 41'
p517
asS'Lvov\xc3\xa1'
p518
(lp519
S'471 25'
p520
asS'Lou\xc4\x8dany'
p521
(lp522
S'783 44'
p523
asS'Lallaguda'
p524
(lp525
S'500017'
p526
aS'500017'
p527
asS'Leslie Vale'
p528
(lp529
S'7054'
p530
asS'Leskovec nad Moravic\xc3\xad'
p531
(lp532
S'793 68'
p533
asS'Lufingen'
p534
(lp535
S'8426'
p536
aS'8426'
p537
asS'Ladson'
p538
(lp539
S'29456'
p540
aS'29456'
p541
asS'Los Menores'
p542
(lp543
S'38677'
p544
aS'38677'
p545
asS'Litschau'
p546
(lp547
S'3874'
p548
aS'3874'
p549
asS'Lyon'
p550
(lp551
S'38645'
p552
aS'38645'
p553
asS'L\xc3\xadpa'
p554
(lp555
S'363 01'
p556
aS'763 11'
p557
asS'Link\xc3\xb6ping'
p558
(lp559
S'58010'
p560
aS'58013'
p561
aS'58110'
p562
aS'58115'
p563
aS'58181'
p564
aS'58183'
p565
aS'58185'
p566
aS'58188'
p567
aS'58220'
p568
aS'58226'
p569
aS'58228'
p570
aS'58253'
p571
aS'58254'
p572
aS'58273'
p573
aS'58331'
p574
aS'58333'
p575
aS'58439'
p576
aS'58595'
p577
aS'58662'
p578
aS'58953'
p579
aS'58183'
p580
aS'58231'
p581
aS'58013'
p582
aS'58181'
p583
aS'58253'
p584
aS'58273'
p585
aS'58333'
p586
aS'58185'
p587
aS'58222'
p588
aS'58330'
p589
aS'58010'
p590
aS'58110'
p591
aS'58115'
p592
aS'58188'
p593
aS'58220'
p594
aS'58226'
p595
aS'58228'
p596
aS'58237'
p597
aS'58254'
p598
aS'58331'
p599
aS'58439'
p600
aS'58595'
p601
aS'58662'
p602
aS'58953'
p603
asS'Ledenitzen'
p604
(lp605
S'9581'
p606
aS'9581'
p607
asS'Les Verri\xc3\xa8res'
p608
(lp609
S'2126'
p610
aS'2126'
p611
asS'L\xc3\xadpy'
p612
(lp613
S'783 42'
p614
asS'Lubom\xc4\x9b\xc5\x99 pod Str\xc3\xa1\xc5\xbenou'
p615
(lp616
S'753 62'
p617
asS'Landskrona'
p618
(lp619
S'26123'
p620
aS'26143'
p621
aS'26153'
p622
aS'26135'
p623
aS'26123'
p624
aS'26131'
p625
aS'26143'
p626
aS'26153'
p627
asS'Les Diablerets'
p628
(lp629
S'1865'
p630
aS'1865'
p631
asS'Libouchec'
p632
(lp633
S'403 35'
p634
asS'Lhota'
p635
(lp636
S'277 14'
p637
aS'394 70'
p638
aS'301 00'
p639
aS'349 01'
p640
aS'411 15'
p641
aS'411 45'
p642
aS'438 01'
p643
aS'535 01'
p644
aS'679 61'
p645
aS'751 31'
p646
aS'756 42'
p647
aS'756 43'
p648
aS'301 00'
p649
asS'L\xc3\xadsk\xc3\xbd'
p650
(lp651
S'273 76'
p652
asS'Lake Simcoe North Shore (Coldwater)'
p653
(lp654
S'L0K'
p655
aS'L0K'
p656
asS'Lenzburg'
p657
(lp658
S'5600'
p659
asS'Loei'
p660
(lp661
S'42000'
p662
aS'42110'
p663
aS'42150'
p664
aS'42170'
p665
aS'42210'
p666
aS'42240'
p667
aS'42110'
p668
aS'42000'
p669
ag669
aS'42130'
p670
aS'42150'
p671
aS'42170'
p672
aS'42210'
p673
aS'42240'
p674
asS'Lokot'
p675
(lp676
S'516 01'
p677
asS'La\xc3\x9fnitzh\xc3\xb6he'
p678
(lp679
S'8301'
p680
asS'Lahoal'
p681
(lp682
S'786010'
p683
aS'786010'
p684
asS'Louka u Litv\xc3\xadnova'
p685
(lp686
S'435 33'
p687
asS'Lubnice'
p688
(lp689
S'671 07'
p690
asS'Luzern 31'
p691
(lp692
S'6000'
p693
asS'La Victoria De Acentejo'
p694
(lp695
S'38380'
p696
aS'38380'
p697
asS'Litv\xc3\xadnov-Horn\xc3\xad Ves x)'
p698
(lp699
S'436 01'
p700
asS'Lan\xc5\xa1kroun-Ostrovsk\xc3\xa9 P\xc5\x99edm\xc4\x9bst\xc3\xad x)'
p701
(lp702
S'563 01'
p703
asS'Los Torraos'
p704
(lp705
S'30563'
p706
aS'30563'
p707
asS'La Albatalia'
p708
(lp709
S'30009'
p710
aS'30009'
p711
asS'L\xc3\xa1zn\xc4\x9b B\xc4\x9blohrad'
p712
(lp713
S'507 81'
p714
asS'La-Un'
p715
(lp716
S'85130'
p717
aS'85130'
p718
asS'Liddes'
p719
(lp720
S'1945'
p721
aS'1945'
p722
asS'Lulla'
p723
(lp724
S'8660'
p725
aS'8660'
p726
asS'Larderia'
p727
(lp728
S'98129'
p729
asS'Lunders\xc3\xa6ter'
p730
(lp731
S'2218'
p732
aS'2218'
p733
asS'Lipn\xc3\xadk nad Be\xc4\x8dvou VIII'
p734
(lp735
S'751 31'
p736
asS'Lib\xc3\xa1'
p737
(lp738
S'350 02'
p739
asS'Lower Sackville North'
p740
(lp741
S'B4G'
p742
aS'B4G'
p743
asS'Leda\xc3\xb1a'
p744
(lp745
S'16237'
p746
aS'16237'
p747
asS'Laughlin'
p748
(lp749
S'89028'
p750
aS'89028'
p751
asS'Lutov\xc3\xa1'
p752
(lp753
S'378 04'
p754
asS'Lavice'
p755
(lp756
S'507 43'
p757
asS'Les Crosets'
p758
(lp759
S'1873'
p760
aS'1873'
p761
asS'Ladis'
p762
(lp763
S'6531'
p764
aS'6531'
p765
asS'Loveville'
p766
(lp767
S'20656'
p768
aS'20656'
p769
asS'Lakota'
p770
(lp771
S'58344'
p772
aS'58344'
p773
asS'Ludington'
p774
(lp775
S'49431'
p776
aS'49431'
p777
asS'Lupsingen'
p778
(lp779
S'4419'
p780
aS'4419'
p781
asS'L\xc3\xbctisburg'
p782
(lp783
S'9604'
p784
aS'9604'
p785
asS'Latr\xc3\xa1n'
p786
(lp787
S'381 01'
p788
asS'Lamadrid'
p789
(lp790
S'39593'
p791
aS'39593'
p792
asS'Lan\xc5\xa1kroun-Vnit\xc5\x99n\xc3\xad M\xc4\x9bsto'
p793
(lp794
S'563 01'
p795
asS'Liberty Hill'
p796
(lp797
S'29074'
p798
aS'29074'
p799
asS'Louka'
p800
(lp801
S'353 01'
p802
aS'538 51'
p803
aS'679 74'
p804
aS'696 76'
p805
aS'675 31'
p806
asS'Lamar'
p807
(lp808
S'29069'
p809
aS'81052'
p810
aS'81052'
p811
aS'29069'
p812
asS'Lamas'
p813
(lp814
S'4870-013'
p815
aS'4870-013'
p816
asS'Le\xc5\xa1kovice'
p817
(lp818
S'582 82'
p819
asS'Linz'
p820
(lp821
S'4020'
p822
aS'4400'
p823
aS'4694'
p824
aS'4030'
p825
ag825
aS'4060'
p826
aS'4320'
p827
aS'4780'
p828
aS'4820'
p829
aS'4850'
p830
aS'4053'
p831
aS'4470'
p832
aS'4580'
p833
aS'4655'
p834
aS'4822'
p835
aS'5280'
p836
aS'4063'
p837
aS'4100'
p838
aS'4121'
p839
aS'4190'
p840
aS'4221'
p841
aS'4331'
p842
aS'4407'
p843
aS'4462'
p844
aS'4553'
p845
aS'4582'
p846
aS'4623'
p847
aS'4643'
p848
aS'4650'
p849
aS'4673'
p850
aS'4713'
p851
aS'4770'
p852
aS'4824'
p853
aS'4831'
p854
aS'4860'
p855
aS'4870'
p856
aS'4943'
p857
aS'5142'
p858
aS'5282'
p859
aS'4048'
p860
aS'4201'
p861
aS'4223'
p862
aS'4481'
p863
aS'4574'
p864
aS'4812'
p865
aS'4861'
p866
aS'4921'
p867
aS'4055'
p868
aS'4062'
p869
aS'4075'
p870
aS'4084'
p871
aS'4091'
p872
aS'4112'
p873
aS'4131'
p874
aS'4133'
p875
aS'4144'
p876
aS'4160'
p877
aS'4163'
p878
aS'4174'
p879
aS'4181'
p880
aS'4184'
p881
aS'4193'
p882
aS'4203'
p883
aS'4210'
p884
aS'4251'
p885
aS'4272'
p886
aS'4283'
p887
aS'4292'
p888
aS'4310'
p889
aS'4341'
p890
aS'4351'
p891
aS'4362'
p892
aS'4371'
p893
aS'4407'
p894
aS'4461'
p895
aS'4483'
p896
aS'4501'
p897
aS'4511'
p898
aS'4531'
p899
aS'4550'
p900
aS'4575'
p901
aS'4592'
p902
aS'4600'
p903
aS'4621'
p904
aS'4625'
p905
aS'4632'
p906
aS'4633'
p907
aS'4652'
p908
aS'4656'
p909
aS'4662'
p910
aS'4664'
p911
aS'4675'
p912
aS'4681'
p913
aS'4690'
p914
aS'4692'
p915
aS'4702'
p916
aS'4710'
p917
aS'4714'
p918
aS'4724'
p919
aS'4742'
p920
aS'4751'
p921
aS'4030'
p922
asS'Longuelo'
p923
(lp924
S'24129'
p925
aS'24129'
p926
asS'Lipni\xc4\x8dka'
p927
(lp928
S'582 91'
p929
asS'Lezama'
p930
(lp931
S'48196'
p932
aS'48196'
p933
asS'Liesberg'
p934
(lp935
S'4253'
p936
aS'4253'
p937
asS'Laspu\xc3\xb1a'
p938
(lp939
S'22361'
p940
aS'22361'
p941
asS'Los Belones'
p942
(lp943
S'30385'
p944
aS'30385'
p945
asS'La Muela'
p946
(lp947
S'50196'
p948
aS'50196'
p949
asS'La Codosera'
p950
(lp951
S'06518'
p952
aS'06518'
p953
asS'Lousa'
p954
(lp955
S'5160-132'
p956
aS'5160-134'
p957
aS'5160-132'
p958
aS'5160-134'
p959
asS'Lede\xc4\x8dky'
p960
(lp961
S'289 34'
p962
asS'Luzern 4'
p963
(lp964
S'6000'
p965
asS'Little Falls'
p966
(lp967
S'56345'
p968
aS'56345'
p969
asS'Leimen'
p970
(lp971
S'69181'
p972
aS'69181'
p973
asS'Lutry'
p974
(lp975
S'1095'
p976
aS'1095'
p977
asS'Lebach'
p978
(lp979
S'66822'
p980
aS'66822'
p981
asS'Lenox'
p982
(lp983
S'01240'
p984
asS'Lochenice'
p985
(lp986
S'503 02'
p987
asS'Lukov'
p988
(lp989
S'676 02'
p990
aS'676 02'
p991
asS'Lodna'
p992
(lp993
S'828131'
p994
aS'828131'
p995
asS'Lizarra'
p996
(lp997
S'31200'
p998
asS'Langnau b. Reiden'
p999
(lp1000
S'6262'
p1001
aS'6262'
p1002
asS'L\xc3\xa1ry\xc5\xa1ov'
p1003
(lp1004
S'794 01'
p1005
asS'Leonstein'
p1006
(lp1007
g902
aS'4592'
p1008
asS'L\xc3\xadsek'
p1009
(lp1010
S'592 45'
p1011
asS'Lov\xc4\x8dice'
p1012
(lp1013
S'503 61'
p1014
aS'696 39'
p1015
asS'Langford Town'
p1016
(lp1017
S'560025'
p1018
aS'560025'
p1019
asS'Lipice'
p1020
(lp1021
S'393 01'
p1022
asS'Laurel'
p1023
(lp1024
S'19956'
p1025
aS'20708'
p1026
aS'39440'
p1027
aS'59044'
p1028
aS'19956'
p1029
aS'50141'
p1030
aS'20708'
p1031
aS'39440'
p1032
aS'59044'
p1033
asS'Lansdowne Cantt'
p1034
(lp1035
S'274502'
p1036
aS'274502'
p1037
asS'Libavsk\xc3\xa9 \xc3\x9adol\xc3\xad'
p1038
(lp1039
S'357 51'
p1040
asS'Loukovec'
p1041
(lp1042
S'294 11'
p1043
asS'Luniyawas'
p1044
(lp1045
S'303608'
p1046
aS'303608'
p1047
asS'Lanzenneunforn'
p1048
(lp1049
S'8506'
p1050
aS'8506'
p1051
asS'La Porte'
p1052
(lp1053
S'46350'
p1054
aS'46350'
p1055
asS'Lekhapani'
p1056
(lp1057
S'786180'
p1058
aS'786180'
p1059
asS'Lyons'
p1060
(lp1061
S'2606'
p1062
aS'57041'
p1063
aS'57041'
p1064
asS'Lorne'
p1065
(lp1066
S'3232'
p1067
aS'3232'
p1068
asS'Lip\xc5\xafvka'
p1069
(lp1070
S'679 22'
p1071
asS'Les Hauts-Geneveys'
p1072
(lp1073
S'2208'
p1074
aS'2208'
p1075
asS'Lonedell'
p1076
(lp1077
S'63060'
p1078
aS'63060'
p1079
asS'Lit\xc3\xad\xc4\x8d'
p1080
(lp1081
S'544 01'
p1082
asS'Larsnes'
p1083
(lp1084
S'6084'
p1085
aS'6084'
p1086
asS'Libo\xc5\x88ov'
p1087
(lp1088
S'403 38'
p1089
asS'Lib\xc4\x8dany'
p1090
(lp1091
S'503 22'
p1092
asS'Luzelos'
p1093
(lp1094
S'5140-161'
p1095
aS'5140-161'
p1096
asS'Lamaceiro'
p1097
(lp1098
S'9960-470'
p1099
aS'9960-470'
p1100
asS'La\xe2\x88\x9a\xc3\xbcnitz'
p1101
(lp1102
S'8850'
p1103
aS'9061'
p1104
aS'9063'
p1105
aS'9071'
p1106
aS'9074'
p1107
aS'9082'
p1108
aS'9111'
p1109
aS'9121'
p1110
aS'9125'
p1111
aS'9131'
p1112
aS'9141'
p1113
aS'9162'
p1114
aS'9170'
p1115
aS'9182'
p1116
aS'9201'
p1117
aS'9220'
p1118
aS'9231'
p1119
aS'9241'
p1120
aS'9330'
p1121
aS'9334'
p1122
aS'9342'
p1123
aS'9345'
p1124
aS'9346'
p1125
aS'9362'
p1126
aS'9371'
p1127
aS'9373'
p1128
aS'9411'
p1129
aS'9413'
p1130
aS'9422'
p1131
aS'9520'
p1132
aS'9523'
p1133
aS'9524'
p1134
aS'9541'
p1135
aS'9543'
p1136
aS'9544'
p1137
aS'9546'
p1138
aS'9552'
p1139
aS'9555'
p1140
aS'9563'
p1141
aS'9565'
p1142
aS'9570'
p1143
aS'9572'
p1144
ag607
aS'9584'
p1145
aS'9586'
p1146
aS'9601'
p1147
aS'9615'
p1148
aS'9620'
p1149
aS'9635'
p1150
aS'9701'
p1151
aS'9702'
p1152
aS'9712'
p1153
aS'9713'
p1154
aS'9761'
p1155
aS'9762'
p1156
aS'9772'
p1157
aS'9800'
p1158
aS'9814'
p1159
aS'9816'
p1160
aS'9833'
p1161
aS'9851'
p1162
aS'9854'
p1163
aS'9861'
p1164
aS'9863'
p1165
aS'9873'
p1166
asS'Librantice'
p1167
(lp1168
S'503 46'
p1169
asS'Lockport'
p1170
(lp1171
S'R1B'
p1172
aS'R1B'
p1173
asS'La Robla'
p1174
(lp1175
S'24640'
p1176
aS'24640'
p1177
asS'L\xc3\xa1zn\xc4\x9b Bohdane\xc4\x8d'
p1178
(lp1179
S'533 41'
p1180
asS'Lavorgo'
p1181
(lp1182
S'6746'
p1183
aS'6746'
p1184
asS'Lenzing'
p1185
(lp1186
g855
aS'4860'
p1187
asS'Lov\xc4\x9bt\xc3\xadn'
p1188
(lp1189
S'378 42'
p1190
asS'L\xc3\xa9chelles'
p1191
(lp1192
S'1773'
p1193
asS'Letk\xc3\xa9s'
p1194
(lp1195
S'2632'
p1196
aS'2632'
p1197
asS'L\xc3\xa9tav\xc3\xa9rtes'
p1198
(lp1199
S'4281'
p1200
aS'4281'
p1201
asS'La\xc5\xa1\xc5\xa5any-B\xc4\x9blkovice x)'
p1202
(lp1203
S'783 14'
p1204
asS'Lyngdal'
p1205
(lp1206
S'4576'
p1207
aS'4576'
p1208
asS'Lal Bahadur Nagar (Durg)'
p1209
(lp1210
S'491559'
p1211
aS'491559'
p1212
asS'Livermore'
p1213
(lp1214
S'04253'
p1215
aS'04253'
p1216
asS'Lansing'
p1217
(lp1218
S'48917'
p1219
aS'60438'
p1220
aS'60438'
p1221
aS'48917'
p1222
asS'Lisle'
p1223
(lp1224
S'60532'
p1225
aS'60532'
p1226
asS'Louisville'
p1227
(lp1228
S'40203'
p1229
aS'40205'
p1230
aS'40207'
p1231
aS'40208'
p1232
aS'40213'
p1233
aS'40214'
p1234
aS'40216'
p1235
aS'40219'
p1236
aS'40241'
p1237
aS'40299'
p1238
aS'68037'
p1239
aS'40207'
p1240
aS'40213'
p1241
aS'40299'
p1242
aS'40203'
p1243
aS'40205'
p1244
aS'40208'
p1245
aS'40214'
p1246
aS'40216'
p1247
aS'40219'
p1248
aS'40241'
p1249
aS'68037'
p1250
asS'Lib\xc4\x9bjovice'
p1251
(lp1252
S'387 72'
p1253
asS'Lovilia'
p1254
(lp1255
S'50150'
p1256
aS'50150'
p1257
asS'Lausanne 22'
p1258
(lp1259
S'1000'
p1260
asS'Luray'
p1261
(lp1262
S'22835'
p1263
aS'22835'
p1264
asS'Las Matas'
p1265
(lp1266
S'28290'
p1267
aS'28290'
p1268
asS'Lawndale'
p1269
(lp1270
S'90260'
p1271
aS'90260'
p1272
asS'Lieserbr\xe2\x88\x9a\xc2\xbacke'
p1273
(lp1274
g1162
asS'Lena'
p1275
(lp1276
S'2850'
p1277
aS'2851'
p1278
aS'2850'
p1279
aS'2851'
p1280
asS'Luther'
p1281
(lp1282
S'50152'
p1283
aS'50152'
p1284
asS'Les Acacias'
p1285
(lp1286
S'1227'
p1287
asS'Lauvstad'
p1288
(lp1289
S'6133'
p1290
asS'Leksvik'
p1291
(lp1292
S'7120'
p1293
aS'7120'
p1294
asS'Labanikhiachhak'
p1295
(lp1296
S'752001'
p1297
asS'Ljungsbro'
p1298
(lp1299
S'59070'
p1300
aS'59071'
p1301
aS'59074'
p1302
aS'59070'
p1303
aS'59071'
p1304
aS'59074'
p1305
asS'Liberec XXII'
p1306
(lp1307
S'460 10'
p1308
asS'Lens'
p1309
(lp1310
S'1978'
p1311
aS'1978'
p1312
asS'Liberec XXIV'
p1313
(lp1314
S'463 12'
p1315
asS'Libertyville'
p1316
(lp1317
S'60048'
p1318
aS'60048'
p1319
asS'Lafitte'
p1320
(lp1321
g93
ag231
asS'Langev\xc3\xa5g'
p1322
(lp1323
S'6030'
p1324
aS'6065'
p1325
aS'6101'
p1326
aS'6402'
p1327
aS'6415'
p1328
aS'6600'
p1329
aS'6630'
p1330
aS'6160'
p1331
aS'6230'
p1332
aS'6270'
p1333
aS'6392'
p1334
aS'6412'
p1335
aS'6475'
p1336
aS'6509'
p1337
aS'6037'
p1338
aS'6040'
p1339
aS'6067'
p1340
aS'6216'
p1341
aS'6222'
p1342
aS'6265'
p1343
aS'6411'
p1344
aS'6419'
p1345
aS'6425'
p1346
aS'6430'
p1347
aS'6450'
p1348
aS'6501'
p1349
aS'6517'
p1350
aS'6523'
p1351
aS'6636'
p1352
aS'6683'
p1353
aS'6035'
p1354
aS'6057'
p1355
aS'6063'
p1356
aS'6069'
p1357
aS'6080'
p1358
ag1085
aS'6094'
p1359
aS'6120'
p1360
aS'6143'
p1361
aS'6165'
p1362
aS'6196'
p1363
aS'6213'
p1364
aS'6215'
p1365
aS'6264'
p1366
aS'6283'
p1367
aS'6310'
p1368
aS'6391'
p1369
aS'6399'
p1370
aS'6409'
p1371
aS'6444'
p1372
aS'6447'
p1373
aS'6456'
p1374
aS'6476'
p1375
aS'6493'
p1376
aS'6507'
p1377
aS'6510'
p1378
aS'6512'
p1379
aS'6516'
p1380
aS'6590'
p1381
aS'6631'
p1382
aS'6639'
p1383
aS'6652'
p1384
aS'6674'
p1385
aS'6052'
p1386
aS'6089'
p1387
ag1290
aS'6183'
p1388
aS'6293'
p1389
aS'6339'
p1390
aS'6364'
p1391
aS'6403'
p1392
aS'6408'
p1393
aS'6443'
p1394
aS'6515'
p1395
aS'6613'
p1396
aS'6644'
p1397
aS'6658'
p1398
aS'6055'
p1399
aS'6087'
p1400
aS'6035'
p1401
aS'6037'
p1402
aS'6040'
p1403
aS'6052'
p1404
aS'6057'
p1405
aS'6063'
p1406
aS'6080'
p1407
ag1086
aS'6089'
p1408
aS'6094'
p1409
aS'6120'
p1410
aS'6143'
p1411
aS'6165'
p1412
aS'6183'
p1413
aS'6216'
p1414
aS'6264'
p1415
aS'6265'
p1416
aS'6270'
p1417
aS'6293'
p1418
aS'6310'
p1419
aS'6339'
p1420
aS'6364'
p1421
aS'6392'
p1422
aS'6399'
p1423
aS'6402'
p1424
aS'6408'
p1425
aS'6409'
p1426
aS'6411'
p1427
aS'6419'
p1428
aS'6430'
p1429
aS'6443'
p1430
aS'6444'
p1431
aS'6447'
p1432
aS'6476'
p1433
aS'6501'
p1434
aS'6507'
p1435
aS'6509'
p1436
aS'6510'
p1437
aS'6512'
p1438
aS'6516'
p1439
aS'6590'
p1440
aS'6613'
p1441
aS'6631'
p1442
aS'6636'
p1443
aS'6639'
p1444
aS'6644'
p1445
aS'6652'
p1446
aS'6658'
p1447
aS'6674'
p1448
asS'Lukavice'
p1449
(lp1450
S'538 21'
p1451
aS'516 03'
p1452
aS'789 01'
p1453
asS'La Azohia'
p1454
(lp1455
S'30868'
p1456
aS'30868'
p1457
asS'Lousame'
p1458
(lp1459
S'15214'
p1460
aS'15214'
p1461
asS'La Palma'
p1462
(lp1463
S'30593'
p1464
aS'30593'
p1465
asS'Liberec XXIX'
p1466
(lp1467
S'460 15'
p1468
asS'Leiria'
p1469
(lp1470
S'2400-013'
p1471
ag1471
aS'2400-014'
p1472
ag1472
aS'2400-016'
p1473
aS'2400-018'
p1474
aS'2400-020'
p1475
aS'2400-077'
p1476
ag1476
aS'2400-080'
p1477
ag1477
aS'2400-082'
p1478
ag1478
aS'2400-084'
p1479
ag1479
aS'2400-087'
p1480
ag1480
aS'2400-089'
p1481
ag1481
aS'2400-094'
p1482
ag1482
aS'2400-096'
p1483
ag1483
aS'2400-098'
p1484
ag1484
aS'2400-101'
p1485
ag1485
aS'2400-103'
p1486
ag1486
aS'2400-105'
p1487
ag1487
aS'2400-107'
p1488
ag1488
aS'2400-109'
p1489
ag1489
aS'2400-111'
p1490
ag1490
aS'2400-113'
p1491
ag1491
aS'2400-115'
p1492
ag1492
aS'2400-118'
p1493
ag1493
aS'2400-120'
p1494
ag1494
aS'2400-122'
p1495
ag1495
aS'2400-124'
p1496
ag1496
aS'2400-126'
p1497
ag1497
aS'2400-128'
p1498
ag1498
aS'2400-130'
p1499
ag1499
aS'2400-134'
p1500
ag1500
aS'2400-136'
p1501
ag1501
aS'2400-138'
p1502
ag1502
aS'2400-140'
p1503
ag1503
aS'2400-142'
p1504
ag1504
aS'2400-144'
p1505
ag1505
aS'2400-147'
p1506
ag1506
aS'2400-149'
p1507
ag1507
aS'2400-151'
p1508
ag1508
aS'2400-153'
p1509
ag1509
aS'2400-155'
p1510
ag1510
aS'2400-157'
p1511
ag1511
aS'2400-159'
p1512
ag1512
aS'2400-161'
p1513
ag1513
aS'2400-165'
p1514
ag1514
aS'2400-168'
p1515
ag1515
aS'2400-171'
p1516
ag1516
aS'2400-173'
p1517
ag1517
aS'2400-175'
p1518
ag1518
aS'2400-177'
p1519
ag1519
aS'2400-179'
p1520
ag1520
aS'2400-181'
p1521
ag1521
aS'2400-187'
p1522
ag1522
aS'2400-190'
p1523
ag1523
aS'2400-192'
p1524
ag1524
aS'2400-194'
p1525
ag1525
aS'2400-196'
p1526
ag1526
aS'2400-199'
p1527
ag1527
aS'2400-201'
p1528
ag1528
aS'2400-203'
p1529
ag1529
aS'2400-205'
p1530
ag1530
aS'2400-207'
p1531
ag1531
aS'2400-209'
p1532
ag1532
aS'2400-211'
p1533
ag1533
aS'2400-214'
p1534
ag1534
aS'2400-216'
p1535
ag1535
aS'2400-218'
p1536
ag1536
aS'2400-220'
p1537
ag1537
aS'2400-222'
p1538
ag1538
aS'2400-224'
p1539
ag1539
aS'2400-226'
p1540
ag1540
aS'2400-228'
p1541
ag1541
aS'2400-230'
p1542
ag1542
aS'2400-232'
p1543
ag1543
aS'2400-235'
p1544
ag1544
aS'2400-237'
p1545
ag1545
aS'2400-239'
p1546
ag1546
aS'2400-241'
p1547
ag1547
aS'2400-251'
p1548
ag1548
aS'2400-254'
p1549
ag1549
aS'2400-257'
p1550
ag1550
aS'2400-259'
p1551
ag1551
aS'2400-261'
p1552
ag1552
aS'2400-263'
p1553
ag1553
aS'2400-268'
p1554
ag1554
aS'2400-431'
p1555
ag1555
aS'2400-441'
p1556
ag1556
aS'2400-446'
p1557
aS'2400-448'
p1558
ag1558
aS'2400-473'
p1559
ag1559
aS'2400-491'
p1560
aS'2400-497'
p1561
aS'2400-505'
p1562
ag1562
aS'2400-507'
p1563
ag1563
aS'2400-509'
p1564
ag1564
aS'2400-511'
p1565
ag1565
aS'2400-513'
p1566
ag1566
aS'2400-515'
p1567
ag1567
aS'2400-517'
p1568
ag1568
aS'2400-519'
p1569
ag1569
aS'2400-522'
p1570
ag1570
aS'2400-013'
p1571
ag1571
aS'2400-014'
p1572
ag1572
aS'2400-016'
p1573
aS'2400-018'
p1574
aS'2400-020'
p1575
aS'2400-077'
p1576
ag1576
aS'2400-080'
p1577
ag1577
aS'2400-082'
p1578
ag1578
aS'2400-084'
p1579
ag1579
aS'2400-087'
p1580
ag1580
aS'2400-089'
p1581
ag1581
aS'2400-094'
p1582
ag1582
aS'2400-096'
p1583
ag1583
aS'2400-098'
p1584
ag1584
aS'2400-101'
p1585
ag1585
aS'2400-103'
p1586
ag1586
aS'2400-105'
p1587
ag1587
aS'2400-107'
p1588
ag1588
aS'2400-109'
p1589
ag1589
aS'2400-111'
p1590
ag1590
aS'2400-113'
p1591
ag1591
aS'2400-115'
p1592
ag1592
aS'2400-118'
p1593
ag1593
aS'2400-120'
p1594
ag1594
aS'2400-122'
p1595
ag1595
aS'2400-124'
p1596
ag1596
aS'2400-126'
p1597
ag1597
aS'2400-128'
p1598
ag1598
aS'2400-130'
p1599
ag1599
aS'2400-134'
p1600
ag1600
aS'2400-136'
p1601
ag1601
aS'2400-138'
p1602
ag1602
aS'2400-140'
p1603
ag1603
aS'2400-142'
p1604
ag1604
aS'2400-144'
p1605
ag1605
aS'2400-147'
p1606
ag1606
aS'2400-149'
p1607
ag1607
aS'2400-151'
p1608
ag1608
aS'2400-153'
p1609
ag1609
aS'2400-155'
p1610
ag1610
aS'2400-157'
p1611
ag1611
aS'2400-159'
p1612
ag1612
aS'2400-161'
p1613
ag1613
aS'2400-165'
p1614
ag1614
aS'2400-168'
p1615
ag1615
aS'2400-171'
p1616
ag1616
aS'2400-173'
p1617
ag1617
aS'2400-175'
p1618
ag1618
aS'2400-177'
p1619
ag1619
aS'2400-179'
p1620
ag1620
aS'2400-181'
p1621
ag1621
aS'2400-187'
p1622
ag1622
aS'2400-190'
p1623
ag1623
aS'2400-192'
p1624
ag1624
aS'2400-194'
p1625
ag1625
aS'2400-196'
p1626
ag1626
aS'2400-199'
p1627
ag1627
aS'2400-201'
p1628
ag1628
aS'2400-203'
p1629
ag1629
aS'2400-205'
p1630
ag1630
aS'2400-207'
p1631
ag1631
aS'2400-209'
p1632
ag1632
aS'2400-211'
p1633
ag1633
aS'2400-214'
p1634
ag1634
aS'2400-216'
p1635
ag1635
aS'2400-218'
p1636
ag1636
aS'2400-220'
p1637
ag1637
aS'2400-222'
p1638
ag1638
aS'2400-224'
p1639
ag1639
aS'2400-226'
p1640
ag1640
aS'2400-228'
p1641
ag1641
aS'2400-230'
p1642
ag1642
aS'2400-232'
p1643
ag1643
aS'2400-235'
p1644
ag1644
aS'2400-237'
p1645
ag1645
aS'2400-239'
p1646
ag1646
aS'2400-241'
p1647
ag1647
aS'2400-251'
p1648
ag1648
aS'2400-254'
p1649
ag1649
aS'2400-257'
p1650
ag1650
aS'2400-259'
p1651
ag1651
aS'2400-261'
p1652
ag1652
aS'2400-263'
p1653
ag1653
aS'2400-268'
p1654
ag1654
aS'2400-431'
p1655
ag1655
aS'2400-441'
p1656
ag1656
aS'2400-446'
p1657
aS'2400-448'
p1658
ag1658
aS'2400-473'
p1659
ag1659
aS'2400-491'
p1660
aS'2400-497'
p1661
aS'2400-505'
p1662
ag1662
aS'2400-507'
p1663
ag1663
aS'2400-509'
p1664
ag1664
aS'2400-511'
p1665
ag1665
aS'2400-513'
p1666
ag1666
aS'2400-515'
p1667
ag1667
aS'2400-517'
p1668
ag1668
aS'2400-519'
p1669
ag1669
aS'2400-522'
p1670
ag1670
asS'Libi\xc5\xa1'
p1671
(lp1672
S'277 11'
p1673
asS'Lutherstadt Wittenberg'
p1674
(lp1675
S'06886'
p1676
aS'06886'
p1677
asS'Laipacco'
p1678
(lp1679
S'33100'
p1680
asS'Lieserbr\xc3\xbccke'
p1681
(lp1682
S'9851'
p1683
asS'Liberec IV'
p1684
(lp1685
S'460 01'
p1686
asS'Liberec IX'
p1687
(lp1688
S'460 07'
p1689
aS'463 52'
p1690
asS'Lu\xc4\x8dn\xc3\xad Chvojno'
p1691
(lp1692
S'400 02'
p1693
asS'Littleton'
p1694
(lp1695
S'01460'
p1696
aS'03561'
p1697
aS'80122'
p1698
aS'80124'
p1699
aS'80160'
p1700
aS'80162'
p1701
aS'80165'
p1702
aS'80122'
p1703
aS'80124'
p1704
aS'80125'
p1705
aS'80160'
p1706
aS'80162'
p1707
aS'80165'
p1708
aS'01460'
p1709
aS'03561'
p1710
asS'Lenggenwil'
p1711
(lp1712
S'9525'
p1713
aS'9525'
p1714
asS'Lipov'
p1715
(lp1716
S'696 72'
p1717
asS'Leiro'
p1718
(lp1719
S'32420'
p1720
aS'32420'
p1721
asS'Litom\xc4\x9b\xc5\x99ice'
p1722
(lp1723
S'410 02'
p1724
aS'413 01'
p1725
aS'411 55'
p1726
aS'411 15'
p1727
aS'411 19'
p1728
aS'411 56'
p1729
aS'411 83'
p1730
aS'411 84'
p1731
aS'411 11'
p1732
aS'411 71'
p1733
aS'411 87'
p1734
aS'411 16'
p1735
aS'411 46'
p1736
aS'411 81'
p1737
aS'411 32'
p1738
aS'411 64'
p1739
aS'410 02'
p1740
aS'413 01'
p1741
aS'411 74'
p1742
aS'412 01'
p1743
aS'413 01'
p1744
aS'410 02'
p1745
aS'410 02'
p1746
aS'410 02'
p1747
aS'410 02'
p1748
aS'411 08'
p1749
aS'411 08'
p1750
aS'411 08'
p1751
aS'411 08'
p1752
aS'411 08'
p1753
aS'411 08'
p1754
aS'411 15'
p1755
ag641
aS'411 15'
p1756
aS'411 15'
p1757
aS'411 15'
p1758
aS'411 15'
p1759
aS'411 15'
p1760
aS'411 15'
p1761
aS'411 15'
p1762
ag12
aS'411 17'
p1763
aS'411 17'
p1764
aS'411 19'
p1765
aS'411 19'
p1766
aS'411 19'
p1767
aS'411 20'
p1768
aS'411 33'
p1769
aS'411 45'
p1770
aS'411 45'
p1771
aS'411 45'
p1772
aS'411 45'
p1773
aS'411 45'
p1774
ag642
aS'411 45'
p1775
aS'411 45'
p1776
aS'411 45'
p1777
aS'411 45'
p1778
aS'411 45'
p1779
aS'411 45'
p1780
aS'411 45'
p1781
aS'411 45'
p1782
aS'411 45'
p1783
aS'411 45'
p1784
aS'411 45'
p1785
aS'411 45'
p1786
aS'411 45'
p1787
aS'411 45'
p1788
aS'411 48'
p1789
aS'411 72'
p1790
aS'411 84'
p1791
aS'412 01'
p1792
aS'412 01'
p1793
aS'412 01'
p1794
aS'412 01'
p1795
aS'412 01'
p1796
aS'412 01'
p1797
aS'412 01'
p1798
aS'412 01'
p1799
aS'412 01'
p1800
aS'412 01'
p1801
aS'412 01'
p1802
aS'412 01'
p1803
aS'413 01'
p1804
aS'413 01'
p1805
aS'413 01'
p1806
aS'413 01'
p1807
aS'413 01'
p1808
aS'413 01'
p1809
aS'413 01'
p1810
aS'413 01'
p1811
aS'413 01'
p1812
aS'410 02'
p1813
aS'412 01'
p1814
aS'413 01'
p1815
asS'Laxman Jhula'
p1816
(lp1817
S'249302'
p1818
aS'249302'
p1819
asS'Lewistown'
p1820
(lp1821
S'59457'
p1822
aS'59457'
p1823
asS'Lhenice'
p1824
(lp1825
S'384 02'
p1826
aS'417 63'
p1827
asS'Lesencetomaj'
p1828
(lp1829
S'8318'
p1830
aS'8318'
p1831
asS'Lyme'
p1832
(lp1833
S'03768'
p1834
aS'03768'
p1835
asS'Le\xc4\x8d'
p1836
(lp1837
S'267 27'
p1838
asS'Lucelle'
p1839
(lp1840
S'2807'
p1841
aS'2807'
p1842
asS'Lidk\xc3\xb6ping'
p1843
(lp1844
S'53102'
p1845
aS'53198'
p1846
aS'53198'
p1847
aS'53102'
p1848
asS'La Ch\xc3\xa2tagne'
p1849
(lp1850
S'2406'
p1851
asS'Litultovice'
p1852
(lp1853
S'747 55'
p1854
asS'Los Ramos'
p1855
(lp1856
S'30589'
p1857
aS'30589'
p1858
asS'Liberec'
p1859
(lp1860
S'463 31'
p1861
aS'463 48'
p1862
aS'463 62'
p1863
aS'463 42'
p1864
aS'463 46'
p1865
aS'463 45'
p1866
aS'463 53'
p1867
ag1689
aS'463 31'
p1868
aS'463 43'
p1869
aS'463 62'
p1870
aS'460 01'
p1871
aS'460 07'
p1872
aS'460 15'
p1873
aS'463 62'
p1874
aS'464 01'
p1875
aS'463 31'
p1876
ag1690
ag1686
aS'463 12'
p1877
aS'463 31'
p1878
aS'464 01'
p1879
aS'463 12'
p1880
aS'463 44'
p1881
aS'463 45'
p1882
aS'460 07'
p1883
aS'460 15'
p1884
aS'463 43'
p1885
aS'294 13'
p1886
aS'460 01'
p1887
aS'460 01'
p1888
aS'460 01'
p1889
aS'460 01'
p1890
aS'460 01'
p1891
aS'460 01'
p1892
aS'460 01'
p1893
aS'460 06'
p1894
aS'460 07'
p1895
aS'460 08'
p1896
aS'460 08'
p1897
aS'460 10'
p1898
ag1308
aS'460 10'
p1899
aS'460 14'
p1900
aS'460 14'
p1901
ag1468
aS'460 15'
p1902
aS'463 12'
p1903
aS'463 12'
p1904
ag1315
aS'463 31'
p1905
aS'463 31'
p1906
aS'463 31'
p1907
aS'463 31'
p1908
aS'463 31'
p1909
aS'463 31'
p1910
aS'463 31'
p1911
aS'463 34'
p1912
aS'463 34'
p1913
aS'463 34'
p1914
aS'463 34'
p1915
aS'463 42'
p1916
aS'463 42'
p1917
aS'463 42'
p1918
aS'463 43'
p1919
aS'463 43'
p1920
aS'463 43'
p1921
aS'463 43'
p1922
aS'463 43'
p1923
aS'463 43'
p1924
aS'463 43'
p1925
aS'463 43'
p1926
aS'463 43'
p1927
aS'463 43'
p1928
aS'463 43'
p1929
aS'463 43'
p1930
aS'463 43'
p1931
aS'463 43'
p1932
aS'463 44'
p1933
aS'463 44'
p1934
aS'463 44'
p1935
aS'463 44'
p1936
aS'463 44'
p1937
aS'463 45'
p1938
aS'463 45'
p1939
aS'463 45'
p1940
aS'463 45'
p1941
aS'463 45'
p1942
aS'463 45'
p1943
aS'463 48'
p1944
aS'463 48'
p1945
aS'463 48'
p1946
aS'463 48'
p1947
aS'463 48'
p1948
aS'463 48'
p1949
aS'463 48'
p1950
aS'463 48'
p1951
aS'460 01'
p1952
aS'463 12'
p1953
aS'464 01'
p1954
asS'Lomen'
p1955
(lp1956
S'2967'
p1957
aS'2967'
p1958
asS'Lou\xc4\x8dka'
p1959
(lp1960
S'741 01'
p1961
aS'756 44'
p1962
asS'Lebanon'
p1963
(lp1964
S'04027'
p1965
aS'08833'
p1966
aS'40033'
p1967
aS'46052'
p1968
aS'53047'
p1969
aS'46052'
p1970
aS'40033'
p1971
aS'04027'
p1972
aS'08833'
p1973
aS'53047'
p1974
asS'Las Palmas De Gran Canaria'
p1975
(lp1976
S'35001'
p1977
aS'35003'
p1978
ag1978
aS'35006'
p1979
ag1979
aS'35009'
p1980
ag1980
aS'35010'
p1981
ag1981
aS'35012'
p1982
ag1982
aS'35017'
p1983
ag1983
aS'35018'
p1984
aS'35019'
p1985
ag1985
aS'35100'
p1986
aS'35109'
p1987
aS'35110'
p1988
aS'35118'
p1989
aS'35119'
p1990
aS'35139'
p1991
aS'35214'
p1992
aS'35219'
p1993
aS'35320'
p1994
aS'35350'
p1995
aS'35470'
p1996
aS'35500'
p1997
aS'35508'
p1998
aS'35542'
p1999
aS'35543'
p2000
aS'35544'
p2001
aS'35560'
p2002
aS'35572'
p2003
aS'35626'
p2004
aS'35627'
p2005
aS'35629'
p2006
aS'35640'
p2007
aS'35660'
p2008
aS'38002'
p2009
aS'38004'
p2010
aS'38006'
p2011
aS'38008'
p2012
aS'38010'
p2013
aS'38150'
p2014
aS'38190'
p2015
aS'38200'
p2016
aS'38203'
p2017
aS'38205'
p2018
aS'38206'
p2019
aS'38207'
p2020
aS'38240'
p2021
aS'38260'
p2022
aS'38270'
p2023
aS'38290'
p2024
aS'38293'
p2025
aS'38295'
p2026
aS'38297'
p2027
ag696
aS'38400'
p2028
aS'38410'
p2029
aS'38420'
p2030
aS'38430'
p2031
aS'38435'
p2032
aS'38470'
p2033
aS'38509'
p2034
aS'38520'
p2035
aS'38530'
p2036
aS'38550'
p2037
aS'38580'
p2038
aS'38600'
p2039
aS'38617'
p2040
aS'38630'
p2041
ag48
ag544
aS'38678'
p2042
aS'38680'
p2043
aS'38686'
p2044
aS'38689'
p2045
aS'38700'
p2046
aS'38715'
p2047
aS'38770'
p2048
aS'38780'
p2049
aS'38787'
p2050
aS'38812'
p2051
aS'38870'
p2052
aS'38900'
p2053
aS'38911'
p2054
aS'38915'
p2055
aS'35001'
p2056
ag2056
aS'38400'
p2057
aS'35003'
p2058
ag2058
aS'35100'
p2059
aS'35500'
p2060
aS'38002'
p2061
aS'35006'
p2062
ag2062
aS'35010'
p2063
ag2063
aS'35110'
p2064
aS'35130'
p2065
aS'35660'
p2066
aS'38004'
p2067
aS'38006'
p2068
aS'38200'
p2069
aS'38205'
p2070
aS'38410'
p2071
aS'38700'
p2072
aS'35017'
p2073
ag2073
aS'38206'
p2074
aS'38350'
p2075
aS'38430'
p2076
aS'38770'
p2077
aS'35009'
p2078
ag2078
aS'35012'
p2079
ag2079
aS'35014'
p2080
ag2080
aS'35100'
p2081
aS'35219'
p2082
aS'35508'
p2083
aS'35610'
p2084
aS'35626'
p2085
aS'35627'
p2086
aS'38008'
p2087
aS'38010'
p2088
aS'38190'
p2089
aS'38207'
p2090
aS'38290'
p2091
aS'38420'
p2092
aS'38530'
p2093
aS'38600'
p2094
aS'38620'
p2095
aS'38680'
p2096
aS'38780'
p2097
aS'38870'
p2098
aS'35118'
p2099
aS'35543'
p2100
aS'38203'
p2101
aS'38550'
p2102
aS'38715'
p2103
aS'38911'
p2104
aS'35019'
p2105
ag2105
aS'35139'
p2106
aS'35320'
p2107
aS'35560'
p2108
aS'35629'
p2109
aS'38190'
p2110
aS'38240'
p2111
aS'38260'
p2112
aS'38297'
p2113
ag697
aS'38470'
p2114
aS'38580'
p2115
aS'38630'
p2116
aS'38678'
p2117
aS'38689'
p2118
aS'38720'
p2119
aS'38740'
p2120
aS'38812'
p2121
aS'35017'
p2122
aS'35100'
p2123
aS'35109'
p2124
aS'35129'
p2125
aS'35213'
p2126
aS'35320'
p2127
aS'35570'
p2128
aS'35572'
p2129
aS'35640'
p2130
aS'38150'
p2131
aS'38293'
p2132
aS'38435'
p2133
aS'38617'
p2134
aS'38627'
p2135
aS'38787'
p2136
aS'38900'
p2137
aS'35100'
p2138
aS'35119'
p2139
aS'35544'
p2140
aS'38509'
p2141
aS'38627'
p2142
ag49
aS'38686'
p2143
aS'35018'
p2144
aS'35214'
p2145
aS'35350'
p2146
aS'35470'
p2147
aS'35542'
p2148
aS'38270'
p2149
aS'38295'
p2150
aS'38520'
p2151
ag545
aS'38915'
p2152
asS'Li\xc4\x8denice'
p2153
(lp2154
g1774
asS'Lier'
p2155
(lp2156
S'3400'
p2157
aS'3401'
p2158
aS'3428'
p2159
aS'3428'
p2160
asS'Lan\xc5\xa1kroun-Doln\xc3\xad T\xc5\x99e\xc5\xa1\xc5\x88ovec x)'
p2161
(lp2162
S'563 01'
p2163
asS'Lou\xc4\x8dky'
p2164
(lp2165
S'588 33'
p2166
aS'742 36'
p2167
aS'788 04'
p2168
asS'Leonardville'
p2169
(lp2170
S'66449'
p2171
aS'66449'
p2172
asS'Lake Cormorant'
p2173
(lp2174
S'38641'
p2175
aS'38641'
p2176
asS'Lund'
p2177
(lp2178
S'7818'
p2179
aS'7818'
p2180
asS'Laneburg'
p2181
(lp2182
S'71844'
p2183
aS'71844'
p2184
asS'La Pinilla'
p2185
(lp2186
S'30335'
p2187
aS'30335'
p2188
asS'L\xc3\xadn\xc4\x9b'
p2189
(lp2190
S'330 21'
p2191
asS'Lysec'
p2192
(lp2193
S'417 63'
p2194
asS'La Cabrera'
p2195
(lp2196
S'28751'
p2197
aS'28751'
p2198
asS'Lambrate'
p2199
(lp2200
S'20134'
p2201
aS'20134'
p2202
asS'Lide\xc4\x8dko'
p2203
(lp2204
S'756 12'
p2205
asS'Ludorf'
p2206
(lp2207
S'17207'
p2208
aS'17207'
p2209
asS'Lhotka nad Be\xc4\x8dvou'
p2210
(lp2211
S'756 41'
p2212
asS'La Cisterniga'
p2213
(lp2214
S'47193'
p2215
aS'47193'
p2216
asS'Lib\xc4\x9b\xc5\xa1ice'
p2217
(lp2218
g1736
aS'506 01'
p2219
asS'Lagido'
p2220
(lp2221
S'9930-472'
p2222
aS'9930-472'
p2223
asS'La\xc3\x9fnitz'
p2224
(lp2225
S'8850'
p2226
asS'Lathi Plot'
p2227
(lp2228
S'360490'
p2229
aS'360490'
p2230
asS'Lovell'
p2231
(lp2232
S'82431'
p2233
aS'82431'
p2234
asS'Li'
p2235
(lp2236
S'51110'
p2237
aS'51120'
p2238
aS'51130'
p2239
aS'51160'
p2240
aS'51110'
p2241
ag2241
aS'51120'
p2242
aS'51130'
p2243
aS'51160'
p2244
asS'Liding\xc3\xb6'
p2245
(lp2246
S'18142'
p2247
aS'18142'
p2248
asS'La Plaine'
p2249
(lp2250
S'1283'
p2251
asS'Lloydminster'
p2252
(lp2253
S'S9V'
p2254
aS'S9V'
p2255
asS'Leederville'
p2256
(lp2257
S'6007'
p2258
aS'6902'
p2259
asS'Legan\xc3\xa9s'
p2260
(lp2261
S'28911'
p2262
aS'28913'
p2263
aS'28914'
p2264
aS'28916'
p2265
aS'28911'
p2266
aS'28914'
p2267
aS'28913'
p2268
aS'28916'
p2269
asS'Lora'
p2270
(lp2271
S'22100'
p2272
aS'2666'
p2273
aS'2666'
p2274
aS'22100'
p2275
asS'Loudon'
p2276
(lp2277
S'37774'
p2278
aS'37774'
p2279
asS'Loxton'
p2280
(lp2281
S'5333'
p2282
asS'La Matanza'
p2283
(lp2284
S'30629'
p2285
aS'30629'
p2286
asS'Lansdowne Ho.'
p2287
(lp2288
S'246155'
p2289
aS'246155'
p2290
asS'Lorton'
p2291
(lp2292
S'22079'
p2293
aS'68382'
p2294
aS'68382'
p2295
aS'22079'
p2296
asS'Lelekovice'
p2297
(lp2298
S'664 31'
p2299
asS'Le Cr\xc3\xaat-du-Locle'
p2300
(lp2301
S'2322'
p2302
aS'2322'
p2303
asS'Lugnorre'
p2304
(lp2305
S'1789'
p2306
asS'Libotyn\xc4\x9b'
p2307
(lp2308
S'384 81'
p2309
asS'Liatorp'
p2310
(lp2311
S'34374'
p2312
aS'34376'
p2313
aS'34374'
p2314
aS'34376'
p2315
asS'Leksand'
p2316
(lp2317
S'79321'
p2318
aS'79324'
p2319
aS'79330'
p2320
aS'79333'
p2321
aS'79390'
p2322
aS'79321'
p2323
aS'79324'
p2324
aS'79330'
p2325
aS'79333'
p2326
aS'79390'
p2327
asS'Lakhegy'
p2328
(lp2329
S'8913'
p2330
aS'8913'
p2331
asS'Laguardia'
p2332
(lp2333
S'01300'
p2334
aS'01300'
p2335
asS'Le\xc5\xa1any'
p2336
(lp2337
S'257 44'
p2338
aS'798 42'
p2339
asS'Lu\xc5\xbeany'
p2340
(lp2341
S'334 54'
p2342
aS'507 06'
p2343
asS'La Chaux-des-Breuleux'
p2344
(lp2345
S'2345'
p2346
asS'Lynden'
p2347
(lp2348
S'98264'
p2349
aS'98264'
p2350
asS'Lupfig'
p2351
(lp2352
S'5242'
p2353
asS'Landeck'
p2354
(lp2355
S'6500'
p2356
asS'Laem Sing'
p2357
(lp2358
S'22130'
p2359
aS'22130'
p2360
asS'Litovany'
p2361
(lp2362
S'675 57'
p2363
asS'Lannach'
p2364
(lp2365
S'8502'
p2366
asS'Lloret De Vistalegre'
p2367
(lp2368
S'07518'
p2369
aS'07518'
p2370
asS'Libchyn\xc4\x9b'
p2371
(lp2372
S'549 01'
p2373
asS'Lysekloster'
p2374
(lp2375
S'5215'
p2376
aS'5215'
p2377
asS'L\xc3\xa1dv\xc3\xad'
p2378
(lp2379
S'251 68'
p2380
asS'Ludv\xc3\xadkov'
p2381
(lp2382
S'571 01'
p2383
aS'788 15'
p2384
asS'Little Compton'
p2385
(lp2386
S'02837'
p2387
aS'02837'
p2388
asS'Lou\xc4\x8dn\xc3\xa1 nad Desnou'
p2389
(lp2390
S'788 11'
p2391
asS'La Laguna'
p2392
(lp2393
g2016
ag2017
ag2018
ag2019
ag2020
ag2025
ag2026
ag2027
ag2069
ag2070
ag2074
ag2090
ag2101
ag2113
ag2132
ag2150
asS'Landshut'
p2394
(lp2395
S'84028'
p2396
aS'84036'
p2397
aS'84028'
p2398
asS'Le P\xc3\xa2quier NE'
p2399
(lp2400
S'2058'
p2401
aS'2058'
p2402
asS'Lhotka-Hranice II x)'
p2403
(lp2404
S'753 01'
p2405
asS'Lawson'
p2406
(lp2407
S'71750'
p2408
aS'71750'
p2409
asS'Lazce'
p2410
(lp2411
S'772 00'
p2412
asS'Lourtier'
p2413
(lp2414
S'1948'
p2415
aS'1948'
p2416
asS'Librilla'
p2417
(lp2418
S'30892'
p2419
aS'30892'
p2420
asS'Lliria'
p2421
(lp2422
S'46160'
p2423
aS'46160'
p2424
asS'Lyckeby'
p2425
(lp2426
S'37161'
p2427
aS'37161'
p2428
asS'Langre'
p2429
(lp2430
S'39160'
p2431
aS'39160'
p2432
asS'Langenfeld'
p2433
(lp2434
S'40764'
p2435
aS'40764'
p2436
asS'Loeng Nok Tha'
p2437
(lp2438
S'35120'
p2439
aS'35120'
p2440
asS'Louchov'
p2441
(lp2442
S'431 51'
p2443
asS'Lingarajapuram'
p2444
(lp2445
S'560084'
p2446
aS'560084'
p2447
asS'La Chaux-de-Fonds 1'
p2448
(lp2449
S'2300'
p2450
aS'2300'
p2451
asS'Leavenworth'
p2452
(lp2453
S'66048'
p2454
aS'66048'
p2455
asS'La Querce'
p2456
(lp2457
S'59100'
p2458
asS'Langfjordnes'
p2459
(lp2460
S'9772'
p2461
asS'Long Island'
p2462
(lp2463
S'744203'
p2464
aS'04050'
p2465
aS'744203'
p2466
aS'04050'
p2467
asS'Logan'
p2468
(lp2469
S'35098'
p2470
aS'43138'
p2471
aS'84323'
p2472
aS'84341'
p2473
aS'35098'
p2474
aS'43138'
p2475
aS'84323'
p2476
aS'84341'
p2477
asS'Leslie'
p2478
(lp2479
S'63056'
p2480
aS'63056'
p2481
asS'Liebhartstal'
p2482
(lp2483
S'1160'
p2484
aS'1160'
p2485
asS'Ljungby'
p2486
(lp2487
S'34122'
p2488
aS'34124'
p2489
aS'34126'
p2490
aS'34130'
p2491
aS'34132'
p2492
aS'34137'
p2493
aS'34139'
p2494
aS'34181'
p2495
aS'34184'
p2496
aS'34195'
p2497
aS'34132'
p2498
aS'34130'
p2499
aS'34134'
p2500
aS'34139'
p2501
aS'34195'
p2502
aS'34123'
p2503
aS'34126'
p2504
aS'34137'
p2505
aS'34122'
p2506
aS'34170'
p2507
aS'34184'
p2508
aS'34124'
p2509
aS'34181'
p2510
asS'La Puebla De Alfinden'
p2511
(lp2512
S'50171'
p2513
aS'50171'
p2514
asS'Liscomb'
p2515
(lp2516
S'50148'
p2517
aS'50148'
p2518
asS'Lyndora'
p2519
(lp2520
S'16045'
p2521
aS'16045'
p2522
asS'La Neuveville'
p2523
(lp2524
S'2520'
p2525
aS'2520'
p2526
asS'Lithonia'
p2527
(lp2528
S'30038'
p2529
aS'30058'
p2530
aS'30038'
p2531
aS'30058'
p2532
asS'L\xc3\xa1bod'
p2533
(lp2534
S'7551'
p2535
asS'L\xc3\xa1batlan'
p2536
(lp2537
S'2541'
p2538
aS'2542'
p2539
aS'2541'
p2540
asS'Le Brassus'
p2541
(lp2542
S'1348'
p2543
aS'1348'
p2544
asS'Linthal'
p2545
(lp2546
S'8783'
p2547
asS'Llubi'
p2548
(lp2549
S'07430'
p2550
aS'07430'
p2551
asS'Lakshadweep'
p2552
(lp2553
S'682555'
p2554
aS'682557'
p2555
aS'682559'
p2556
aS'682555'
p2557
ag2557
aS'682557'
p2558
aS'682559'
p2559
asS'Lazn\xc3\xad\xc4\x8dky'
p2560
(lp2561
S'751 25'
p2562
asS'La Tour-de-Tr\xc3\xaame'
p2563
(lp2564
S'1635'
p2565
aS'1635'
p2566
asS'Longkhim'
p2567
(lp2568
S'798616'
p2569
aS'798616'
p2570
asS'Lindrith'
p2571
(lp2572
S'87029'
p2573
aS'87029'
p2574
asS'Luhov'
p2575
(lp2576
S'364 01'
p2577
aS'471 29'
p2578
asS'La Vergne'
p2579
(lp2580
S'37086'
p2581
aS'37086'
p2582
asS'Leisenring'
p2583
(lp2584
S'15455'
p2585
aS'15455'
p2586
asS'Lahovice'
p2587
(lp2588
S'440 01'
p2589
asS'Libice'
p2590
(lp2591
S'263 01'
p2592
asS'Lib\xc3\xa1\xc5\x88'
p2593
(lp2594
S'507 23'
p2595
asS'Lipovec'
p2596
(lp2597
S'679 15'
p2598
asS'Liget'
p2599
(lp2600
S'7331'
p2601
aS'7331'
p2602
asS'Lake Norden'
p2603
(lp2604
S'57248'
p2605
aS'57248'
p2606
asS'Lakitelek'
p2607
(lp2608
S'6065'
p2609
aS'6065'
p2610
asS'Litv\xc3\xadnov-Chude\xc5\x99\xc3\xadn x)'
p2611
(lp2612
S'436 03'
p2613
asS'Lib\xc3\xadnsk\xc3\xa9 Sedlo'
p2614
(lp2615
S'383 01'
p2616
asS'Lu\xc5\xben\xc3\xa1'
p2617
(lp2618
S'270 51'
p2619
aS'348 02'
p2620
aS'788 33'
p2621
aS'756 11'
p2622
asS'Latipur'
p2623
(lp2624
S'361220'
p2625
aS'361220'
p2626
asS'Leopoldov'
p2627
(lp2628
S'331 62'
p2629
asS'La Savina'
p2630
(lp2631
S'07870'
p2632
aS'07870'
p2633
asS'Ludge\xc5\x99ovice'
p2634
(lp2635
S'747 14'
p2636
asS'Liguria'
p2637
(lp2638
S'16121'
p2639
aS'16122'
p2640
ag2640
aS'16126'
p2641
ag2641
aS'16129'
p2642
ag2642
aS'16146'
p2643
ag2643
aS'17100'
p2644
aS'16100'
p2645
ag2645
aS'16152'
p2646
ag2646
aS'16138'
p2647
ag2647
aS'16147'
p2648
ag2648
aS'16154'
p2649
ag2649
aS'19100'
p2650
aS'16133'
p2651
ag2651
aS'16137'
p2652
ag2652
aS'16141'
p2653
ag2653
aS'16151'
p2654
ag2654
aS'16155'
p2655
ag2655
aS'16158'
p2656
ag2656
aS'16162'
p2657
ag2657
aS'16165'
p2658
ag2658
aS'16144'
p2659
ag2659
aS'16159'
p2660
ag2660
aS'16135'
p2661
ag2661
aS'16154'
p2662
aS'16166'
p2663
ag2663
aS'16155'
p2664
aS'16164'
p2665
aS'16158'
p2666
aS'18100'
p2667
aS'19137'
p2668
aS'18100'
p2669
aS'16133'
p2670
aS'19139'
p2671
aS'19132'
p2672
aS'16159'
p2673
aS'19125'
p2674
aS'16147'
p2675
aS'16153'
p2676
aS'16166'
p2677
aS'19133'
p2678
aS'16151'
p2679
aS'16155'
p2680
aS'19121'
p2681
aS'19132'
p2682
aS'19134'
p2683
aS'16158'
p2684
aS'19126'
p2685
aS'19136'
p2686
aS'16133'
p2687
aS'16141'
p2688
aS'16157'
p2689
aS'16163'
p2690
aS'16167'
p2691
aS'17100'
p2692
aS'18100'
p2693
aS'19122'
p2694
aS'19123'
p2695
aS'19125'
p2696
aS'19132'
p2697
aS'19135'
p2698
aS'19136'
p2699
aS'19138'
p2700
aS'16100'
p2701
ag2701
aS'16121'
p2702
ag2702
aS'16122'
p2703
ag2703
aS'16126'
p2704
ag2704
aS'16129'
p2705
ag2705
aS'16133'
p2706
aS'16135'
p2707
ag2707
aS'16137'
p2708
ag2708
aS'16138'
p2709
ag2709
aS'16141'
p2710
ag2710
aS'16144'
p2711
ag2711
aS'16146'
p2712
ag2712
aS'16147'
p2713
ag2713
aS'16151'
p2714
aS'16152'
p2715
ag2715
aS'16153'
p2716
aS'16154'
p2717
ag2717
aS'16155'
p2718
ag2718
aS'16157'
p2719
aS'16158'
p2720
aS'16159'
p2721
ag2721
aS'16162'
p2722
ag2722
aS'16163'
p2723
aS'16164'
p2724
aS'16165'
p2725
ag2725
aS'16166'
p2726
ag2726
aS'16167'
p2727
aS'17100'
p2728
aS'18100'
p2729
aS'19100'
p2730
aS'19121'
p2731
aS'19122'
p2732
aS'19123'
p2733
aS'19125'
p2734
aS'19126'
p2735
aS'19132'
p2736
aS'19133'
p2737
aS'19134'
p2738
aS'19135'
p2739
aS'19136'
p2740
aS'19137'
p2741
aS'19138'
p2742
aS'19139'
p2743
asS'Lipka'
p2744
(lp2745
S'538 25'
p2746
asS'L\xc3\xb6ddek\xc3\xb6pinge'
p2747
(lp2748
S'24642'
p2749
aS'24642'
p2750
asS'Lod\xc3\xadn'
p2751
(lp2752
S'503 15'
p2753
asS'Luterbach'
p2754
(lp2755
S'4542'
p2756
aS'4542'
p2757
asS'Le\xc3\xb3n'
p2758
(lp2759
S'24001'
p2760
aS'24004'
p2761
aS'24006'
p2762
aS'24007'
p2763
aS'24080'
p2764
aS'24001'
p2765
aS'24006'
p2766
aS'24004'
p2767
aS'24007'
p2768
aS'24080'
p2769
asS'La Foce'
p2770
(lp2771
g2683
ag2738
asS'Livorno'
p2772
(lp2773
S'57121'
p2774
aS'57125'
p2775
aS'57124'
p2776
aS'57121'
p2777
aS'57124'
p2778
aS'57125'
p2779
asS'Lstibo\xc5\x99'
p2780
(lp2781
S'282 01'
p2782
asS'Leesburg'
p2783
(lp2784
S'20176'
p2785
aS'20176'
p2786
asS'La Aljorra'
p2787
(lp2788
S'30390'
p2789
aS'30390'
p2790
asS'Les Ruill\xc3\xa8res'
p2791
(lp2792
S'2108'
p2793
aS'2108'
p2794
asS'Larkspur'
p2795
(lp2796
S'80118'
p2797
aS'80118'
p2798
asS'L\xc3\xa4ckeby'
p2799
(lp2800
S'38031'
p2801
aS'38031'
p2802
asS'Liesing'
p2803
(lp2804
S'1230'
p2805
asS'Laje Grande'
p2806
(lp2807
S'3570-130'
p2808
aS'3570-130'
p2809
asS'Ladysmith'
p2810
(lp2811
S'22501'
p2812
aS'22501'
p2813
asS'Liberk'
p2814
(lp2815
S'517 12'
p2816
asS'Laucha'
p2817
(lp2818
S'06636'
p2819
aS'06636'
p2820
asS'Liblice'
p2821
(lp2822
S'282 01'
p2823
aS'277 32'
p2824
asS'Losone'
p2825
(lp2826
S'6616'
p2827
aS'6616'
p2828
asS'Loej'
p2829
(lp2830
S'362226'
p2831
aS'362226'
p2832
asS'Le\xc5\xa1ov'
p2833
(lp2834
S'393 01'
p2835
asS'Lapa de Cima'
p2836
(lp2837
S'9580-225'
p2838
aS'9580-225'
p2839
asS'Lib\xc3\xad\xc5\x88'
p2840
(lp2841
S'264 01'
p2842
asS'Larraul'
p2843
(lp2844
S'20159'
p2845
aS'20159'
p2846
asS'Lathiana'
p2847
(lp2848
S'174308'
p2849
aS'174308'
p2850
asS'Lomy'
p2851
(lp2852
S'349 52'
p2853
aS'675 31'
p2854
asS'Leirvik I Sogn'
p2855
(lp2856
S'6953'
p2857
aS'6951'
p2858
aS'6951'
p2859
aS'6953'
p2860
asS'Lingen'
p2861
(lp2862
S'49809'
p2863
aS'49809'
p2864
asS'Laukvik'
p2865
(lp2866
S'8315'
p2867
aS'8315'
p2868
asS'Lov\xc3\xa1szpatona'
p2869
(lp2870
S'8553'
p2871
asS"L'\xc3\x8ele Bizard Northeast"
p2872
(lp2873
S'H9C'
p2874
aS'H9C'
p2875
asS'Laage'
p2876
(lp2877
S'18299'
p2878
aS'18299'
p2879
asS'Linares'
p2880
(lp2881
S'23700'
p2882
aS'23700'
p2883
asS'Luzern Kaserne'
p2884
(lp2885
S'6000'
p2886
asS'Little America'
p2887
(lp2888
S'82929'
p2889
aS'82929'
p2890
asS'Lugoff'
p2891
(lp2892
S'29078'
p2893
aS'29078'
p2894
asS"L'\xc3\x8ele-Des-Soeurs"
p2895
(lp2896
S'H3E'
p2897
aS'H3E'
p2898
asS'Lausanne 25'
p2899
(lp2900
S'1000'
p2901
asS'Lausanne 16'
p2902
(lp2903
S'1000'
p2904
asS'Lu\xc5\xbeec nad Vltavou'
p2905
(lp2906
S'277 06'
p2907
asS'Luzern 7'
p2908
(lp2909
S'6000'
p2910
asS'Lizton'
p2911
(lp2912
S'46149'
p2913
aS'46149'
p2914
asS'Logandale'
p2915
(lp2916
S'89021'
p2917
aS'89021'
p2918
asS'Lubno'
p2919
(lp2920
S'503 15'
p2921
aS'739 11'
p2922
asS'Lhotice'
p2923
(lp2924
S'373 72'
p2925
asS'Lycksele'
p2926
(lp2927
S'92131'
p2928
aS'92134'
p2929
aS'92135'
p2930
aS'92131'
p2931
aS'92135'
p2932
aS'92134'
p2933
asS'L\xc3\xa1zn\xc4\x9b Libverda'
p2934
(lp2935
g1870
asS'Lakene'
p2936
(lp2937
S'68394'
p2938
aS'68394'
p2939
asS'Lamphun'
p2940
g2236
sS'Luz'
p2941
(lp2942
S'9880-120'
p2943
aS'9880-122'
p2944
aS'9880-124'
p2945
aS'9880-126'
p2946
aS'9880-128'
p2947
aS'9880-130'
p2948
aS'9880-132'
p2949
aS'9880-134'
p2950
aS'9880-136'
p2951
aS'9880-138'
p2952
aS'9880-140'
p2953
aS'9880-142'
p2954
aS'9880-144'
p2955
aS'9880-146'
p2956
aS'9880-148'
p2957
aS'9880-150'
p2958
aS'9880-152'
p2959
aS'9880-154'
p2960
aS'9880-120'
p2961
aS'9880-122'
p2962
aS'9880-124'
p2963
aS'9880-126'
p2964
aS'9880-128'
p2965
aS'9880-130'
p2966
aS'9880-132'
p2967
aS'9880-134'
p2968
aS'9880-136'
p2969
aS'9880-138'
p2970
aS'9880-140'
p2971
aS'9880-142'
p2972
aS'9880-144'
p2973
aS'9880-146'
p2974
aS'9880-148'
p2975
aS'9880-150'
p2976
aS'9880-152'
p2977
aS'9880-154'
p2978
asS'Lid\xc3\xa9\xc5\x99ovice'
p2979
(lp2980
S'696 61'
p2981
asS'Lov\xc4\x8di\xc4\x8dky'
p2982
(lp2983
S'683 54'
p2984
asS'Ljusdal'
p2985
(lp2986
S'82722'
p2987
aS'82730'
p2988
aS'82733'
p2989
aS'82730'
p2990
aS'82722'
p2991
aS'82733'
p2992
asS'Lillh\xc3\xa4rdal'
p2993
(lp2994
S'84080'
p2995
aS'84080'
p2996
asS'Loxley'
p2997
(lp2998
S'36551'
p2999
aS'36551'
p3000
asS'Lohn-Ammannsegg'
p3001
(lp3002
S'4573'
p3003
aS'4573'
p3004
asS'Lodenice'
p3005
(lp3006
S'270 64'
p3007
asS'Lookeba'
p3008
(lp3009
S'73053'
p3010
aS'73053'
p3011
asS'Lipina'
p3012
(lp3013
S'588 27'
p3014
aS'747 84'
p3015
asS'Leira I Valdres'
p3016
(lp3017
S'2920'
p3018
aS'2907'
p3019
aS'2907'
p3020
aS'2920'
p3021
asS'Ludhiana Kutchery'
p3022
(lp3023
S'141001'
p3024
aS'141001'
p3025
asS'Labaria'
p3026
(lp3027
S'202001'
p3028
asS'Lascuarre'
p3029
(lp3030
S'22586'
p3031
aS'22586'
p3032
asS'Lit\xc3\xa9r'
p3033
(lp3034
S'8196'
p3035
aS'8196'
p3036
asS'Ludwigslust'
p3037
(lp3038
S'19288'
p3039
aS'19288'
p3040
asS'Lommis'
p3041
(lp3042
S'9506'
p3043
asS'Loch Lomond'
p3044
(lp3045
S'B2E'
p3046
aS'B2E'
p3047
asS'Libod\xc5\x99ice'
p3048
(lp3049
S'280 02'
p3050
asS'L\xc3\xb6dla'
p3051
(lp3052
S'04617'
p3053
aS'04617'
p3054
asS'Lan Krabue'
p3055
(lp3056
S'62170'
p3057
aS'62170'
p3058
asS'Lepta\xc4\x8d'
p3059
(lp3060
S'383 01'
p3061
asS'Lismarka'
p3062
(lp3063
S'2616'
p3064
asS'Lillestr\xc3\xb8m'
p3065
(lp3066
S'2000'
p3067
aS'2004'
p3068
aS'2000'
p3069
aS'2004'
p3070
asS'Littenheid'
p3071
(lp3072
S'9573'
p3073
aS'9573'
p3074
asS'Lei\xc3\x9fling'
p3075
(lp3076
S'06667'
p3077
aS'06667'
p3078
asS'La Aldea De San Nicolas'
p3079
(lp3080
g1996
ag2147
asS'Ludv\xc3\xadkovice'
p3081
(lp3082
S'407 13'
p3083
asS'Laitkor Peak'
p3084
(lp3085
S'793010'
p3086
aS'793010'
p3087
asS'Lhota pod D\xc5\xbeb\xc3\xa1nem'
p3088
(lp3089
S'270 07'
p3090
asS'La Spezia'
p3091
(lp3092
g2650
ag2730
asS'Los Garres'
p3093
(lp3094
S'30158'
p3095
aS'30158'
p3096
asS'Lessebo'
p3097
(lp3098
S'36050'
p3099
aS'36050'
p3100
asS'Laurelville'
p3101
(lp3102
S'43135'
p3103
aS'43135'
p3104
asS'Libo\xc5\xa1ovice'
p3105
(lp3106
S'507 44'
p3107
asS'Lameiro Grande'
p3108
(lp3109
S'9900-407'
p3110
aS'9900-407'
p3111
asS'Lerate'
p3112
(lp3113
S'31291'
p3114
asS'Lipec'
p3115
(lp3116
S'281 26'
p3117
aS'530 02'
p3118
asS'Lan Sak'
p3119
(lp3120
S'61160'
p3121
aS'61160'
p3122
asS'Leopoldau'
p3123
(lp3124
S'1210'
p3125
asS'Laholm'
p3126
(lp3127
S'31222'
p3128
aS'31235'
p3129
aS'31236'
p3130
aS'31291'
p3131
aS'31294'
p3132
aS'31296'
p3133
aS'31222'
p3134
aS'31236'
p3135
aS'31294'
p3136
aS'31296'
p3137
aS'31235'
p3138
aS'31291'
p3139
asS'Lagunilla De Jubera'
p3140
(lp3141
S'26131'
p3142
asS'Lake Elmo'
p3143
(lp3144
S'55042'
p3145
aS'55042'
p3146
asS'Loveland'
p3147
(lp3148
S'80537'
p3149
aS'80537'
p3150
asS'Lillehammer'
p3151
(lp3152
S'2626'
p3153
aS'2609'
p3154
ag3154
aS'2624'
p3155
ag3155
aS'2680'
p3156
aS'2711'
p3157
aS'2760'
p3158
aS'2815'
p3159
aS'2830'
p3160
ag1277
aS'2900'
p3161
aS'3520'
p3162
aS'2617'
p3163
ag3163
aS'2619'
p3164
ag3164
aS'2690'
p3165
aS'2827'
p3166
aS'2953'
p3167
aS'2605'
p3168
ag3168
aS'2608'
p3169
ag3169
aS'2613'
p3170
ag3170
aS'2625'
p3171
aS'2635'
p3172
aS'2653'
p3173
aS'2660'
p3174
aS'2665'
p3175
aS'2688'
p3176
aS'2714'
p3177
aS'2740'
p3178
aS'2801'
p3179
aS'2817'
p3180
aS'2819'
p3181
aS'2831'
p3182
aS'2843'
p3183
aS'2847'
p3184
aS'2860'
p3185
aS'2890'
p3186
ag3018
aS'2943'
p3187
aS'2966'
p3188
aS'3528'
p3189
aS'2604'
p3190
ag3190
aS'2632'
p3191
aS'2639'
p3192
aS'2646'
p3193
aS'2659'
p3194
aS'2669'
p3195
aS'2673'
p3196
aS'2682'
p3197
aS'2684'
p3198
aS'2687'
p3199
aS'2712'
p3200
aS'2720'
p3201
aS'2805'
p3202
aS'2810'
p3203
aS'2837'
p3204
ag1278
aS'2858'
p3205
aS'2864'
p3206
aS'2879'
p3207
aS'2881'
p3208
aS'2918'
p3209
aS'2933'
p3210
aS'2940'
p3211
ag1957
aS'2985'
p3212
aS'2657'
p3213
aS'2661'
p3214
ag2273
aS'2716'
p3215
aS'2832'
p3216
aS'2606'
p3217
ag3217
aS'2694'
p3218
aS'2929'
p3219
aS'2648'
p3220
aS'2695'
p3221
aS'2811'
p3222
aS'2866'
p3223
aS'2952'
p3224
aS'2718'
p3225
ag3019
aS'2645'
p3226
aS'2820'
p3227
aS'2674'
p3228
aS'2613'
p3229
ag3229
aS'2624'
p3230
ag3230
aS'2625'
p3231
aS'2626'
p3232
ag3232
aS'2635'
p3233
aS'2646'
p3234
aS'2648'
p3235
aS'2657'
p3236
aS'2659'
p3237
aS'2661'
p3238
aS'2665'
p3239
ag2274
aS'2669'
p3240
aS'2674'
p3241
aS'2680'
p3242
aS'2682'
p3243
aS'2684'
p3244
aS'2688'
p3245
aS'2690'
p3246
aS'2695'
p3247
aS'2711'
p3248
aS'2712'
p3249
aS'2714'
p3250
aS'2716'
p3251
aS'2718'
p3252
aS'2720'
p3253
aS'2760'
p3254
aS'2801'
p3255
aS'2805'
p3256
aS'2810'
p3257
aS'2811'
p3258
aS'2815'
p3259
aS'2817'
p3260
aS'2819'
p3261
aS'2820'
p3262
aS'2827'
p3263
aS'2830'
p3264
aS'2831'
p3265
aS'2832'
p3266
aS'2837'
p3267
aS'2843'
p3268
aS'2847'
p3269
ag1279
ag1280
aS'2860'
p3270
aS'2864'
p3271
aS'2866'
p3272
aS'2879'
p3273
aS'2881'
p3274
aS'2890'
p3275
aS'2900'
p3276
ag3020
aS'2918'
p3277
ag3021
aS'2929'
p3278
aS'2940'
p3279
aS'2943'
p3280
aS'2952'
p3281
aS'2953'
p3282
aS'2966'
p3283
ag1958
aS'2985'
p3284
aS'3520'
p3285
aS'3528'
p3286
asS'L\xc3\xa1\xc5\xbeovice'
p3287
(lp3288
S'267 24'
p3289
asS'Louky'
p3290
(lp3291
S'733 01'
p3292
asS'Lu\xc4\x8dkovice'
p3293
(lp3294
S'398 04'
p3295
asS'Lubojaty'
p3296
(lp3297
S'742 92'
p3298
asS'Le\xc5\xa1tina u Sv\xc4\x9btl\xc3\xa9'
p3299
(lp3300
S'582 86'
p3301
asS'Lentf\xc3\xb6hrden'
p3302
(lp3303
S'24632'
p3304
aS'24632'
p3305
asS'Lake Oswego'
p3306
(lp3307
S'97035'
p3308
aS'97035'
p3309
asS'Leiva'
p3310
(lp3311
S'26213'
p3312
aS'26213'
p3313
asS'Lumsung'
p3314
(lp3315
S'795146'
p3316
aS'795146'
p3317
asS'Layton'
p3318
(lp3319
S'84040'
p3320
aS'84041'
p3321
aS'84041'
p3322
aS'84040'
p3323
asS'Lat Phrao'
p3324
(lp3325
S'10230'
p3326
asS'Lezai'
p3327
(lp3328
S'786054'
p3329
aS'786054'
p3330
asS'Lausanne'
p3331
(lp3332
S'1000'
p3333
aS'1002'
p3334
ag3334
aS'1004'
p3335
ag3335
aS'1007'
p3336
ag3336
aS'1010'
p3337
ag3337
aS'1023'
p3338
aS'1024'
p3339
aS'1028'
p3340
aS'1030'
p3341
aS'1034'
p3342
aS'1040'
p3343
aS'1041'
p3344
aS'1059'
p3345
aS'1063'
p3346
aS'1066'
p3347
aS'1071'
p3348
aS'1077'
p3349
aS'1080'
p3350
aS'1091'
p3351
aS'1093'
p3352
ag976
aS'1098'
p3353
aS'1112'
p3354
aS'1117'
p3355
aS'1123'
p3356
aS'1124'
p3357
aS'1143'
p3358
aS'1145'
p3359
aS'1163'
p3360
aS'1166'
p3361
aS'1170'
p3362
aS'1183'
p3363
aS'1260'
p3364
aS'1261'
p3365
aS'1264'
p3366
aS'1267'
p3367
aS'1271'
p3368
aS'1273'
p3369
aS'1279'
p3370
aS'1291'
p3371
aS'1295'
p3372
aS'1303'
p3373
aS'1305'
p3374
aS'1312'
p3375
ag2543
aS'1350'
p3376
aS'1372'
p3377
aS'1373'
p3378
aS'1450'
p3379
aS'1522'
p3380
aS'1580'
p3381
aS'1588'
p3382
aS'1607'
p3383
aS'1610'
p3384
aS'1802'
p3385
aS'1805'
p3386
aS'1806'
p3387
aS'1815'
p3388
aS'1820'
p3389
aS'1822'
p3390
aS'1823'
p3391
aS'1833'
p3392
ag630
aS'1880'
p3393
aS'1882'
p3394
aS'1885'
p3395
aS'1015'
p3396
ag3396
aS'1000'
p3397
ag3397
aS'1002'
p3398
ag3398
aS'1004'
p3399
ag3399
aS'1007'
p3400
ag3400
aS'1010'
p3401
ag3401
aS'1066'
p3402
aS'1196'
p3403
aS'1400'
p3404
aS'1820'
p3405
aS'1000'
p3406
aS'1012'
p3407
ag3407
aS'1023'
p3408
aS'1040'
p3409
ag977
aS'1170'
p3410
aS'1267'
p3411
aS'1291'
p3412
aS'1373'
p3413
aS'1510'
p3414
aS'1580'
p3415
aS'1815'
p3416
aS'1880'
p3417
aS'1020'
p3418
aS'1024'
p3419
aS'1028'
p3420
aS'1070'
p3421
aS'1094'
p3422
aS'1112'
p3423
aS'1163'
p3424
aS'1260'
p3425
aS'1295'
p3426
aS'1337'
p3427
aS'1350'
p3428
aS'1522'
p3429
aS'1610'
p3430
aS'1806'
p3431
ag631
aS'1000'
p3432
ag2904
ag1260
aS'1000'
p3433
ag2901
aS'1026'
p3434
aS'1030'
p3435
aS'1041'
p3436
aS'1071'
p3437
aS'1091'
p3438
aS'1093'
p3439
aS'1123'
p3440
aS'1143'
p3441
aS'1166'
p3442
aS'1260'
p3443
aS'1264'
p3444
aS'1273'
p3445
aS'1279'
p3446
aS'1303'
p3447
aS'1305'
p3448
ag2544
aS'1450'
p3449
aS'1588'
p3450
aS'1800'
p3451
aS'1802'
p3452
aS'1805'
p3453
aS'1820'
p3454
aS'1823'
p3455
aS'1882'
p3456
aS'1000'
p3457
aS'1053'
p3458
aS'1077'
p3459
aS'1098'
p3460
aS'1145'
p3461
aS'1183'
p3462
aS'1261'
p3463
aS'1271'
p3464
aS'1295'
p3465
aS'1312'
p3466
aS'1372'
p3467
aS'1376'
p3468
aS'1607'
p3469
aS'1822'
p3470
aS'1833'
p3471
aS'1885'
p3472
aS'1000'
p3473
aS'1020'
p3474
aS'1034'
p3475
aS'1036'
p3476
aS'1040'
p3477
aS'1041'
p3478
aS'1044'
p3479
aS'1059'
p3480
aS'1063'
p3481
aS'1070'
p3482
aS'1080'
p3483
aS'1082'
p3484
aS'1084'
p3485
aS'1091'
p3486
aS'1110'
p3487
aS'1117'
p3488
aS'1124'
p3489
asS'Lakeland'
p3490
(lp3491
S'55043'
p3492
aS'55043'
p3493
asS'Lustm\xc3\xbchle'
p3494
(lp3495
S'9062'
p3496
asS'Logrezana'
p3497
(lp3498
S'33438'
p3499
aS'33438'
p3500
asS'Leiter'
p3501
(lp3502
S'82837'
p3503
aS'82837'
p3504
asS'Leggia'
p3505
(lp3506
S'6556'
p3507
aS'6556'
p3508
asS'Lebesby'
p3509
(lp3510
S'9740'
p3511
aS'9740'
p3512
asS'Loni'
p3513
(lp3514
S'450334'
p3515
aS'450334'
p3516
asS'Les Agettes'
p3517
(lp3518
S'1992'
p3519
aS'1992'
p3520
asS'Lej\xc5\xa1ovka'
p3521
(lp3522
S'503 03'
p3523
asS'Lommiswil'
p3524
(lp3525
S'4514'
p3526
aS'4514'
p3527
asS'L I C Dn Hyd'
p3528
(lp3529
S'500463'
p3530
asS'Lesn\xc3\xad Albrechtice'
p3531
(lp3532
S'749 01'
p3533
aS'749 01'
p3534
asS'Leoben'
p3535
(lp3536
S'8700'
p3537
asS'Litostrov'
p3538
(lp3539
S'664 83'
p3540
asS'Lhota u Chroustovic'
p3541
(lp3542
S'538 63'
p3543
asS'Lausanne 12'
p3544
(lp3545
g3457
asS'Lechovice'
p3546
(lp3547
S'671 63'
p3548
asS'Loural'
p3549
(lp3550
S'9580-227'
p3551
aS'9580-227'
p3552
asS'Libn\xc3\xadkovice'
p3553
(lp3554
S'503 46'
p3555
asS'Longding'
p3556
(lp3557
S'786631'
p3558
aS'786631'
p3559
asS'Lamphelpat'
p3560
(lp3561
S'795004'
p3562
aS'795004'
p3563
asS'Libe\xc4\x8d'
p3564
(lp3565
S'541 01'
p3566
asS'Leduc'
p3567
(lp3568
S'T9E'
p3569
aS'T9E'
p3570
asS'Lubmin'
p3571
(lp3572
S'17509'
p3573
aS'17509'
p3574
asS'L\xc3\xa5ngsele'
p3575
(lp3576
S'88222'
p3577
aS'88291'
p3578
aS'88222'
p3579
aS'88291'
p3580
asS'Leyburn'
p3581
(lp3582
S'4365'
p3583
aS'4365'
p3584
asS'Lignana'
p3585
(lp3586
S'13100'
p3587
asS'Ljusfallshammar'
p3588
(lp3589
S'61010'
p3590
aS'61010'
p3591
asS'Les Genevez JU'
p3592
(lp3593
S'2714'
p3594
asS'Libick\xc3\xa1 Lhotka'
p3595
(lp3596
S'582 77'
p3597
asS'Lad'
p3598
(lp3599
S'7535'
p3600
asS'Lipanovice'
p3601
(lp3602
S'373 84'
p3603
asS'Lade\xc4\x8dka'
p3604
(lp3605
S'407 57'
p3606
asS'L\xc3\xad\xc5\xa1\xc5\xa5any'
p3607
(lp3608
S'330 35'
p3609
asS'Lib\xc4\x9bdice'
p3610
(lp3611
S'438 01'
p3612
asS'L\xc3\xa4ufelfingen'
p3613
(lp3614
S'4448'
p3615
aS'4448'
p3616
asS'Lachine East'
p3617
(lp3618
S'H8S'
p3619
aS'H8S'
p3620
asS'Lincoln'
p3621
(lp3622
S'02865'
p3623
aS'03251'
p3624
aS'04457'
p3625
aS'35096'
p3626
aS'68504'
p3627
aS'68521'
p3628
aS'35096'
p3629
aS'04457'
p3630
aS'68504'
p3631
aS'68521'
p3632
aS'03251'
p3633
aS'02865'
p3634
aS'20160'
p3635
asS'Libovice'
p3636
(lp3637
S'273 79'
p3638
asS'Les Breuleux'
p3639
(lp3640
S'2345'
p3641
asS'La Vegueta'
p3642
(lp3643
g2002
ag2108
asS'Larraga'
p3644
(lp3645
S'31251'
p3646
aS'31251'
p3647
asS'Litchfield'
p3648
(lp3649
S'03052'
p3650
aS'04350'
p3651
aS'04350'
p3652
aS'03052'
p3653
asS'Laconia'
p3654
(lp3655
S'03246'
p3656
aS'03246'
p3657
asS'Liberec XI'
p3658
(lp3659
g1871
asS'Ljungbyholm'
p3660
(lp3661
S'38801'
p3662
aS'38893'
p3663
aS'38896'
p3664
aS'38801'
p3665
aS'38896'
p3666
aS'38893'
p3667
asS'Lh\xc5\xafty'
p3668
(lp3669
S'538 43'
p3670
asS'Liebistorf'
p3671
(lp3672
S'3213'
p3673
asS'Lax\xc3\xa5'
p3674
(lp3675
S'69522'
p3676
aS'69530'
p3677
aS'69522'
p3678
aS'69530'
p3679
asS'Liberec XV'
p3680
(lp3681
g1873
asS'La Roca De La Sierra'
p3682
(lp3683
S'06190'
p3684
aS'06190'
p3685
asS'Lierstranda'
p3686
(lp3687
S'3412'
p3688
asS'Lh\xc5\xafta'
p3689
(lp3690
S'339 01'
p3691
aS'332 01'
p3692
aS'332 01'
p3693
asS'Lovas'
p3694
(lp3695
S'8228'
p3696
asS'Ladir'
p3697
(lp3698
S'7155'
p3699
asS'Lampeland'
p3700
(lp3701
S'3621'
p3702
aS'3621'
p3703
asS'Lumbrein'
p3704
(lp3705
S'7148'
p3706
asS'Longva'
p3707
(lp3708
g1389
ag1418
asS'L\xc3\xa9b\xc3\xa9ny'
p3709
(lp3710
S'9155'
p3711
aS'9155'
p3712
asS'Lombard'
p3713
(lp3714
S'60148'
p3715
aS'60148'
p3716
asS'Ln\xc3\xa1\xc5\x99e'
p3717
(lp3718
S'387 42'
p3719
asS'Lathi'
p3720
(lp3721
S'364430'
p3722
aS'364430'
p3723
asS'Langenhagen'
p3724
(lp3725
S'30855'
p3726
aS'30855'
p3727
asS'Limerick'
p3728
(lp3729
S'04048'
p3730
aS'04048'
p3731
asS'Lake Hiawatha'
p3732
(lp3733
S'07034'
p3734
aS'07034'
p3735
asS'Litv\xc3\xadnov-Horn\xc3\xad Litv\xc3\xadnov x)'
p3736
(lp3737
S'436 01'
p3738
asS'L\xc3\xadchovy'
p3739
(lp3740
S'264 01'
p3741
asS'Loganville'
p3742
(lp3743
S'30052'
p3744
aS'30052'
p3745
asS'Lib\xc4\x8deves'
p3746
(lp3747
S'439 26'
p3748
asS'Lukov\xc3\xa1'
p3749
(lp3750
S'331 62'
p3751
aS'751 03'
p3752
asS'Lesonice'
p3753
(lp3754
S'675 44'
p3755
aS'672 01'
p3756
asS'Lor\xc3\xbcns'
p3757
(lp3758
S'6700'
p3759
asS'Le\xc5\xa1tinka'
p3760
(lp3761
S'582 91'
p3762
asS'La Pereda (Llanes)'
p3763
(lp3764
S'33509'
p3765
asS'Lady Harding Medical College'
p3766
(lp3767
S'110001'
p3768
asS'Lom u Tachova'
p3769
(lp3770
S'347 01'
p3771
asS'Lab\xc4\x9bt\xc3\xadn'
p3772
(lp3773
S'535 01'
p3774
asS'Leobersdorf'
p3775
(lp3776
S'2544'
p3777
asS'Levelock'
p3778
(lp3779
S'99625'
p3780
aS'99625'
p3781
asS'L\xc3\xadtkovice'
p3782
(lp3783
S'294 02'
p3784
asS'Lampertheim'
p3785
(lp3786
S'68623'
p3787
aS'68623'
p3788
asS'Lesja'
p3789
(lp3790
g3175
ag3239
asS'Libiv\xc3\xa1'
p3791
(lp3792
S'789 85'
p3793
asS'Lech'
p3794
(lp3795
S'6764'
p3796
aS'6764'
p3797
asS'Lua Amnart'
p3798
(lp3799
S'37000'
p3800
aS'37110'
p3801
aS'37210'
p3802
aS'37290'
p3803
aS'37000'
p3804
ag3804
aS'37110'
p3805
aS'37210'
p3806
aS'37290'
p3807
asS'Leck'
p3808
(lp3809
S'25917'
p3810
aS'25917'
p3811
asS'Lake Stevens'
p3812
(lp3813
S'98258'
p3814
aS'98258'
p3815
asS'Lonavala'
p3816
(lp3817
S'410401'
p3818
aS'410401'
p3819
asS'Les Cullayes'
p3820
(lp3821
g3350
ag3483
asS'Lhovice'
p3822
(lp3823
S'340 12'
p3824
asS'L\xc3\xb6ber\xc3\xb6d'
p3825
(lp3826
S'24033'
p3827
aS'24033'
p3828
asS'Legazpi'
p3829
(lp3830
S'20230'
p3831
aS'20230'
p3832
asS'Lath'
p3833
(lp3834
S'124321'
p3835
aS'124321'
p3836
asS'Lieres'
p3837
(lp3838
S'33580'
p3839
aS'33580'
p3840
asS'Lichkov'
p3841
(lp3842
S'561 68'
p3843
asS'Letiny'
p3844
(lp3845
S'336 01'
p3846
asS'Loco Settlement'
p3847
(lp3848
S'752050'
p3849
asS'Lobzy'
p3850
(lp3851
S'356 01'
p3852
aS'348 02'
p3853
asS'Langley City'
p3854
(lp3855
S'V3A'
p3856
aS'V3A'
p3857
asS'Linwood'
p3858
(lp3859
S'66052'
p3860
aS'66052'
p3861
asS'Libosv\xc3\xa1ry'
p3862
(lp3863
S'768 61'
p3864
asS'LaSalle Northwest'
p3865
(lp3866
S'H8N'
p3867
aS'H8N'
p3868
asS'Lauksletta'
p3869
(lp3870
S'9194'
p3871
aS'9194'
p3872
asS'Laboratory (Bbr-13)'
p3873
(lp3874
S'751013'
p3875
aS'751013'
p3876
asS'Lengri Bazar'
p3877
(lp3878
S'786616'
p3879
aS'786616'
p3880
asS'La Marina'
p3881
(lp3882
S'03194'
p3883
aS'03194'
p3884
asS'Lesenceistv\xc3\xa1nd'
p3885
(lp3886
S'8319'
p3887
aS'8319'
p3888
asS'Lagos'
p3889
(lp3890
S'9580-107'
p3891
aS'9580-107'
p3892
asS'Lakeville, Shediac Bridge'
p3893
(lp3894
S'E1H'
p3895
aS'E1H'
p3896
aS'E1H'
p3897
asS'Lohfelden'
p3898
(lp3899
S'34253'
p3900
aS'34253'
p3901
asS'Les Pommerats'
p3902
(lp3903
S'2353'
p3904
asS'Le\xc5\xa1ovice'
p3905
(lp3906
S'331 62'
p3907
asS'Leadore'
p3908
(lp3909
S'83464'
p3910
aS'83464'
p3911
asS'Lal Sarai'
p3912
(lp3913
S'209625'
p3914
asS'Lipovka'
p3915
(lp3916
S'516 01'
p3917
asS'Le\xc5\xa1tina'
p3918
(lp3919
S'391 43'
p3920
aS'507 43'
p3921
aS'789 71'
p3922
asS'Lup\xc4\x9bn\xc3\xa9'
p3923
(lp3924
S'789 01'
p3925
asS'L\xc3\xadtov'
p3926
(lp3927
S'357 09'
p3928
asS'Lesinka'
p3929
(lp3930
S'351 34'
p3931
asS'Ludlow'
p3932
(lp3933
S'01056'
p3934
aS'05149'
p3935
aS'01056'
p3936
aS'05149'
p3937
asS'Luk\xc3\xa1\xc5\xa1ov'
p3938
(lp3939
S'466 05'
p3940
asS'Le\xc5\xa1n\xc3\xa1'
p3941
(lp3942
S'756 41'
p3943
asS'Laval-des-Rapides'
p3944
(lp3945
S'H7N'
p3946
aS'H7N'
p3947
asS'Logro\xc3\xb1o'
p3948
(lp3949
S'26002'
p3950
aS'26003'
p3951
ag3951
aS'26006'
p3952
ag3952
aS'26071'
p3953
ag3953
aS'26080'
p3954
ag3954
aS'26110'
p3955
aS'26111'
p3956
aS'26121'
p3957
aS'26124'
p3958
aS'26125'
p3959
aS'26126'
p3960
aS'26130'
p3961
aS'26131'
p3962
aS'26132'
p3963
aS'26133'
p3964
aS'26134'
p3965
aS'26135'
p3966
aS'26140'
p3967
aS'26142'
p3968
aS'26144'
p3969
aS'26146'
p3970
aS'26151'
p3971
aS'26160'
p3972
aS'26210'
p3973
aS'26211'
p3974
aS'26212'
p3975
ag3312
aS'26214'
p3976
aS'26215'
p3977
aS'26220'
p3978
aS'26222'
p3979
aS'26224'
p3980
aS'26240'
p3981
aS'26241'
p3982
aS'26250'
p3983
aS'26258'
p3984
aS'26259'
p3985
aS'26260'
p3986
aS'26288'
p3987
aS'26289'
p3988
aS'26291'
p3989
aS'26292'
p3990
aS'26300'
p3991
aS'26310'
p3992
aS'26311'
p3993
aS'26312'
p3994
aS'26315'
p3995
aS'26320'
p3996
aS'26321'
p3997
aS'26323'
p3998
aS'26325'
p3999
aS'26327'
p4000
aS'26329'
p4001
aS'26338'
p4002
aS'26339'
p4003
aS'26350'
p4004
aS'26359'
p4005
aS'26370'
p4006
aS'26371'
p4007
aS'26373'
p4008
aS'26375'
p4009
aS'26376'
p4010
aS'26509'
p4011
aS'26513'
p4012
aS'26526'
p4013
aS'26527'
p4014
aS'26533'
p4015
aS'26550'
p4016
aS'26570'
p4017
aS'26580'
p4018
aS'26585'
p4019
aS'26586'
p4020
aS'26587'
p4021
aS'26588'
p4022
aS'26589'
p4023
aS'26002'
p4024
ag4024
aS'26003'
p4025
ag4025
aS'26006'
p4026
ag4026
aS'26071'
p4027
ag4027
aS'26300'
p4028
aS'26580'
p4029
aS'26140'
p4030
aS'26080'
p4031
ag4031
aS'26250'
p4032
aS'26350'
p4033
aS'26370'
p4034
aS'26589'
p4035
aS'26339'
p4036
aS'26125'
p4037
aS'26142'
p4038
aS'26220'
p4039
aS'26240'
p4040
aS'26310'
p4041
aS'26320'
p4042
aS'26338'
p4043
aS'26375'
p4044
aS'26513'
p4045
aS'26550'
p4046
aS'26570'
p4047
aS'26121'
p4048
aS'26124'
p4049
aS'26143'
p4050
aS'26151'
p4051
aS'26214'
p4052
aS'26241'
p4053
aS'26260'
p4054
aS'26291'
p4055
aS'26311'
p4056
aS'26321'
p4057
aS'26323'
p4058
aS'26509'
p4059
aS'26586'
p4060
aS'26121'
p4061
aS'26130'
p4062
aS'26259'
p4063
aS'26371'
p4064
aS'26130'
p4065
aS'26135'
p4066
aS'26222'
p4067
aS'26312'
p4068
aS'26321'
p4069
aS'26526'
p4070
aS'26586'
p4071
aS'26160'
p4072
ag3313
aS'26327'
p4073
aS'26533'
p4074
aS'26587'
p4075
aS'26123'
p4076
ag3142
aS'26133'
p4077
aS'26144'
p4078
aS'26146'
p4079
aS'26210'
p4080
aS'26215'
p4081
aS'26259'
p4082
aS'26288'
p4083
aS'26311'
p4084
aS'26329'
p4085
aS'26359'
p4086
aS'26373'
p4087
aS'26376'
p4088
aS'26588'
p4089
aS'26124'
p4090
aS'26131'
p4091
aS'26132'
p4092
aS'26211'
p4093
aS'26212'
p4094
aS'26213'
p4095
aS'26213'
p4096
aS'26289'
p4097
aS'26291'
p4098
aS'26315'
p4099
aS'26325'
p4100
aS'26325'
p4101
aS'26329'
p4102
aS'26111'
p4103
aS'26126'
p4104
aS'26131'
p4105
aS'26133'
p4106
aS'26133'
p4107
aS'26134'
p4108
aS'26160'
p4109
aS'26214'
p4110
aS'26224'
p4111
aS'26258'
p4112
aS'26259'
p4113
aS'26292'
p4114
aS'26321'
p4115
aS'26527'
p4116
aS'26585'
p4117
aS'26586'
p4118
aS'26587'
p4119
aS'26110'
p4120
aS'26121'
p4121
asS'Lucerne'
p4122
(lp4123
S'4806'
p4124
aS'4915'
p4125
aS'6005'
p4126
aS'6009'
p4127
aS'6016'
p4128
aS'6017'
p4129
aS'6018'
p4130
aS'6019'
p4131
aS'6020'
p4132
aS'6032'
p4133
aS'6038'
p4134
aS'6039'
p4135
aS'6043'
p4136
aS'6047'
p4137
aS'6048'
p4138
aS'6110'
p4139
aS'6123'
p4140
aS'6125'
p4141
aS'6133'
p4142
aS'6142'
p4143
aS'6147'
p4144
aS'6154'
p4145
aS'6160'
p4146
aS'6162'
p4147
aS'6163'
p4148
aS'6173'
p4149
aS'6174'
p4150
aS'6196'
p4151
aS'6203'
p4152
aS'6204'
p4153
aS'6212'
p4154
aS'6213'
p4155
aS'6218'
p4156
aS'6222'
p4157
aS'6231'
p4158
aS'6242'
p4159
aS'6244'
p4160
aS'6245'
p4161
aS'6247'
p4162
aS'6248'
p4163
aS'6252'
p4164
aS'6260'
p4165
ag1001
aS'6263'
p4166
aS'6276'
p4167
aS'6277'
p4168
aS'6284'
p4169
aS'6285'
p4170
aS'6287'
p4171
aS'6289'
p4172
aS'6294'
p4173
aS'6353'
p4174
aS'6404'
p4175
aS'6000'
p4176
aS'6003'
p4177
aS'6005'
p4178
aS'6010'
p4179
aS'6020'
p4180
aS'6048'
p4181
ag2910
aS'6017'
p4182
aS'6032'
p4183
aS'6043'
p4184
aS'6102'
p4185
aS'6204'
p4186
aS'6252'
p4187
aS'6353'
p4188
aS'6018'
p4189
aS'6038'
p4190
aS'6203'
p4191
aS'6215'
p4192
aS'6234'
p4193
aS'6247'
p4194
aS'6285'
p4195
aS'4806'
p4196
ag4196
ag965
aS'6011'
p4197
aS'6016'
p4198
aS'6031'
p4199
aS'6035'
p4200
aS'6039'
p4201
aS'6047'
p4202
aS'6142'
p4203
aS'6147'
p4204
aS'6174'
p4205
aS'6204'
p4206
aS'6212'
p4207
aS'6218'
p4208
aS'6222'
p4209
aS'6242'
p4210
aS'6244'
p4211
aS'6280'
p4212
aS'6284'
p4213
aS'6287'
p4214
aS'6294'
p4215
aS'6404'
p4216
aS'6106'
p4217
aS'6213'
p4218
aS'6263'
p4219
aS'4915'
p4220
aS'6000'
p4221
aS'6010'
p4222
aS'6019'
p4223
aS'6028'
p4224
aS'6038'
p4225
aS'6112'
p4226
aS'6123'
p4227
aS'6133'
p4228
aS'6154'
p4229
aS'6163'
p4230
aS'6173'
p4231
aS'6196'
p4232
aS'6216'
p4233
aS'6231'
p4234
aS'6248'
p4235
ag1002
aS'6280'
p4236
aS'6285'
p4237
aS'6289'
p4238
aS'6103'
p4239
aS'6152'
p4240
aS'6260'
p4241
aS'6000'
p4242
aS'6009'
p4243
aS'6020'
p4244
aS'6025'
p4245
aS'6125'
p4246
aS'6162'
p4247
aS'6276'
p4248
aS'6010'
p4249
aS'6143'
p4250
aS'6277'
p4251
aS'6245'
p4252
aS'6212'
p4253
aS'6160'
p4254
aS'6260'
p4255
ag693
ag2886
aS'6002'
p4256
aS'6020'
p4257
aS'6260'
p4258
aS'6110'
p4259
aS'6162'
p4260
aS'6215'
p4261
aS'6030'
p4262
aS'4806'
p4263
aS'6017'
p4264
aS'6037'
p4265
aS'6000'
p4266
aS'6162'
p4267
aS'6015'
p4268
aS'6023'
p4269
aS'6102'
p4270
asS'Lido Di Venezia'
p4271
(lp4272
S'30126'
p4273
aS'30126'
p4274
asS'Lorsch'
p4275
(lp4276
S'64653'
p4277
aS'64653'
p4278
asS'La Crosse'
p4279
(lp4280
S'54603'
p4281
aS'54603'
p4282
asS'Lein\xc3\xb8y'
p4283
(lp4284
g1359
ag1409
asS'Litomy\xc5\xa1lsk\xc3\xa9 P\xc5\x99edm\xc4\x9bst\xc3\xad'
p4285
(lp4286
S'566 01'
p4287
asS'Lud\xc3\xa9\xc5\x99ov'
p4288
(lp4289
S'783 44'
p4290
asS'La Martella'
p4291
(lp4292
S'75100'
p4293
aS'75100'
p4294
asS'L\xc3\xbcchingen'
p4295
(lp4296
S'9450'
p4297
asS'Lovelock'
p4298
(lp4299
S'89419'
p4300
aS'89419'
p4301
asS'La Praille'
p4302
(lp4303
S'1227'
p4304
aS'1227'
p4305
asS'Lakeside'
p4306
(lp4307
S'B3T'
p4308
aS'B3T'
p4309
aS'B3T'
p4310
asS'Labou\xc5\x88'
p4311
(lp4312
S'507 33'
p4313
asS'Loch'
p4314
(lp4315
S'6867'
p4316
aS'6867'
p4317
asS'Lipno'
p4318
(lp4319
S'438 01'
p4320
asS'Loco'
p4321
(lp4322
S'6661'
p4323
asS'Lys\xc5\xafvky'
p4324
(lp4325
S'739 42'
p4326
asS'Lenore'
p4327
(lp4328
S'83541'
p4329
asS'Lodrino'
p4330
(lp4331
S'6527'
p4332
aS'6527'
p4333
asS'Lisbon'
p4334
(lp4335
S'04250'
p4336
aS'58054'
p4337
aS'04250'
p4338
aS'58054'
p4339
asS'Lisboa'
p4340
(lp4341
S'1000-001'
p4342
ag4342
aS'1000-003'
p4343
ag4343
aS'1000-005'
p4344
ag4344
aS'1000-008'
p4345
ag4345
aS'1000-010'
p4346
ag4346
aS'1000-012'
p4347
ag4347
aS'1000-014'
p4348
ag4348
aS'1000-016'
p4349
ag4349
aS'1000-018'
p4350
ag4350
aS'1000-020'
p4351
ag4351
aS'1000-022'
p4352
ag4352
aS'1000-024'
p4353
ag4353
aS'1000-026'
p4354
ag4354
aS'1000-028'
p4355
ag4355
aS'1000-030'
p4356
ag4356
aS'1000-033'
p4357
ag4357
aS'1000-035'
p4358
ag4358
aS'1000-037'
p4359
ag4359
aS'1000-039'
p4360
ag4360
aS'1000-042'
p4361
ag4361
aS'1000-044'
p4362
ag4362
aS'1000-046'
p4363
ag4363
aS'1000-048'
p4364
ag4364
aS'1000-051'
p4365
ag4365
aS'1000-053'
p4366
ag4366
aS'1000-055'
p4367
ag4367
aS'1000-057'
p4368
ag4368
aS'1000-059'
p4369
ag4369
aS'1000-061'
p4370
ag4370
aS'1000-063'
p4371
ag4371
aS'1000-065'
p4372
ag4372
aS'1000-067'
p4373
ag4373
aS'1000-069'
p4374
ag4374
aS'1000-071'
p4375
ag4375
aS'1000-073'
p4376
ag4376
aS'1000-075'
p4377
ag4377
aS'1000-077'
p4378
ag4378
aS'1000-079'
p4379
ag4379
aS'1000-081'
p4380
ag4380
aS'1000-083'
p4381
ag4381
aS'1000-085'
p4382
ag4382
aS'1000-087'
p4383
ag4383
aS'1000-089'
p4384
ag4384
aS'1000-091'
p4385
ag4385
aS'1000-093'
p4386
ag4386
aS'1000-095'
p4387
ag4387
aS'1000-097'
p4388
ag4388
aS'1000-099'
p4389
ag4389
aS'1000-101'
p4390
ag4390
aS'1000-103'
p4391
ag4391
aS'1000-105'
p4392
ag4392
aS'1000-107'
p4393
ag4393
aS'1000-109'
p4394
ag4394
aS'1000-111'
p4395
ag4395
aS'1000-113'
p4396
ag4396
aS'1000-115'
p4397
ag4397
aS'1000-117'
p4398
ag4398
aS'1000-120'
p4399
ag4399
aS'1000-122'
p4400
ag4400
aS'1000-124'
p4401
ag4401
aS'1000-126'
p4402
ag4402
aS'1000-128'
p4403
ag4403
aS'1000-130'
p4404
ag4404
aS'1000-132'
p4405
ag4405
aS'1000-134'
p4406
ag4406
aS'1000-136'
p4407
ag4407
aS'1000-138'
p4408
ag4408
aS'1000-140'
p4409
ag4409
aS'1000-142'
p4410
ag4410
aS'1000-144'
p4411
ag4411
aS'1000-146'
p4412
ag4412
aS'1000-148'
p4413
ag4413
aS'1000-150'
p4414
ag4414
aS'1000-152'
p4415
ag4415
aS'1000-154'
p4416
ag4416
aS'1000-156'
p4417
ag4417
aS'1000-158'
p4418
ag4418
aS'1000-160'
p4419
ag4419
aS'1000-162'
p4420
ag4420
aS'1000-164'
p4421
ag4421
aS'1000-166'
p4422
ag4422
aS'1000-168'
p4423
ag4423
aS'1000-170'
p4424
ag4424
aS'1000-172'
p4425
ag4425
aS'1000-174'
p4426
ag4426
aS'1000-176'
p4427
ag4427
aS'1000-178'
p4428
ag4428
aS'1000-180'
p4429
ag4429
aS'1000-182'
p4430
ag4430
aS'1000-184'
p4431
ag4431
aS'1000-186'
p4432
ag4432
aS'1000-188'
p4433
ag4433
aS'1000-190'
p4434
ag4434
aS'1000-192'
p4435
ag4435
aS'1000-194'
p4436
ag4436
aS'1000-196'
p4437
ag4437
aS'1000-198'
p4438
ag4438
aS'1000-203'
p4439
ag4439
aS'1000-206'
p4440
ag4440
aS'1000-208'
p4441
ag4441
aS'1000-001'
p4442
ag4442
aS'1000-003'
p4443
ag4443
aS'1000-005'
p4444
ag4444
aS'1000-008'
p4445
ag4445
aS'1000-010'
p4446
ag4446
aS'1000-012'
p4447
ag4447
aS'1000-014'
p4448
ag4448
aS'1000-016'
p4449
ag4449
aS'1000-018'
p4450
ag4450
aS'1000-020'
p4451
ag4451
aS'1000-022'
p4452
ag4452
aS'1000-024'
p4453
ag4453
aS'1000-026'
p4454
ag4454
aS'1000-028'
p4455
ag4455
aS'1000-030'
p4456
ag4456
aS'1000-033'
p4457
ag4457
aS'1000-035'
p4458
ag4458
aS'1000-037'
p4459
ag4459
aS'1000-039'
p4460
ag4460
aS'1000-042'
p4461
ag4461
aS'1000-044'
p4462
ag4462
aS'1000-046'
p4463
ag4463
aS'1000-048'
p4464
ag4464
aS'1000-051'
p4465
ag4465
aS'1000-053'
p4466
ag4466
aS'1000-055'
p4467
ag4467
aS'1000-057'
p4468
ag4468
aS'1000-059'
p4469
ag4469
aS'1000-061'
p4470
ag4470
aS'1000-063'
p4471
ag4471
aS'1000-065'
p4472
ag4472
aS'1000-067'
p4473
ag4473
aS'1000-069'
p4474
ag4474
aS'1000-071'
p4475
ag4475
aS'1000-073'
p4476
ag4476
aS'1000-075'
p4477
ag4477
aS'1000-077'
p4478
ag4478
aS'1000-079'
p4479
ag4479
aS'1000-081'
p4480
ag4480
aS'1000-083'
p4481
ag4481
aS'1000-085'
p4482
ag4482
aS'1000-087'
p4483
ag4483
aS'1000-089'
p4484
ag4484
aS'1000-091'
p4485
ag4485
aS'1000-093'
p4486
ag4486
aS'1000-095'
p4487
ag4487
aS'1000-097'
p4488
ag4488
aS'1000-099'
p4489
ag4489
aS'1000-101'
p4490
ag4490
aS'1000-103'
p4491
ag4491
aS'1000-105'
p4492
ag4492
aS'1000-107'
p4493
ag4493
aS'1000-109'
p4494
ag4494
aS'1000-111'
p4495
ag4495
aS'1000-113'
p4496
ag4496
aS'1000-115'
p4497
ag4497
aS'1000-117'
p4498
ag4498
aS'1000-120'
p4499
ag4499
aS'1000-122'
p4500
ag4500
aS'1000-124'
p4501
ag4501
aS'1000-126'
p4502
ag4502
aS'1000-128'
p4503
ag4503
aS'1000-130'
p4504
ag4504
aS'1000-132'
p4505
ag4505
aS'1000-134'
p4506
ag4506
aS'1000-136'
p4507
ag4507
aS'1000-138'
p4508
ag4508
aS'1000-140'
p4509
ag4509
aS'1000-142'
p4510
ag4510
aS'1000-144'
p4511
ag4511
aS'1000-146'
p4512
ag4512
aS'1000-148'
p4513
ag4513
aS'1000-150'
p4514
ag4514
aS'1000-152'
p4515
ag4515
aS'1000-154'
p4516
ag4516
aS'1000-156'
p4517
ag4517
aS'1000-158'
p4518
ag4518
aS'1000-160'
p4519
ag4519
aS'1000-162'
p4520
ag4520
aS'1000-164'
p4521
ag4521
aS'1000-166'
p4522
ag4522
aS'1000-168'
p4523
ag4523
aS'1000-170'
p4524
ag4524
aS'1000-172'
p4525
ag4525
aS'1000-174'
p4526
ag4526
aS'1000-176'
p4527
ag4527
aS'1000-178'
p4528
ag4528
aS'1000-180'
p4529
ag4529
aS'1000-182'
p4530
ag4530
aS'1000-184'
p4531
ag4531
aS'1000-186'
p4532
ag4532
aS'1000-188'
p4533
ag4533
aS'1000-190'
p4534
ag4534
aS'1000-192'
p4535
ag4535
aS'1000-194'
p4536
ag4536
aS'1000-196'
p4537
ag4537
aS'1000-198'
p4538
ag4538
aS'1000-203'
p4539
ag4539
aS'1000-206'
p4540
ag4540
aS'1000-208'
p4541
ag4541
asS'Les \xc3\x8eles-De-La- Madeleine'
p4542
(lp4543
S'G4T'
p4544
aS'G4T'
p4545
asS'La Storta'
p4546
(lp4547
S'00123'
p4548
aS'00123'
p4549
asS'Leuna'
p4550
(lp4551
S'06237'
p4552
asS'Lendorf'
p4553
(lp4554
S'9811'
p4555
asS'Lucfalva'
p4556
(lp4557
S'3129'
p4558
asS'Lhota Samoty'
p4559
(lp4560
S'391 11'
p4561
asS'La Mancha'
p4562
(lp4563
S'02001'
p4564
aS'02002'
p4565
ag4565
ag4565
aS'02004'
p4566
ag4566
ag4566
aS'02007'
p4567
ag4567
ag4567
aS'02080'
p4568
ag4568
ag4568
aS'02130'
p4569
ag4569
aS'02200'
p4570
ag4570
aS'02210'
p4571
ag4571
aS'02260'
p4572
ag4572
aS'02313'
p4573
ag4573
aS'02320'
p4574
ag4574
aS'02327'
p4575
ag4575
aS'02430'
p4576
ag4576
aS'02435'
p4577
ag4577
aS'02500'
p4578
ag4578
aS'02510'
p4579
ag4579
aS'02530'
p4580
ag4580
aS'02610'
p4581
ag4581
aS'02611'
p4582
ag4582
aS'02636'
p4583
ag4583
aS'02640'
p4584
ag4584
aS'02651'
p4585
ag4585
aS'02660'
p4586
ag4586
aS'02690'
p4587
ag4587
aS'05200'
p4588
aS'05230'
p4589
aS'05260'
p4590
aS'05400'
p4591
aS'05480'
p4592
aS'05600'
p4593
aS'05635'
p4594
aS'09002'
p4595
aS'09004'
p4596
aS'09005'
p4597
aS'09007'
p4598
aS'09080'
p4599
aS'09199'
p4600
aS'09300'
p4601
aS'09346'
p4602
aS'09400'
p4603
aS'09550'
p4604
aS'09570'
p4605
aS'09670'
p4606
aS'13001'
p4607
ag4607
aS'13003'
p4608
ag4608
aS'13005'
p4609
ag4609
aS'13130'
p4610
ag4610
aS'13160'
p4611
ag4611
aS'13200'
p4612
ag4612
aS'13210'
p4613
ag4613
aS'13240'
p4614
ag4614
aS'13300'
p4615
ag4615
aS'13320'
p4616
ag4616
aS'13330'
p4617
ag4617
aS'13370'
p4618
ag4618
aS'13420'
p4619
ag4619
aS'13440'
p4620
ag4620
aS'13600'
p4621
ag4621
aS'13620'
p4622
ag4622
aS'13670'
p4623
ag4623
aS'13730'
p4624
ag4624
aS'13770'
p4625
ag4625
aS'16001'
p4626
ag4626
aS'16002'
p4627
ag4627
aS'16003'
p4628
ag4628
aS'16123'
p4629
ag4629
aS'16190'
p4630
ag4630
aS'16200'
p4631
ag4631
aS'16210'
p4632
ag4632
aS'16235'
p4633
ag4633
ag746
ag746
aS'16260'
p4634
ag4634
aS'16300'
p4635
ag4635
aS'16400'
p4636
ag4636
aS'16410'
p4637
ag4637
aS'16411'
p4638
ag4638
aS'16430'
p4639
ag4639
aS'16540'
p4640
ag4640
aS'16600'
p4641
ag4641
aS'16640'
p4642
ag4642
aS'16700'
p4643
ag4643
aS'16800'
p4644
ag4644
aS'16870'
p4645
ag4645
aS'19003'
p4646
ag4646
aS'19071'
p4647
ag4647
aS'19117'
p4648
ag4648
aS'19120'
p4649
ag4649
aS'19171'
p4650
ag4650
aS'19180'
p4651
ag4651
aS'19200'
p4652
ag4652
aS'19222'
p4653
ag4653
aS'19230'
p4654
ag4654
aS'19250'
p4655
ag4655
aS'19269'
p4656
ag4656
aS'19300'
p4657
ag4657
ag2760
ag2761
ag2762
ag2763
ag2764
aS'24200'
p4658
aS'24227'
p4659
aS'24300'
p4660
aS'24500'
p4661
aS'24540'
p4662
ag1176
aS'24700'
p4663
aS'34001'
p4664
aS'34003'
p4665
aS'34005'
p4666
aS'34071'
p4667
aS'34100'
p4668
aS'34191'
p4669
aS'34800'
p4670
aS'34840'
p4671
aS'37002'
p4672
aS'37004'
p4673
aS'37005'
p4674
aS'37008'
p4675
aS'37184'
p4676
aS'37185'
p4677
aS'37710'
p4678
aS'37800'
p4679
aS'37900'
p4680
aS'40001'
p4681
aS'40005'
p4682
aS'40191'
p4683
aS'40200'
p4684
aS'40320'
p4685
aS'40500'
p4686
aS'42002'
p4687
aS'42005'
p4688
aS'42162'
p4689
aS'42300'
p4690
aS'45001'
p4691
ag4691
aS'45003'
p4692
ag4692
aS'45005'
p4693
ag4693
aS'45111'
p4694
ag4694
aS'45210'
p4695
ag4695
aS'45221'
p4696
ag4696
aS'45280'
p4697
ag4697
aS'45340'
p4698
ag4698
aS'45400'
p4699
ag4699
aS'45500'
p4700
ag4700
aS'45510'
p4701
ag4701
aS'45560'
p4702
ag4702
aS'45695'
p4703
ag4703
aS'45800'
p4704
ag4704
aS'45870'
p4705
ag4705
aS'45910'
p4706
ag4706
aS'47002'
p4707
aS'47006'
p4708
aS'47008'
p4709
aS'47009'
p4710
aS'47010'
p4711
aS'47012'
p4712
aS'47071'
p4713
aS'47151'
p4714
ag2215
aS'47200'
p4715
aS'47320'
p4716
aS'47400'
p4717
aS'47410'
p4718
aS'47490'
p4719
aS'47600'
p4720
aS'49001'
p4721
aS'49003'
p4722
aS'49004'
p4723
aS'49012'
p4724
aS'49016'
p4725
aS'49022'
p4726
aS'49024'
p4727
aS'49029'
p4728
aS'37008'
p4729
aS'09005'
p4730
aS'37002'
p4731
aS'47001'
p4732
aS'47008'
p4733
aS'09002'
p4734
aS'09004'
p4735
aS'09007'
p4736
aS'09400'
p4737
aS'34001'
p4738
aS'37005'
p4739
aS'40001'
p4740
aS'47002'
p4741
aS'47009'
p4742
aS'47012'
p4743
ag2765
ag2766
aS'24700'
p4744
aS'34003'
p4745
aS'34005'
p4746
aS'37004'
p4747
aS'37080'
p4748
aS'37800'
p4749
aS'40003'
p4750
aS'42002'
p4751
aS'42110'
p4752
aS'47006'
p4753
aS'47010'
p4754
aS'47071'
p4755
aS'47151'
p4756
aS'47400'
p4757
aS'05400'
p4758
ag2767
ag2768
aS'34800'
p4759
aS'37300'
p4760
aS'42005'
p4761
aS'47140'
p4762
aS'49003'
p4763
aS'05200'
p4764
aS'05480'
p4765
aS'05635'
p4766
aS'09080'
p4767
aS'09199'
p4768
aS'09300'
p4769
aS'09346'
p4770
aS'09570'
p4771
aS'24010'
p4772
ag2769
aS'24200'
p4773
aS'24300'
p4774
aS'24540'
p4775
aS'34071'
p4776
aS'34100'
p4777
aS'34200'
p4778
aS'34840'
p4779
aS'37184'
p4780
aS'37210'
p4781
aS'37710'
p4782
aS'37900'
p4783
aS'40005'
p4784
aS'40109'
p4785
aS'40191'
p4786
aS'40200'
p4787
aS'40320'
p4788
aS'40500'
p4789
aS'42162'
p4790
aS'42300'
p4791
aS'47130'
p4792
ag2216
aS'47200'
p4793
aS'47320'
p4794
aS'47410'
p4795
aS'47490'
p4796
aS'47600'
p4797
aS'49001'
p4798
aS'49004'
p4799
aS'49007'
p4800
aS'49009'
p4801
aS'49012'
p4802
aS'49014'
p4803
aS'49016'
p4804
aS'49022'
p4805
aS'49024'
p4806
aS'49029'
p4807
aS'49080'
p4808
aS'05100'
p4809
aS'05230'
p4810
aS'05260'
p4811
aS'05600'
p4812
aS'09550'
p4813
aS'09670'
p4814
aS'24227'
p4815
aS'24500'
p4816
ag1177
aS'34191'
p4817
aS'37185'
p4818
aS'02002'
p4819
ag4819
ag4819
aS'02001'
p4820
ag4820
ag4820
aS'02640'
p4821
ag4821
aS'16001'
p4822
ag4822
aS'45001'
p4823
ag4823
aS'45003'
p4824
ag4824
aS'45071'
p4825
ag4825
aS'02004'
p4826
ag4826
ag4826
aS'02007'
p4827
ag4827
ag4827
aS'02080'
p4828
ag4828
ag4828
aS'02500'
p4829
ag4829
aS'13001'
p4830
ag4830
aS'13003'
p4831
ag4831
aS'13005'
p4832
ag4832
aS'13200'
p4833
ag4833
aS'13300'
p4834
ag4834
aS'13600'
p4835
ag4835
aS'16002'
p4836
ag4836
aS'16400'
p4837
ag4837
aS'19003'
p4838
ag4838
aS'19200'
p4839
ag4839
aS'45005'
p4840
ag4840
aS'45100'
p4841
ag4841
aS'45340'
p4842
ag4842
aS'02660'
p4843
ag4843
aS'16003'
p4844
ag4844
aS'45500'
p4845
ag4845
aS'02200'
p4846
ag4846
aS'02260'
p4847
ag4847
aS'02430'
p4848
ag4848
aS'02611'
p4849
ag4849
aS'13100'
p4850
ag4850
aS'13240'
p4851
ag4851
aS'13320'
p4852
ag4852
aS'13420'
p4853
ag4853
aS'13620'
p4854
ag4854
aS'13640'
p4855
ag4855
aS'13730'
p4856
ag4856
aS'16200'
p4857
ag4857
aS'16235'
p4858
ag4858
aS'16600'
p4859
ag4859
aS'16640'
p4860
ag4860
aS'19071'
p4861
ag4861
aS'19100'
p4862
ag4862
aS'19120'
p4863
ag4863
aS'19171'
p4864
ag4864
aS'45210'
p4865
ag4865
aS'45221'
p4866
ag4866
aS'45280'
p4867
ag4867
aS'45400'
p4868
ag4868
aS'45510'
p4869
ag4869
aS'45800'
p4870
ag4870
aS'45870'
p4871
ag4871
aS'45910'
p4872
ag4872
aS'02210'
p4873
ag4873
aS'02530'
p4874
ag4874
aS'13670'
p4875
ag4875
aS'16100'
p4876
ag4876
aS'16260'
p4877
ag4877
aS'16411'
p4878
ag4878
aS'19180'
p4879
ag4879
aS'19300'
p4880
ag4880
aS'45111'
p4881
ag4881
aS'45560'
p4882
ag4882
aS'45695'
p4883
ag4883
aS'02110'
p4884
ag4884
aS'02130'
p4885
ag4885
aS'02313'
p4886
ag4886
aS'02320'
p4887
ag4887
aS'02327'
p4888
ag4888
aS'02435'
p4889
ag4889
aS'02510'
p4890
ag4890
aS'02610'
p4891
ag4891
aS'02636'
p4892
ag4892
aS'02651'
p4893
ag4893
aS'02690'
p4894
ag4894
aS'13130'
p4895
ag4895
aS'13160'
p4896
ag4896
aS'13210'
p4897
ag4897
aS'13330'
p4898
ag4898
aS'13370'
p4899
ag4899
aS'13440'
p4900
ag4900
aS'13770'
p4901
ag4901
aS'16123'
p4902
ag4902
aS'16150'
p4903
ag4903
aS'16190'
p4904
ag4904
aS'16210'
p4905
ag4905
ag747
ag747
aS'16300'
p4906
ag4906
aS'16410'
p4907
ag4907
aS'16430'
p4908
ag4908
aS'16540'
p4909
ag4909
aS'16700'
p4910
ag4910
aS'16800'
p4911
ag4911
aS'16870'
p4912
ag4912
aS'19117'
p4913
ag4913
aS'19222'
p4914
ag4914
aS'19230'
p4915
ag4915
aS'19250'
p4916
ag4916
aS'19269'
p4917
ag4917
asS'Lhotsko'
p4918
(lp4919
S'763 12'
p4920
asS'Lohanipur'
p4921
(lp4922
S'800003'
p4923
aS'800003'
p4924
asS'Lu\xc4\x8di\xc5\xa1t\xc4\x9b'
p4925
(lp4926
S'335 61'
p4927
asS'Los Alcazares'
p4928
(lp4929
S'30710'
p4930
aS'30710'
p4931
asS'Lillo'
p4932
(lp4933
g4705
ag4871
asS'Lacin\xc3\xa1'
p4934
(lp4935
S'388 01'
p4936
asS'L\xc3\xb6bau'
p4937
(lp4938
S'02708'
p4939
aS'02708'
p4940
asS'L\xc3\xbcbz'
p4941
(lp4942
S'19386'
p4943
aS'19386'
p4944
asS'Leioa'
p4945
(lp4946
S'48940'
p4947
aS'48940'
p4948
asS'L\xc3\xa5ngasj\xc3\xb6'
p4949
(lp4950
S'36195'
p4951
aS'36195'
p4952
asS'Laksvatn'
p4953
(lp4954
S'9042'
p4955
aS'9042'
p4956
asS'Lauterbach'
p4957
(lp4958
S'99826'
p4959
aS'99826'
p4960
asS'Lohn SH'
p4961
(lp4962
S'8235'
p4963
aS'8235'
p4964
asS'Les Taill\xc3\xa8res'
p4965
(lp4966
S'2406'
p4967
asS'Lod\xc4\x9bnice'
p4968
(lp4969
S'535 01'
p4970
asS'Lumding'
p4971
(lp4972
S'782447'
p4973
aS'782447'
p4974
asS'L\xc3\xb8renskog'
p4975
(lp4976
S'1470'
p4977
asS'L\xc5\x91k\xc3\xb6sh\xc3\xa1za'
p4978
(lp4979
S'5743'
p4980
asS'Lutopecny'
p4981
(lp4982
S'767 01'
p4983
asS'La Nucia'
p4984
(lp4985
S'03530'
p4986
aS'03530'
p4987
asS'Lungern'
p4988
(lp4989
S'6078'
p4990
aS'6078'
p4991
asS'Litv\xc3\xadnov-Hamr x)'
p4992
(lp4993
S'435 42'
p4994
asS'Las Navas Del Marques'
p4995
(lp4996
g4589
ag4810
asS'Lugo De Llanera'
p4997
(lp4998
S'33690'
p4999
aS'33690'
p5000
asS'Liberec III'
p5001
(lp5002
g1872
asS'Lilyfield'
p5003
(lp5004
S'2040'
p5005
asS'Lomba'
p5006
(lp5007
S'4870-213'
p5008
aS'9960-520'
p5009
aS'4870-213'
p5010
aS'9960-520'
p5011
asS'Lage'
p5012
(lp5013
S'32791'
p5014
aS'32791'
p5015
asS'Leeds'
p5016
(lp5017
S'01053'
p5018
aS'04263'
p5019
aS'58346'
p5020
aS'01053'
p5021
aS'04263'
p5022
aS'58346'
p5023
asS'Lajinha'
p5024
(lp5025
S'9900-369'
p5026
aS'9900-369'
p5027
asS'Lic Patna'
p5028
(lp5029
S'800001'
p5030
asS'La Chaux-du-Milieu'
p5031
(lp5032
S'2405'
p5033
asS'Lakhna'
p5034
(lp5035
S'206127'
p5036
aS'206127'
p5037
asS'Lev\xc3\xadnsk\xc3\xa9 Petrovice'
p5038
(lp5039
g1775
asS'Lutzmannsburg'
p5040
(lp5041
S'7361'
p5042
asS'Luchsingen Zustellung'
p5043
(lp5044
S'8775'
p5045
aS'8775'
p5046
asS'L\xc5\x91rinci'
p5047
(lp5048
S'3022'
p5049
asS'Lazio'
p5050
(lp5051
S'00153'
p5052
aS'00186'
p5053
aS'00198'
p5054
aS'00184'
p5055
aS'00194'
p5056
aS'00133'
p5057
aS'00136'
p5058
aS'00142'
p5059
aS'00146'
p5060
aS'00148'
p5061
aS'00154'
p5062
aS'00157'
p5063
aS'00161'
p5064
aS'00165'
p5065
aS'00173'
p5066
aS'00183'
p5067
aS'00192'
p5068
aS'00195'
p5069
aS'00197'
p5070
aS'01100'
p5071
aS'03100'
p5072
aS'00124'
p5073
aS'00128'
p5074
aS'00138'
p5075
aS'00145'
p5076
aS'00151'
p5077
aS'00163'
p5078
aS'00166'
p5079
aS'00168'
p5080
aS'00171'
p5081
aS'00175'
p5082
aS'00178'
p5083
aS'00182'
p5084
aS'00123'
p5085
aS'00177'
p5086
aS'00122'
p5087
aS'00126'
p5088
aS'00134'
p5089
aS'00119'
p5090
aS'00127'
p5091
ag4548
aS'00178'
p5092
aS'00124'
p5093
aS'00131'
p5094
aS'00143'
p5095
aS'00122'
p5096
aS'00133'
p5097
aS'00138'
p5098
aS'00134'
p5099
aS'00155'
p5100
aS'00189'
p5101
aS'00122'
p5102
aS'00128'
p5103
aS'00138'
p5104
aS'00155'
p5105
aS'00127'
p5106
aS'00156'
p5107
aS'00127'
p5108
aS'00132'
p5109
aS'00135'
p5110
aS'00138'
p5111
aS'00148'
p5112
aS'00169'
p5113
aS'03100'
p5114
aS'00119'
p5115
aS'00122'
p5116
ag4549
aS'00124'
p5117
aS'00126'
p5118
aS'00127'
p5119
aS'00128'
p5120
aS'00131'
p5121
aS'00132'
p5122
aS'00133'
p5123
aS'00134'
p5124
aS'00135'
p5125
aS'00136'
p5126
aS'00138'
p5127
aS'00142'
p5128
aS'00143'
p5129
aS'00145'
p5130
aS'00146'
p5131
aS'00148'
p5132
aS'00151'
p5133
aS'00153'
p5134
aS'00154'
p5135
aS'00155'
p5136
aS'00156'
p5137
aS'00157'
p5138
aS'00161'
p5139
aS'00163'
p5140
aS'00165'
p5141
aS'00166'
p5142
aS'00168'
p5143
aS'00169'
p5144
aS'00171'
p5145
aS'00173'
p5146
aS'00175'
p5147
aS'00177'
p5148
aS'00178'
p5149
aS'00182'
p5150
aS'00183'
p5151
aS'00184'
p5152
aS'00186'
p5153
aS'00189'
p5154
aS'00192'
p5155
aS'00194'
p5156
aS'00195'
p5157
aS'00197'
p5158
aS'00198'
p5159
aS'01100'
p5160
aS'03100'
p5161
asS'Lynco'
p5162
(lp5163
S'24857'
p5164
aS'24857'
p5165
asS'Lesn\xc3\xa1'
p5166
(lp5167
S'347 01'
p5168
aS'435 46'
p5169
aS'675 26'
p5170
aS'671 02'
p5171
asS'Lexington'
p5172
(lp5173
S'27292'
p5174
aS'27295'
p5175
aS'29071'
p5176
aS'29072'
p5177
aS'40503'
p5178
aS'40504'
p5179
aS'40508'
p5180
aS'40509'
p5181
aS'73051'
p5182
aS'40503'
p5183
aS'40509'
p5184
aS'40504'
p5185
aS'40508'
p5186
aS'27292'
p5187
aS'27295'
p5188
aS'73051'
p5189
aS'29072'
p5190
aS'29071'
p5191
asS'Loseto'
p5192
(lp5193
S'70129'
p5194
asS'Lipn\xc3\xadk nad Be\xc4\x8dvou III'
p5195
(lp5196
S'751 31'
p5197
asS'La Felguera (Langreo)'
p5198
(lp5199
S'33930'
p5200
aS'33930'
p5201
asS'Limone'
p5202
(lp5203
g2699
ag2740
asS'Lebedov'
p5204
(lp5205
S'768 02'
p5206
asS'Lohenice'
p5207
(lp5208
S'535 01'
p5209
asS'Leighton'
p5210
(lp5211
S'35646'
p5212
aS'50143'
p5213
aS'35646'
p5214
aS'50143'
p5215
asS'Liesberg Dorf'
p5216
(lp5217
S'4254'
p5218
aS'4254'
p5219
asS'Labour Colony'
p5220
(lp5221
S'302006'
p5222
aS'204101'
p5223
aS'205001'
p5224
aS'204101'
p5225
aS'205001'
p5226
asS'L\xc3\xadskovec'
p5227
(lp5228
S'768 05'
p5229
asS'Lh\xc3\xa1\xc5\x88'
p5230
(lp5231
S'507 13'
p5232
asS'Loharu'
p5233
(lp5234
S'123201'
p5235
aS'123201'
p5236
asS'Lan\xc5\xa1kroun-\xc5\xbdichl\xc3\xadnsk\xc3\xa9 P\xc5\x99edm\xc4\x9bst\xc3\xad x)'
p5237
(lp5238
S'563 01'
p5239
asS'Laddonia'
p5240
(lp5241
S'63352'
p5242
aS'63352'
p5243
asS'Legalators Home'
p5244
(lp5245
S'560001'
p5246
aS'560001'
p5247
asS'Luanco'
p5248
(lp5249
S'33440'
p5250
aS'33440'
p5251
asS'Livonia'
p5252
(lp5253
S'48152'
p5254
aS'48152'
p5255
asS'Lampang'
p5256
(lp5257
S'52000'
p5258
aS'52130'
p5259
aS'52150'
p5260
aS'52170'
p5261
aS'52190'
p5262
aS'52220'
p5263
aS'52240'
p5264
aS'52000'
p5265
ag5265
aS'52130'
p5266
aS'52150'
p5267
aS'52170'
p5268
aS'52190'
p5269
aS'52240'
p5270
aS'52220'
p5271
asS'Leytron'
p5272
(lp5273
S'1912'
p5274
aS'1912'
p5275
asS'Leobendorf'
p5276
(lp5277
S'2100'
p5278
asS'Lindside'
p5279
(lp5280
S'24951'
p5281
aS'24951'
p5282
asS'Langhus'
p5283
(lp5284
S'1403'
p5285
aS'1403'
p5286
asS'La\xc4\x8dnov'
p5287
(lp5288
S'572 01'
p5289
aS'679 71'
p5290
asS'Lu\xc4\x8dany nad Nisou'
p5291
(lp5292
S'468 71'
p5293
asS'Leikanger'
p5294
(lp5295
S'6863'
p5296
aS'6800'
p5297
aS'6783'
p5298
aS'6823'
p5299
aS'6851'
p5300
aS'6893'
p5301
aS'6700'
p5302
aS'6993'
p5303
aS'6701'
p5304
aS'6718'
p5305
aS'6727'
p5306
aS'6763'
p5307
aS'6781'
p5308
aS'6817'
p5309
aS'6843'
p5310
aS'6854'
p5311
aS'6869'
p5312
aS'6887'
p5313
aS'6902'
p5314
aS'6973'
p5315
aS'5718'
p5316
aS'5743'
p5317
aS'5960'
p5318
aS'5962'
p5319
aS'6711'
p5320
aS'6730'
p5321
aS'6750'
p5322
aS'6788'
p5323
aS'6793'
p5324
aS'6802'
p5325
aS'6805'
p5326
aS'6829'
p5327
aS'6852'
p5328
aS'6859'
p5329
aS'6866'
p5330
aS'6872'
p5331
aS'6876'
p5332
aS'6886'
p5333
aS'6891'
p5334
aS'6898'
p5335
aS'6940'
p5336
ag2857
aS'6961'
p5337
aS'6977'
p5338
aS'6980'
p5339
aS'6991'
p5340
aS'6996'
p5341
aS'5747'
p5342
aS'5978'
p5343
aS'6717'
p5344
aS'6741'
p5345
aS'6798'
p5346
aS'6896'
p5347
aS'6944'
p5348
aS'6964'
p5349
aS'6985'
p5350
aS'6707'
p5351
aS'6715'
p5352
aS'6776'
p5353
aS'6782'
p5354
aS'6799'
p5355
aS'6807'
p5356
aS'6841'
p5357
aS'6870'
p5358
aS'6895'
p5359
aS'6917'
p5360
aS'6984'
p5361
aS'6988'
p5362
aS'6772'
p5363
aS'6791'
p5364
aS'6818'
p5365
aS'6919'
p5366
aS'6929'
p5367
ag2858
aS'6969'
p5368
aS'6702'
p5369
aS'6708'
p5370
aS'6751'
p5371
aS'6822'
p5372
aS'6855'
p5373
aS'6927'
p5374
aS'6975'
p5375
aS'5749'
p5376
aS'6703'
p5377
aS'6716'
p5378
aS'6731'
p5379
aS'6912'
p5380
aS'6918'
p5381
aS'6971'
p5382
aS'6816'
p5383
aS'6981'
p5384
aS'5718'
p5385
aS'5743'
p5386
aS'5749'
p5387
aS'5960'
p5388
aS'5962'
p5389
aS'5978'
p5390
aS'6702'
p5391
aS'6703'
p5392
aS'6708'
p5393
aS'6711'
p5394
aS'6715'
p5395
aS'6718'
p5396
aS'6727'
p5397
aS'6730'
p5398
aS'6731'
p5399
aS'6763'
p5400
aS'6772'
p5401
aS'6776'
p5402
aS'6783'
p5403
aS'6788'
p5404
aS'6798'
p5405
aS'6799'
p5406
aS'6802'
p5407
aS'6805'
p5408
aS'6807'
p5409
aS'6817'
p5410
aS'6818'
p5411
aS'6823'
p5412
aS'6829'
p5413
aS'6841'
p5414
aS'6843'
p5415
aS'6851'
p5416
aS'6854'
p5417
aS'6855'
p5418
aS'6859'
p5419
aS'6866'
p5420
aS'6869'
p5421
aS'6872'
p5422
aS'6876'
p5423
aS'6886'
p5424
aS'6887'
p5425
aS'6891'
p5426
aS'6893'
p5427
aS'6895'
p5428
aS'6896'
p5429
aS'6898'
p5430
aS'6902'
p5431
aS'6917'
p5432
aS'6918'
p5433
aS'6919'
p5434
aS'6927'
p5435
aS'6929'
p5436
aS'6940'
p5437
ag2859
ag2860
aS'6961'
p5438
aS'6964'
p5439
aS'6969'
p5440
aS'6971'
p5441
aS'6973'
p5442
aS'6975'
p5443
aS'6977'
p5444
aS'6980'
p5445
aS'6981'
p5446
aS'6985'
p5447
aS'6988'
p5448
aS'6991'
p5449
aS'6993'
p5450
aS'6996'
p5451
asS'Lincolnton'
p5452
(lp5453
S'28092'
p5454
aS'28093'
p5455
aS'28092'
p5456
aS'28093'
p5457
asS'Liberec XXXIII'
p5458
(lp5459
g1892
asS'Lhota u Konice'
p5460
(lp5461
S'798 45'
p5462
asS'Laussa'
p5463
(lp5464
g895
aS'4461'
p5465
asS'Laramie'
p5466
(lp5467
S'82057'
p5468
aS'82072'
p5469
aS'82072'
p5470
aS'82071'
p5471
aS'82057'
p5472
asS'Lu\xc5\xbenice'
p5473
(lp5474
S'382 41'
p5475
asS'Laboe'
p5476
(lp5477
S'24235'
p5478
asS'Larvik'
p5479
(lp5480
S'3255'
p5481
aS'3251'
p5482
aS'3261'
p5483
aS'3271'
p5484
aS'3263'
p5485
aS'3260'
p5486
aS'3268'
p5487
aS'3270'
p5488
aS'3252'
p5489
aS'3258'
p5490
aS'3265'
p5491
aS'3251'
p5492
aS'3252'
p5493
aS'3258'
p5494
aS'3260'
p5495
aS'3261'
p5496
aS'3265'
p5497
aS'3268'
p5498
aS'3270'
p5499
aS'3271'
p5500
asS'Larrimah'
p5501
(lp5502
S'0852'
p5503
asS'Lodi Colony Market'
p5504
(lp5505
S'110003'
p5506
asS'Lapa'
p5507
(lp5508
S'9580-223'
p5509
aS'9580-223'
p5510
asS'Lax'
p5511
(lp5512
S'3994'
p5513
asS'Lan\xc5\xbehot'
p5514
(lp5515
S'691 51'
p5516
asS'La Guia'
p5517
(lp5518
S'30391'
p5519
aS'30391'
p5520
asS'Lindesberg'
p5521
(lp5522
S'71101'
p5523
aS'71122'
p5524
aS'71123'
p5525
aS'71133'
p5526
aS'71135'
p5527
aS'71123'
p5528
aS'71133'
p5529
aS'71101'
p5530
aS'71122'
p5531
aS'71135'
p5532
asS'Linden'
p5533
(lp5534
S'07036'
p5535
aS'50146'
p5536
aS'50146'
p5537
aS'07036'
p5538
asS'Le Fjord (Forestville)'
p5539
(lp5540
S'G0T'
p5541
aS'G0T'
p5542
asS'Lys\xc3\xa1 nad Labem'
p5543
(lp5544
S'289 22'
p5545
asS'Louisbourg'
p5546
(lp5547
S'B1C'
p5548
aS'B1C'
p5549
asS'Laufen Zustellung'
p5550
(lp5551
S'4242'
p5552
asS'Lierganes'
p5553
(lp5554
S'39722'
p5555
aS'39722'
p5556
asS'L\xc3\xa1zy'
p5557
(lp5558
S'569 43'
p5559
asS'L\xc3\xbazsok'
p5560
(lp5561
S'7838'
p5562
asS'Les Avants'
p5563
(lp5564
g3392
ag3471
asS'Los Angeles'
p5565
(lp5566
S'90002'
p5567
aS'90004'
p5568
ag5568
aS'90005'
p5569
ag5569
aS'90008'
p5570
ag5570
aS'90010'
p5571
ag5571
aS'90012'
p5572
ag5572
aS'90013'
p5573
ag5573
aS'90015'
p5574
ag5574
aS'90018'
p5575
ag5575
aS'90019'
p5576
ag5576
aS'90022'
p5577
ag5577
aS'90024'
p5578
ag5578
aS'90026'
p5579
ag5579
aS'90028'
p5580
ag5580
aS'90029'
p5581
ag5581
aS'90032'
p5582
ag5582
aS'90034'
p5583
ag5583
aS'90036'
p5584
ag5584
aS'90037'
p5585
ag5585
aS'90039'
p5586
ag5586
aS'90042'
p5587
ag5587
aS'90044'
p5588
ag5588
aS'90045'
p5589
ag5589
aS'90048'
p5590
ag5590
aS'90050'
p5591
ag5591
aS'90052'
p5592
ag5592
aS'90054'
p5593
ag5593
aS'90056'
p5594
ag5594
aS'90057'
p5595
ag5595
aS'90059'
p5596
ag5596
aS'90061'
p5597
ag5597
aS'90063'
p5598
ag5598
aS'90066'
p5599
ag5599
aS'90067'
p5600
ag5600
aS'90069'
p5601
aS'90072'
p5602
ag5602
aS'90074'
p5603
ag5603
aS'90076'
p5604
ag5604
aS'90079'
p5605
ag5605
aS'90081'
p5606
ag5606
aS'90083'
p5607
ag5607
aS'90086'
p5608
ag5608
aS'90088'
p5609
ag5609
aS'90091'
p5610
ag5610
aS'90094'
p5611
ag5611
aS'90096'
p5612
ag5612
aS'90102'
p5613
ag5613
aS'90185'
p5614
ag5614
aS'90201'
p5615
aS'90209'
p5616
aS'90210'
p5617
aS'90213'
p5618
aS'90221'
p5619
aS'90224'
p5620
aS'90230'
p5621
aS'90232'
p5622
aS'90239'
p5623
aS'90241'
p5624
aS'90245'
p5625
aS'90248'
p5626
aS'90250'
p5627
aS'90254'
p5628
ag1271
aS'90262'
p5629
aS'90264'
p5630
aS'90266'
p5631
aS'90274'
p5632
aS'90278'
p5633
aS'90290'
p5634
aS'90292'
p5635
aS'90293'
p5636
aS'90295'
p5637
aS'90301'
p5638
aS'90303'
p5639
aS'90306'
p5640
aS'90308'
p5641
aS'90403'
p5642
aS'90405'
p5643
aS'90620'
p5644
aS'90804'
p5645
aS'91105'
p5646
aS'91505'
p5647
aS'91911'
p5648
aS'91914'
p5649
aS'91977'
p5650
aS'92009'
p5651
aS'92020'
p5652
aS'92026'
p5653
aS'92037'
p5654
aS'92056'
p5655
aS'92083'
p5656
aS'92103'
p5657
aS'92109'
p5658
aS'92121'
p5659
aS'93940'
p5660
aS'94102'
p5661
aS'94105'
p5662
aS'94109'
p5663
aS'95814'
p5664
aS'90210'
p5665
aS'91911'
p5666
aS'91914'
p5667
aS'91977'
p5668
aS'92009'
p5669
aS'92020'
p5670
aS'92026'
p5671
aS'92037'
p5672
aS'92056'
p5673
aS'92083'
p5674
aS'94102'
p5675
aS'90002'
p5676
ag5676
aS'90004'
p5677
ag5677
aS'90012'
p5678
ag5678
aS'90018'
p5679
ag5679
aS'90024'
p5680
ag5680
aS'90026'
p5681
ag5681
aS'90029'
p5682
ag5682
aS'90034'
p5683
ag5683
aS'90036'
p5684
ag5684
aS'90039'
p5685
ag5685
aS'90045'
p5686
ag5686
aS'90048'
p5687
ag5687
aS'90057'
p5688
ag5688
aS'90067'
p5689
ag5689
aS'90201'
p5690
aS'90230'
p5691
aS'90292'
p5692
aS'90403'
p5693
aS'90405'
p5694
aS'90620'
p5695
aS'90804'
p5696
aS'91105'
p5697
aS'91505'
p5698
aS'92103'
p5699
aS'92109'
p5700
aS'92121'
p5701
aS'93940'
p5702
aS'94105'
p5703
aS'94109'
p5704
aS'95814'
p5705
aS'90005'
p5706
ag5706
aS'90008'
p5707
ag5707
aS'90010'
p5708
ag5708
aS'90013'
p5709
ag5709
aS'90015'
p5710
ag5710
aS'90019'
p5711
ag5711
aS'90022'
p5712
ag5712
aS'90028'
p5713
ag5713
aS'90032'
p5714
ag5714
aS'90037'
p5715
ag5715
aS'90042'
p5716
ag5716
aS'90044'
p5717
ag5717
aS'90050'
p5718
ag5718
aS'90052'
p5719
ag5719
aS'90054'
p5720
ag5720
aS'90056'
p5721
ag5721
aS'90059'
p5722
ag5722
aS'90061'
p5723
ag5723
aS'90063'
p5724
ag5724
aS'90066'
p5725
ag5725
aS'90069'
p5726
aS'90072'
p5727
ag5727
aS'90074'
p5728
ag5728
aS'90076'
p5729
ag5729
aS'90079'
p5730
ag5730
aS'90081'
p5731
ag5731
aS'90083'
p5732
ag5732
aS'90086'
p5733
ag5733
aS'90088'
p5734
ag5734
aS'90091'
p5735
ag5735
aS'90094'
p5736
ag5736
aS'90096'
p5737
ag5737
aS'90102'
p5738
ag5738
aS'90185'
p5739
ag5739
aS'90209'
p5740
aS'90213'
p5741
aS'90221'
p5742
aS'90224'
p5743
aS'90232'
p5744
aS'90239'
p5745
aS'90241'
p5746
aS'90245'
p5747
aS'90248'
p5748
aS'90250'
p5749
aS'90254'
p5750
ag1272
aS'90262'
p5751
aS'90264'
p5752
aS'90266'
p5753
aS'90270'
p5754
aS'90274'
p5755
aS'90278'
p5756
aS'90290'
p5757
aS'90293'
p5758
aS'90295'
p5759
aS'90301'
p5760
aS'90303'
p5761
aS'90306'
p5762
aS'90308'
p5763
asS'Lipov\xc3\xa1'
p5764
(lp5765
S'380 01'
p5766
aS'350 02'
p5767
aS'400 02'
p5768
aS'763 21'
p5769
aS'751 14'
p5770
asS'La\xc5\xbeany'
p5771
(lp5772
S'430 01'
p5773
ag1882
aS'570 01'
p5774
aS'679 22'
p5775
asS'Leopoldstadt'
p5776
(lp5777
S'1020'
p5778
aS'1020'
p5779
asS'Lezo'
p5780
(lp5781
S'20100'
p5782
aS'20100'
p5783
asS'L\xc3\xa4nna'
p5784
(lp5785
S'74011'
p5786
aS'74022'
p5787
aS'74030'
p5788
aS'74123'
p5789
aS'74130'
p5790
aS'74143'
p5791
aS'74171'
p5792
aS'74190'
p5793
aS'74195'
p5794
aS'74335'
p5795
aS'74393'
p5796
aS'74522'
p5797
aS'74530'
p5798
aS'74531'
p5799
aS'74534'
p5800
aS'74539'
p5801
aS'74541'
p5802
aS'74571'
p5803
aS'74596'
p5804
aS'74598'
p5805
aS'74622'
p5806
aS'74624'
p5807
aS'74631'
p5808
aS'74633'
p5809
aS'74691'
p5810
aS'74702'
p5811
aS'74742'
p5812
aS'74793'
p5813
aS'75003'
p5814
ag5814
aS'75016'
p5815
ag5815
aS'75023'
p5816
ag5816
aS'75025'
p5817
ag5817
aS'75121'
p5818
ag5818
aS'75122'
p5819
ag5819
aS'75126'
p5820
ag5820
aS'75128'
p5821
ag5821
aS'75143'
p5822
ag5822
aS'75182'
p5823
ag5823
aS'75183'
p5824
ag5824
aS'75185'
p5825
ag5825
aS'75189'
p5826
ag5826
aS'75231'
p5827
ag5827
aS'75239'
p5828
ag5828
aS'75262'
p5829
ag5829
aS'75263'
p5830
ag5830
aS'75273'
p5831
ag5831
aS'75275'
p5832
ag5832
aS'75311'
p5833
ag5833
aS'75314'
p5834
ag5834
aS'75318'
p5835
ag5835
aS'75319'
p5836
ag5836
aS'75320'
p5837
ag5837
aS'75322'
p5838
ag5838
aS'75327'
p5839
ag5839
aS'75329'
p5840
ag5840
aS'75332'
p5841
ag5841
aS'75334'
p5842
ag5842
aS'75335'
p5843
ag5843
aS'75337'
p5844
ag5844
aS'75423'
p5845
ag5845
aS'75426'
p5846
ag5846
aS'75431'
p5847
ag5847
aS'75434'
p5848
ag5848
aS'75440'
p5849
ag5849
aS'75446'
p5850
ag5850
aS'75450'
p5851
ag5851
aS'75592'
p5852
ag5852
aS'75594'
p5853
ag5853
aS'75597'
p5854
ag5854
aS'75598'
p5855
ag5855
aS'75645'
p5856
ag5856
aS'75648'
p5857
ag5857
aS'75650'
p5858
ag5858
aS'75652'
p5859
ag5859
aS'75653'
p5860
ag5860
aS'75655'
p5861
ag5861
aS'75756'
p5862
ag5862
aS'75757'
p5863
ag5863
aS'76296'
p5864
aS'81421'
p5865
aS'81423'
p5866
aS'81431'
p5867
aS'81493'
p5868
aS'81521'
p5869
aS'81540'
p5870
aS'81569'
p5871
aS'81591'
p5872
aS'75023'
p5873
ag5873
aS'74030'
p5874
aS'75007'
p5875
ag5875
aS'75121'
p5876
ag5876
aS'75185'
p5877
ag5877
aS'75320'
p5878
ag5878
aS'74022'
p5879
aS'74522'
p5880
aS'75262'
p5881
ag5881
aS'75594'
p5882
ag5882
aS'74012'
p5883
aS'74143'
p5884
aS'74531'
p5885
aS'74596'
p5886
aS'75002'
p5887
ag5887
aS'75104'
p5888
ag5888
aS'75126'
p5889
ag5889
aS'75183'
p5890
ag5890
aS'75228'
p5891
ag5891
aS'75263'
p5892
ag5892
aS'75273'
p5893
ag5893
aS'75318'
p5894
ag5894
aS'75322'
p5895
ag5895
aS'75335'
p5896
ag5896
aS'75440'
p5897
ag5897
aS'75450'
p5898
ag5898
aS'75592'
p5899
ag5899
aS'75597'
p5900
ag5900
aS'75652'
p5901
ag5901
aS'75756'
p5902
ag5902
aS'74020'
p5903
aS'74123'
p5904
aS'74171'
p5905
aS'74622'
p5906
aS'75025'
p5907
ag5907
aS'75142'
p5908
ag5908
aS'75189'
p5909
ag5909
aS'75332'
p5910
ag5910
aS'81521'
p5911
aS'81591'
p5912
aS'74011'
p5913
ag5913
aS'74130'
p5914
aS'74195'
p5915
aS'74335'
p5916
aS'74393'
p5917
aS'74530'
p5918
aS'74539'
p5919
aS'74541'
p5920
aS'74571'
p5921
aS'74598'
p5922
aS'74624'
p5923
aS'74631'
p5924
aS'74633'
p5925
aS'74691'
p5926
aS'74702'
p5927
aS'74742'
p5928
aS'74793'
p5929
aS'75003'
p5930
ag5930
aS'75016'
p5931
ag5931
aS'75122'
p5932
ag5932
aS'75128'
p5933
ag5933
aS'75143'
p5934
ag5934
aS'75146'
p5935
ag5935
aS'75182'
p5936
ag5936
aS'75226'
p5937
ag5937
aS'75231'
p5938
ag5938
aS'75239'
p5939
ag5939
aS'75275'
p5940
ag5940
aS'75311'
p5941
ag5941
aS'75314'
p5942
ag5942
aS'75319'
p5943
ag5943
aS'75327'
p5944
ag5944
aS'75329'
p5945
ag5945
aS'75334'
p5946
ag5946
aS'75337'
p5947
ag5947
aS'75423'
p5948
ag5948
aS'75426'
p5949
ag5949
aS'75431'
p5950
ag5950
aS'75434'
p5951
ag5951
aS'75446'
p5952
ag5952
aS'75598'
p5953
ag5953
aS'75645'
p5954
ag5954
aS'75648'
p5955
ag5955
aS'75650'
p5956
ag5956
aS'75653'
p5957
ag5957
aS'75655'
p5958
ag5958
aS'75757'
p5959
ag5959
aS'76296'
p5960
aS'81421'
p5961
aS'81423'
p5962
aS'81431'
p5963
aS'81493'
p5964
aS'81540'
p5965
aS'81569'
p5966
aS'74190'
p5967
aS'74534'
p5968
asS'Lev\xc3\xadn'
p5969
(lp5970
S'503 51'
p5971
asS'Larrabetzu'
p5972
(lp5973
S'48195'
p5974
aS'48195'
p5975
asS'Lipnice nad S\xc3\xa1zavou'
p5976
(lp5977
S'582 32'
p5978
asS'L\xc5\xa1t\xc4\x9bn\xc3\xad'
p5979
(lp5980
S'384 81'
p5981
asS'Lower Chandmari'
p5982
(lp5983
S'794002'
p5984
aS'794002'
p5985
asS'La Madera'
p5986
(lp5987
S'87539'
p5988
aS'87539'
p5989
asS'Laterri\xc3\xa8re'
p5990
(lp5991
S'G7N'
p5992
aS'G7N'
p5993
asS'Langenlois'
p5994
(lp5995
S'3550'
p5996
asS'Los Lunas'
p5997
(lp5998
S'87031'
p5999
aS'87031'
p6000
asS'Lendiosa'
p6001
(lp6002
S'3050-181'
p6003
aS'3050-181'
p6004
asS'Loretto'
p6005
(lp6006
S'2443'
p6007
aS'2443'
p6008
aS'40037'
p6009
aS'40037'
p6010
asS'Lugo'
p6011
(lp6012
S'27002'
p6013
aS'27004'
p6014
aS'27080'
p6015
aS'27297'
p6016
aS'27002'
p6017
aS'27004'
p6018
aS'27080'
p6019
aS'27297'
p6020
asS'Lipn\xc3\xadk nad Be\xc4\x8dvou VII'
p6021
(lp6022
S'751 31'
p6023
asS'Lathlain'
p6024
(lp6025
S'6100'
p6026
aS'6100'
p6027
asS'Ludas'
p6028
(lp6029
S'3274'
p6030
aS'3274'
p6031
asS'Lurtigen'
p6032
(lp6033
S'3215'
p6034
asS'Lewes'
p6035
(lp6036
S'19958'
p6037
aS'19958'
p6038
asS'Litochovice nad Labem'
p6039
(lp6040
g1769
asS'La Plata'
p6041
(lp6042
S'87418'
p6043
aS'87418'
p6044
asS'Lok Nagar Bhawan'
p6045
(lp6046
S'110003'
p6047
asS'L\xc3\xa6rdal'
p6048
(lp6049
g5313
ag5333
ag5424
ag5425
asS'Latadas'
p6050
(lp6051
S'2100-001'
p6052
aS'2800-002'
p6053
aS'2800-010'
p6054
aS'2800-012'
p6055
aS'2800-014'
p6056
aS'2800-016'
p6057
aS'2800-018'
p6058
aS'2800-020'
p6059
aS'2800-022'
p6060
aS'2800-024'
p6061
aS'2800-026'
p6062
aS'2800-028'
p6063
aS'2800-030'
p6064
aS'2800-032'
p6065
aS'2800-034'
p6066
aS'2800-036'
p6067
aS'2800-038'
p6068
aS'2800-040'
p6069
aS'2800-043'
p6070
aS'2800-045'
p6071
aS'2800-047'
p6072
aS'2800-049'
p6073
aS'2800-051'
p6074
aS'2800-053'
p6075
aS'2800-055'
p6076
aS'2800-057'
p6077
aS'2800-059'
p6078
aS'2800-061'
p6079
aS'2800-064'
p6080
aS'2800-066'
p6081
aS'2800-068'
p6082
aS'2800-070'
p6083
aS'2800-073'
p6084
aS'2800-075'
p6085
aS'2800-077'
p6086
aS'2800-079'
p6087
aS'2800-081'
p6088
aS'2800-083'
p6089
aS'2800-085'
p6090
aS'2800-087'
p6091
aS'2800-089'
p6092
aS'2800-092'
p6093
aS'2800-094'
p6094
aS'2800-097'
p6095
aS'2800-099'
p6096
aS'2800-101'
p6097
aS'2800-103'
p6098
aS'2800-105'
p6099
aS'2800-108'
p6100
aS'2800-110'
p6101
aS'2800-112'
p6102
aS'2800-116'
p6103
aS'2800-118'
p6104
aS'2800-120'
p6105
aS'2800-122'
p6106
aS'2800-124'
p6107
aS'2800-126'
p6108
aS'2800-128'
p6109
aS'2800-130'
p6110
aS'2800-132'
p6111
aS'2800-134'
p6112
aS'2800-136'
p6113
aS'2800-138'
p6114
aS'2800-147'
p6115
aS'2800-149'
p6116
aS'2800-155'
p6117
aS'2800-157'
p6118
aS'2800-161'
p6119
aS'2800-163'
p6120
aS'2800-166'
p6121
aS'2800-168'
p6122
aS'2800-171'
p6123
aS'2800-173'
p6124
aS'2800-175'
p6125
aS'2800-177'
p6126
aS'2800-179'
p6127
aS'2800-181'
p6128
aS'2800-183'
p6129
aS'2800-185'
p6130
aS'2800-187'
p6131
aS'2800-189'
p6132
aS'2800-191'
p6133
aS'2800-193'
p6134
aS'2800-199'
p6135
aS'2800-201'
p6136
aS'2800-203'
p6137
aS'2800-205'
p6138
aS'2800-207'
p6139
aS'2800-209'
p6140
aS'2800-212'
p6141
aS'2800-214'
p6142
aS'2800-252'
p6143
aS'2800-254'
p6144
aS'2800-256'
p6145
aS'2800-259'
p6146
aS'2800-261'
p6147
aS'2800-263'
p6148
aS'2800-265'
p6149
aS'2800-267'
p6150
aS'2800-269'
p6151
aS'2100-001'
p6152
ag6152
aS'2800-002'
p6153
aS'2800-010'
p6154
aS'2800-012'
p6155
aS'2800-014'
p6156
aS'2800-016'
p6157
aS'2800-018'
p6158
aS'2800-020'
p6159
aS'2800-022'
p6160
aS'2800-024'
p6161
aS'2800-026'
p6162
aS'2800-028'
p6163
aS'2800-030'
p6164
aS'2800-032'
p6165
aS'2800-034'
p6166
aS'2800-036'
p6167
aS'2800-038'
p6168
aS'2800-040'
p6169
aS'2800-043'
p6170
aS'2800-045'
p6171
aS'2800-047'
p6172
aS'2800-049'
p6173
aS'2800-051'
p6174
aS'2800-053'
p6175
aS'2800-055'
p6176
aS'2800-057'
p6177
aS'2800-059'
p6178
aS'2800-061'
p6179
aS'2800-064'
p6180
aS'2800-066'
p6181
aS'2800-068'
p6182
aS'2800-070'
p6183
aS'2800-073'
p6184
aS'2800-075'
p6185
aS'2800-077'
p6186
aS'2800-079'
p6187
aS'2800-081'
p6188
aS'2800-083'
p6189
aS'2800-085'
p6190
aS'2800-087'
p6191
aS'2800-089'
p6192
aS'2800-092'
p6193
aS'2800-094'
p6194
aS'2800-097'
p6195
aS'2800-099'
p6196
aS'2800-101'
p6197
aS'2800-103'
p6198
aS'2800-105'
p6199
aS'2800-108'
p6200
aS'2800-110'
p6201
aS'2800-112'
p6202
aS'2800-116'
p6203
aS'2800-118'
p6204
aS'2800-120'
p6205
aS'2800-122'
p6206
aS'2800-124'
p6207
aS'2800-126'
p6208
aS'2800-128'
p6209
aS'2800-130'
p6210
aS'2800-132'
p6211
aS'2800-134'
p6212
aS'2800-136'
p6213
aS'2800-138'
p6214
aS'2800-147'
p6215
aS'2800-149'
p6216
aS'2800-155'
p6217
aS'2800-157'
p6218
aS'2800-161'
p6219
aS'2800-163'
p6220
aS'2800-166'
p6221
aS'2800-168'
p6222
aS'2800-171'
p6223
aS'2800-173'
p6224
aS'2800-175'
p6225
aS'2800-177'
p6226
aS'2800-179'
p6227
aS'2800-181'
p6228
aS'2800-183'
p6229
aS'2800-185'
p6230
aS'2800-187'
p6231
aS'2800-189'
p6232
aS'2800-191'
p6233
aS'2800-193'
p6234
aS'2800-199'
p6235
aS'2800-201'
p6236
aS'2800-203'
p6237
aS'2800-205'
p6238
aS'2800-207'
p6239
aS'2800-209'
p6240
aS'2800-212'
p6241
aS'2800-214'
p6242
aS'2800-252'
p6243
aS'2800-254'
p6244
aS'2800-256'
p6245
aS'2800-259'
p6246
aS'2800-261'
p6247
aS'2800-263'
p6248
aS'2800-265'
p6249
aS'2800-267'
p6250
aS'2800-269'
p6251
asS'Lut\xc3\xadn'
p6252
(lp6253
S'783 49'
p6254
asS'Las Caldas De Besaya'
p6255
(lp6256
S'39460'
p6257
aS'39460'
p6258
asS'Lillesand'
p6259
(lp6260
S'4791'
p6261
aS'4791'
p6262
asS'Los Negrales'
p6263
(lp6264
S'28409'
p6265
aS'28409'
p6266
asS'Laubach'
p6267
(lp6268
S'35321'
p6269
aS'35321'
p6270
asS'Lerum'
p6271
(lp6272
S'44331'
p6273
aS'44339'
p6274
aS'44339'
p6275
aS'44331'
p6276
asS'Lite\xc5\x88'
p6277
(lp6278
S'267 27'
p6279
asS'Le\xc5\xbeky'
p6280
(lp6281
S'441 01'
p6282
asS'Lushala'
p6283
(lp6284
S'362215'
p6285
aS'362215'
p6286
asS'Luling'
p6287
(lp6288
g94
ag232
asS'Laterns'
p6289
(lp6290
S'6830'
p6291
asS'Les Moneghetti'
p6292
(lp6293
S'98000'
p6294
asS'Lomma'
p6295
(lp6296
S'23421'
p6297
aS'23434'
p6298
aS'23435'
p6299
aS'23435'
p6300
aS'23421'
p6301
aS'23434'
p6302
asS'Laredo'
p6303
(lp6304
S'39770'
p6305
aS'39770'
p6306
asS'Lohia Head'
p6307
(lp6308
S'262301'
p6309
aS'262301'
p6310
asS'Lausen'
p6311
(lp6312
S'4415'
p6313
aS'4415'
p6314
asS'L\xc3\xb3nya'
p6315
(lp6316
S'4836'
p6317
aS'4836'
p6318
asS'Lancaster'
p6319
(lp6320
S'01523'
p6321
aS'03584'
p6322
aS'17601'
p6323
aS'66041'
p6324
aS'75134'
p6325
aS'75146'
p6326
aS'66041'
p6327
aS'01523'
p6328
aS'03584'
p6329
aS'17601'
p6330
aS'75134'
p6331
aS'75146'
p6332
asS'Lithopolis'
p6333
(lp6334
S'43136'
p6335
aS'43136'
p6336
asS'Lynnwood'
p6337
(lp6338
S'98037'
p6339
aS'98046'
p6340
aS'98037'
p6341
aS'98046'
p6342
asS'Luhri'
p6343
(lp6344
S'172036'
p6345
aS'172036'
p6346
asS'Labuerda'
p6347
(lp6348
S'22360'
p6349
aS'22360'
p6350
asS'Lak\xc3\xb3csa'
p6351
(lp6352
S'7918'
p6353
aS'7918'
p6354
asS'Lameira de S\xc3\xa3o Pedro'
p6355
(lp6356
S'3050-208'
p6357
aS'3050-208'
p6358
asS'Lou\xc4\x8dn\xc3\xa1 nad Nisou'
p6359
(lp6360
S'468 11'
p6361
asS'Louny'
p6362
(lp6363
S'440 01'
p6364
ag6364
aS'439 23'
p6365
aS'439 81'
p6366
aS'439 07'
p6367
aS'439 49'
p6368
aS'439 67'
p6369
aS'440 01'
p6370
aS'439 09'
p6371
ag3748
aS'439 72'
p6372
aS'439 82'
p6373
aS'439 14'
p6374
aS'439 85'
p6375
aS'439 87'
p6376
aS'440 01'
p6377
aS'439 22'
p6378
aS'439 68'
p6379
aS'440 01'
p6380
aS'438 01'
p6381
aS'438 01'
p6382
ag643
aS'438 01'
p6383
aS'438 01'
p6384
aS'438 01'
p6385
aS'438 01'
p6386
aS'438 01'
p6387
aS'438 01'
p6388
aS'438 01'
p6389
aS'438 01'
p6390
aS'438 01'
p6391
aS'438 01'
p6392
aS'438 01'
p6393
aS'438 01'
p6394
aS'438 01'
p6395
aS'438 01'
p6396
aS'438 01'
p6397
aS'438 01'
p6398
aS'439 06'
p6399
aS'439 15'
p6400
aS'439 86'
p6401
aS'440 01'
p6402
aS'440 01'
p6403
aS'440 01'
p6404
aS'440 01'
p6405
aS'440 01'
p6406
aS'440 01'
p6407
aS'440 01'
p6408
aS'440 01'
p6409
aS'440 01'
p6410
aS'440 01'
p6411
aS'440 01'
p6412
aS'440 01'
p6413
aS'440 01'
p6414
aS'440 01'
p6415
aS'440 01'
p6416
aS'440 01'
p6417
aS'440 01'
p6418
aS'440 01'
p6419
ag25
aS'440 01'
p6420
ag2589
aS'440 01'
p6421
aS'441 01'
p6422
aS'441 01'
p6423
aS'441 01'
p6424
aS'441 01'
p6425
ag514
ag6282
aS'441 01'
p6426
aS'441 01'
p6427
aS'441 01'
p6428
aS'441 01'
p6429
aS'441 01'
p6430
aS'441 01'
p6431
aS'441 01'
p6432
aS'441 01'
p6433
aS'441 01'
p6434
ag4320
aS'439 84'
p6435
aS'440 01'
p6436
aS'440 01'
p6437
aS'440 01'
p6438
aS'441 01'
p6439
aS'440 01'
p6440
aS'438 01'
p6441
aS'438 01'
p6442
aS'438 01'
p6443
aS'438 01'
p6444
aS'438 01'
p6445
aS'438 01'
p6446
aS'439 86'
p6447
aS'440 01'
p6448
aS'440 01'
p6449
aS'438 01'
p6450
aS'440 01'
p6451
aS'441 01'
p6452
asS'Lummi Island'
p6453
(lp6454
S'98262'
p6455
aS'98262'
p6456
asS'Lauwil'
p6457
(lp6458
S'4426'
p6459
aS'4426'
p6460
asS"L'Erable (Nantes)"
p6461
(lp6462
S'G0Y'
p6463
aS'G0Y'
p6464
asS'Lully FR'
p6465
(lp6466
S'1470'
p6467
asS'L\xc3\xb8ken'
p6468
(lp6469
S'1960'
p6470
aS'1960'
p6471
asS'Lelov'
p6472
(lp6473
S'333 01'
p6474
asS'Libel'
p6475
(lp6476
S'517 41'
p6477
asS'Longueville'
p6478
(lp6479
S'2066'
p6480
asS'Luzern 14'
p6481
(lp6482
g4221
asS'Lengyel'
p6483
(lp6484
S'7184'
p6485
aS'7184'
p6486
asS'Lal Road'
p6487
(lp6488
S'274505'
p6489
aS'274505'
p6490
asS'Levada do Canha'
p6491
(lp6492
S'9400-060'
p6493
aS'9400-060'
p6494
asS'Lj\xc3\xb8rdalen'
p6495
(lp6496
S'2425'
p6497
aS'2425'
p6498
asS'Lambert'
p6499
(lp6500
S'38643'
p6501
aS'38643'
p6502
asS'Limpias'
p6503
(lp6504
S'39820'
p6505
aS'39820'
p6506
asS'Lilong'
p6507
(lp6508
S'795130'
p6509
aS'795130'
p6510
asS'Litv\xc3\xadnov-P\xc3\xadse\xc4\x8dn\xc3\xa1 x)'
p6511
(lp6512
S'436 01'
p6513
asS'Libice nad Cidlinou'
p6514
(lp6515
S'289 07'
p6516
asS'La\xc5\xbei\xc5\xa1t\xc4\x9b'
p6517
(lp6518
S'384 32'
p6519
asS'Lajes das Flores'
p6520
(lp6521
S'9960-431'
p6522
aS'9960-433'
p6523
aS'9960-435'
p6524
aS'9960-437'
p6525
aS'9960-439'
p6526
aS'9960-441'
p6527
aS'9960-443'
p6528
aS'9960-445'
p6529
aS'9960-431'
p6530
aS'9960-433'
p6531
aS'9960-435'
p6532
aS'9960-437'
p6533
aS'9960-439'
p6534
aS'9960-441'
p6535
aS'9960-443'
p6536
aS'9960-445'
p6537
asS'Laitumkhrah'
p6538
(lp6539
S'793003'
p6540
aS'793003'
p6541
asS'L\xc3\xb6\xc3\x9fnitz'
p6542
(lp6543
S'08294'
p6544
aS'08294'
p6545
asS'Legorreta'
p6546
(lp6547
S'20250'
p6548
aS'20250'
p6549
asS'Libkov'
p6550
(lp6551
S'345 06'
p6552
aS'538 25'
p6553
asS'Louisburg'
p6554
(lp6555
S'27549'
p6556
aS'27549'
p6557
asS'Les Fr\xc3\xaates'
p6558
(lp6559
S'2416'
p6560
asS'Lenti'
p6561
(lp6562
S'8966'
p6563
aS'8966'
p6564
asS'Lapel'
p6565
(lp6566
S'46051'
p6567
aS'46051'
p6568
asS'Lake Andes'
p6569
(lp6570
S'57356'
p6571
aS'57356'
p6572
asS'Luzern Swisscom'
p6573
(lp6574
g4256
asS'Locust Grove'
p6575
(lp6576
S'30248'
p6577
asS'Libe\xc5\xbe'
p6578
(lp6579
S'257 26'
p6580
asS'La Costana'
p6581
(lp6582
S'39292'
p6583
aS'39292'
p6584
asS'Lawa'
p6585
(lp6586
S'304506'
p6587
aS'304506'
p6588
asS'Li\xc5\xa1\xc4\x8d\xc3\xad Kotce'
p6589
(lp6590
S'512 63'
p6591
asS'Lake Village'
p6592
(lp6593
S'71653'
p6594
aS'71653'
p6595
asS'Las Playitas'
p6596
(lp6597
g2006
ag2109
asS'Lunsar'
p6598
(lp6599
S'363535'
p6600
aS'363535'
p6601
asS'Les Brenets'
p6602
(lp6603
S'2416'
p6604
aS'2416'
p6605
asS'Laksev\xc3\xa5g'
p6606
(lp6607
S'5162'
p6608
aS'5163'
p6609
aS'5164'
p6610
aS'5163'
p6611
aS'5164'
p6612
asS'Lodhika'
p6613
(lp6614
S'360035'
p6615
aS'360035'
p6616
asS'Linn Grove'
p6617
(lp6618
S'46769'
p6619
aS'46769'
p6620
asS'Lynwood'
p6621
(lp6622
g5629
ag5751
asS'Liebefeld'
p6623
(lp6624
S'3097'
p6625
aS'3097'
p6626
asS'Ledce'
p6627
(lp6628
S'294 47'
p6629
aS'330 14'
p6630
aS'517 71'
p6631
asS'Liberec VII'
p6632
(lp6633
g1883
asS'Lok Nayak Bhawan'
p6634
(lp6635
S'110007'
p6636
asS'Langenbruck'
p6637
(lp6638
S'4438'
p6639
aS'4438'
p6640
asS'Letov'
p6641
(lp6642
g6428
asS'La\xe2\x88\x9a\xc3\xbcnitzh\xe2\x88\x9a\xe2\x88\x82he'
p6643
(lp6644
S'8301'
p6645
asS'Lutot\xc3\xadn'
p6646
(lp6647
S'798 41'
p6648
asS'L\xc3\xa1dvec'
p6649
(lp6650
S'251 68'
p6651
asS'La Solana'
p6652
(lp6653
g4614
ag4851
asS'Libe\xc5\x88'
p6654
(lp6655
S'504 01'
p6656
asS'Lhotky'
p6657
(lp6658
S'547 01'
p6659
aS'664 02'
p6660
asS'Lu\xc5\xbece'
p6661
(lp6662
S'267 18'
p6663
asS'Las Vegas'
p6664
(lp6665
S'89103'
p6666
aS'89107'
p6667
aS'89108'
p6668
aS'89109'
p6669
aS'89111'
p6670
aS'89112'
p6671
aS'89114'
p6672
aS'89115'
p6673
aS'89118'
p6674
aS'89120'
p6675
aS'89121'
p6676
aS'89123'
p6677
aS'89125'
p6678
aS'89127'
p6679
aS'89131'
p6680
aS'89133'
p6681
aS'89138'
p6682
aS'89141'
p6683
aS'89143'
p6684
aS'89145'
p6685
aS'89147'
p6686
aS'89149'
p6687
aS'89151'
p6688
aS'89153'
p6689
aS'89155'
p6690
aS'89160'
p6691
aS'89164'
p6692
aS'89177'
p6693
aS'89180'
p6694
aS'33400'
p6695
aS'89109'
p6696
aS'89103'
p6697
aS'89115'
p6698
aS'89118'
p6699
aS'89121'
p6700
aS'89123'
p6701
aS'89108'
p6702
aS'89107'
p6703
aS'89112'
p6704
aS'89114'
p6705
aS'89120'
p6706
aS'89125'
p6707
aS'89127'
p6708
aS'89131'
p6709
aS'89133'
p6710
aS'89135'
p6711
aS'89138'
p6712
aS'89141'
p6713
aS'89143'
p6714
aS'89145'
p6715
aS'89147'
p6716
aS'89149'
p6717
aS'89151'
p6718
aS'89155'
p6719
aS'89160'
p6720
aS'89164'
p6721
aS'89180'
p6722
aS'89195'
p6723
aS'89111'
p6724
aS'89153'
p6725
aS'89177'
p6726
asS'Landsberg am Lech'
p6727
(lp6728
S'86899'
p6729
aS'86899'
p6730
asS'Lloret De Mar'
p6731
(lp6732
S'17310'
p6733
aS'17310'
p6734
asS'Lobosillo'
p6735
(lp6736
S'30331'
p6737
aS'30331'
p6738
asS'Luby'
p6739
(lp6740
S'351 37'
p6741
aS'364 53'
p6742
asS'Luso'
p6743
(lp6744
S'3050-221'
p6745
aS'3050-223'
p6746
aS'3050-225'
p6747
aS'3050-227'
p6748
aS'3050-229'
p6749
aS'3050-231'
p6750
aS'3050-233'
p6751
aS'3050-235'
p6752
aS'3050-237'
p6753
aS'3050-239'
p6754
aS'3050-241'
p6755
aS'3050-243'
p6756
aS'3050-245'
p6757
aS'3050-247'
p6758
aS'3050-249'
p6759
aS'3050-221'
p6760
aS'3050-223'
p6761
aS'3050-225'
p6762
aS'3050-227'
p6763
aS'3050-229'
p6764
aS'3050-231'
p6765
aS'3050-233'
p6766
aS'3050-235'
p6767
aS'3050-237'
p6768
aS'3050-239'
p6769
aS'3050-241'
p6770
aS'3050-243'
p6771
aS'3050-245'
p6772
aS'3050-247'
p6773
aS'3050-249'
p6774
asS'Lausen Zustellung'
p6775
(lp6776
S'4415'
p6777
asS'Lebor'
p6778
(lp6779
S'30850'
p6780
aS'30850'
p6781
asS'Las Moreras'
p6782
(lp6783
S'30877'
p6784
aS'30877'
p6785
asS'Lalbigha'
p6786
(lp6787
S'805108'
p6788
aS'805108'
p6789
asS'Llucmajor'
p6790
(lp6791
S'07620'
p6792
aS'07620'
p6793
asS'Lhotka'
p6794
(lp6795
S'267 23'
p6796
aS'374 01'
p6797
aS'560 02'
p6798
aS'564 01'
p6799
aS'763 02'
p6800
aS'588 56'
p6801
aS'767 01'
p6802
aS'687 33'
p6803
aS'594 01'
p6804
aS'743 01'
p6805
aS'749 01'
p6806
aS'725 28'
p6807
aS'751 24'
p6808
aS'374 01'
p6809
asS'Lilly'
p6810
(lp6811
S'15938'
p6812
aS'15938'
p6813
asS'Lowell'
p6814
(lp6815
S'01852'
p6816
aS'28098'
p6817
aS'01852'
p6818
aS'28098'
p6819
asS'Lesn\xc3\xad Hlubok\xc3\xa9'
p6820
(lp6821
S'664 83'
p6822
asS'Lat Lum Kaeo'
p6823
(lp6824
S'12140'
p6825
asS'Leg\xc3\xa9nd'
p6826
(lp6827
S'2619'
p6828
aS'2619'
p6829
asS'Levanger'
p6830
(lp6831
S'7600'
p6832
aS'7501'
p6833
aS'7670'
p6834
aS'7725'
p6835
aS'7738'
p6836
aS'7809'
p6837
aS'7900'
p6838
ag1293
aS'7601'
p6839
ag6839
aS'7735'
p6840
aS'7820'
p6841
aS'7510'
p6842
aS'7520'
p6843
aS'7651'
p6844
aS'7701'
p6845
aS'7710'
p6846
aS'7716'
p6847
aS'7718'
p6848
aS'7730'
p6849
aS'7750'
p6850
aS'7790'
p6851
aS'7863'
p6852
aS'7901'
p6853
aS'7570'
p6854
aS'7629'
p6855
aS'7702'
p6856
aS'7711'
p6857
aS'7734'
p6858
aS'7796'
p6859
aS'7822'
p6860
aS'7860'
p6861
aS'7873'
p6862
aS'7890'
p6863
aS'7898'
p6864
aS'7985'
p6865
aS'7533'
p6866
aS'7622'
p6867
aS'7707'
p6868
aS'7944'
p6869
aS'7990'
p6870
aS'7525'
p6871
aS'7726'
p6872
aS'7950'
p6873
ag2179
aS'7869'
p6874
aS'7976'
p6875
aS'7671'
p6876
aS'7737'
p6877
aS'7751'
p6878
aS'7771'
p6879
aS'7971'
p6880
aS'7508'
p6881
aS'7658'
p6882
aS'7714'
p6883
aS'7808'
p6884
aS'7126'
p6885
aS'7663'
p6886
aS'7791'
p6887
aS'7609'
p6888
ag6888
ag1294
aS'7126'
p6889
aS'7508'
p6890
aS'7510'
p6891
aS'7520'
p6892
aS'7525'
p6893
aS'7533'
p6894
aS'7570'
p6895
aS'7600'
p6896
ag6896
aS'7601'
p6897
ag6897
aS'7609'
p6898
ag6898
aS'7622'
p6899
aS'7651'
p6900
aS'7658'
p6901
aS'7663'
p6902
aS'7670'
p6903
aS'7671'
p6904
aS'7702'
p6905
aS'7707'
p6906
aS'7710'
p6907
aS'7714'
p6908
aS'7716'
p6909
aS'7718'
p6910
aS'7725'
p6911
aS'7726'
p6912
aS'7730'
p6913
aS'7734'
p6914
aS'7737'
p6915
aS'7738'
p6916
aS'7750'
p6917
aS'7751'
p6918
aS'7771'
p6919
aS'7790'
p6920
aS'7791'
p6921
aS'7796'
p6922
aS'7808'
p6923
aS'7809'
p6924
ag2180
aS'7820'
p6925
aS'7822'
p6926
aS'7860'
p6927
aS'7863'
p6928
aS'7869'
p6929
aS'7873'
p6930
aS'7890'
p6931
aS'7898'
p6932
aS'7900'
p6933
aS'7901'
p6934
aS'7944'
p6935
aS'7950'
p6936
aS'7971'
p6937
aS'7976'
p6938
aS'7985'
p6939
aS'7990'
p6940
asS'Lindau'
p6941
(lp6942
S'8315'
p6943
asS'Liland'
p6944
(lp6945
S'8534'
p6946
asS'Livingston'
p6947
(lp6948
S'35470'
p6949
asS'Loukovi\xc4\x8dky'
p6950
(lp6951
g1923
asS'Luka'
p6952
(lp6953
S'471 62'
p6954
asS'Laxminarain Puri'
p6955
(lp6956
S'302003'
p6957
aS'302003'
p6958
asS'Liberec XXI'
p6959
(lp6960
g1901
asS'Lib\xc3\xadn'
p6961
(lp6962
S'373 73'
p6963
asS'Lassan'
p6964
(lp6965
S'17440'
p6966
asS'La\xc5\xa1tovi\xc4\x8dky'
p6967
(lp6968
S'591 01'
p6969
asS'Los Realejos'
p6970
(lp6971
g2029
ag2071
asS'Lundenes'
p6972
(lp6973
S'9420'
p6974
aS'9420'
p6975
asS'Lierskogen'
p6976
(lp6977
S'3420'
p6978
asS'Le Vaud'
p6979
(lp6980
g3365
ag3463
asS'L\xc3\xbcchow'
p6981
(lp6982
S'29439'
p6983
aS'29439'
p6984
asS'Lalm'
p6985
(lp6986
g3197
ag3243
asS'Lairu'
p6987
(lp6988
S'140501'
p6989
aS'140501'
p6990
aS'140501'
p6991
asS'La Garriga'
p6992
(lp6993
S'08530'
p6994
aS'08530'
p6995
asS'Lackendorf'
p6996
(lp6997
S'7321'
p6998
aS'7321'
p6999
asS'Lauerz'
p7000
(lp7001
S'6424'
p7002
aS'6424'
p7003
asS'Lancelin'
p7004
(lp7005
S'6044'
p7006
aS'6044'
p7007
asS'Levenhagen'
p7008
(lp7009
S'17498'
p7010
asS'Lyndhurst'
p7011
(lp7012
S'07071'
p7013
aS'07071'
p7014
asS'Libi\xc5\xa1any'
p7015
(lp7016
S'533 45'
p7017
asS'Laho\xc5\xa1\xc5\xa5'
p7018
(lp7019
S'417 25'
p7020
asS'Le Pr\xc3\xa9dame'
p7021
(lp7022
S'2714'
p7023
asS'L\xc3\xb6ttorp'
p7024
(lp7025
S'38074'
p7026
aS'38074'
p7027
asS'Latrobe'
p7028
(lp7029
S'15650'
p7030
aS'15650'
p7031
asS'Laguna De Duero'
p7032
(lp7033
g4762
asS'Lower Sackville West'
p7034
(lp7035
S'B4E'
p7036
aS'B4E'
p7037
asS'Liberec XVI'
p7038
(lp7039
g1884
asS'Lachen SZ F\xc3\xa4cher'
p7040
(lp7041
S'8853'
p7042
aS'8853'
p7043
asS'L\xc3\xbctisburg Station'
p7044
(lp7045
S'9601'
p7046
asS'Luzern 10'
p7047
(lp7048
g4242
asS'Lunglei'
p7049
(lp7050
S'796701'
p7051
aS'796701'
p7052
asS'Loporzano'
p7053
(lp7054
S'22192'
p7055
aS'22192'
p7056
asS'L\xc3\xad\xc5\xa1e\xc5\x88'
p7057
(lp7058
S'628 00'
p7059
asS'Landeira'
p7060
(lp7061
S'2965-401'
p7062
aS'2965-403'
p7063
aS'2965-405'
p7064
aS'2965-407'
p7065
aS'2965-409'
p7066
aS'2965-411'
p7067
aS'2965-413'
p7068
aS'2965-415'
p7069
aS'2965-417'
p7070
aS'2965-419'
p7071
aS'2965-421'
p7072
aS'2965-401'
p7073
aS'2965-403'
p7074
aS'2965-405'
p7075
aS'2965-407'
p7076
aS'2965-409'
p7077
aS'2965-411'
p7078
aS'2965-413'
p7079
aS'2965-415'
p7080
aS'2965-417'
p7081
aS'2965-419'
p7082
aS'2965-421'
p7083
asS'Link Road'
p7084
(lp7085
S'180001'
p7086
asS'La\xc5\xa1ovice'
p7087
(lp7088
S'270 21'
p7089
asS'Li\xc5\xa1ice'
p7090
(lp7091
S'284 01'
p7092
aS'334 01'
p7093
asS'L\xc3\xbctzen'
p7094
(lp7095
S'06686'
p7096
aS'06686'
p7097
asS'Loeches'
p7098
(lp7099
S'28890'
p7100
aS'28890'
p7101
asS'Loyla College'
p7102
(lp7103
S'600034'
p7104
aS'600034'
p7105
asS'Lipn\xc3\xadk'
p7106
(lp7107
S'294 43'
p7108
asS'Lesk\xc3\xa1'
p7109
(lp7110
g1759
asS'Lensedly'
p7111
(lp7112
S'251 65'
p7113
asS'Ludwigsburg'
p7114
(lp7115
S'71636'
p7116
aS'71638'
p7117
aS'71636'
p7118
asS'Lensvik'
p7119
(lp7120
S'7316'
p7121
aS'7316'
p7122
asS'Lou\xc4\x8dim'
p7123
(lp7124
S'345 06'
p7125
asS'Lenora'
p7126
(lp7127
S'384 42'
p7128
asS'Luzern 1 Annahme'
p7129
(lp7130
g4266
asS'Libo\xc5\x99ezy'
p7131
(lp7132
S'378 04'
p7133
asS'La Gineta'
p7134
(lp7135
g4884
asS'Leukerbad'
p7136
(lp7137
S'3954'
p7138
aS'3954'
p7139
asS'Lou\xc5\xbenice'
p7140
(lp7141
S'468 22'
p7142
asS'Lugnez'
p7143
(lp7144
S'2933'
p7145
aS'2933'
p7146
asS'Liestal Dist Fil'
p7147
(lp7148
S'4410'
p7149
aS'4410'
p7150
asS'La Camella'
p7151
(lp7152
g2142
asS'Lomnice nad Popelkou'
p7153
(lp7154
S'512 51'
p7155
asS'Limingen'
p7156
(lp7157
g6864
ag6932
asS'Lekunberri'
p7158
(lp7159
S'31870'
p7160
aS'31870'
p7161
asS'Li\xc5\xa1kov'
p7162
(lp7163
S'335 01'
p7164
asS'Ladeira'
p7165
(lp7166
S'9970-063'
p7167
aS'9970-063'
p7168
asS'Lyng\xc3\xb8r'
p7169
(lp7170
S'4910'
p7171
aS'4910'
p7172
asS'La Pared'
p7173
(lp7174
g2005
ag2086
asS'Lodge Grass'
p7175
(lp7176
S'59050'
p7177
aS'59050'
p7178
asS'Luven'
p7179
(lp7180
S'7141'
p7181
aS'7141'
p7182
asS'Lhota u Vset\xc3\xadna'
p7183
(lp7184
S'755 01'
p7185
asS'Lees Summit'
p7186
(lp7187
S'64081'
p7188
aS'64081'
p7189
asS'Lal Darwaza'
p7190
(lp7191
S'811201'
p7192
aS'811201'
p7193
asS'Lustdorf'
p7194
(lp7195
S'8512'
p7196
aS'8512'
p7197
asS'Lauerz Zustellung'
p7198
(lp7199
S'6424'
p7200
asS'Luster'
p7201
(lp7202
g5331
ag5422
asS'Lava Hot Springs'
p7203
(lp7204
S'83246'
p7205
aS'83246'
p7206
asS'Lawspet'
p7207
(lp7208
S'605008'
p7209
aS'605008'
p7210
asS'Lazy'
p7211
(lp7212
S'735 11'
p7213
asS'La Pobla De Vallbona'
p7214
(lp7215
S'46185'
p7216
aS'46185'
p7217
asS'Langley'
p7218
(lp7219
S'71952'
p7220
aS'71952'
p7221
asS'L\xc3\xadska'
p7222
(lp7223
S'407 21'
p7224
asS'Little Bay'
p7225
(lp7226
S'2036'
p7227
aS'2036'
p7228
asS'Lanham'
p7229
(lp7230
S'20706'
p7231
aS'20706'
p7232
asS'Libe\xc4\x8dov'
p7233
(lp7234
S'266 01'
p7235
asS'Leonard'
p7236
(lp7237
S'58052'
p7238
aS'58052'
p7239
asS'Luzern'
p7240
(lp7241
g4126
ag4127
ag4176
ag4177
ag4178
ag4243
asS'Lavender Bay'
p7242
(lp7243
S'2060'
p7244
aS'2060'
p7245
asS'Lipnice'
p7246
(lp7247
S'335 61'
p7248
asS'Lu\xc5\xbeice'
p7249
(lp7250
S'435 24'
p7251
aS'696 18'
p7252
aS'785 01'
p7253
asS'Les Enfers'
p7254
(lp7255
S'2875'
p7256
aS'2875'
p7257
asS'L\xc3\xa5ngshyttan'
p7258
(lp7259
S'77070'
p7260
asS'Lengnau AG'
p7261
(lp7262
S'5426'
p7263
aS'5426'
p7264
asS'Lyngstad'
p7265
(lp7266
g1376
asS'Langwies'
p7267
(lp7268
S'7057'
p7269
aS'7057'
p7270
asS'Les Planchettes'
p7271
(lp7272
S'2325'
p7273
aS'2325'
p7274
asS'Little River'
p7275
(lp7276
S'29566'
p7277
aS'29566'
p7278
asS'Leknes'
p7279
(lp7280
S'8370'
p7281
aS'8375'
p7282
aS'8370'
p7283
aS'8375'
p7284
asS'Lagan'
p7285
(lp7286
S'34014'
p7287
aS'34014'
p7288
asS'Liboc (\xc4\x8d\xc3\xa1st)'
p7289
(lp7290
S'162 00'
p7291
asS'Leonardtown'
p7292
(lp7293
S'20650'
p7294
aS'20650'
p7295
asS'Laupahoehoe'
p7296
(lp7297
S'96764'
p7298
aS'96764'
p7299
asS'Leipzig'
p7300
(lp7301
S'04107'
p7302
aS'04229'
p7303
aS'04105'
p7304
aS'04155'
p7305
aS'04159'
p7306
aS'04179'
p7307
aS'04277'
p7308
aS'04315'
p7309
aS'04329'
p7310
aS'04209'
p7311
aS'04279'
p7312
aS'04289'
p7313
aS'04357'
p7314
aS'04107'
p7315
aS'04155'
p7316
aS'04159'
p7317
aS'04179'
p7318
aS'04209'
p7319
aS'04229'
p7320
aS'04277'
p7321
aS'04279'
p7322
aS'04289'
p7323
aS'04315'
p7324
aS'04329'
p7325
aS'04357'
p7326
asS'Lodha'
p7327
(lp7328
S'202140'
p7329
aS'202140'
p7330
asS'Loosdorf'
p7331
(lp7332
S'3382'
p7333
aS'3382'
p7334
asS'Landran'
p7335
(lp7336
S'140307'
p7337
aS'140307'
p7338
aS'140307'
p7339
asS'Lidhult'
p7340
(lp7341
S'34010'
p7342
aS'34010'
p7343
asS'Lampertice'
p7344
(lp7345
S'541 01'
p7346
asS'Lom'
p7347
(lp7348
g3176
ag3245
asS'Lucca'
p7349
(lp7350
S'55100'
p7351
aS'55100'
p7352
asS'Let\xc5\x88any'
p7353
(lp7354
S'199 00'
p7355
aS'199 00'
p7356
asS'Los Santos De Maimona'
p7357
(lp7358
S'06230'
p7359
asS'Los Ojos'
p7360
(lp7361
S'87551'
p7362
aS'87551'
p7363
asS'Lance Creek'
p7364
(lp7365
S'82222'
p7366
aS'82222'
p7367
asS'Lu\xc5\xbekovice'
p7368
(lp7369
S'763 11'
p7370
asS'La Esperanza'
p7371
(lp7372
g2024
ag2091
asS'Ligerz'
p7373
(lp7374
S'2514'
p7375
aS'2514'
p7376
asS'Los Narejos'
p7377
(lp7378
S'30710'
p7379
asS'Li\xc4\x8dno'
p7380
(lp7381
S'517 35'
p7382
asS'Long Beach'
p7383
(lp7384
g5645
ag5696
asS'La Giustiniana'
p7385
(lp7386
g5110
ag5125
asS'London'
p7387
(lp7388
S'40741'
p7389
aS'40741'
p7390
asS'Lerones'
p7391
(lp7392
S'39574'
p7393
aS'39574'
p7394
asS'Linneryd'
p7395
(lp7396
S'36024'
p7397
aS'36024'
p7398
asS'L\xc3\xb6v\xc5\x91'
p7399
(lp7400
S'9461'
p7401
aS'9461'
p7402
asS'Ljungbyhed'
p7403
(lp7404
S'26070'
p7405
aS'26070'
p7406
asS'Ligonier'
p7407
(lp7408
S'15658'
p7409
aS'15658'
p7410
asS'Lu\xc4\x8denice'
p7411
(lp7412
S'383 01'
p7413
asS'Lermoos'
p7414
(lp7415
S'6631'
p7416
asS'Ladenburg'
p7417
(lp7418
S'68526'
p7419
aS'68526'
p7420
asS'Liboc'
p7421
(lp7422
S'357 51'
p7423
aS'358 01'
p7424
asS'Linton Street'
p7425
(lp7426
S'700014'
p7427
asS'Lavagnola'
p7428
(lp7429
g2692
ag2728
asS'Lithia Springs'
p7430
(lp7431
S'30122'
p7432
aS'30122'
p7433
asS'Liuzzo Orto'
p7434
(lp7435
S'98159'
p7436
aS'98159'
p7437
asS'Licibo\xc5\x99ice'
p7438
(lp7439
S'538 23'
p7440
asS'Leopoldsdorf'
p7441
(lp7442
S'2333'
p7443
aS'2333'
p7444
asS'Lower Sackville South'
p7445
(lp7446
S'B4C'
p7447
aS'B4C'
p7448
asS'Lysite'
p7449
(lp7450
S'82642'
p7451
aS'82642'
p7452
asS'La Linea De La Concepcion'
p7453
(lp7454
S'11300'
p7455
aS'11300'
p7456
asS'Ludvika'
p7457
(lp7458
S'77130'
p7459
aS'77142'
p7460
aS'77143'
p7461
aS'77150'
p7462
aS'77182'
p7463
aS'77183'
p7464
aS'77194'
p7465
aS'77150'
p7466
aS'77142'
p7467
aS'77143'
p7468
aS'77130'
p7469
aS'77182'
p7470
aS'77194'
p7471
aS'77183'
p7472
asS'Locarno'
p7473
(lp7474
S'6604'
p7475
aS'6600'
p7476
aS'6604'
p7477
asS'Labuty'
p7478
(lp7479
S'697 01'
p7480
asS'Lardero'
p7481
(lp7482
g3967
ag4030
asS'Laufen'
p7483
(lp7484
S'4242'
p7485
aS'4242'
p7486
asS'La\xc5\xbe\xc3\xa1nky'
p7487
(lp7488
S'339 01'
p7489
aS'678 01'
p7490
aS'664 71'
p7491
asS'Le Grand-Saconnex'
p7492
(lp7493
S'1218'
p7494
asS'Louviers'
p7495
(lp7496
S'80131'
p7497
aS'80131'
p7498
asS'La Grange'
p7499
(lp7500
S'40032'
p7501
asS'Lodi'
p7502
(lp7503
S'53555'
p7504
aS'53555'
p7505
asS'Ler'
p7506
(lp7507
S'7234'
p7508
aS'7234'
p7509
asS'Le Brouillet'
p7510
(lp7511
S'2406'
p7512
asS'Lom Kao'
p7513
(lp7514
S'67120'
p7515
aS'67120'
p7516
asS'Los Silos'
p7517
(lp7518
g2033
ag2114
asS'Lysaker'
p7519
(lp7520
S'1324'
p7521
aS'1326'
p7522
aS'1324'
p7523
aS'1326'
p7524
asS'Llano'
p7525
(lp7526
S'87543'
p7527
aS'87543'
p7528
asS'Lombardia'
p7529
(lp7530
S'20121'
p7531
aS'20123'
p7532
ag7532
aS'20129'
p7533
ag7533
aS'20149'
p7534
ag7534
aS'20100'
p7535
ag7535
aS'20126'
p7536
ag7536
aS'20128'
p7537
ag7537
aS'20132'
p7538
ag7538
aS'20135'
p7539
ag7539
aS'20137'
p7540
ag7540
aS'20139'
p7541
ag7541
aS'20142'
p7542
ag7542
aS'20144'
p7543
ag7543
aS'20146'
p7544
ag7544
aS'20148'
p7545
ag7545
aS'20153'
p7546
ag7546
aS'20155'
p7547
ag7547
aS'20157'
p7548
ag7548
aS'20159'
p7549
ag7549
aS'21100'
p7550
aS'23100'
p7551
aS'24121'
p7552
aS'25100'
p7553
aS'25122'
p7554
aS'26100'
p7555
aS'20152'
p7556
ag7556
aS'24122'
p7557
aS'24125'
p7558
aS'24127'
p7559
aS'25125'
p7560
aS'25128'
p7561
aS'25127'
p7562
aS'24123'
p7563
aS'25133'
p7564
aS'22100'
p7565
aS'23100'
p7566
aS'25136'
p7567
ag2201
aS'22100'
p7568
aS'25129'
p7569
aS'25133'
p7570
aS'21100'
p7571
aS'25134'
p7572
aS'23100'
p7573
aS'20139'
p7574
aS'21100'
p7575
aS'20152'
p7576
aS'21100'
p7577
ag2272
aS'25136'
p7578
aS'20143'
p7579
aS'20157'
p7580
aS'24126'
p7581
aS'24123'
p7582
aS'20125'
p7583
aS'20162'
p7584
aS'21100'
p7585
ag925
aS'20125'
p7586
aS'20127'
p7587
aS'20153'
p7588
aS'21100'
p7589
aS'23100'
p7590
aS'23100'
p7591
aS'26100'
p7592
aS'20121'
p7593
ag7593
aS'20123'
p7594
ag7594
aS'20125'
p7595
aS'20126'
p7596
ag7596
aS'20127'
p7597
aS'20128'
p7598
ag7598
aS'20129'
p7599
ag7599
aS'20132'
p7600
ag7600
ag2202
aS'20142'
p7601
ag7601
aS'20143'
p7602
aS'20149'
p7603
ag7603
aS'20152'
p7604
aS'20153'
p7605
ag7605
aS'20157'
p7606
ag7606
aS'20162'
p7607
aS'21100'
p7608
ag2275
aS'23100'
p7609
aS'24121'
p7610
aS'24122'
p7611
aS'24123'
p7612
aS'24125'
p7613
aS'24126'
p7614
aS'24127'
p7615
ag926
aS'25100'
p7616
aS'25122'
p7617
aS'25125'
p7618
aS'25127'
p7619
aS'25128'
p7620
aS'25129'
p7621
aS'25133'
p7622
aS'25134'
p7623
aS'25136'
p7624
aS'26100'
p7625
asS'Lastres'
p7626
(lp7627
S'33330'
p7628
aS'33330'
p7629
asS'Ljaskovo'
p7630
(lp7631
S'4818'
p7632
asS'Lausanne 26'
p7633
(lp7634
g3432
asS'Lynchburg'
p7635
(lp7636
S'29080'
p7637
aS'29080'
p7638
asS'Loket'
p7639
(lp7640
S'257 65'
p7641
asS'Lausanne 8'
p7642
(lp7643
g3473
asS'L\xc3\xadbeznice'
p7644
(lp7645
S'250 65'
p7646
asS'L\xc3\xb6hne'
p7647
(lp7648
S'32584'
p7649
aS'32584'
p7650
asS'Louck\xc3\xa1'
p7651
(lp7652
S'273 24'
p7653
asS'Lucens'
p7654
(lp7655
g3380
ag3429
asS'La Rustica'
p7656
(lp7657
g5105
ag5136
asS'Lo\xc4\x8denice'
p7658
(lp7659
S'373 22'
p7660
asS'Lincoln Park'
p7661
(lp7662
S'48146'
p7663
aS'48146'
p7664
asS'Locke Mills'
p7665
(lp7666
S'04255'
p7667
aS'04255'
p7668
asS'Lausanne 7'
p7669
(lp7670
g3433
asS'Lausanne 6'
p7671
(lp7672
g3406
asS'Lucena'
p7673
(lp7674
S'14900'
p7675
aS'14900'
p7676
asS'Los Alamos'
p7677
(lp7678
S'87544'
p7679
aS'87544'
p7680
asS'Longmont'
p7681
(lp7682
S'80504'
p7683
aS'80504'
p7684
asS'Litice'
p7685
(lp7686
S'321 00'
p7687
aS'321 00'
p7688
asS'Lipn\xc3\xa1'
p7689
(lp7690
S'352 01'
p7691
asS'Lule\xc3\xa5'
p7692
(lp7693
S'97187'
p7694
aS'97232'
p7695
aS'97233'
p7696
aS'97239'
p7697
aS'97242'
p7698
aS'97245'
p7699
aS'97252'
p7700
aS'97254'
p7701
aS'97342'
p7702
aS'97432'
p7703
aS'97442'
p7704
aS'97592'
p7705
aS'97594'
p7706
aS'97596'
p7707
aS'97627'
p7708
aS'97633'
p7709
aS'97753'
p7710
aS'97187'
p7711
aS'97103'
p7712
aS'97233'
p7713
aS'97252'
p7714
aS'97442'
p7715
aS'97633'
p7716
aS'97592'
p7717
aS'97596'
p7718
aS'97232'
p7719
aS'97239'
p7720
aS'97245'
p7721
aS'97254'
p7722
aS'97333'
p7723
aS'97342'
p7724
aS'97594'
p7725
aS'97627'
p7726
aS'97242'
p7727
aS'97432'
p7728
aS'97753'
p7729
asS'Lido Di Ostia Levante'
p7730
(lp7731
g5096
asS'Long Grove'
p7732
(lp7733
S'60049'
p7734
aS'60049'
p7735
asS'Lam\xc3\xa8que'
p7736
(lp7737
S'E8T'
p7738
aS'E8T'
p7739
asS'Landskron'
p7740
(lp7741
S'9523'
p7742
ag1133
asS'Laverton North'
p7743
(lp7744
S'3026'
p7745
asS'Ludhiana'
p7746
(lp7747
S'141003'
p7748
aS'141008'
p7749
aS'141003'
p7750
aS'141008'
p7751
asS'Langenlonsheim'
p7752
(lp7753
S'55450'
p7754
aS'55450'
p7755
asS'Liendo'
p7756
(lp7757
S'39776'
p7758
aS'39776'
p7759
asS'L\xc3\xad\xc5\xa1nice'
p7760
(lp7761
S'252 10'
p7762
aS'373 41'
p7763
aS'561 84'
p7764
aS'789 85'
p7765
asS'Langfjordhamn'
p7766
(lp7767
S'9583'
p7768
aS'9583'
p7769
asS'Langenselbold'
p7770
(lp7771
S'63505'
p7772
asS'Lafayette'
p7773
(lp7774
S'47901'
p7775
aS'47905'
p7776
ag143
ag144
ag145
aS'80026'
p7777
aS'80026'
p7778
aS'47901'
p7779
aS'47905'
p7780
ag177
ag193
ag194
asS'Lip\xc3\xad'
p7781
(lp7782
S'331 62'
p7783
aS'547 01'
p7784
asS'La Arboleja'
p7785
(lp7786
S'30009'
p7787
asS'Lake Market'
p7788
(lp7789
S'700029'
p7790
aS'700029'
p7791
asS'Lakselv'
p7792
(lp7793
S'9712'
p7794
asS'Ljugarn'
p7795
(lp7796
S'62016'
p7797
aS'62016'
p7798
asS'Lake Elmore'
p7799
(lp7800
S'05657'
p7801
aS'05657'
p7802
asS'Lipiny'
p7803
(lp7804
S'517 71'
p7805
asS'Lugano'
p7806
(lp7807
S'6900'
p7808
asS'Ludhiana Bus Stand'
p7809
(lp7810
S'141001'
p7811
aS'141001'
p7812
asS'Los Corrales De Buelna'
p7813
(lp7814
S'39400'
p7815
aS'39400'
p7816
asS'Leadville'
p7817
(lp7818
S'80461'
p7819
aS'80461'
p7820
asS'La Chaux-de-Fonds'
p7821
(lp7822
S'2304'
p7823
aS'2306'
p7824
asS'Ligods Road'
p7825
(lp7826
S'600014'
p7827
asS'La Jolla'
p7828
(lp7829
g5654
ag5672
asS'L\xc3\xad\xc5\xa1n\xc3\xa1'
p7830
(lp7831
S'338 08'
p7832
asS'Lind\xc3\xa5s'
p7833
(lp7834
S'36142'
p7835
aS'36142'
p7836
asS'L\xc3\xad\xc5\xa1n\xc3\xbd'
p7837
(lp7838
S'468 22'
p7839
asS'Lalsot'
p7840
(lp7841
S'303503'
p7842
aS'303503'
p7843
asS'Les Vieux-Pr\xc3\xa9s'
p7844
(lp7845
S'2054'
p7846
asS'Letcher'
p7847
(lp7848
S'57359'
p7849
aS'57359'
p7850
asS'La Roca Del Valles'
p7851
(lp7852
S'08430'
p7853
aS'08430'
p7854
asS'Ledec'
p7855
(lp7856
S'535 01'
p7857
asS'Linley Point'
p7858
(lp7859
S'2066'
p7860
aS'2066'
p7861
asS'Lipno nad Vltavou'
p7862
(lp7863
S'382 78'
p7864
asS'Letny'
p7865
(lp7866
S'393 01'
p7867
asS'La Gardens'
p7868
(lp7869
S'700045'
p7870
aS'700045'
p7871
asS'L\xc3\xa9skovec'
p7872
(lp7873
S'394 68'
p7874
asS'Lanai City'
p7875
(lp7876
S'96763'
p7877
aS'96763'
p7878
asS'Levonice'
p7879
(lp7880
g6407
asS'Lake Havasu City'
p7881
(lp7882
S'86403'
p7883
aS'86403'
p7884
asS'Lawrence'
p7885
(lp7886
S'66044'
p7887
aS'66045'
p7888
aS'66046'
p7889
aS'66044'
p7890
aS'66046'
p7891
aS'66045'
p7892
asS'Lou\xc4\x8dn\xc3\xa1'
p7893
(lp7894
g1914
asS'Lorca'
p7895
(lp7896
S'30800'
p7897
aS'30800'
p7898
asS'Lutz'
p7899
(lp7900
g373
ag451
asS'Lombas'
p7901
(lp7902
S'9580-479'
p7903
aS'9580-479'
p7904
asS'Litv\xc3\xadnov-Lounice x)'
p7905
(lp7906
S'436 01'
p7907
asS'Lotorp'
p7908
(lp7909
S'61013'
p7910
aS'61013'
p7911
asS'Lachov'
p7912
(lp7913
S'549 57'
p7914
asS'La Conversion'
p7915
(lp7916
g3352
ag3439
asS'Ledo'
p7917
(lp7918
S'786182'
p7919
aS'786182'
p7920
asS'Lezn\xc3\xadk'
p7921
(lp7922
S'572 01'
p7923
asS'Lengyelt\xc3\xb3ti'
p7924
(lp7925
S'8693'
p7926
aS'8693'
p7927
asS'Lankin'
p7928
(lp7929
S'58250'
p7930
aS'58250'
p7931
asS'Lene\xc5\xa1ice'
p7932
(lp7933
g6365
asS'Long Lake'
p7934
(lp7935
S'55356'
p7936
aS'55356'
p7937
asS'Leonberg'
p7938
(lp7939
S'71229'
p7940
aS'71229'
p7941
asS'Laketown'
p7942
(lp7943
S'84038'
p7944
aS'84038'
p7945
asS'La\xc5\xa1kov'
p7946
(lp7947
S'798 57'
p7948
asS'Langley Township Southwest'
p7949
(lp7950
S'V2Z'
p7951
aS'V2Z'
p7952
asS'Lengwil-Oberhofen'
p7953
(lp7954
S'8574'
p7955
aS'8574'
p7956
asS'Little Rock'
p7957
(lp7958
S'72205'
p7959
aS'72209'
p7960
aS'72211'
p7961
aS'72211'
p7962
aS'72205'
p7963
aS'72209'
p7964
asS'Labolt'
p7965
(lp7966
S'57246'
p7967
aS'57246'
p7968
asS'Lake Forest'
p7969
(lp7970
S'60045'
p7971
aS'60045'
p7972
asS'L\xc3\xa5ng\xc3\xa5s'
p7973
(lp7974
S'31103'
p7975
aS'31193'
p7976
aS'31103'
p7977
aS'31193'
p7978
asS'Lou\xc4\x8de\xc5\x88'
p7979
(lp7980
S'289 37'
p7981
asS'Limbuda'
p7982
(lp7983
S'362621'
p7984
aS'362621'
p7985
asS'Llano De Brujas'
p7986
(lp7987
S'30161'
p7988
aS'30161'
p7989
asS'Lib\xc5\x88atov'
p7990
(lp7991
S'542 36'
p7992
asS'Lewiston'
p7993
(lp7994
S'04241'
p7995
aS'68380'
p7996
aS'84320'
p7997
aS'04241'
p7998
aS'68380'
p7999
aS'84320'
p8000
asS'Leinfelden-Echterdingen'
p8001
(lp8002
S'70771'
p8003
aS'70771'
p8004
asS'Lake Simcoe Southeast Shore (Sutton West)'
p8005
(lp8006
S'L0E'
p8007
aS'L0E'
p8008
asS'La Paca'
p8009
(lp8010
S'30812'
p8011
asS'Le Locle'
p8012
(lp8013
S'2400'
p8014
aS'2400'
p8015
asS'Lewisville'
p8016
(lp8017
S'75067'
p8018
aS'83431'
p8019
aS'83431'
p8020
aS'75067'
p8021
asS'Los Patojos'
p8022
(lp8023
S'30393'
p8024
aS'30393'
p8025
asS'Lawrenceville'
p8026
(lp8027
S'30042'
p8028
aS'30044'
p8029
aS'30046'
p8030
aS'30042'
p8031
aS'30044'
p8032
aS'30046'
p8033
asS'Leinefelde'
p8034
(lp8035
S'37327'
p8036
aS'37327'
p8037
asS'Leon'
p8038
(lp8039
g4588
ag4589
ag4590
ag4591
ag4592
ag4593
ag4594
ag4595
ag4596
ag4597
ag4598
ag4599
ag4600
ag4601
ag4602
ag4603
ag4604
ag4605
ag4606
ag2760
ag2761
ag2762
ag2763
ag2764
ag4658
ag4659
ag4660
ag4661
ag4662
ag1176
ag4663
ag4664
ag4665
ag4666
ag4667
ag4668
ag4669
ag4670
ag4671
ag4672
ag4673
ag4674
ag4675
ag4676
ag4677
ag4678
ag4679
ag4680
ag4681
ag4682
ag4683
ag4684
ag4685
ag4686
ag4687
ag4688
ag4689
ag4690
ag4707
ag4708
ag4709
ag4710
ag4711
ag4712
ag4713
ag4714
ag2215
ag4715
ag4716
ag4717
ag4718
ag4719
ag4720
ag4721
ag4722
ag4723
ag4724
ag4725
ag4726
ag4727
ag4728
ag4729
ag4730
ag4731
ag4732
ag4733
ag4734
ag4735
ag4736
ag4737
ag4738
ag4739
ag4740
ag4741
ag4742
ag4743
ag2765
ag2766
ag4744
ag4745
ag4746
ag4747
ag4748
ag4749
ag4750
ag4751
ag4752
ag4753
ag4754
ag4755
ag4756
ag4757
ag4758
ag2767
ag2768
ag4759
ag4760
ag4761
ag4762
ag4763
ag4764
ag4764
ag4765
ag4766
ag4767
ag4768
ag4769
ag4770
ag4771
ag4772
ag2769
ag4773
ag4774
ag4775
ag4776
ag4777
ag4778
ag4779
ag4780
ag4781
ag4782
ag4783
ag4784
ag4785
ag4786
ag4787
ag4788
ag4789
ag4790
ag4791
ag4792
ag2216
ag4793
ag4794
ag4795
ag4796
ag4797
ag4798
ag4799
ag4800
ag4801
ag4802
ag4803
ag4804
ag4805
ag4806
ag4807
ag4808
ag4809
ag4810
ag4811
ag4812
ag4813
ag4814
ag4815
ag4816
ag1177
ag4817
ag4818
asS'L\xc3\xbcterkofen'
p8040
(lp8041
S'4571'
p8042
asS'Litohrady'
p8043
(lp8044
S'516 01'
p8045
asS'Libov'
p8046
(lp8047
S'400 02'
p8048
asS'Lomni\xc4\x8dka'
p8049
(lp8050
S'351 34'
p8051
aS'331 01'
p8052
aS'349 01'
p8053
aS'666 01'
p8054
asS'Lakeville'
p8055
(lp8056
S'06039'
p8057
aS'06039'
p8058
asS'Lustenau'
p8059
(lp8060
S'6890'
p8061
aS'6890'
p8062
asS'Luzaide/Valcarlos'
p8063
(lp8064
S'31660'
p8065
aS'31660'
p8066
asS'L\xc3\xa1nov'
p8067
(lp8068
S'543 41'
p8069
asS'La C\xc3\xb4te-aux-F\xc3\xa9es'
p8070
(lp8071
S'2117'
p8072
asS'Lali-Thanagar Colony'
p8073
(lp8074
S'500044'
p8075
aS'500044'
p8076
asS'Lauterach'
p8077
(lp8078
S'6923'
p8079
aS'6923'
p8080
asS'Leinstrand'
p8081
(lp8082
S'7083'
p8083
aS'7083'
p8084
asS'Leto\xc5\xa1ov'
p8085
(lp8086
S'683 33'
p8087
asS'Lampenberg'
p8088
(lp8089
S'4432'
p8090
asS'Lake Minchumina'
p8091
(lp8092
S'99757'
p8093
aS'99757'
p8094
asS'L\xc3\xa5ngaryd'
p8095
(lp8096
S'31492'
p8097
aS'31492'
p8098
asS'Lichoceves'
p8099
(lp8100
S'252 64'
p8101
asS'L\xc3\xa1ny'
p8102
(lp8103
S'289 21'
p8104
asS'Lewisburg'
p8105
(lp8106
S'24901'
p8107
aS'37091'
p8108
aS'37091'
p8109
aS'24901'
p8110
asS'Ligods Estate'
p8111
(lp8112
S'600014'
p8113
aS'600014'
p8114
asS'Lindesnes'
p8115
(lp8116
S'4512'
p8117
asS'Lobkovice'
p8118
(lp8119
S'277 11'
p8120
asS'Long'
p8121
(lp8122
S'54150'
p8123
aS'54150'
p8124
asS'Lenzerheide/Lai'
p8125
(lp8126
S'7078'
p8127
aS'7078'
p8128
asS'Lad\xc3\xa1nybene'
p8129
(lp8130
S'6045'
p8131
aS'6045'
p8132
asS'Liberec XXIII'
p8133
(lp8134
g1880
ag1943
asS'Listerby'
p8135
(lp8136
S'37274'
p8137
aS'37274'
p8138
asS'Lander'
p8139
(lp8140
S'82520'
p8141
aS'82520'
p8142
asS'Lib\xc5\x99ice'
p8143
(lp8144
S'503 44'
p8145
asS'Ligetfalva'
p8146
(lp8147
S'8782'
p8148
aS'8782'
p8149
asS'Lajamanu'
p8150
(lp8151
S'0852'
p8152
asS'L\xc3\xbcneburg'
p8153
(lp8154
S'21337'
p8155
aS'21337'
p8156
asS'Lajes do Pico'
p8157
(lp8158
S'9930-122'
p8159
aS'9930-124'
p8160
aS'9930-126'
p8161
aS'9930-128'
p8162
aS'9930-130'
p8163
aS'9930-132'
p8164
aS'9930-134'
p8165
aS'9930-136'
p8166
aS'9930-138'
p8167
aS'9930-140'
p8168
aS'9930-142'
p8169
aS'9930-144'
p8170
aS'9930-146'
p8171
aS'9930-148'
p8172
aS'9930-150'
p8173
aS'9930-152'
p8174
aS'9930-154'
p8175
aS'9930-999'
p8176
aS'9930-122'
p8177
aS'9930-124'
p8178
aS'9930-126'
p8179
aS'9930-128'
p8180
aS'9930-130'
p8181
aS'9930-132'
p8182
aS'9930-134'
p8183
aS'9930-136'
p8184
aS'9930-138'
p8185
aS'9930-140'
p8186
aS'9930-142'
p8187
aS'9930-144'
p8188
aS'9930-146'
p8189
aS'9930-148'
p8190
aS'9930-150'
p8191
aS'9930-152'
p8192
aS'9930-154'
p8193
aS'9930-999'
p8194
asS'La Llagosta'
p8195
(lp8196
S'08120'
p8197
aS'08120'
p8198
asS'Lechaschau'
p8199
(lp8200
S'6600'
p8201
asS'Limbach-Oberfrohna'
p8202
(lp8203
S'09212'
p8204
aS'09212'
p8205
asS'L\xc3\xa1tr\xc3\xa1ny'
p8206
(lp8207
S'8681'
p8208
aS'8681'
p8209
asS'Los Urrutias'
p8210
(lp8211
S'30368'
p8212
aS'30368'
p8213
asS'Lovosice'
p8214
g1723
sS'Lakhicherra'
p8215
(lp8216
S'796471'
p8217
aS'796471'
p8218
asS'Lennox'
p8219
(lp8220
S'57039'
p8221
aS'57039'
p8222
asS'Lipany'
p8223
(lp8224
S'281 63'
p8225
asS'Lombra\xc3\xb1a'
p8226
(lp8227
S'39557'
p8228
aS'39557'
p8229
asS'Laguna'
p8230
(lp8231
S'87026'
p8232
aS'87026'
p8233
asS'L\xc3\xa1z'
p8234
(lp8235
S'384 62'
p8236
aS'349 01'
p8237
aS'675 41'
p8238
asS'Lambach'
p8239
(lp8240
g849
aS'4650'
p8241
asS'Los Arcos'
p8242
(lp8243
S'31210'
p8244
aS'31210'
p8245
asS'Lataharan'
p8246
(lp8247
S'752119'
p8248
aS'752119'
p8249
asS'Lengnau BE'
p8250
(lp8251
S'2543'
p8252
aS'2543'
p8253
asS'Laspaules'
p8254
(lp8255
S'22471'
p8256
aS'22471'
p8257
asS'Luk\xc3\xa1'
p8258
(lp8259
S'783 24'
p8260
asS'Laspezia'
p8261
(lp8262
g2681
ag2694
ag2695
ag2696
ag2697
ag2698
ag2700
ag2731
ag2732
ag2733
ag2734
ag2739
ag2742
asS'Litomy\xc5\xa1l-M\xc4\x9bsto'
p8263
(lp8264
S'570 01'
p8265
asS'Lasarte'
p8266
(lp8267
S'20160'
p8268
aS'20160'
p8269
asS'Lessach'
p8270
(lp8271
S'5580'
p8272
aS'5580'
p8273
asS'Laxmi Bai Nagar'
p8274
(lp8275
S'110023'
p8276
aS'110023'
p8277
asS'Leinesfjord'
p8278
(lp8279
S'8283'
p8280
aS'8283'
p8281
asS'Litv\xc3\xadnovice'
p8282
(lp8283
S'370 01'
p8284
asS'Laval-sur-le-Lac'
p8285
(lp8286
S'H7R'
p8287
aS'H7R'
p8288
asS'Lockesburg'
p8289
(lp8290
S'71846'
p8291
aS'71846'
p8292
asS'La Rapita'
p8293
(lp8294
S'07639'
p8295
asS'Lethbridge North'
p8296
(lp8297
S'T1H'
p8298
aS'T1H'
p8299
asS'Libu\xc5\xa1\xc3\xadn'
p8300
(lp8301
S'273 06'
p8302
asS'Lippoldswilen'
p8303
(lp8304
S'8566'
p8305
asS'Lusk'
p8306
(lp8307
S'82225'
p8308
aS'82225'
p8309
asS'Laguna De Cameros'
p8310
(lp8311
g3966
ag4066
asS'Le Peuchapatte'
p8312
(lp8313
S'2345'
p8314
asS'Leontica'
p8315
(lp8316
S'6716'
p8317
asS'Le Lignon'
p8318
(lp8319
S'1219'
p8320
asS'L\xc3\xad\xc5\xa1ina'
p8321
(lp8322
S'333 01'
p8323
asS'Letonice'
p8324
(lp8325
S'683 35'
p8326
asS'L\xc3\xbcbeck'
p8327
(lp8328
S'23552'
p8329
aS'24105'
p8330
aS'24943'
p8331
aS'21502'
p8332
aS'22844'
p8333
aS'22848'
p8334
aS'22851'
p8335
aS'22880'
p8336
aS'22926'
p8337
aS'22946'
p8338
aS'23556'
p8339
ag8339
aS'23560'
p8340
ag8340
aS'23564'
p8341
ag8341
aS'23568'
p8342
ag8342
aS'23611'
p8343
aS'23669'
p8344
aS'23774'
p8345
aS'23843'
p8346
aS'23909'
p8347
aS'24109'
p8348
aS'24114'
p8349
aS'24118'
p8350
aS'24145'
p8351
aS'24149'
p8352
aS'24211'
p8353
aS'24306'
p8354
aS'24534'
p8355
aS'24537'
p8356
aS'24568'
p8357
aS'24768'
p8358
aS'24937'
p8359
aS'24941'
p8360
aS'25337'
p8361
aS'25436'
p8362
aS'25462'
p8363
aS'25541'
p8364
aS'25761'
p8365
aS'25980'
p8366
aS'22113'
p8367
aS'23570'
p8368
ag8368
aS'23847'
p8369
aS'24223'
p8370
aS'24376'
p8371
aS'24955'
p8372
aS'25436'
p8373
aS'25899'
p8374
aS'21514'
p8375
aS'22927'
p8376
aS'22955'
p8377
aS'23626'
p8378
aS'23714'
p8379
aS'23747'
p8380
aS'23812'
p8381
aS'24111'
p8382
aS'24146'
p8383
aS'24147'
p8384
aS'24217'
p8385
ag5478
aS'24257'
p8386
aS'24351'
p8387
aS'24582'
p8388
aS'24594'
p8389
aS'24782'
p8390
aS'24787'
p8391
aS'24803'
p8392
aS'24941'
p8393
aS'24980'
p8394
aS'24997'
p8395
aS'25355'
p8396
aS'25474'
p8397
aS'25548'
p8398
aS'25554'
p8399
aS'25709'
p8400
aS'25761'
p8401
aS'25821'
p8402
aS'25836'
p8403
aS'25849'
p8404
ag3810
aS'25980'
p8405
aS'25996'
p8406
aS'21039'
p8407
aS'21521'
p8408
aS'22962'
p8409
aS'23627'
p8410
aS'23730'
p8411
aS'23746'
p8412
aS'23863'
p8413
aS'23919'
p8414
aS'24229'
p8415
aS'24361'
p8416
aS'24598'
p8417
aS'24623'
p8418
ag3304
aS'24963'
p8419
aS'24972'
p8420
aS'25335'
p8421
aS'25373'
p8422
aS'25474'
p8423
aS'25488'
p8424
aS'25557'
p8425
aS'21039'
p8426
aS'21502'
p8427
aS'21514'
p8428
aS'21521'
p8429
aS'22844'
p8430
aS'22848'
p8431
aS'22851'
p8432
aS'22926'
p8433
aS'22927'
p8434
aS'22946'
p8435
aS'22955'
p8436
aS'22962'
p8437
aS'23552'
p8438
ag8438
aS'23556'
p8439
ag8439
aS'23560'
p8440
ag8440
aS'23564'
p8441
ag8441
aS'23568'
p8442
ag8442
aS'23570'
p8443
ag8443
aS'23611'
p8444
aS'23626'
p8445
aS'23627'
p8446
aS'23669'
p8447
aS'23714'
p8448
aS'23730'
p8449
aS'23746'
p8450
aS'23747'
p8451
aS'23774'
p8452
aS'23812'
p8453
aS'23843'
p8454
aS'23847'
p8455
aS'23863'
p8456
aS'23909'
p8457
aS'23919'
p8458
aS'24105'
p8459
aS'24109'
p8460
aS'24111'
p8461
aS'24114'
p8462
aS'24118'
p8463
aS'24145'
p8464
aS'24146'
p8465
aS'24147'
p8466
aS'24149'
p8467
aS'24211'
p8468
aS'24217'
p8469
aS'24223'
p8470
aS'24229'
p8471
aS'24257'
p8472
aS'24306'
p8473
aS'24351'
p8474
aS'24361'
p8475
aS'24376'
p8476
aS'24534'
p8477
aS'24537'
p8478
aS'24568'
p8479
aS'24582'
p8480
aS'24594'
p8481
aS'24598'
p8482
aS'24623'
p8483
ag3305
aS'24768'
p8484
aS'24782'
p8485
aS'24787'
p8486
aS'24803'
p8487
aS'24937'
p8488
aS'24941'
p8489
aS'24943'
p8490
aS'24955'
p8491
aS'24963'
p8492
aS'24972'
p8493
aS'24980'
p8494
aS'24997'
p8495
aS'25335'
p8496
aS'25337'
p8497
aS'25355'
p8498
aS'25373'
p8499
aS'25436'
p8500
aS'25462'
p8501
aS'25474'
p8502
aS'25488'
p8503
aS'25541'
p8504
aS'25548'
p8505
aS'25554'
p8506
aS'25557'
p8507
aS'25709'
p8508
aS'25761'
p8509
aS'25821'
p8510
aS'25836'
p8511
aS'25849'
p8512
aS'25899'
p8513
ag3811
aS'25980'
p8514
aS'25996'
p8515
asS'Les Petits-Ponts'
p8516
(lp8517
S'2318'
p8518
asS'Lic Colony Tambaram'
p8519
(lp8520
S'600059'
p8521
asS'La Manga Del Mar Menor'
p8522
(lp8523
S'30380'
p8524
aS'30380'
p8525
asS'Linthicum Heights'
p8526
(lp8527
S'21090'
p8528
aS'21090'
p8529
asS'Leonding'
p8530
(lp8531
g826
as.