(dp1
S'Valdemorillo'
p2
(lp3
S'28210'
p4
aS'28210'
p5
asS'Valencia De Las Torres'
p6
(lp7
S'06444'
p8
aS'06444'
p9
asS'Vikebukt'
p10
(lp11
S'6392'
p12
aS'6392'
p13
asS'Val'
p14
(lp15
S'518 01'
p16
asS'Villa Ridge'
p17
(lp18
S'63089'
p19
aS'63089'
p20
asS'Vrcholtovice'
p21
(lp22
S'391 43'
p23
asS'V\xc3\xadt\xc4\x9bzn\xc3\xa1-Kom\xc3\xa1rov x)'
p24
(lp25
S'544 01'
p26
asS'V\xc3\xadtov'
p27
(lp28
S'274 01'
p29
asS'Volf\xc3\xad\xc5\x99ov'
p30
(lp31
S'380 01'
p32
asS'Vestfold'
p33
(lp34
S'3103'
p35
aS'3255'
p36
aS'3070'
p37
aS'3081'
p38
aS'3110'
p39
ag39
aS'3117'
p40
ag40
aS'3126'
p41
ag41
aS'3158'
p42
aS'3170'
p43
aS'3191'
p44
aS'3222'
p45
aS'3251'
p46
aS'3261'
p47
aS'3271'
p48
aS'3106'
p49
ag49
aS'3115'
p50
ag50
aS'3175'
p51
aS'3187'
p52
aS'3208'
p53
aS'3217'
p54
aS'3263'
p55
aS'3280'
p56
aS'3090'
p57
aS'3107'
p58
aS'3113'
p59
ag59
aS'3116'
p60
ag60
aS'3122'
p61
ag61
aS'3124'
p62
ag62
aS'3132'
p63
aS'3138'
p64
aS'3142'
p65
aS'3153'
p66
aS'3159'
p67
aS'3166'
p68
aS'3174'
p69
aS'3180'
p70
aS'3182'
p71
aS'3186'
p72
aS'3189'
p73
aS'3202'
p74
aS'3209'
p75
aS'3213'
p76
aS'3215'
p77
aS'3218'
p78
aS'3223'
p79
aS'3229'
p80
aS'3231'
p81
aS'3233'
p82
aS'3236'
p83
aS'3238'
p84
aS'3242'
p85
aS'3248'
p86
aS'3260'
p87
aS'3268'
p88
aS'3270'
p89
aS'3275'
p90
aS'3292'
p91
aS'3295'
p92
aS'3092'
p93
aS'3133'
p94
aS'3148'
p95
aS'3152'
p96
aS'3164'
p97
aS'3172'
p98
aS'3193'
p99
aS'3196'
p100
aS'3204'
p101
aS'3224'
p102
aS'3226'
p103
aS'3235'
p104
aS'3246'
p105
aS'3252'
p106
aS'3258'
p107
aS'3265'
p108
aS'3291'
p109
aS'3071'
p110
aS'3104'
p111
ag111
aS'3144'
p112
aS'3088'
p113
aS'3162'
p114
aS'3276'
p115
aS'3169'
p116
aS'3240'
p117
aS'3297'
p118
aS'3127'
p119
ag119
aS'3137'
p120
aS'3195'
p121
aS'3245'
p122
aS'3284'
p123
aS'3147'
p124
aS'3281'
p125
aS'3088'
p126
aS'3090'
p127
aS'3092'
p128
aS'3107'
p129
aS'3110'
p130
ag130
aS'3113'
p131
ag131
aS'3115'
p132
ag132
aS'3116'
p133
ag133
aS'3117'
p134
ag134
aS'3122'
p135
ag135
aS'3132'
p136
aS'3133'
p137
aS'3137'
p138
aS'3148'
p139
aS'3152'
p140
aS'3158'
p141
aS'3159'
p142
aS'3162'
p143
aS'3164'
p144
aS'3169'
p145
aS'3172'
p146
aS'3182'
p147
aS'3187'
p148
aS'3189'
p149
aS'3191'
p150
aS'3193'
p151
aS'3196'
p152
aS'3208'
p153
aS'3209'
p154
aS'3217'
p155
aS'3218'
p156
aS'3222'
p157
aS'3223'
p158
aS'3224'
p159
aS'3226'
p160
aS'3229'
p161
aS'3235'
p162
aS'3236'
p163
aS'3238'
p164
aS'3242'
p165
aS'3245'
p166
aS'3246'
p167
aS'3251'
p168
aS'3252'
p169
aS'3258'
p170
aS'3260'
p171
aS'3261'
p172
aS'3265'
p173
aS'3268'
p174
aS'3270'
p175
aS'3271'
p176
aS'3275'
p177
aS'3276'
p178
aS'3281'
p179
aS'3284'
p180
aS'3291'
p181
aS'3297'
p182
asS'Valletanaro'
p183
(lp184
S'14100'
p185
aS'14100'
p186
asS'Vinje'
p187
(lp188
S'3887'
p189
aS'3887'
p190
asS'V\xc5\xa1estary'
p191
(lp192
S'251 63'
p193
asS'Voralberg'
p194
(lp195
S'6800'
p196
aS'6900'
p197
aS'6764'
p198
aS'6840'
p199
aS'6890'
p200
aS'6780'
p201
aS'6923'
p202
aS'6706'
p203
aS'6710'
p204
aS'6767'
p205
aS'6791'
p206
aS'6811'
p207
aS'6832'
p208
aS'6833'
p209
aS'6842'
p210
aS'6863'
p211
aS'6870'
p212
aS'6886'
p213
aS'6912'
p214
aS'6960'
p215
aS'6992'
p216
aS'6752'
p217
aS'6763'
p218
aS'6833'
p219
aS'6867'
p220
aS'6934'
p221
aS'6707'
p222
aS'6719'
p223
aS'6741'
p224
aS'6752'
p225
aS'6773'
p226
aS'6794'
p227
aS'6822'
p228
aS'6830'
p229
aS'6870'
p230
aS'6882'
p231
aS'6933'
p232
aS'6942'
p233
aS'6952'
p234
aS'6974'
p235
aS'6700'
p236
aS'6741'
p237
aS'6771'
p238
aS'6787'
p239
aS'6800'
p240
aS'6820'
p241
aS'6822'
p242
aS'6832'
p243
aS'6900'
p244
aS'6921'
p245
aS'6960'
p246
aS'6710'
p247
aS'6722'
p248
aS'6764'
p249
aS'6791'
p250
aS'6800'
p251
aS'6800'
p252
aS'6822'
p253
aS'6832'
p254
aS'6842'
p255
aS'6858'
p256
aS'6883'
p257
aS'6933'
p258
aS'6941'
p259
aS'6952'
p260
aS'6764'
p261
aS'6861'
p262
aS'6914'
p263
aS'6830'
p264
aS'6731'
p265
aS'6863'
p266
aS'6888'
p267
aS'6721'
p268
aS'6751'
p269
aS'6833'
p270
aS'6867'
p271
aS'6960'
p272
aS'6563'
p273
aS'6563'
p274
aS'6700'
p275
aS'6700'
p276
aS'6700'
p277
aS'6700'
p278
aS'6700'
p279
aS'6700'
p280
aS'6700'
p281
aS'6700'
p282
aS'6700'
p283
aS'6707'
p284
aS'6707'
p285
aS'6707'
p286
aS'6707'
p287
aS'6707'
p288
aS'6707'
p289
aS'6707'
p290
aS'6708'
p291
aS'6708'
p292
aS'6708'
p293
aS'6708'
p294
aS'6708'
p295
aS'6563'
p296
aS'6700'
p297
aS'6706'
p298
aS'6707'
p299
aS'6710'
p300
aS'6741'
p301
aS'6751'
p302
aS'6752'
p303
aS'6764'
p304
aS'6767'
p305
aS'6771'
p306
aS'6773'
p307
aS'6780'
p308
aS'6787'
p309
aS'6791'
p310
aS'6794'
p311
aS'6800'
p312
aS'6811'
p313
aS'6820'
p314
aS'6822'
p315
aS'6830'
p316
aS'6832'
p317
aS'6833'
p318
aS'6840'
p319
aS'6842'
p320
aS'6858'
p321
aS'6861'
p322
aS'6863'
p323
aS'6867'
p324
aS'6870'
p325
aS'6882'
p326
aS'6883'
p327
aS'6888'
p328
aS'6890'
p329
aS'6900'
p330
aS'6912'
p331
aS'6921'
p332
aS'6923'
p333
aS'6933'
p334
aS'6934'
p335
aS'6941'
p336
aS'6942'
p337
aS'6952'
p338
aS'6960'
p339
aS'6974'
p340
aS'6992'
p341
asS'Vernayaz'
p342
(lp343
S'1904'
p344
aS'1904'
p345
asS'V\xc3\xa5gland'
p346
(lp347
S'6683'
p348
asS'Veblungsnes'
p349
(lp350
S'6310'
p351
aS'6310'
p352
asS'Veddige'
p353
(lp354
S'43020'
p355
aS'43020'
p356
asS'Valdelafuente'
p357
(lp358
S'24227'
p359
aS'24227'
p360
asS'V\xc3\xa1rong'
p361
(lp362
S'7214'
p363
asS'V\xc4\x9b\xc5\xbenice'
p364
(lp365
S'582 52'
p366
asS'Vod\xc4\x9brady'
p367
(lp368
S'430 01'
p369
asS'Viveda'
p370
(lp371
S'39314'
p372
asS'Vav\xc5\x99etice'
p373
(lp374
S'251 67'
p375
asS'Vuisternens-en-Ogoz'
p376
(lp377
S'1696'
p378
aS'1696'
p379
asS'Vadura'
p380
(lp381
S'7314'
p382
aS'7314'
p383
asS'Vishnu Garden'
p384
(lp385
S'110015'
p386
asS'V\xc3\xbdslun\xc3\xad'
p387
(lp388
S'431 83'
p389
asS'Velichov'
p390
(lp391
S'438 01'
p392
asS'Valdefuentes'
p393
(lp394
S'10180'
p395
aS'10180'
p396
asS'Villaviciosa'
p397
(lp398
S'33300'
p399
aS'33300'
p400
asS'Vos\xc3\xad'
p401
(lp402
S'340 12'
p403
asS'Vlasenice'
p404
(lp405
S'394 70'
p406
asS'Vennesla'
p407
(lp408
S'4700'
p409
aS'4703'
p410
aS'4702'
p411
aS'4700'
p412
aS'4703'
p413
asS'Vesel\xc3\xad nad Moravou'
p414
(lp415
S'698 01'
p416
asS'V\xc3\xa9ska'
p417
(lp418
S'742 35'
p419
aS'783 16'
p420
asS'Vojn\xc5\xafv M\xc4\x9bstec'
p421
(lp422
S'591 01'
p423
asS'Val\xc5\xa1ov'
p424
(lp425
S'792 01'
p426
asS'Varthur'
p427
(lp428
S'560087'
p429
aS'560087'
p430
asS'Valle'
p431
(lp432
S'4747'
p433
aS'4747'
p434
asS'Vear'
p435
(lp436
g98
ag146
asS'Velk\xc3\xa1'
p437
(lp438
S'262 63'
p439
asS'Vroutek'
p440
(lp441
S'439 82'
p442
asS'V G Doddi'
p443
(lp444
S'561201'
p445
aS'561201'
p446
asS'Villar Del Rey'
p447
(lp448
S'06192'
p449
aS'06192'
p450
asS'Varnsdorf'
p451
(lp452
S'407 47'
p453
aS'407 46'
p454
aS'407 44'
p455
aS'407 79'
p456
aS'407 22'
p457
aS'405 02'
p458
aS'407 16'
p459
aS'407 53'
p460
aS'407 80'
p461
aS'407 15'
p462
aS'407 13'
p463
aS'407 25'
p464
aS'407 44'
p465
aS'407 51'
p466
aS'407 61'
p467
aS'408 01'
p468
aS'405 05'
p469
aS'407 14'
p470
aS'407 21'
p471
aS'407 41'
p472
aS'407 60'
p473
aS'405 02'
p474
aS'407 44'
p475
aS'405 02'
p476
aS'407 13'
p477
aS'407 16'
p478
aS'407 21'
p479
aS'407 25'
p480
aS'405 02'
p481
aS'405 02'
p482
aS'405 02'
p483
aS'405 02'
p484
aS'405 02'
p485
aS'405 02'
p486
aS'405 02'
p487
aS'405 02'
p488
aS'405 02'
p489
aS'405 02'
p490
aS'405 02'
p491
aS'405 02'
p492
aS'405 02'
p493
aS'405 02'
p494
aS'405 02'
p495
aS'405 02'
p496
aS'405 02'
p497
aS'405 02'
p498
aS'405 02'
p499
aS'405 02'
p500
aS'405 02'
p501
aS'405 05'
p502
aS'405 05'
p503
aS'407 01'
p504
aS'407 01'
p505
aS'407 03'
p506
aS'407 03'
p507
aS'407 11'
p508
aS'407 11'
p509
aS'407 11'
p510
aS'407 11'
p511
aS'407 21'
p512
aS'407 21'
p513
aS'407 21'
p514
aS'407 21'
p515
aS'407 21'
p516
aS'407 22'
p517
aS'407 22'
p518
aS'407 22'
p519
aS'407 22'
p520
aS'407 22'
p521
aS'407 25'
p522
aS'407 25'
p523
aS'407 25'
p524
aS'407 29'
p525
aS'407 42'
p526
aS'407 42'
p527
aS'407 45'
p528
aS'407 45'
p529
aS'407 46'
p530
aS'407 46'
p531
aS'407 46'
p532
aS'407 52'
p533
aS'407 53'
p534
aS'407 55'
p535
aS'407 56'
p536
aS'407 57'
p537
aS'407 57'
p538
aS'407 61'
p539
aS'407 77'
p540
aS'407 77'
p541
aS'407 77'
p542
aS'407 78'
p543
aS'407 78'
p544
aS'407 78'
p545
aS'407 79'
p546
aS'407 80'
p547
aS'407 82'
p548
aS'407 82'
p549
aS'408 01'
p550
aS'408 01'
p551
aS'405 02'
p552
aS'407 01'
p553
aS'408 01'
p554
asS'V\xc3\xa9rtestolna'
p555
(lp556
S'2833'
p557
aS'2833'
p558
asS'Velem\xc3\xa9r'
p559
(lp560
S'9946'
p561
aS'9946'
p562
asS'Veversk\xc3\xa9 Kn\xc3\xadnice'
p563
(lp564
S'664 81'
p565
asS'Velk\xc3\xa9 Kolod\xc4\x9bje'
p566
(lp567
S'533 04'
p568
asS'Vaughn'
p569
(lp570
S'59487'
p571
aS'59487'
p572
asS'Volketswil'
p573
(lp574
S'8604'
p575
aS'8604'
p576
asS'Volenice'
p577
(lp578
S'387 16'
p579
aS'440 01'
p580
asS'V\xc4\x9btrn\xc3\xadk'
p581
(lp582
S'552 05'
p583
asS'V\xc4\x8del\xc3\xa1kova Lhota'
p584
(lp585
S'257 91'
p586
asS'Vermont'
p587
(lp588
S'05001'
p589
aS'05030'
p590
aS'05032'
p591
aS'05034'
p592
aS'05036'
p593
aS'05038'
p594
aS'05040'
p595
aS'05042'
p596
aS'05045'
p597
aS'05047'
p598
aS'05049'
p599
aS'05052'
p600
aS'05054'
p601
aS'05056'
p602
aS'05059'
p603
aS'05061'
p604
aS'05065'
p605
aS'05068'
p606
aS'05070'
p607
aS'05072'
p608
aS'05074'
p609
aS'05077'
p610
aS'05081'
p611
aS'05084'
p612
aS'05086'
p613
aS'05089'
p614
aS'05091'
p615
aS'05141'
p616
aS'05143'
p617
aS'05146'
p618
aS'05149'
p619
aS'05151'
p620
aS'05153'
p621
aS'05155'
p622
aS'05158'
p623
aS'05161'
p624
aS'05251'
p625
aS'05253'
p626
aS'05255'
p627
aS'05262'
p628
aS'05301'
p629
aS'05303'
p630
aS'05340'
p631
aS'05342'
p632
aS'05344'
p633
aS'05346'
p634
aS'05351'
p635
aS'05353'
p636
aS'05355'
p637
aS'05357'
p638
aS'05359'
p639
aS'05361'
p640
aS'05363'
p641
aS'05401'
p642
aS'05404'
p643
aS'05406'
p644
aS'05439'
p645
aS'05441'
p646
aS'05442'
p647
aS'05444'
p648
aS'05446'
p649
aS'05449'
p650
aS'05451'
p651
aS'05453'
p652
aS'05455'
p653
aS'05457'
p654
aS'05459'
p655
aS'05461'
p656
aS'05463'
p657
aS'05465'
p658
aS'05468'
p659
aS'05470'
p660
aS'05472'
p661
aS'05474'
p662
aS'05477'
p663
aS'05479'
p664
aS'05482'
p665
aS'05483'
p666
aS'05486'
p667
aS'05488'
p668
aS'05490'
p669
aS'05492'
p670
aS'05601'
p671
aS'05602'
p672
aS'05604'
p673
aS'05620'
p674
aS'05640'
p675
aS'05647'
p676
aS'05649'
p677
aS'05651'
p678
aS'05653'
p679
aS'05655'
p680
aS'05657'
p681
aS'05660'
p682
aS'05662'
p683
aS'05664'
p684
aS'05666'
p685
aS'05669'
p686
aS'05753'
p687
aS'05401'
p688
aS'05091'
p689
aS'05301'
p690
aS'05441'
p691
aS'05482'
p692
aS'05602'
p693
aS'05753'
p694
aS'05001'
p695
ag695
aS'05030'
p696
aS'05032'
p697
aS'05034'
p698
aS'05036'
p699
aS'05038'
p700
aS'05040'
p701
aS'05042'
p702
aS'05045'
p703
aS'05047'
p704
aS'05049'
p705
aS'05052'
p706
aS'05054'
p707
aS'05056'
p708
aS'05059'
p709
aS'05061'
p710
aS'05065'
p711
aS'05068'
p712
aS'05070'
p713
aS'05072'
p714
aS'05074'
p715
aS'05077'
p716
aS'05081'
p717
aS'05084'
p718
aS'05086'
p719
aS'05089'
p720
aS'05141'
p721
aS'05143'
p722
aS'05146'
p723
aS'05149'
p724
aS'05151'
p725
aS'05153'
p726
aS'05155'
p727
aS'05158'
p728
aS'05161'
p729
aS'05251'
p730
aS'05253'
p731
aS'05255'
p732
aS'05260'
p733
aS'05262'
p734
aS'05303'
p735
aS'05340'
p736
aS'05342'
p737
aS'05344'
p738
aS'05346'
p739
aS'05351'
p740
aS'05353'
p741
aS'05355'
p742
aS'05357'
p743
aS'05359'
p744
aS'05361'
p745
aS'05363'
p746
aS'05404'
p747
aS'05406'
p748
aS'05439'
p749
aS'05442'
p750
aS'05444'
p751
aS'05446'
p752
aS'05449'
p753
aS'05451'
p754
aS'05453'
p755
aS'05455'
p756
aS'05457'
p757
aS'05459'
p758
aS'05461'
p759
aS'05463'
p760
aS'05465'
p761
aS'05468'
p762
aS'05470'
p763
aS'05472'
p764
aS'05474'
p765
aS'05477'
p766
aS'05479'
p767
aS'05483'
p768
aS'05486'
p769
aS'05488'
p770
aS'05490'
p771
aS'05492'
p772
aS'05601'
p773
aS'05604'
p774
aS'05620'
p775
aS'05640'
p776
aS'05647'
p777
aS'05649'
p778
aS'05651'
p779
aS'05653'
p780
aS'05655'
p781
aS'05657'
p782
aS'05660'
p783
aS'05662'
p784
aS'05664'
p785
aS'05666'
p786
aS'05669'
p787
asS'Valverde De La Vera'
p788
(lp789
S'10490'
p790
aS'10490'
p791
asS'Valte\xc5\x99ice'
p792
(lp793
S'471 05'
p794
asS'Vernier Distribution'
p795
(lp796
S'1214'
p797
asS'Villar De Torre'
p798
(lp799
S'26325'
p800
aS'26325'
p801
asS'Vidim'
p802
(lp803
S'277 21'
p804
asS'V\xc3\xadt\xc4\x9bjeves'
p805
(lp806
S'569 06'
p807
asS'Vancouver (NW Shaughnessy / East Kitsilano / Quilchena)'
p808
(lp809
S'V6J'
p810
aS'V6J'
p811
asS'Vlko\xc5\xa1'
p812
(lp813
S'751 19'
p814
asS'Velt\xc4\x9b\xc5\xbe'
p815
(lp816
S'250 66'
p817
asS'Vysok\xc3\xa9 Pole'
p818
(lp819
S'763 25'
p820
asS'Vasegerszeg'
p821
(lp822
S'9661'
p823
aS'9661'
p824
asS'Virgonagar'
p825
(lp826
S'560049'
p827
aS'560049'
p828
asS'Villoslada De Cameros'
p829
(lp830
S'26125'
p831
aS'26125'
p832
asS'Vinohrady (\xc4\x8d\xc3\xa1st)'
p833
(lp834
S'100 00'
p835
aS'101 00'
p836
aS'110 00'
p837
aS'130 00'
p838
asS'V\xc3\xa4nge'
p839
(lp840
S'74020'
p841
asS'Vykmanov'
p842
(lp843
S'431 51'
p844
asS'V\xc3\xadt\xc3\xa1n\xc3\xad'
p845
(lp846
S'346 01'
p847
asS'Vikaspuri'
p848
(lp849
S'110018'
p850
asS'Vill\xc3\xa1nyk\xc3\xb6vesd'
p851
(lp852
S'7772'
p853
aS'7772'
p854
asS'Valpoi'
p855
(lp856
S'403506'
p857
aS'403506'
p858
asS'Vrhave\xc4\x8d'
p859
(lp860
S'330 23'
p861
asS'Victoriaville Northwest'
p862
(lp863
S'G6T'
p864
aS'G6T'
p865
asS'V\xc3\xadska'
p866
(lp867
S'294 25'
p868
aS'335 01'
p869
asS'Vishnupuri'
p870
(lp871
S'202001'
p872
asS'Vrb\xc4\x8dany'
p873
(lp874
S'280 02'
p875
asS'Vincencov'
p876
(lp877
S'798 04'
p878
asS'Velk\xc3\xa1 Polom'
p879
(lp880
S'747 64'
p881
asS'Volders'
p882
(lp883
S'6111'
p884
asS'V\xc3\xadchov'
p885
(lp886
S'349 01'
p887
asS'V\xc3\xa1vrovice'
p888
(lp889
S'747 73'
p890
asS'Villanueva De La Vera'
p891
(lp892
S'10470'
p893
asS'Valsj\xc3\xb6byn'
p894
(lp895
S'83067'
p896
aS'83067'
p897
asS'Vr\xc3\xa5dal'
p898
(lp899
S'3853'
p900
aS'3853'
p901
asS'Venda Nova do Caldeireiro'
p902
(lp903
S'7000-171'
p904
asS'V\xc5\xa1echovice'
p905
(lp906
S'753 53'
p907
asS'Vlkane\xc4\x8d'
p908
(lp909
S'285 64'
p910
asS'V\xc3\xadsky'
p911
(lp912
S'679 33'
p913
asS'Vance'
p914
(lp915
S'29163'
p916
aS'29163'
p917
asS'Villa Fastiggi'
p918
(lp919
S'61100'
p920
asS'V\xc3\xadtkovice'
p921
(lp922
S'512 38'
p923
asS'Vaucluse'
p924
(lp925
S'2030'
p926
asS'Vernon Central'
p927
(lp928
S'V1T'
p929
aS'V1T'
p930
asS'Vigantice'
p931
(lp932
S'756 61'
p933
asS'Villarcayo'
p934
(lp935
S'09550'
p936
aS'09550'
p937
asS'V\xc5\xa1etuly'
p938
(lp939
S'769 01'
p940
asS'V\xc5\xa1ehrdy'
p941
(lp942
S'430 01'
p943
asS'V\xc3\xa1\xc5\xbeany nad Litavou'
p944
(lp945
S'684 01'
p946
asS'Venabygd'
p947
(lp948
S'2632'
p949
asS'Vyklantice'
p950
(lp951
S'394 27'
p952
asS'V\xc5\x99esovice'
p953
(lp954
S'697 01'
p955
asS'Vadipura'
p956
(lp957
S'363001'
p958
asS'Velk\xc3\xa9 Po\xc5\x99\xc3\xad\xc4\x8d\xc3\xad'
p959
(lp960
S'549 32'
p961
asS'Velk\xc3\xa9 B\xc5\x99ezno'
p962
(lp963
S'403 23'
p964
asS'Vintondale'
p965
(lp966
S'15961'
p967
aS'15961'
p968
asS'V\xc3\xa1clavovice'
p969
(lp970
S'739 34'
p971
asS'Vaish High Schl Rohtak'
p972
(lp973
S'124003'
p974
aS'124003'
p975
asS'Verona'
p976
(lp977
S'37100'
p978
aS'37122'
p979
aS'37134'
p980
aS'37138'
p981
aS'37126'
p982
aS'37123'
p983
aS'37136'
p984
aS'37128'
p985
aS'37133'
p986
aS'37125'
p987
aS'37142'
p988
aS'07044'
p989
aS'37100'
p990
aS'37125'
p991
aS'37126'
p992
aS'37134'
p993
aS'53593'
p994
aS'07044'
p995
aS'53593'
p996
asS'Valendas'
p997
(lp998
S'7122'
p999
asS'Vr\xc5\xa1ov'
p1000
(lp1001
S'538 25'
p1002
asS'Vila do Porto'
p1003
(lp1004
S'9580-501'
p1005
aS'9580-503'
p1006
aS'9580-505'
p1007
aS'9580-507'
p1008
aS'9580-509'
p1009
aS'9580-511'
p1010
aS'9580-513'
p1011
aS'9580-515'
p1012
aS'9580-517'
p1013
aS'9580-519'
p1014
aS'9580-521'
p1015
aS'9580-523'
p1016
aS'9580-525'
p1017
aS'9580-527'
p1018
aS'9580-529'
p1019
aS'9580-531'
p1020
aS'9580-501'
p1021
aS'9580-503'
p1022
aS'9580-505'
p1023
aS'9580-507'
p1024
aS'9580-509'
p1025
aS'9580-511'
p1026
aS'9580-513'
p1027
aS'9580-515'
p1028
aS'9580-517'
p1029
aS'9580-519'
p1030
aS'9580-521'
p1031
aS'9580-523'
p1032
aS'9580-525'
p1033
aS'9580-527'
p1034
aS'9580-529'
p1035
aS'9580-531'
p1036
asS'V\xc4\x9btrovy'
p1037
(lp1038
S'390 01'
p1039
aS'390 01'
p1040
asS'Varberg'
p1041
(lp1042
S'43217'
p1043
aS'43232'
p1044
aS'43238'
p1045
aS'43241'
p1046
aS'43243'
p1047
aS'43250'
p1048
aS'43292'
p1049
aS'43295'
p1050
aS'43250'
p1051
aS'43232'
p1052
aS'43241'
p1053
aS'43295'
p1054
aS'43217'
p1055
aS'43231'
p1056
aS'43238'
p1057
aS'43243'
p1058
aS'43292'
p1059
aS'43216'
p1060
asS'V\xc4\x9bsto\xc5\x88ovice'
p1061
(lp1062
S'675 07'
p1063
asS'Vassur\xc3\xa1ny'
p1064
(lp1065
S'9741'
p1066
aS'9741'
p1067
asS'Victor'
p1068
(lp1069
S'83455'
p1070
aS'83455'
p1071
asS'Vidolice'
p1072
(lp1073
S'438 01'
p1074
asS'Vranov\xc3\xa1'
p1075
(lp1076
S'679 62'
p1077
asS'Vra\xc5\x88any'
p1078
(lp1079
S'277 07'
p1080
asS'Vesel\xc3\xad\xc4\x8dko 1.d\xc3\xadl'
p1081
(lp1082
g513
asS'Volda'
p1083
(lp1084
S'6101'
p1085
asS'Vl\xc4\x8dovice'
p1086
(lp1087
S'742 21'
p1088
asS'Vila-Real'
p1089
(lp1090
S'12540'
p1091
aS'12540'
p1092
asS'Vini\xc4\x8dn\xc3\xa1 Lhota'
p1093
(lp1094
S'289 34'
p1095
asS'Vrb\xc3\xa1tky'
p1096
(lp1097
S'798 13'
p1098
asS'V\xc4\x9b\xc5\xa1\xc3\xadn'
p1099
(lp1100
S'262 43'
p1101
asS'Vol\xc3\xa1rna'
p1102
(lp1103
S'280 02'
p1104
asS'Valdepe\xc3\xb1as'
p1105
(lp1106
S'13300'
p1107
aS'13300'
p1108
asS'Vackov'
p1109
(lp1110
S'351 34'
p1111
asS'Valtice'
p1112
(lp1113
S'691 42'
p1114
asS'Vr\xc3\xa1\xc5\xben\xc3\xa9'
p1115
(lp1116
S'569 43'
p1117
asS'Vtelno'
p1118
(lp1119
S'434 01'
p1120
asS'Vit\xc3\xa5'
p1121
(lp1122
S'95596'
p1123
aS'95596'
p1124
asS'Visz'
p1125
(lp1126
S'8681'
p1127
asS'Vig\xc3\xa1ntpetend'
p1128
(lp1129
S'8294'
p1130
asS'Vollen'
p1131
(lp1132
S'1391'
p1133
aS'1391'
p1134
asS'Vadnagar Kodinar'
p1135
(lp1136
S'362727'
p1137
aS'362727'
p1138
asS'Vina\xc5\x99ice'
p1139
(lp1140
S'267 01'
p1141
aS'281 26'
p1142
asS'Vrskma\xc5\x88'
p1143
(lp1144
S'431 15'
p1145
asS'Vernon'
p1146
(lp1147
S'84080'
p1148
asS'Vole\xc4\x8d'
p1149
(lp1150
S'533 41'
p1151
asS'Vojt\xc4\x9bchov'
p1152
(lp1153
S'432 01'
p1154
aS'798 55'
p1155
asS'Vidly'
p1156
(lp1157
S'793 26'
p1158
asS'Vlkov nad Lesy'
p1159
(lp1160
S'503 51'
p1161
asS'Vrcha'
p1162
(lp1163
S'537 01'
p1164
asS'Villa De Arico'
p1165
(lp1166
S'38580'
p1167
aS'38580'
p1168
asS'Veszpr\xc3\xa9mfajsz'
p1169
(lp1170
S'8248'
p1171
asS'V\xc3\xadt\xc4\x9bzn\xc3\xa1-Hunt\xc3\xad\xc5\x99ov x)'
p1172
(lp1173
S'544 01'
p1174
asS'Velk\xc3\xa9 Janovice'
p1175
(lp1176
S'593 01'
p1177
asS'Volfartice'
p1178
(lp1179
S'471 12'
p1180
asS'Vessigebro'
p1181
(lp1182
S'31058'
p1183
aS'31058'
p1184
asS'Villanueva De La Fuente'
p1185
(lp1186
S'13330'
p1187
aS'13330'
p1188
asS'Vale Juncal'
p1189
(lp1190
S'2400-497'
p1191
aS'2400-497'
p1192
asS'Vorderglemm'
p1193
(lp1194
S'5753'
p1195
aS'5753'
p1196
asS'Vl\xc4\x8d\xc3\xad'
p1197
(lp1198
S'334 01'
p1199
asS'Vardaman'
p1200
(lp1201
S'38878'
p1202
aS'38878'
p1203
asS'Vit\xc3\xb3ria'
p1204
(lp1205
S'9880-029'
p1206
aS'9880-029'
p1207
asS'Vranovice'
p1208
(lp1209
S'338 24'
p1210
aS'691 25'
p1211
asS'Vindornyalak'
p1212
(lp1213
S'8353'
p1214
asS'Vl\xc3\xa1senice'
p1215
(lp1216
S'393 01'
p1217
asS'Virginia City'
p1218
(lp1219
S'89440'
p1220
aS'89440'
p1221
asS'Valagotes'
p1222
(lp1223
S'3570-150'
p1224
aS'3570-150'
p1225
asS'Velk\xc3\xa9 Dvorce'
p1226
(lp1227
S'348 06'
p1228
asS'Valga\xc3\xb1on'
p1229
(lp1230
S'26288'
p1231
aS'26288'
p1232
asS'Vele\xc5\xa1ice'
p1233
(lp1234
S'507 03'
p1235
asS'Vikingstad'
p1236
(lp1237
S'59047'
p1238
aS'59049'
p1239
aS'59047'
p1240
aS'59049'
p1241
asS'Vl\xc4\x8d\xc3\xad D\xc5\xafl'
p1242
(lp1243
S'470 01'
p1244
asS'Vancouver (North Grandview- Woodlands)'
p1245
(lp1246
S'V5L'
p1247
aS'V5L'
p1248
asS'Val\xc5\xa1ovice'
p1249
(lp1250
S'753 54'
p1251
asS'Vysok\xc3\xa9 Sedli\xc5\xa1t\xc4\x9b'
p1252
(lp1253
S'348 15'
p1254
asS'Velk\xc3\xa9 Petrovice-Petrovi\xc4\x8dky x)'
p1255
(lp1256
S'549 54'
p1257
asS'Vaskeresztes'
p1258
(lp1259
S'9795'
p1260
aS'9795'
p1261
asS'Vallvik'
p1262
(lp1263
S'82021'
p1264
aS'82021'
p1265
asS'Vesce'
p1266
(lp1267
S'380 01'
p1268
aS'394 68'
p1269
asS'Vas'
p1270
(lp1271
S'9700'
p1272
aS'9500'
p1273
aS'9737'
p1274
aS'9701'
p1275
ag1275
aS'9707'
p1276
ag1276
aS'9512'
p1277
aS'9653'
p1278
aS'9791'
p1279
aS'9721'
p1280
aS'9733'
p1281
aS'9555'
p1282
aS'9601'
p1283
aS'9631'
p1284
aS'9641'
p1285
aS'9671'
p1286
aS'9725'
p1287
aS'9727'
p1288
aS'9761'
p1289
aS'9763'
p1290
aS'9771'
p1291
aS'9792'
p1292
ag1260
aS'9798'
p1293
aS'9813'
p1294
aS'9842'
p1295
aS'9919'
p1296
aS'9934'
p1297
aS'9971'
p1298
aS'9513'
p1299
aS'9515'
p1300
aS'9522'
p1301
aS'9531'
p1302
aS'9547'
p1303
aS'9554'
p1304
aS'9561'
p1305
aS'9611'
p1306
aS'9632'
p1307
ag823
aS'9664'
p1308
aS'9672'
p1309
aS'9676'
p1310
aS'9684'
p1311
aS'9722'
p1312
aS'9734'
p1313
ag1066
aS'9744'
p1314
aS'9748'
p1315
aS'9757'
p1316
aS'9773'
p1317
aS'9775'
p1318
aS'9781'
p1319
aS'9794'
p1320
aS'9811'
p1321
aS'9831'
p1322
aS'9841'
p1323
aS'9909'
p1324
aS'9918'
p1325
aS'9936'
p1326
aS'9938'
p1327
aS'9943'
p1328
ag561
aS'9982'
p1329
aS'9985'
p1330
aS'9552'
p1331
aS'9624'
p1332
aS'9643'
p1333
aS'9682'
p1334
aS'9725'
p1335
aS'9736'
p1336
aS'9766'
p1337
aS'9791'
p1338
aS'9796'
p1339
aS'9824'
p1340
aS'9835'
p1341
aS'9912'
p1342
aS'9921'
p1343
aS'9938'
p1344
aS'9951'
p1345
aS'9953'
p1346
aS'9962'
p1347
aS'9511'
p1348
aS'9556'
p1349
aS'9612'
p1350
aS'9625'
p1351
aS'9742'
p1352
aS'9754'
p1353
aS'9774'
p1354
aS'9812'
p1355
aS'9832'
p1356
aS'9915'
p1357
aS'9922'
p1358
aS'9983'
p1359
aS'9634'
p1360
aS'9654'
p1361
aS'9681'
p1362
aS'9739'
p1363
aS'9774'
p1364
aS'9813'
p1365
aS'9913'
p1366
aS'9500'
p1367
aS'9512'
p1368
aS'9513'
p1369
aS'9522'
p1370
aS'9547'
p1371
aS'9554'
p1372
aS'9561'
p1373
aS'9611'
p1374
aS'9612'
p1375
aS'9624'
p1376
aS'9625'
p1377
aS'9631'
p1378
aS'9632'
p1379
aS'9634'
p1380
aS'9641'
p1381
aS'9643'
p1382
aS'9654'
p1383
ag824
aS'9664'
p1384
aS'9671'
p1385
aS'9672'
p1386
aS'9676'
p1387
aS'9681'
p1388
aS'9682'
p1389
aS'9684'
p1390
aS'9700'
p1391
ag1391
aS'9707'
p1392
ag1392
aS'9721'
p1393
aS'9722'
p1394
aS'9725'
p1395
aS'9727'
p1396
aS'9733'
p1397
aS'9734'
p1398
aS'9736'
p1399
aS'9737'
p1400
aS'9739'
p1401
ag1067
aS'9744'
p1402
aS'9748'
p1403
aS'9754'
p1404
aS'9757'
p1405
aS'9763'
p1406
aS'9766'
p1407
aS'9771'
p1408
aS'9773'
p1409
aS'9774'
p1410
aS'9781'
p1411
aS'9791'
p1412
aS'9792'
p1413
aS'9794'
p1414
ag1261
aS'9796'
p1415
aS'9798'
p1416
aS'9811'
p1417
aS'9812'
p1418
aS'9813'
p1419
aS'9824'
p1420
aS'9831'
p1421
aS'9832'
p1422
aS'9835'
p1423
aS'9841'
p1424
aS'9842'
p1425
aS'9909'
p1426
aS'9913'
p1427
aS'9915'
p1428
aS'9918'
p1429
aS'9919'
p1430
aS'9921'
p1431
aS'9922'
p1432
aS'9934'
p1433
aS'9936'
p1434
aS'9938'
p1435
aS'9943'
p1436
ag562
aS'9951'
p1437
aS'9953'
p1438
aS'9962'
p1439
aS'9971'
p1440
aS'9982'
p1441
aS'9983'
p1442
aS'9985'
p1443
asS'V\xc3\xa1ralja'
p1444
(lp1445
S'7354'
p1446
aS'7354'
p1447
asS'Vallberga'
p1448
(lp1449
S'31250'
p1450
aS'31250'
p1451
asS'Velk\xc3\xbd Je\xc5\xbeov'
p1452
(lp1453
S'391 43'
p1454
asS'V\xc3\xa1clavov u Brunt\xc3\xa1lu'
p1455
(lp1456
S'792 01'
p1457
asS'Vretstorp'
p1458
(lp1459
S'69450'
p1460
aS'69450'
p1461
asS'Vale de Perdizes'
p1462
(lp1463
S'4880-058'
p1464
aS'4880-058'
p1465
asS'V\xc3\xa4rmland'
p1466
(lp1467
S'65008'
p1468
aS'65110'
p1469
ag1469
aS'65114'
p1470
ag1470
aS'65115'
p1471
ag1471
aS'65180'
p1472
ag1472
aS'65188'
p1473
ag1473
aS'65219'
p1474
ag1474
aS'65220'
p1475
ag1475
aS'65221'
p1476
ag1476
aS'65224'
p1477
ag1477
aS'65230'
p1478
ag1478
aS'65339'
p1479
ag1479
aS'65341'
p1480
ag1480
aS'65344'
p1481
ag1481
aS'65346'
p1482
ag1482
aS'65455'
p1483
ag1483
aS'65463'
p1484
ag1484
aS'65465'
p1485
ag1485
aS'65591'
p1486
ag1486
aS'65632'
p1487
ag1487
aS'65672'
p1488
aS'66050'
p1489
aS'66057'
p1490
aS'66121'
p1491
aS'66124'
p1492
aS'66129'
p1493
aS'66191'
p1494
aS'66192'
p1495
aS'66194'
p1496
aS'66296'
p1497
aS'66331'
p1498
aS'66334'
p1499
aS'66340'
p1500
aS'66342'
p1501
aS'66421'
p1502
aS'66432'
p1503
aS'66433'
p1504
aS'66491'
p1505
aS'66521'
p1506
aS'66531'
p1507
aS'66535'
p1508
aS'66593'
p1509
aS'66721'
p1510
aS'66722'
p1511
aS'66731'
p1512
aS'66791'
p1513
aS'66992'
p1514
aS'67035'
p1515
aS'67041'
p1516
aS'67126'
p1517
aS'67131'
p1518
aS'67132'
p1519
aS'67141'
p1520
aS'67142'
p1521
aS'67181'
p1522
aS'67192'
p1523
aS'67193'
p1524
aS'67196'
p1525
aS'67331'
p1526
aS'67332'
p1527
aS'68052'
p1528
aS'68071'
p1529
aS'68090'
p1530
aS'68121'
p1531
aS'68123'
p1532
aS'68130'
p1533
aS'68132'
p1534
aS'68138'
p1535
aS'68143'
p1536
aS'68152'
p1537
aS'68227'
p1538
aS'68231'
p1539
aS'68291'
p1540
aS'68292'
p1541
aS'68331'
p1542
aS'68340'
p1543
aS'68393'
p1544
aS'68394'
p1545
aS'68421'
p1546
aS'68423'
p1547
aS'68431'
p1548
aS'68530'
p1549
aS'68534'
p1550
aS'68628'
p1551
aS'68631'
p1552
aS'68635'
p1553
aS'68680'
p1554
aS'68693'
p1555
aS'68695'
p1556
aS'68823'
p1557
aS'68831'
p1558
aS'65180'
p1559
ag1559
aS'65008'
p1560
ag1560
aS'65221'
p1561
ag1561
aS'67142'
p1562
aS'68423'
p1563
aS'65220'
p1564
ag1564
aS'65224'
p1565
ag1565
aS'65672'
p1566
aS'66334'
p1567
aS'67131'
p1568
aS'68123'
p1569
aS'65110'
p1570
ag1570
aS'65230'
p1571
ag1571
aS'65341'
p1572
ag1572
aS'65465'
p1573
ag1573
aS'66050'
p1574
aS'66057'
p1575
aS'66129'
p1576
aS'66192'
p1577
aS'66421'
p1578
aS'66521'
p1579
aS'66721'
p1580
aS'66992'
p1581
aS'67035'
p1582
aS'68090'
p1583
aS'68130'
p1584
aS'68152'
p1585
aS'68291'
p1586
aS'68534'
p1587
aS'68635'
p1588
aS'65115'
p1589
ag1589
aS'66194'
p1590
aS'66432'
p1591
aS'67193'
p1592
aS'67331'
p1593
aS'68393'
p1594
aS'68693'
p1595
aS'68695'
p1596
aS'65114'
p1597
ag1597
aS'65188'
p1598
ag1598
aS'65339'
p1599
ag1599
aS'65344'
p1600
ag1600
aS'65346'
p1601
ag1601
aS'65463'
p1602
ag1602
aS'65591'
p1603
ag1603
aS'65632'
p1604
ag1604
aS'66121'
p1605
aS'66124'
p1606
aS'66140'
p1607
aS'66191'
p1608
aS'66296'
p1609
aS'66331'
p1610
aS'66340'
p1611
aS'66433'
p1612
aS'66491'
p1613
aS'66531'
p1614
aS'66535'
p1615
aS'66593'
p1616
aS'66722'
p1617
aS'66731'
p1618
aS'66791'
p1619
aS'67041'
p1620
aS'67132'
p1621
aS'67141'
p1622
aS'67192'
p1623
aS'67196'
p1624
aS'67332'
p1625
aS'68052'
p1626
aS'68071'
p1627
aS'68121'
p1628
aS'68132'
p1629
aS'68138'
p1630
aS'68143'
p1631
aS'68227'
p1632
aS'68231'
p1633
aS'68292'
p1634
aS'68322'
p1635
aS'68331'
p1636
aS'68340'
p1637
aS'68394'
p1638
aS'68421'
p1639
aS'68431'
p1640
aS'68530'
p1641
aS'68623'
p1642
aS'68628'
p1643
aS'68631'
p1644
aS'68680'
p1645
aS'68823'
p1646
aS'68831'
p1647
aS'65219'
p1648
ag1648
aS'65455'
p1649
ag1649
aS'66342'
p1650
aS'67126'
p1651
aS'67181'
p1652
asS'V\xc3\xa1s\xc3\xa1rosfalu'
p1653
(lp1654
S'9343'
p1655
asS'Vars\xc3\xa1d'
p1656
(lp1657
S'7067'
p1658
aS'7067'
p1659
asS'Valverde De Jucar'
p1660
(lp1661
S'16100'
p1662
asS'Vale Arieira'
p1663
(lp1664
S'2400-491'
p1665
aS'2400-491'
p1666
asS'Vrbno pod Prad\xc4\x9bdem'
p1667
(lp1668
S'793 26'
p1669
asS'Velk\xc3\xa1 Kra\xc5\xa1'
p1670
(lp1671
S'790 58'
p1672
asS'V\xc3\xa1s\xc3\xa1rosnam\xc3\xa9ny'
p1673
(lp1674
S'4800'
p1675
aS'4803'
p1676
aS'4800'
p1677
aS'4803'
p1678
asS'Vancouver (UBC)'
p1679
(lp1680
S'V6T'
p1681
aS'V6T'
p1682
asS'Valmy'
p1683
(lp1684
S'89438'
p1685
aS'89438'
p1686
asS'Victoria South'
p1687
(lp1688
S'V8V'
p1689
aS'V8V'
p1690
asS'V\xc3\xa1rdomb'
p1691
(lp1692
S'7146'
p1693
asS'Valcha'
p1694
(lp1695
S'301 00'
p1696
aS'348 02'
p1697
asS'Vale de Feiteira'
p1698
(lp1699
S'6040-043'
p1700
aS'6040-043'
p1701
asS'Viswama'
p1702
(lp1703
S'797127'
p1704
aS'797127'
p1705
asS'Vr\xc3\xa1tkov'
p1706
(lp1707
S'282 01'
p1708
asS'Vrbice u Bezdru\xc5\xbeic'
p1709
(lp1710
S'349 53'
p1711
asS'Vrchlab\xc3\xad'
p1712
(lp1713
S'543 01'
p1714
aS'544 01'
p1715
aS'544 77'
p1716
aS'542 23'
p1717
aS'542 26'
p1718
aS'544 43'
p1719
aS'542 33'
p1720
aS'543 41'
p1721
aS'543 52'
p1722
aS'544 55'
p1723
aS'544 75'
p1724
aS'542 04'
p1725
aS'542 13'
p1726
aS'543 73'
p1727
aS'543 76'
p1728
aS'544 51'
p1729
aS'542 21'
p1730
aS'542 27'
p1731
aS'542 37'
p1732
aS'544 61'
p1733
aS'542 36'
p1734
aS'543 41'
p1735
aS'544 54'
p1736
aS'544 44'
p1737
aS'542 38'
p1738
aS'542 43'
p1739
aS'544 62'
p1740
aS'544 01'
p1741
aS'544 74'
p1742
aS'541 01'
p1743
aS'541 01'
p1744
aS'541 01'
p1745
aS'541 01'
p1746
aS'541 01'
p1747
aS'541 01'
p1748
aS'541 02'
p1749
aS'541 03'
p1750
aS'542 01'
p1751
aS'542 26'
p1752
aS'542 26'
p1753
aS'542 26'
p1754
aS'542 32'
p1755
aS'542 34'
p1756
aS'542 43'
p1757
aS'542 43'
p1758
aS'543 03'
p1759
aS'543 71'
p1760
aS'543 75'
p1761
aS'544 01'
p1762
aS'544 01'
p1763
aS'544 01'
p1764
aS'544 01'
p1765
aS'544 01'
p1766
aS'544 01'
p1767
aS'544 01'
p1768
ag1174
aS'544 01'
p1769
aS'544 01'
p1770
aS'544 01'
p1771
aS'544 01'
p1772
aS'544 01'
p1773
ag26
aS'544 01'
p1774
aS'544 01'
p1775
aS'544 44'
p1776
aS'544 56'
p1777
aS'544 61'
p1778
aS'544 62'
p1779
aS'544 66'
p1780
aS'544 75'
p1781
aS'542 23'
p1782
aS'543 71'
p1783
aS'541 01'
p1784
aS'543 71'
p1785
aS'541 01'
p1786
aS'541 01'
p1787
aS'542 32'
p1788
aS'543 02'
p1789
aS'543 51'
p1790
aS'543 72'
p1791
aS'544 01'
p1792
aS'544 55'
p1793
aS'544 66'
p1794
aS'541 01'
p1795
aS'542 01'
p1796
aS'543 01'
p1797
ag1797
aS'544 01'
p1798
asS'Villarbeney'
p1799
(lp1800
S'1652'
p1801
aS'1652'
p1802
asS'Vysok\xc3\xbd Les'
p1803
(lp1804
S'572 01'
p1805
asS'Volav\xc3\xa1 Lhota'
p1806
(lp1807
S'285 22'
p1808
asS'Vistdal'
p1809
(lp1810
S'6364'
p1811
aS'6364'
p1812
asS'Villnachern'
p1813
(lp1814
S'5213'
p1815
asS'Vranov'
p1816
(lp1817
S'257 22'
p1818
aS'538 25'
p1819
aS'664 32'
p1820
asS'Vaumarcus'
p1821
(lp1822
S'2028'
p1823
aS'2028'
p1824
asS'V\xc3\xa9troz'
p1825
(lp1826
S'1963'
p1827
aS'1963'
p1828
asS'Vilar De Santos'
p1829
(lp1830
S'32650'
p1831
aS'32650'
p1832
asS'Vod\xc5\x88ansk\xc3\xa9 Svobodn\xc3\xa9 Hory'
p1833
(lp1834
S'389 01'
p1835
asS'Vadillos'
p1836
(lp1837
S'26133'
p1838
asS'Vl\xc4\x8d\xc3\xad Doly'
p1839
(lp1840
S'768 33'
p1841
asS'Vojtanov'
p1842
(lp1843
S'351 34'
p1844
asS'Vern\xc3\xbd\xc5\x99ov'
p1845
(lp1846
S'284 01'
p1847
asS'Veli\xc5\xa1'
p1848
(lp1849
S'507 21'
p1850
asS'Vega De Pas'
p1851
(lp1852
S'39685'
p1853
aS'39685'
p1854
asS'Villeray Northeast'
p1855
(lp1856
S'H2E'
p1857
aS'H2E'
p1858
asS'Veru\xc5\xa1ice'
p1859
(lp1860
S'364 52'
p1861
asS'Velim'
p1862
(lp1863
S'403723'
p1864
aS'403723'
p1865
asS'Vitoria-Gasteiz'
p1866
(lp1867
S'01002'
p1868
aS'01004'
p1869
ag1869
aS'01008'
p1870
ag1870
aS'01010'
p1871
ag1871
aS'01080'
p1872
ag1872
aS'01240'
p1873
aS'01300'
p1874
aS'01307'
p1875
aS'01340'
p1876
aS'01470'
p1877
aS'01474'
p1878
aS'20002'
p1879
aS'20004'
p1880
aS'20006'
p1881
aS'20008'
p1882
aS'20010'
p1883
aS'20011'
p1884
aS'20013'
p1885
aS'20016'
p1886
aS'20018'
p1887
aS'20071'
p1888
aS'20100'
p1889
aS'20130'
p1890
aS'20159'
p1891
aS'20160'
p1892
aS'20170'
p1893
aS'20212'
p1894
aS'20214'
p1895
aS'20216'
p1896
aS'20230'
p1897
aS'20250'
p1898
aS'20268'
p1899
aS'20280'
p1900
aS'20300'
p1901
aS'20301'
p1902
aS'20304'
p1903
aS'20400'
p1904
aS'20500'
p1905
aS'20540'
p1906
aS'20550'
p1907
aS'20590'
p1908
aS'20690'
p1909
aS'20700'
p1910
aS'20709'
p1911
aS'20730'
p1912
aS'20737'
p1913
aS'20749'
p1914
aS'20750'
p1915
aS'20809'
p1916
aS'20820'
p1917
aS'20830'
p1918
aS'20850'
p1919
aS'20870'
p1920
aS'48004'
p1921
aS'48006'
p1922
aS'48007'
p1923
aS'48010'
p1924
aS'48012'
p1925
aS'48014'
p1926
aS'48100'
p1927
aS'48140'
p1928
aS'48160'
p1929
aS'48195'
p1930
aS'48196'
p1931
aS'48230'
p1932
aS'48240'
p1933
aS'48260'
p1934
aS'48269'
p1935
aS'48340'
p1936
aS'48370'
p1937
aS'48390'
p1938
aS'48450'
p1939
aS'48480'
p1940
aS'48500'
p1941
aS'48510'
p1942
aS'48530'
p1943
aS'48610'
p1944
aS'48620'
p1945
aS'48640'
p1946
aS'48840'
p1947
aS'48901'
p1948
aS'48902'
p1949
aS'48910'
p1950
aS'48940'
p1951
aS'48950'
p1952
aS'48960'
p1953
aS'48993'
p1954
aS'01010'
p1955
ag1955
aS'48004'
p1956
aS'20160'
p1957
aS'20500'
p1958
aS'20590'
p1959
aS'20730'
p1960
aS'20870'
p1961
aS'48003'
p1962
aS'48007'
p1963
aS'48010'
p1964
aS'48012'
p1965
aS'48014'
p1966
aS'48150'
p1967
aS'48940'
p1968
aS'01005'
p1969
ag1969
aS'01008'
p1970
ag1970
aS'20018'
p1971
aS'20120'
p1972
aS'20280'
p1973
aS'20500'
p1974
aS'48006'
p1975
aS'48160'
p1976
aS'48902'
p1977
aS'48950'
p1978
aS'01002'
p1979
ag1979
aS'01004'
p1980
ag1980
aS'01009'
p1981
ag1981
aS'01013'
p1982
ag1982
aS'01300'
p1983
aS'20002'
p1984
aS'20004'
p1985
aS'20006'
p1986
aS'20008'
p1987
aS'20011'
p1988
aS'20100'
p1989
aS'20110'
p1990
aS'20130'
p1991
aS'20170'
p1992
aS'20540'
p1993
aS'20690'
p1994
aS'20750'
p1995
aS'20830'
p1996
aS'48100'
p1997
aS'48260'
p1998
aS'48370'
p1999
aS'48901'
p2000
aS'48910'
p2001
aS'48960'
p2002
aS'01080'
p2003
ag2003
aS'01470'
p2004
aS'20010'
p2005
aS'20013'
p2006
aS'20230'
p2007
aS'20550'
p2008
aS'20820'
p2009
aS'48230'
p2010
aS'48480'
p2011
aS'48510'
p2012
aS'48610'
p2013
aS'48993'
p2014
aS'01240'
p2015
aS'01340'
p2016
aS'20016'
p2017
aS'20071'
p2018
aS'20110'
p2019
aS'20159'
p2020
aS'20212'
p2021
aS'20214'
p2022
aS'20216'
p2023
aS'20250'
p2024
aS'20268'
p2025
aS'20300'
p2026
aS'20304'
p2027
aS'20400'
p2028
aS'20700'
p2029
aS'20737'
p2030
aS'20749'
p2031
aS'20809'
p2032
aS'20850'
p2033
aS'48140'
p2034
aS'48196'
p2035
aS'48240'
p2036
aS'48269'
p2037
aS'48340'
p2038
aS'48390'
p2039
aS'48450'
p2040
aS'48500'
p2041
aS'48530'
p2042
aS'48620'
p2043
aS'48640'
p2044
aS'48840'
p2045
aS'48950'
p2046
aS'01307'
p2047
aS'01474'
p2048
aS'20159'
p2049
aS'20214'
p2050
aS'20249'
p2051
aS'20301'
p2052
aS'20709'
p2053
aS'48195'
p2054
asS'Vernal'
p2055
(lp2056
S'84078'
p2057
aS'84078'
p2058
asS'Vas\xc3\xb6n'
p2059
(lp2060
S'7317'
p2061
asS'Velk\xc3\xa1 \xc4\x8cermn\xc3\xa1'
p2062
(lp2063
S'517 25'
p2064
asS'V\xc5\xa1enice'
p2065
(lp2066
S'338 24'
p2067
asS'Vysok\xc3\xa1 Pec'
p2068
(lp2069
S'431 59'
p2070
asS'V\xc3\xa5lberg'
p2071
(lp2072
g1489
ag1574
asS'Villava'
p2073
(lp2074
S'31610'
p2075
aS'31610'
p2076
asS'Vikhammer'
p2077
(lp2078
S'7560'
p2079
aS'7560'
p2080
asS'Vysokov'
p2081
(lp2082
S'549 12'
p2083
asS'Vinstra'
p2084
(lp2085
S'2639'
p2086
asS'Velk\xc3\xbd \xc3\x9ajezd'
p2087
(lp2088
S'783 55'
p2089
asS'V\xc3\xadcemily'
p2090
(lp2091
S'384 21'
p2092
asS'Vlask\xc3\xa9'
p2093
(lp2094
S'788 33'
p2095
asS'Vadavathoor'
p2096
(lp2097
S'686010'
p2098
aS'686010'
p2099
asS'Varlungo'
p2100
(lp2101
S'50136'
p2102
aS'50136'
p2103
asS'Villar De Rena'
p2104
(lp2105
S'06716'
p2106
aS'06716'
p2107
asS'Veierland'
p2108
(lp2109
g112
asS'Viguera'
p2110
(lp2111
S'26121'
p2112
asS'Vuissens'
p2113
(lp2114
S'1486'
p2115
aS'1486'
p2116
asS'V\xc3\xadtanovice'
p2117
(lp2118
S'391 43'
p2119
asS'V\xc5\xa1echromy'
p2120
(lp2121
S'251 63'
p2122
asS'Veszpr\xc3\xa9mvars\xc3\xa1ny'
p2123
(lp2124
S'8438'
p2125
aS'8438'
p2126
asS'Volev\xc4\x8dice'
p2127
(lp2128
S'434 01'
p2129
aS'588 56'
p2130
asS'Vinayak Bazar'
p2131
(lp2132
S'180001'
p2133
asS'V\xc3\xa1cszentl\xc3\xa1szl\xc3\xb3'
p2134
(lp2135
S'2115'
p2136
aS'2115'
p2137
asS'Vahane\xc4\x8d'
p2138
(lp2139
S'364 52'
p2140
asS'Vac\xc3\xadkov'
p2141
(lp2142
S'262 42'
p2143
asS'Vijayanagar North'
p2144
(lp2145
S'560079'
p2146
aS'560079'
p2147
asS'Vorderhainbach'
p2148
(lp2149
S'1140'
p2150
asS'Vysok\xc3\xa9 T\xc5\x99ebu\xc5\xa1ice'
p2151
(lp2152
S'441 01'
p2153
asS'Villarta De San Juan'
p2154
(lp2155
S'13210'
p2156
aS'13210'
p2157
asS'Vok\xc5\xa1ice'
p2158
(lp2159
S'506 01'
p2160
asS'Vannareid'
p2161
(lp2162
S'9136'
p2163
aS'9136'
p2164
asS'Vele\xc5\xa1\xc3\xadn'
p2165
(lp2166
S'382 32'
p2167
asS'Valdelacalzada'
p2168
(lp2169
S'06185'
p2170
aS'06185'
p2171
asS'Valls'
p2172
(lp2173
S'43800'
p2174
aS'43800'
p2175
asS'Villaverde'
p2176
(lp2177
S'35640'
p2178
aS'35640'
p2179
asS'V\xc3\xadchovsk\xc3\xa1 Lhota'
p2180
(lp2181
S'514 01'
p2182
asS'Veltrusy'
p2183
(lp2184
S'277 46'
p2185
asS'Vlady\xc4\x8d\xc3\xadn'
p2186
(lp2187
S'399 01'
p2188
asS'Viana do Castelo'
p2189
(lp2190
S'4900-001'
p2191
ag2191
aS'4900-003'
p2192
ag2192
aS'4900-005'
p2193
ag2193
aS'4900-007'
p2194
ag2194
aS'4900-009'
p2195
ag2195
aS'4900-011'
p2196
aS'4900-013'
p2197
ag2197
aS'4900-015'
p2198
ag2198
aS'4900-017'
p2199
ag2199
aS'4900-019'
p2200
ag2200
aS'4900-021'
p2201
ag2201
aS'4900-023'
p2202
aS'4900-025'
p2203
aS'4900-027'
p2204
aS'4900-029'
p2205
aS'4900-031'
p2206
aS'4900-033'
p2207
ag2207
aS'4900-035'
p2208
ag2208
aS'4900-037'
p2209
ag2209
aS'4900-039'
p2210
ag2210
aS'4900-041'
p2211
ag2211
aS'4900-043'
p2212
ag2212
aS'4900-045'
p2213
ag2213
aS'4900-047'
p2214
ag2214
aS'4900-049'
p2215
ag2215
aS'4900-051'
p2216
ag2216
aS'4900-053'
p2217
ag2217
aS'4900-055'
p2218
ag2218
aS'4900-057'
p2219
ag2219
aS'4900-059'
p2220
aS'4900-061'
p2221
aS'4900-063'
p2222
aS'4900-065'
p2223
aS'4900-067'
p2224
aS'4900-201'
p2225
ag2225
aS'4900-204'
p2226
ag2226
aS'4900-214'
p2227
ag2227
aS'4900-216'
p2228
ag2228
aS'4900-218'
p2229
ag2229
aS'4900-221'
p2230
ag2230
aS'4900-223'
p2231
ag2231
aS'4900-226'
p2232
ag2232
aS'4900-228'
p2233
ag2233
aS'4900-259'
p2234
ag2234
aS'4900-261'
p2235
ag2235
aS'4900-263'
p2236
ag2236
aS'4900-265'
p2237
ag2237
aS'4900-267'
p2238
ag2238
aS'4900-269'
p2239
ag2239
aS'4900-278'
p2240
aS'4900-280'
p2241
aS'4900-282'
p2242
ag2242
aS'4900-284'
p2243
ag2243
aS'4900-286'
p2244
ag2244
aS'4900-288'
p2245
ag2245
aS'4900-290'
p2246
ag2246
aS'4900-292'
p2247
ag2247
aS'4900-294'
p2248
ag2248
aS'4900-296'
p2249
ag2249
aS'4900-298'
p2250
ag2250
aS'4900-300'
p2251
ag2251
aS'4900-302'
p2252
ag2252
aS'4900-304'
p2253
ag2253
aS'4900-306'
p2254
ag2254
aS'4900-308'
p2255
ag2255
aS'4900-310'
p2256
ag2256
aS'4900-312'
p2257
ag2257
aS'4900-314'
p2258
ag2258
aS'4900-316'
p2259
ag2259
aS'4900-318'
p2260
ag2260
aS'4900-320'
p2261
ag2261
aS'4900-322'
p2262
ag2262
aS'4900-324'
p2263
ag2263
aS'4900-326'
p2264
ag2264
aS'4900-328'
p2265
ag2265
aS'4900-330'
p2266
ag2266
aS'4900-332'
p2267
ag2267
aS'4900-334'
p2268
ag2268
aS'4900-336'
p2269
ag2269
aS'4900-338'
p2270
ag2270
aS'4900-340'
p2271
ag2271
aS'4900-342'
p2272
ag2272
aS'4900-344'
p2273
ag2273
aS'4900-346'
p2274
ag2274
aS'4900-348'
p2275
ag2275
aS'4900-350'
p2276
ag2276
aS'4900-352'
p2277
ag2277
aS'4900-354'
p2278
ag2278
aS'4900-356'
p2279
ag2279
aS'4900-358'
p2280
ag2280
aS'4900-360'
p2281
ag2281
aS'4900-362'
p2282
ag2282
aS'4900-364'
p2283
ag2283
aS'4900-366'
p2284
ag2284
aS'4900-368'
p2285
ag2285
aS'4900-370'
p2286
ag2286
aS'4900-372'
p2287
ag2287
aS'4900-374'
p2288
ag2288
aS'4900-376'
p2289
ag2289
aS'4900-378'
p2290
ag2290
aS'4900-001'
p2291
ag2291
aS'4900-003'
p2292
ag2292
aS'4900-005'
p2293
ag2293
aS'4900-007'
p2294
ag2294
aS'4900-009'
p2295
ag2295
aS'4900-011'
p2296
aS'4900-013'
p2297
ag2297
aS'4900-015'
p2298
ag2298
aS'4900-017'
p2299
ag2299
aS'4900-019'
p2300
ag2300
aS'4900-021'
p2301
ag2301
aS'4900-023'
p2302
aS'4900-025'
p2303
aS'4900-027'
p2304
aS'4900-029'
p2305
aS'4900-031'
p2306
aS'4900-033'
p2307
ag2307
aS'4900-035'
p2308
ag2308
aS'4900-037'
p2309
ag2309
aS'4900-039'
p2310
ag2310
aS'4900-041'
p2311
ag2311
aS'4900-043'
p2312
ag2312
aS'4900-045'
p2313
ag2313
aS'4900-047'
p2314
ag2314
aS'4900-049'
p2315
ag2315
aS'4900-051'
p2316
ag2316
aS'4900-053'
p2317
ag2317
aS'4900-055'
p2318
ag2318
aS'4900-057'
p2319
ag2319
aS'4900-059'
p2320
aS'4900-061'
p2321
aS'4900-063'
p2322
aS'4900-065'
p2323
aS'4900-067'
p2324
aS'4900-201'
p2325
ag2325
aS'4900-204'
p2326
ag2326
aS'4900-214'
p2327
ag2327
aS'4900-216'
p2328
ag2328
aS'4900-218'
p2329
ag2329
aS'4900-221'
p2330
ag2330
aS'4900-223'
p2331
ag2331
aS'4900-226'
p2332
ag2332
aS'4900-228'
p2333
ag2333
aS'4900-259'
p2334
ag2334
aS'4900-261'
p2335
ag2335
aS'4900-263'
p2336
ag2336
aS'4900-265'
p2337
ag2337
aS'4900-267'
p2338
ag2338
aS'4900-269'
p2339
ag2339
aS'4900-278'
p2340
aS'4900-280'
p2341
aS'4900-282'
p2342
ag2342
aS'4900-284'
p2343
ag2343
aS'4900-286'
p2344
ag2344
aS'4900-288'
p2345
ag2345
aS'4900-290'
p2346
ag2346
aS'4900-292'
p2347
ag2347
aS'4900-294'
p2348
ag2348
aS'4900-296'
p2349
ag2349
aS'4900-298'
p2350
ag2350
aS'4900-300'
p2351
ag2351
aS'4900-302'
p2352
ag2352
aS'4900-304'
p2353
ag2353
aS'4900-306'
p2354
ag2354
aS'4900-308'
p2355
ag2355
aS'4900-310'
p2356
ag2356
aS'4900-312'
p2357
ag2357
aS'4900-314'
p2358
ag2358
aS'4900-316'
p2359
ag2359
aS'4900-318'
p2360
ag2360
aS'4900-320'
p2361
ag2361
aS'4900-322'
p2362
ag2362
aS'4900-324'
p2363
ag2363
aS'4900-326'
p2364
ag2364
aS'4900-328'
p2365
ag2365
aS'4900-330'
p2366
ag2366
aS'4900-332'
p2367
ag2367
aS'4900-334'
p2368
ag2368
aS'4900-336'
p2369
ag2369
aS'4900-338'
p2370
ag2370
aS'4900-340'
p2371
ag2371
aS'4900-342'
p2372
ag2372
aS'4900-344'
p2373
ag2373
aS'4900-346'
p2374
ag2374
aS'4900-348'
p2375
ag2375
aS'4900-350'
p2376
ag2376
aS'4900-352'
p2377
ag2377
aS'4900-354'
p2378
ag2378
aS'4900-356'
p2379
ag2379
aS'4900-358'
p2380
ag2380
aS'4900-360'
p2381
ag2381
aS'4900-362'
p2382
ag2382
aS'4900-364'
p2383
ag2383
aS'4900-366'
p2384
ag2384
aS'4900-368'
p2385
ag2385
aS'4900-370'
p2386
ag2386
aS'4900-372'
p2387
ag2387
aS'4900-374'
p2388
ag2388
aS'4900-376'
p2389
ag2389
aS'4900-378'
p2390
ag2390
asS'Vojn\xc3\xadkov'
p2391
(lp2392
S'397 01'
p2393
asS'Vale de Gavi\xc3\xb5es'
p2394
(lp2395
S'6040-079'
p2396
aS'6040-079'
p2397
asS'Velas'
p2398
(lp2399
S'9800-522'
p2400
aS'9800-524'
p2401
aS'9800-526'
p2402
aS'9800-528'
p2403
aS'9800-530'
p2404
aS'9800-532'
p2405
aS'9800-534'
p2406
aS'9800-536'
p2407
aS'9800-538'
p2408
aS'9800-540'
p2409
aS'9800-542'
p2410
aS'9800-544'
p2411
aS'9800-546'
p2412
aS'9800-548'
p2413
aS'9800-550'
p2414
aS'9800-552'
p2415
aS'9800-554'
p2416
aS'9800-556'
p2417
aS'9800-558'
p2418
aS'9800-560'
p2419
aS'9800-999'
p2420
aS'9800-522'
p2421
aS'9800-524'
p2422
aS'9800-526'
p2423
aS'9800-528'
p2424
aS'9800-530'
p2425
aS'9800-532'
p2426
aS'9800-534'
p2427
aS'9800-536'
p2428
aS'9800-538'
p2429
aS'9800-540'
p2430
aS'9800-542'
p2431
aS'9800-544'
p2432
aS'9800-546'
p2433
aS'9800-548'
p2434
aS'9800-550'
p2435
aS'9800-552'
p2436
aS'9800-554'
p2437
aS'9800-556'
p2438
aS'9800-558'
p2439
aS'9800-560'
p2440
aS'9800-999'
p2441
asS'Vitinka'
p2442
(lp2443
S'338 24'
p2444
asS'Vancouver (West Kitsilano / Jericho)'
p2445
(lp2446
S'V6R'
p2447
aS'V6R'
p2448
asS'Vrat\xc4\x9bn\xc3\xadn'
p2449
(lp2450
S'671 07'
p2451
asS'Velden am W\xe2\x88\x9a\xe2\x88\x82rther See'
p2452
(lp2453
S'9220'
p2454
asS'Vasasszonyfa'
p2455
(lp2456
g1314
ag1402
asS'Vidnava'
p2457
(lp2458
S'790 55'
p2459
asS'Vlastibo\xc5\x99'
p2460
(lp2461
S'468 22'
p2462
asS'Valdilecha'
p2463
(lp2464
S'28511'
p2465
aS'28511'
p2466
asS'V\xc3\xa4ster\xc3\xa5s'
p2467
(lp2468
S'72018'
p2469
aS'72019'
p2470
aS'72106'
p2471
aS'72107'
p2472
aS'72109'
p2473
aS'72122'
p2474
aS'72123'
p2475
aS'72130'
p2476
aS'72132'
p2477
aS'72134'
p2478
aS'72136'
p2479
aS'72137'
p2480
aS'72138'
p2481
aS'72178'
p2482
aS'72189'
p2483
aS'72215'
p2484
aS'72216'
p2485
aS'72219'
p2486
aS'72220'
p2487
aS'72222'
p2488
aS'72223'
p2489
aS'72226'
p2490
aS'72231'
p2491
aS'72241'
p2492
aS'72244'
p2493
aS'72246'
p2494
aS'72338'
p2495
aS'72339'
p2496
aS'72343'
p2497
aS'72344'
p2498
aS'72348'
p2499
aS'72350'
p2500
aS'72352'
p2501
aS'72460'
p2502
aS'72461'
p2503
aS'72464'
p2504
aS'72466'
p2505
aS'72467'
p2506
aS'72468'
p2507
aS'72474'
p2508
aS'72475'
p2509
aS'72480'
p2510
aS'72481'
p2511
aS'72591'
p2512
aS'72597'
p2513
aS'72134'
p2514
aS'72223'
p2515
aS'72226'
p2516
aS'72130'
p2517
aS'72137'
p2518
aS'72215'
p2519
aS'72244'
p2520
aS'72591'
p2521
aS'72018'
p2522
aS'72132'
p2523
aS'72344'
p2524
aS'72460'
p2525
aS'72019'
p2526
aS'72109'
p2527
aS'72123'
p2528
aS'72138'
p2529
aS'72211'
p2530
aS'72216'
p2531
aS'72219'
p2532
aS'72241'
p2533
aS'72246'
p2534
aS'72339'
p2535
aS'72348'
p2536
aS'72461'
p2537
aS'72464'
p2538
aS'72468'
p2539
aS'72475'
p2540
aS'72481'
p2541
aS'72597'
p2542
aS'72107'
p2543
aS'72189'
p2544
aS'72222'
p2545
aS'72231'
p2546
aS'72352'
p2547
aS'72466'
p2548
aS'72480'
p2549
aS'72002'
p2550
aS'72106'
p2551
aS'72122'
p2552
aS'72136'
p2553
aS'72178'
p2554
aS'72220'
p2555
aS'72338'
p2556
aS'72343'
p2557
aS'72350'
p2558
aS'72467'
p2559
aS'72474'
p2560
asS'V\xc3\xa9rtessz\xc5\x91l\xc5\x91s'
p2561
(lp2562
S'2837'
p2563
asS'Vinjesvingen'
p2564
(lp2565
S'3893'
p2566
aS'3893'
p2567
asS'Valestrandsfossen'
p2568
(lp2569
S'5281'
p2570
aS'5281'
p2571
asS'Villanueva De La Serena'
p2572
(lp2573
S'06700'
p2574
aS'06700'
p2575
asS'Villajoyosa'
p2576
(lp2577
S'03570'
p2578
aS'03570'
p2579
asS'Vrkoslavice'
p2580
(lp2581
S'466 06'
p2582
asS'Veytaux'
p2583
(lp2584
S'1820'
p2585
asS'V\xc3\xadska pod Lesy'
p2586
(lp2587
g512
asS'V\xc3\xa4rnamo'
p2588
(lp2589
S'33122'
p2590
aS'33135'
p2591
aS'33141'
p2592
aS'33143'
p2593
aS'33195'
p2594
aS'33130'
p2595
aS'33122'
p2596
aS'33125'
p2597
aS'33135'
p2598
aS'33141'
p2599
aS'33143'
p2600
aS'33195'
p2601
asS'Vercelli'
p2602
(lp2603
S'13100'
p2604
asS'Varangerbotn'
p2605
(lp2606
S'9820'
p2607
aS'9820'
p2608
asS'Velk\xc3\xa1-Hranice III x)'
p2609
(lp2610
S'753 01'
p2611
asS'Vernonia'
p2612
(lp2613
S'97064'
p2614
aS'97064'
p2615
asS'Vikletice'
p2616
(lp2617
S'438 01'
p2618
asS'Villares De La Reina'
p2619
(lp2620
S'37184'
p2621
aS'37184'
p2622
asS'Vr\xc3\xa1t'
p2623
(lp2624
S'468 22'
p2625
asS'Villingen-Schwenningen'
p2626
(lp2627
S'78050'
p2628
aS'78056'
p2629
aS'78056'
p2630
asS'Vasalja'
p2631
(lp2632
g1343
ag1431
asS'Vimmerby'
p2633
(lp2634
S'59823'
p2635
aS'59837'
p2636
aS'59840'
p2637
aS'59894'
p2638
aS'59895'
p2639
aS'59840'
p2640
aS'59837'
p2641
aS'59895'
p2642
aS'59823'
p2643
aS'59894'
p2644
asS'Vejer De La Frontera'
p2645
(lp2646
S'11150'
p2647
aS'11150'
p2648
asS'Vido\xc5\x88'
p2649
(lp2650
S'507 71'
p2651
asS'Velk\xc3\xa9 P\xc5\x99\xc3\xadto\xc4\x8dno'
p2652
(lp2653
S'273 51'
p2654
asS'Vyskytn\xc3\xa1'
p2655
(lp2656
S'394 05'
p2657
asS'Valverde Del Hierro'
p2658
(lp2659
S'38900'
p2660
aS'38900'
p2661
asS'Vi\xc5\xbe\xc5\x88ov'
p2662
(lp2663
S'549 83'
p2664
asS'Vila Real'
p2665
(lp2666
S'4870-011'
p2667
aS'4870-013'
p2668
aS'4870-022'
p2669
aS'4870-024'
p2670
aS'4870-031'
p2671
aS'4870-033'
p2672
aS'4870-036'
p2673
aS'4870-038'
p2674
aS'4870-039'
p2675
aS'4870-040'
p2676
aS'4870-042'
p2677
aS'4870-044'
p2678
aS'4870-046'
p2679
aS'4870-049'
p2680
aS'4870-051'
p2681
aS'4870-054'
p2682
aS'4870-056'
p2683
aS'4870-058'
p2684
aS'4870-071'
p2685
aS'4870-072'
p2686
aS'4870-074'
p2687
aS'4870-077'
p2688
aS'4870-079'
p2689
aS'4870-081'
p2690
aS'4870-101'
p2691
aS'4870-103'
p2692
aS'4870-106'
p2693
aS'4870-107'
p2694
aS'4870-109'
p2695
aS'4870-111'
p2696
aS'4870-113'
p2697
aS'4870-115'
p2698
aS'4870-116'
p2699
aS'4870-118'
p2700
aS'4870-122'
p2701
aS'4870-124'
p2702
aS'4870-125'
p2703
aS'4870-126'
p2704
aS'4870-129'
p2705
aS'4870-130'
p2706
aS'4870-133'
p2707
aS'4870-135'
p2708
aS'4870-151'
p2709
aS'4870-153'
p2710
aS'4870-155'
p2711
aS'4870-157'
p2712
aS'4870-159'
p2713
aS'4870-161'
p2714
aS'4870-163'
p2715
aS'4870-182'
p2716
aS'4870-184'
p2717
aS'4870-185'
p2718
aS'4870-187'
p2719
aS'4870-201'
p2720
aS'4870-203'
p2721
aS'4870-205'
p2722
aS'4870-207'
p2723
aS'4870-209'
p2724
aS'4870-211'
p2725
aS'4870-213'
p2726
aS'4870-215'
p2727
aS'4870-217'
p2728
aS'4870-219'
p2729
aS'4870-221'
p2730
aS'4870-223'
p2731
aS'4870-225'
p2732
aS'4870-252'
p2733
aS'4870-999'
p2734
aS'4880-012'
p2735
aS'4880-014'
p2736
aS'4880-016'
p2737
aS'4880-018'
p2738
aS'4880-020'
p2739
aS'4880-022'
p2740
aS'4880-024'
p2741
aS'4880-026'
p2742
aS'4880-028'
p2743
aS'4880-030'
p2744
aS'4880-032'
p2745
aS'4880-034'
p2746
aS'4880-036'
p2747
aS'4880-038'
p2748
aS'4880-040'
p2749
aS'4880-042'
p2750
aS'4880-044'
p2751
aS'4880-046'
p2752
aS'4880-048'
p2753
aS'4880-050'
p2754
aS'4880-052'
p2755
aS'4880-054'
p2756
aS'4880-056'
p2757
ag1464
aS'4880-071'
p2758
aS'4880-073'
p2759
aS'4880-075'
p2760
aS'4880-077'
p2761
aS'4880-079'
p2762
aS'4880-081'
p2763
aS'4880-083'
p2764
aS'4880-085'
p2765
aS'4870-011'
p2766
ag2766
aS'4870-013'
p2767
aS'4870-022'
p2768
aS'4870-024'
p2769
aS'4870-031'
p2770
aS'4870-033'
p2771
aS'4870-036'
p2772
aS'4870-038'
p2773
aS'4870-039'
p2774
aS'4870-040'
p2775
aS'4870-042'
p2776
aS'4870-044'
p2777
aS'4870-046'
p2778
aS'4870-049'
p2779
aS'4870-051'
p2780
aS'4870-054'
p2781
aS'4870-056'
p2782
aS'4870-058'
p2783
aS'4870-071'
p2784
aS'4870-072'
p2785
aS'4870-074'
p2786
aS'4870-077'
p2787
aS'4870-079'
p2788
aS'4870-081'
p2789
aS'4870-101'
p2790
aS'4870-103'
p2791
aS'4870-106'
p2792
aS'4870-107'
p2793
aS'4870-109'
p2794
aS'4870-111'
p2795
aS'4870-113'
p2796
aS'4870-115'
p2797
aS'4870-116'
p2798
aS'4870-118'
p2799
aS'4870-122'
p2800
aS'4870-124'
p2801
aS'4870-125'
p2802
aS'4870-126'
p2803
aS'4870-129'
p2804
aS'4870-130'
p2805
aS'4870-133'
p2806
aS'4870-135'
p2807
aS'4870-151'
p2808
aS'4870-153'
p2809
aS'4870-155'
p2810
aS'4870-157'
p2811
aS'4870-159'
p2812
aS'4870-161'
p2813
aS'4870-163'
p2814
aS'4870-182'
p2815
aS'4870-184'
p2816
aS'4870-185'
p2817
aS'4870-187'
p2818
aS'4870-201'
p2819
aS'4870-203'
p2820
aS'4870-205'
p2821
aS'4870-207'
p2822
aS'4870-209'
p2823
aS'4870-211'
p2824
aS'4870-213'
p2825
aS'4870-215'
p2826
aS'4870-217'
p2827
aS'4870-219'
p2828
aS'4870-221'
p2829
aS'4870-223'
p2830
aS'4870-225'
p2831
aS'4870-252'
p2832
aS'4870-999'
p2833
aS'4880-012'
p2834
aS'4880-014'
p2835
aS'4880-016'
p2836
aS'4880-018'
p2837
aS'4880-020'
p2838
aS'4880-022'
p2839
aS'4880-024'
p2840
aS'4880-026'
p2841
aS'4880-028'
p2842
aS'4880-030'
p2843
aS'4880-032'
p2844
aS'4880-034'
p2845
aS'4880-036'
p2846
aS'4880-038'
p2847
aS'4880-040'
p2848
aS'4880-042'
p2849
aS'4880-044'
p2850
aS'4880-046'
p2851
aS'4880-048'
p2852
aS'4880-050'
p2853
aS'4880-052'
p2854
aS'4880-054'
p2855
aS'4880-056'
p2856
ag1465
aS'4880-071'
p2857
aS'4880-073'
p2858
aS'4880-075'
p2859
aS'4880-077'
p2860
aS'4880-079'
p2861
aS'4880-081'
p2862
aS'4880-083'
p2863
aS'4880-085'
p2864
asS'Vyso\xc4\x8dany (\xc4\x8d\xc3\xa1st)'
p2865
(lp2866
S'130 00'
p2867
asS'Vest-Agder'
p2868
(lp2869
S'4551'
p2870
aS'4401'
p2871
aS'4514'
p2872
aS'4550'
p2873
ag2873
aS'4604'
p2874
ag409
aS'4515'
p2875
aS'4560'
p2876
aS'4610'
p2877
aS'4440'
p2878
aS'4501'
p2879
aS'4516'
p2880
aS'4521'
p2881
aS'4525'
p2882
aS'4596'
p2883
aS'4612'
p2884
aS'4619'
p2885
aS'4623'
p2886
aS'4626'
p2887
aS'4630'
p2888
aS'4632'
p2889
aS'4635'
p2890
aS'4638'
p2891
aS'4647'
p2892
aS'4662'
p2893
aS'4682'
p2894
aS'4432'
p2895
aS'4473'
p2896
aS'4485'
p2897
aS'4503'
p2898
aS'4529'
p2899
aS'4552'
p2900
ag2900
aS'4576'
p2901
aS'4586'
p2902
aS'4595'
p2903
aS'4613'
p2904
aS'4617'
p2905
aS'4620'
p2906
aS'4625'
p2907
aS'4634'
p2908
aS'4639'
p2909
aS'4656'
p2910
aS'4664'
p2911
aS'4671'
p2912
aS'4683'
p2913
aS'4687'
p2914
aS'4699'
p2915
ag410
aS'4436'
p2916
aS'4505'
p2917
aS'4536'
p2918
aS'4557'
p2919
aS'4651'
p2920
aS'4491'
p2921
aS'4588'
p2922
aS'4657'
p2923
aS'4673'
p2924
aS'4544'
p2925
aS'4674'
p2926
aS'4678'
p2927
ag411
aS'4403'
p2928
aS'4492'
p2929
aS'4512'
p2930
aS'4677'
p2931
aS'4608'
p2932
aS'4686'
p2933
aS'4697'
p2934
aS'4672'
p2935
aS'4401'
p2936
aS'4403'
p2937
aS'4432'
p2938
aS'4436'
p2939
aS'4473'
p2940
aS'4485'
p2941
aS'4491'
p2942
aS'4501'
p2943
aS'4503'
p2944
aS'4505'
p2945
aS'4521'
p2946
aS'4525'
p2947
aS'4529'
p2948
aS'4536'
p2949
aS'4544'
p2950
aS'4550'
p2951
ag2951
aS'4551'
p2952
ag2952
aS'4557'
p2953
aS'4560'
p2954
aS'4576'
p2955
aS'4586'
p2956
aS'4588'
p2957
aS'4595'
p2958
aS'4596'
p2959
aS'4604'
p2960
aS'4608'
p2961
aS'4610'
p2962
aS'4612'
p2963
aS'4613'
p2964
aS'4617'
p2965
aS'4619'
p2966
aS'4625'
p2967
aS'4626'
p2968
aS'4630'
p2969
aS'4632'
p2970
aS'4634'
p2971
aS'4635'
p2972
aS'4638'
p2973
aS'4639'
p2974
aS'4647'
p2975
aS'4651'
p2976
aS'4656'
p2977
aS'4662'
p2978
aS'4664'
p2979
aS'4671'
p2980
aS'4672'
p2981
aS'4674'
p2982
aS'4677'
p2983
aS'4678'
p2984
aS'4682'
p2985
aS'4683'
p2986
aS'4686'
p2987
aS'4687'
p2988
aS'4697'
p2989
aS'4699'
p2990
ag412
ag413
asS'Ving\xc3\xa5ker'
p2991
(lp2992
S'64330'
p2993
aS'64332'
p2994
aS'64333'
p2995
aS'64393'
p2996
aS'64330'
p2997
aS'64332'
p2998
aS'64393'
p2999
aS'64333'
p3000
asS'Vikbolandet'
p3001
(lp3002
S'61028'
p3003
aS'61033'
p3004
aS'61028'
p3005
aS'61033'
p3006
asS'V P Road Police Station'
p3007
(lp3008
S'400004'
p3009
asS'Vl\xc4\x8dat\xc3\xadn'
p3010
(lp3011
S'675 05'
p3012
asS'Villanueva De Los Infantes'
p3013
(lp3014
S'13320'
p3015
aS'13320'
p3016
asS'Villarrubia De Los Ojos'
p3017
(lp3018
S'13670'
p3019
aS'13670'
p3020
asS'Vijainagar'
p3021
(lp3022
S'208005'
p3023
aS'208005'
p3024
asS'Valais'
p3025
(lp3026
S'1870'
p3027
aS'1872'
p3028
aS'1873'
p3029
aS'1874'
p3030
aS'1895'
p3031
aS'1897'
p3032
aS'1899'
p3033
ag344
aS'1905'
p3034
aS'1908'
p3035
aS'1912'
p3036
aS'1920'
p3037
aS'1921'
p3038
aS'1922'
p3039
aS'1925'
p3040
aS'1932'
p3041
aS'1934'
p3042
aS'1936'
p3043
aS'1937'
p3044
aS'1941'
p3045
aS'1945'
p3046
aS'1946'
p3047
aS'1948'
p3048
aS'1957'
p3049
aS'1958'
p3050
ag1827
aS'1966'
p3051
aS'1968'
p3052
aS'1971'
p3053
aS'1973'
p3054
aS'1977'
p3055
aS'1978'
p3056
aS'1982'
p3057
aS'1983'
p3058
aS'1986'
p3059
aS'1988'
p3060
aS'1992'
p3061
aS'1993'
p3062
aS'1996'
p3063
aS'1997'
p3064
aS'3900'
p3065
aS'3904'
p3066
aS'3905'
p3067
aS'3914'
p3068
aS'3920'
p3069
aS'3922'
p3070
aS'3925'
p3071
aS'3926'
p3072
aS'3930'
p3073
aS'3934'
p3074
aS'3935'
p3075
aS'3939'
p3076
aS'3940'
p3077
aS'3942'
p3078
aS'3946'
p3079
aS'3953'
p3080
aS'3954'
p3081
aS'3957'
p3082
aS'3960'
p3083
aS'3961'
p3084
aS'3963'
p3085
aS'3966'
p3086
aS'3968'
p3087
aS'3971'
p3088
aS'3975'
p3089
aS'3976'
p3090
aS'3978'
p3091
aS'3983'
p3092
aS'3984'
p3093
aS'3986'
p3094
aS'3989'
p3095
aS'3991'
p3096
aS'3992'
p3097
aS'3995'
p3098
aS'3996'
p3099
aS'1870'
p3100
ag3100
aS'1950'
p3101
aS'3900'
p3102
aS'3920'
p3103
aS'3960'
p3104
aS'1936'
p3105
aS'3904'
p3106
aS'3925'
p3107
aS'3954'
p3108
aS'3984'
p3109
aS'3992'
p3110
aS'1890'
p3111
ag1828
aS'1997'
p3112
aS'3905'
p3113
aS'3934'
p3114
aS'3961'
p3115
aS'3995'
p3116
aS'1872'
p3117
aS'1874'
p3118
aS'1895'
p3119
aS'1897'
p3120
ag345
aS'1908'
p3121
aS'1912'
p3122
aS'1921'
p3123
aS'1937'
p3124
aS'1950'
p3125
aS'1957'
p3126
aS'1966'
p3127
aS'1971'
p3128
aS'1973'
p3129
aS'1978'
p3130
aS'1983'
p3131
aS'1986'
p3132
aS'1993'
p3133
aS'3900'
p3134
aS'3903'
p3135
aS'3911'
p3136
aS'3914'
p3137
aS'3917'
p3138
aS'3926'
p3139
aS'3928'
p3140
aS'3932'
p3141
aS'3935'
p3142
aS'3939'
p3143
aS'3942'
p3144
aS'3946'
p3145
aS'3953'
p3146
aS'3953'
p3147
aS'3957'
p3148
aS'3961'
p3149
aS'3961'
p3150
aS'3963'
p3151
aS'3966'
p3152
aS'3971'
p3153
aS'3975'
p3154
aS'3983'
p3155
aS'3989'
p3156
aS'3994'
p3157
aS'3996'
p3158
aS'1905'
p3159
aS'1922'
p3160
aS'1925'
p3161
aS'1932'
p3162
aS'1945'
p3163
aS'1982'
p3164
aS'3917'
p3165
aS'3920'
p3166
aS'3946'
p3167
aS'3957'
p3168
aS'3983'
p3169
aS'3991'
p3170
aS'1870'
p3171
aS'1873'
p3172
aS'1897'
p3173
aS'1899'
p3174
aS'1920'
p3175
aS'1934'
p3176
aS'1941'
p3177
aS'1946'
p3178
aS'1948'
p3179
aS'1950'
p3180
aS'1958'
p3181
aS'1968'
p3182
aS'1977'
p3183
aS'1988'
p3184
aS'1992'
p3185
aS'1996'
p3186
aS'3903'
p3187
aS'3914'
p3188
aS'3922'
p3189
aS'3930'
p3190
aS'3940'
p3191
aS'3963'
p3192
aS'3968'
p3193
aS'3976'
p3194
aS'3978'
p3195
aS'3984'
p3196
aS'3986'
p3197
asS'Varhaug'
p3198
(lp3199
S'4360'
p3200
aS'4360'
p3201
asS'Vset\xc3\xadn'
p3202
(lp3203
S'755 01'
p3204
ag3204
aS'756 05'
p3205
aS'756 06'
p3206
aS'756 27'
p3207
aS'756 43'
p3208
aS'756 54'
p3209
aS'756 04'
p3210
aS'756 01'
p3211
aS'756 12'
p3212
aS'756 14'
p3213
aS'756 23'
p3214
aS'756 41'
p3215
aS'756 56'
p3216
aS'756 62'
p3217
ag933
aS'756 44'
p3218
aS'756 41'
p3219
aS'756 25'
p3220
aS'756 52'
p3221
aS'756 12'
p3222
aS'756 21'
p3223
aS'756 12'
p3224
aS'756 24'
p3225
aS'756 44'
p3226
aS'755 01'
p3227
aS'756 06'
p3228
aS'756 41'
p3229
aS'756 42'
p3230
aS'756 43'
p3231
aS'756 43'
p3232
aS'756 51'
p3233
aS'757 01'
p3234
aS'757 01'
p3235
aS'757 01'
p3236
aS'757 01'
p3237
aS'756 11'
p3238
aS'756 43'
p3239
aS'756 44'
p3240
aS'757 01'
p3241
aS'755 01'
p3242
aS'755 01'
p3243
aS'756 11'
p3244
aS'756 41'
p3245
aS'755 01'
p3246
aS'756 01'
p3247
aS'757 01'
p3248
asS'Vy\xc5\xbelovka'
p3249
(lp3250
S'281 63'
p3251
asS'Vl\xc3\xa1senice-Drbohlavy'
p3252
(lp3253
S'393 01'
p3254
asS'Villa San Giuseppe'
p3255
(lp3256
S'89135'
p3257
asS'Vancouver (West Mount Pleasant / West Riley Park- Little Mountain)'
p3258
(lp3259
S'V5Y'
p3260
aS'V5Y'
p3261
asS'Vystr\xc4\x8denovice'
p3262
(lp3263
S'588 56'
p3264
asS'V\xc3\xa4sternorrland'
p3265
(lp3266
S'84012'
p3267
aS'84197'
p3268
aS'85009'
p3269
aS'85102'
p3270
aS'85104'
p3271
aS'85122'
p3272
aS'85123'
p3273
aS'85124'
p3274
aS'85171'
p3275
aS'85186'
p3276
aS'85194'
p3277
aS'85230'
p3278
aS'85231'
p3279
aS'85238'
p3280
aS'85239'
p3281
aS'85353'
p3282
aS'85357'
p3283
aS'85463'
p3284
aS'85467'
p3285
aS'85590'
p3286
aS'85631'
p3287
aS'85633'
p3288
aS'85645'
p3289
aS'85651'
p3290
aS'85652'
p3291
aS'85653'
p3292
aS'85731'
p3293
aS'85735'
p3294
aS'85741'
p3295
aS'85750'
p3296
aS'85752'
p3297
aS'86013'
p3298
aS'86025'
p3299
aS'86032'
p3300
aS'86035'
p3301
aS'86133'
p3302
aS'86134'
p3303
aS'86202'
p3304
aS'86222'
p3305
aS'86233'
p3306
aS'86240'
p3307
aS'86322'
p3308
aS'86334'
p3309
aS'86421'
p3310
aS'86422'
p3311
aS'86521'
p3312
aS'86532'
p3313
aS'87030'
p3314
aS'87032'
p3315
aS'87127'
p3316
aS'87133'
p3317
aS'87142'
p3318
aS'87145'
p3319
aS'87161'
p3320
aS'87193'
p3321
aS'87232'
p3322
aS'87234'
p3323
aS'87296'
p3324
aS'87298'
p3325
aS'88030'
p3326
aS'88124'
p3327
aS'88130'
p3328
aS'88131'
p3329
aS'88135'
p3330
aS'88140'
p3331
aS'88192'
p3332
aS'88222'
p3333
aS'88291'
p3334
aS'89035'
p3335
aS'89037'
p3336
aS'89178'
p3337
aS'89195'
p3338
aS'89223'
p3339
aS'89234'
p3340
aS'89240'
p3341
aS'89331'
p3342
aS'89340'
p3343
aS'89391'
p3344
aS'89430'
p3345
aS'89495'
p3346
aS'85124'
p3347
aS'86035'
p3348
aS'84012'
p3349
ag3349
aS'85633'
p3350
aS'87032'
p3351
aS'88140'
p3352
aS'85230'
p3353
aS'85462'
p3354
aS'85653'
p3355
aS'86013'
p3356
aS'86202'
p3357
aS'86233'
p3358
aS'86422'
p3359
aS'86521'
p3360
aS'87234'
p3361
aS'89035'
p3362
aS'89331'
p3363
aS'85231'
p3364
aS'86025'
p3365
aS'86322'
p3366
aS'87030'
p3367
aS'88130'
p3368
aS'89240'
p3369
aS'85102'
p3370
aS'85104'
p3371
aS'85123'
p3372
aS'85171'
p3373
aS'85194'
p3374
aS'85236'
p3375
aS'85238'
p3376
aS'85357'
p3377
aS'85590'
p3378
aS'85631'
p3379
aS'85645'
p3380
aS'85731'
p3381
aS'85735'
p3382
aS'85741'
p3383
aS'85752'
p3384
aS'86032'
p3385
aS'86133'
p3386
aS'86222'
p3387
aS'86240'
p3388
aS'86421'
p3389
aS'86532'
p3390
aS'87121'
p3391
aS'87127'
p3392
aS'87133'
p3393
aS'87145'
p3394
aS'87161'
p3395
aS'87193'
p3396
aS'87232'
p3397
aS'87296'
p3398
aS'88030'
p3399
aS'88124'
p3400
aS'88131'
p3401
aS'88135'
p3402
aS'88222'
p3403
aS'89037'
p3404
aS'89178'
p3405
aS'89195'
p3406
aS'89223'
p3407
aS'89391'
p3408
aS'89430'
p3409
aS'89495'
p3410
aS'85009'
p3411
aS'85239'
p3412
aS'85467'
p3413
aS'85651'
p3414
aS'86134'
p3415
aS'86334'
p3416
aS'87142'
p3417
aS'87154'
p3418
aS'87298'
p3419
aS'88192'
p3420
aS'88291'
p3421
aS'89234'
p3422
aS'89340'
p3423
aS'84197'
p3424
aS'85006'
p3425
aS'85012'
p3426
aS'85122'
p3427
aS'85186'
p3428
aS'85353'
p3429
aS'85463'
p3430
aS'85652'
p3431
aS'85750'
p3432
asS'Valle Gran Rey'
p3433
(lp3434
S'38870'
p3435
aS'38870'
p3436
asS'Vecindario'
p3437
(lp3438
S'35110'
p3439
aS'35110'
p3440
asS'Vidyanagar'
p3441
(lp3442
S'562134'
p3443
aS'562134'
p3444
asS'Vy\xc5\xa1eho\xc5\x99\xc3\xad'
p3445
(lp3446
S'789 01'
p3447
asS'Velehrad'
p3448
(lp3449
S'687 06'
p3450
asS'Verl'
p3451
(lp3452
S'33415'
p3453
aS'33415'
p3454
asS'Vi\xc3\xb1on'
p3455
(lp3456
S'39584'
p3457
asS'Vysok\xc3\xa1 Libe\xc5\x88'
p3458
(lp3459
S'277 38'
p3460
asS'V\xc5\x99eskovice'
p3461
(lp3462
S'334 01'
p3463
asS'Valens'
p3464
(lp3465
S'7317'
p3466
aS'7317'
p3467
asS'Velk\xc3\xa1 \xc3\x9apa'
p3468
(lp3469
g1730
asS'Vermillion'
p3470
(lp3471
S'55085'
p3472
aS'57069'
p3473
aS'66544'
p3474
aS'66544'
p3475
aS'55085'
p3476
aS'57069'
p3477
asS'Vr\xc3\xa1\xc5\xbe u P\xc3\xadsku'
p3478
(lp3479
S'398 32'
p3480
asS'Vite\xc5\x88'
p3481
(lp3482
S'340 21'
p3483
asS'Villars-le-Terroir'
p3484
(lp3485
S'1040'
p3486
asS'Valley City'
p3487
(lp3488
S'58072'
p3489
aS'58072'
p3490
asS'Vattholma'
p3491
(lp3492
S'74393'
p3493
aS'74393'
p3494
asS'Vochov'
p3495
(lp3496
S'330 23'
p3497
asS'Vio\xc3\xb1o'
p3498
(lp3499
S'39479'
p3500
aS'39479'
p3501
asS'Vint\xc3\xad\xc5\x99ov'
p3502
(lp3503
S'395 01'
p3504
aS'357 35'
p3505
asS'V\xc3\xa5xtorp'
p3506
(lp3507
S'31275'
p3508
aS'31275'
p3509
asS'Vodn\xc3\xa1'
p3510
(lp3511
S'364 64'
p3512
asS'Vega De San Mateo'
p3513
(lp3514
S'35320'
p3515
asS'Vad\xc4\x8dice'
p3516
(lp3517
S'393 01'
p3518
asS'V\xc4\x9bdlice'
p3519
(lp3520
S'411 45'
p3521
asS'Vallorbe'
p3522
(lp3523
S'1337'
p3524
asS'Valparaiso'
p3525
(lp3526
S'46383'
p3527
aS'46383'
p3528
asS'Vilhelmina'
p3529
(lp3530
S'91231'
p3531
aS'91232'
p3532
aS'91232'
p3533
aS'91231'
p3534
asS'Vechta'
p3535
(lp3536
S'49377'
p3537
aS'49377'
p3538
asS'Velk\xc3\xa1 Lhota'
p3539
(lp3540
S'378 58'
p3541
asS'Vila Flor'
p3542
(lp3543
S'6050-123'
p3544
aS'6050-145'
p3545
aS'6050-146'
p3546
aS'6050-123'
p3547
aS'6050-145'
p3548
aS'6050-146'
p3549
asS'Velk\xc3\xbd Bor'
p3550
(lp3551
S'384 11'
p3552
asS'Vinice-jih'
p3553
(lp3554
S'310 00'
p3555
aS'310 00'
p3556
asS'V\xc5\xa1esoky'
p3557
(lp3558
S'284 01'
p3559
asS'Vil\xc3\xa9mov'
p3560
(lp3561
g461
aS'582 83'
p3562
aS'783 22'
p3563
asS'V\xc5\xa1enory'
p3564
(lp3565
S'252 31'
p3566
asS'Volary'
p3567
(lp3568
S'384 51'
p3569
asS'Vl\xc4\x8d\xc3\xad J\xc3\xa1my'
p3570
(lp3571
S'384 51'
p3572
asS'V\xc3\xadt\xc4\x9bzn\xc3\xa1-Nov\xc3\xa9 Z\xc3\xa1bo\xc5\x99\xc3\xad x)'
p3573
(lp3574
g1769
asS'V\xc3\xadton\xc3\xadn'
p3575
(lp3576
S'582 91'
p3577
asS'V\xc3\xa4stervik'
p3578
(lp3579
S'59303'
p3580
aS'59324'
p3581
aS'59332'
p3582
aS'59333'
p3583
aS'59361'
p3584
aS'59332'
p3585
aS'59324'
p3586
aS'59303'
p3587
aS'59330'
p3588
aS'59333'
p3589
aS'59338'
p3590
aS'59361'
p3591
aS'59323'
p3592
aS'59336'
p3593
asS'Villanova'
p3594
(lp3595
S'47100'
p3596
asS'V\xc3\xbdrov'
p3597
(lp3598
S'384 21'
p3599
aS'346 01'
p3600
asS'V\xc3\xa1rosl\xc5\x91d'
p3601
(lp3602
S'8445'
p3603
asS'Vikantice'
p3604
(lp3605
S'788 25'
p3606
asS'Villalba De Rioja'
p3607
(lp3608
S'26292'
p3609
aS'26292'
p3610
asS'Vaccheria'
p3611
(lp3612
S'81100'
p3613
asS'Vadakara Beach'
p3614
(lp3615
S'673103'
p3616
aS'673103'
p3617
asS'Vanavolu'
p3618
(lp3619
S'500661'
p3620
aS'500661'
p3621
asS'V\xc4\x9b\xc5\xbe'
p3622
(lp3623
S'582 56'
p3624
asS'Velebudice'
p3625
(lp3626
S'434 01'
p3627
asS'Velv\xc4\x9bty'
p3628
(lp3629
S'417 62'
p3630
asS'Velk\xc3\xbd Osek'
p3631
(lp3632
S'281 51'
p3633
asS'V\xc3\xadtonice'
p3634
(lp3635
S'671 61'
p3636
asS'Vandalia'
p3637
(lp3638
S'63382'
p3639
aS'63382'
p3640
asS'Veysonnaz'
p3641
(lp3642
g3062
ag3133
asS'Vejvanov'
p3643
(lp3644
S'338 28'
p3645
asS'Valy'
p3646
(lp3647
S'293 01'
p3648
asS'Van Wert'
p3649
(lp3650
S'50262'
p3651
aS'50262'
p3652
asS'V\xc3\xbdchodn\xc3\xad P\xc5\x99edm\xc4\x9bst\xc3\xad (\xc4\x8d\xc3\xa1st)'
p3653
(lp3654
S'312 00'
p3655
aS'317 00'
p3656
aS'326 00'
p3657
asS'V\xc5\xa1elibice'
p3658
(lp3659
S'463 48'
p3660
asS'Vals'
p3661
(lp3662
S'7132'
p3663
asS'Vila De Cruces'
p3664
(lp3665
S'36590'
p3666
aS'36590'
p3667
asS'Votice'
p3668
(lp3669
S'259 01'
p3670
asS'Velik\xc3\xa1 Ves'
p3671
(lp3672
S'250 70'
p3673
aS'441 01'
p3674
asS'Vadna'
p3675
(lp3676
S'3636'
p3677
asS'Vilassar De Dalt'
p3678
(lp3679
S'08339'
p3680
aS'08339'
p3681
asS'Vra\xc5\xben\xc3\xa9'
p3682
(lp3683
S'742 35'
p3684
asS'Vineland'
p3685
(lp3686
S'08360'
p3687
asS'Vichtenstein'
p3688
(lp3689
S'4091'
p3690
aS'4091'
p3691
asS'V\xc3\xa1\xc5\xbeany'
p3692
(lp3693
S'687 37'
p3694
aS'682 01'
p3695
asS'Vidyut Bhawan'
p3696
(lp3697
S'302005'
p3698
asS'Villafufre'
p3699
(lp3700
S'39638'
p3701
asS'Vazovec'
p3702
(lp3703
S'511 01'
p3704
asS'V\xc3\xa4nn\xc3\xa4sby'
p3705
(lp3706
S'91136'
p3707
aS'91136'
p3708
asS'Vancouver (East Mount Pleasant)'
p3709
(lp3710
S'V5T'
p3711
aS'V5T'
p3712
asS'Vale Pedro Dias'
p3713
(lp3714
S'6040-033'
p3715
aS'6040-033'
p3716
asS'V\xc3\xa9rteskethely'
p3717
(lp3718
S'2859'
p3719
aS'2859'
p3720
asS'Verden (Aller)'
p3721
(lp3722
S'27283'
p3723
aS'27283'
p3724
asS'Villaconejos'
p3725
(lp3726
S'28360'
p3727
aS'28360'
p3728
asS'V\xc3\xadtov\xc3\xa1'
p3729
(lp3730
S'763 16'
p3731
asS'Verseg'
p3732
(lp3733
S'2174'
p3734
aS'2174'
p3735
asS'Vr\xc3\xa5liosen'
p3736
(lp3737
S'3849'
p3738
asS'V\xc3\xadt\xc4\x9bzn\xc3\xa1-H\xc3\xa1jemstv\xc3\xad x)'
p3739
(lp3740
g1779
asS'Villalon De Campos'
p3741
(lp3742
S'47600'
p3743
aS'47600'
p3744
asS'V\xc3\xa1mosszabadi'
p3745
(lp3746
S'9061'
p3747
asS'Vidiago'
p3748
(lp3749
S'33597'
p3750
aS'33597'
p3751
asS'Vratkov'
p3752
(lp3753
S'257 91'
p3754
asS'Vaduthala'
p3755
(lp3756
S'682023'
p3757
aS'682023'
p3758
asS'Vimieira'
p3759
(lp3760
S'3050-187'
p3761
aS'3050-187'
p3762
asS'Vila de Porto Santo'
p3763
(lp3764
S'9400-001'
p3765
aS'9400-010'
p3766
aS'9400-020'
p3767
aS'9400-030'
p3768
aS'9400-040'
p3769
aS'9400-050'
p3770
aS'9400-060'
p3771
aS'9400-070'
p3772
aS'9400-080'
p3773
aS'9400-095'
p3774
aS'9400-105'
p3775
aS'9400-115'
p3776
aS'9400-151'
p3777
ag3777
aS'9400-153'
p3778
ag3778
aS'9400-155'
p3779
ag3779
aS'9400-157'
p3780
ag3780
aS'9400-159'
p3781
ag3781
aS'9400-162'
p3782
ag3782
aS'9400-164'
p3783
ag3783
aS'9400-166'
p3784
ag3784
aS'9400-168'
p3785
ag3785
aS'9400-170'
p3786
ag3786
aS'9400-172'
p3787
ag3787
aS'9400-174'
p3788
ag3788
aS'9400-176'
p3789
ag3789
aS'9400-178'
p3790
ag3790
aS'9400-999'
p3791
ag3791
aS'9400-001'
p3792
ag3792
aS'9400-010'
p3793
aS'9400-020'
p3794
aS'9400-030'
p3795
aS'9400-040'
p3796
aS'9400-050'
p3797
aS'9400-060'
p3798
aS'9400-070'
p3799
aS'9400-080'
p3800
aS'9400-095'
p3801
aS'9400-105'
p3802
aS'9400-115'
p3803
aS'9400-151'
p3804
ag3804
aS'9400-153'
p3805
ag3805
aS'9400-155'
p3806
ag3806
aS'9400-157'
p3807
ag3807
aS'9400-159'
p3808
ag3808
aS'9400-162'
p3809
ag3809
aS'9400-164'
p3810
ag3810
aS'9400-166'
p3811
ag3811
aS'9400-168'
p3812
ag3812
aS'9400-170'
p3813
ag3813
aS'9400-172'
p3814
ag3814
aS'9400-174'
p3815
ag3815
aS'9400-176'
p3816
ag3816
aS'9400-178'
p3817
ag3817
aS'9400-999'
p3818
ag3818
asS'Valtesse'
p3819
(lp3820
S'24123'
p3821
asS'Vaggeryd'
p3822
(lp3823
S'56721'
p3824
aS'56730'
p3825
aS'56732'
p3826
aS'56721'
p3827
aS'56730'
p3828
aS'56732'
p3829
asS'Velichovky'
p3830
(lp3831
S'552 11'
p3832
asS'Verdal'
p3833
(lp3834
S'7651'
p3835
aS'7658'
p3836
aS'7651'
p3837
aS'7658'
p3838
asS'Va\xc5\xbeice'
p3839
(lp3840
S'507 23'
p3841
asS'Villanueva De La Ca\xc3\xb1ada'
p3842
(lp3843
S'28691'
p3844
aS'28691'
p3845
asS'Vrbno'
p3846
(lp3847
S'276 01'
p3848
aS'388 01'
p3849
asS'Vedev\xc3\xa5g'
p3850
(lp3851
S'71172'
p3852
aS'71172'
p3853
asS'Vida'
p3854
(lp3855
S'59274'
p3856
aS'59274'
p3857
asS'Ventas Del Ba\xc3\xb1o'
p3858
(lp3859
S'26527'
p3860
aS'26527'
p3861
asS'Veru\xc5\xa1i\xc4\x8dky'
p3862
(lp3863
S'364 52'
p3864
asS'Vide'
p3865
(lp3866
S'5160-102'
p3867
aS'5160-102'
p3868
asS'Valles'
p3869
(lp3870
S'39590'
p3871
asS'Vojt\xc3\xad\xc5\xa1kov'
p3872
(lp3873
S'788 33'
p3874
asS'Vislanda'
p3875
(lp3876
S'34030'
p3877
aS'34030'
p3878
asS'V\xc3\xa5g\xc3\xa5'
p3879
(lp3880
S'2680'
p3881
aS'2684'
p3882
aS'2680'
p3883
aS'2684'
p3884
asS'Venkatappa Road'
p3885
(lp3886
S'560051'
p3887
asS'Valley'
p3888
(lp3889
S'68064'
p3890
aS'68064'
p3891
asS'V\xc3\xa4xj\xc3\xb6'
p3892
(lp3893
S'35008'
p3894
aS'35033'
p3895
aS'35105'
p3896
aS'35106'
p3897
aS'35112'
p3898
aS'35180'
p3899
aS'35185'
p3900
aS'35188'
p3901
aS'35194'
p3902
aS'35230'
p3903
aS'35232'
p3904
aS'35234'
p3905
aS'35236'
p3906
aS'35239'
p3907
aS'35241'
p3908
aS'35245'
p3909
aS'35246'
p3910
aS'35247'
p3911
aS'35248'
p3912
aS'35252'
p3913
aS'35255'
p3914
aS'35256'
p3915
aS'35257'
p3916
aS'35262'
p3917
aS'35263'
p3918
aS'35592'
p3919
aS'35246'
p3920
aS'35245'
p3921
aS'35262'
p3922
aS'35008'
p3923
aS'35105'
p3924
aS'35033'
p3925
aS'35112'
p3926
aS'35230'
p3927
aS'35234'
p3928
aS'35236'
p3929
aS'35239'
p3930
aS'35247'
p3931
aS'35252'
p3932
aS'35255'
p3933
aS'35263'
p3934
aS'35232'
p3935
aS'35241'
p3936
aS'35257'
p3937
aS'35043'
p3938
aS'35106'
p3939
aS'35238'
p3940
aS'35248'
p3941
aS'35256'
p3942
aS'35592'
p3943
aS'35003'
p3944
aS'35185'
p3945
aS'35194'
p3946
aS'35188'
p3947
aS'35180'
p3948
asS'Viehhofen'
p3949
(lp3950
S'5752'
p3951
asS'Velk\xc3\xa9 N\xc4\x9bm\xc4\x8dice'
p3952
(lp3953
S'691 63'
p3954
asS'Vrchoslav'
p3955
(lp3956
S'417 41'
p3957
asS'Velk\xc3\xa9 P\xc5\x99\xc3\xadlepy'
p3958
(lp3959
S'252 64'
p3960
asS'Velk\xc3\xa9 Host\xc4\x9br\xc3\xa1dky'
p3961
(lp3962
S'691 74'
p3963
asS'Virginia'
p3964
(lp3965
S'0835'
p3966
aS'5120'
p3967
aS'5120'
p3968
aS'20101'
p3969
aS'20107'
p3970
aS'20110'
p3971
aS'20112'
p3972
aS'20117'
p3973
aS'20120'
p3974
aS'20124'
p3975
aS'20135'
p3976
aS'20137'
p3977
aS'20139'
p3978
aS'20146'
p3979
aS'20148'
p3980
aS'20155'
p3981
aS'20164'
p3982
aS'20166'
p3983
aS'20169'
p3984
aS'20171'
p3985
aS'20176'
p3986
aS'20181'
p3987
aS'20186'
p3988
aS'20190'
p3989
aS'20192'
p3990
aS'20197'
p3991
aS'22003'
p3992
aS'22026'
p3993
aS'22030'
p3994
aS'22032'
p3995
aS'22035'
p3996
aS'22040'
p3997
aS'22042'
p3998
aS'22044'
p3999
aS'22066'
p4000
aS'22079'
p4001
aS'22122'
p4002
aS'22125'
p4003
aS'22152'
p4004
aS'22172'
p4005
aS'22181'
p4006
aS'22183'
p4007
aS'22201'
p4008
aS'22203'
p4009
aS'22205'
p4010
aS'22207'
p4011
aS'22213'
p4012
aS'22302'
p4013
aS'22304'
p4014
aS'22306'
p4015
aS'22308'
p4016
aS'22310'
p4017
aS'22312'
p4018
aS'22401'
p4019
aS'22405'
p4020
aS'22407'
p4021
aS'22427'
p4022
aS'22448'
p4023
aS'22501'
p4024
aS'22535'
p4025
aS'22552'
p4026
aS'22554'
p4027
aS'22601'
p4028
aS'22603'
p4029
aS'22620'
p4030
aS'22639'
p4031
aS'22645'
p4032
aS'22655'
p4033
aS'22701'
p4034
aS'22713'
p4035
aS'22718'
p4036
aS'22720'
p4037
aS'22726'
p4038
aS'22734'
p4039
aS'22737'
p4040
aS'22742'
p4041
aS'22835'
p4042
aS'22902'
p4043
aS'22911'
p4044
aS'22939'
p4045
aS'22960'
p4046
aS'23005'
p4047
aS'23047'
p4048
aS'23060'
p4049
aS'23069'
p4050
aS'23112'
p4051
aS'23117'
p4052
aS'23150'
p4053
aS'23185'
p4054
aS'23188'
p4055
aS'23220'
p4056
aS'23226'
p4057
aS'23229'
p4058
aS'23233'
p4059
aS'22201'
p4060
aS'23185'
p4061
aS'20101'
p4062
aS'20107'
p4063
aS'20110'
p4064
aS'20112'
p4065
aS'20117'
p4066
aS'20120'
p4067
aS'20124'
p4068
aS'20129'
p4069
aS'20132'
p4070
aS'20135'
p4071
aS'20137'
p4072
aS'20139'
p4073
aS'20143'
p4074
aS'20146'
p4075
aS'20148'
p4076
aS'20152'
p4077
aS'20155'
p4078
aS'20160'
p4079
aS'20164'
p4080
aS'20166'
p4081
aS'20169'
p4082
aS'20171'
p4083
aS'20176'
p4084
aS'20181'
p4085
aS'20186'
p4086
aS'20190'
p4087
aS'20192'
p4088
aS'20197'
p4089
aS'22003'
p4090
aS'22026'
p4091
aS'22030'
p4092
aS'22032'
p4093
aS'22035'
p4094
aS'22040'
p4095
aS'22042'
p4096
aS'22044'
p4097
aS'22066'
p4098
aS'22079'
p4099
aS'22122'
p4100
aS'22125'
p4101
aS'22150'
p4102
aS'22152'
p4103
aS'22172'
p4104
aS'22181'
p4105
aS'22183'
p4106
aS'22192'
p4107
aS'22203'
p4108
aS'22205'
p4109
aS'22207'
p4110
aS'22213'
p4111
aS'22302'
p4112
aS'22304'
p4113
aS'22306'
p4114
aS'22308'
p4115
aS'22310'
p4116
aS'22312'
p4117
aS'22401'
p4118
aS'22405'
p4119
aS'22407'
p4120
aS'22427'
p4121
aS'22448'
p4122
aS'22501'
p4123
aS'22535'
p4124
aS'22552'
p4125
aS'22554'
p4126
aS'22601'
p4127
aS'22603'
p4128
aS'22620'
p4129
aS'22630'
p4130
aS'22639'
p4131
aS'22645'
p4132
aS'22655'
p4133
aS'22701'
p4134
aS'22713'
p4135
aS'22718'
p4136
aS'22720'
p4137
aS'22726'
p4138
aS'22728'
p4139
aS'22734'
p4140
aS'22737'
p4141
aS'22742'
p4142
aS'22835'
p4143
aS'22902'
p4144
aS'22911'
p4145
aS'22939'
p4146
aS'22960'
p4147
aS'23005'
p4148
aS'23047'
p4149
aS'23060'
p4150
aS'23069'
p4151
aS'23112'
p4152
aS'23117'
p4153
aS'23150'
p4154
aS'23188'
p4155
aS'23220'
p4156
aS'23226'
p4157
aS'23229'
p4158
aS'23233'
p4159
asS'Vimanapura'
p4160
(lp4161
S'560017'
p4162
aS'560017'
p4163
asS'Velt\xc4\x9b\xc5\xbee'
p4164
(lp4165
S'440 01'
p4166
asS'Viersen'
p4167
(lp4168
S'41748'
p4169
aS'41748'
p4170
asS'Vilagarcia De Arousa'
p4171
(lp4172
S'36600'
p4173
aS'36600'
p4174
asS'Vl\xc4\x8dkovice v Podkrkono\xc5\xa1\xc3\xad'
p4175
(lp4176
g1737
asS'Vizsoly'
p4177
(lp4178
S'3888'
p4179
aS'3888'
p4180
asS'Vran\xc3\xadk'
p4181
(lp4182
S'285 06'
p4183
asS'Varteig'
p4184
(lp4185
S'1735'
p4186
aS'1735'
p4187
asS'V\xc3\xa4nn\xc3\xa4s'
p4188
(lp4189
S'91132'
p4190
aS'91134'
p4191
aS'91134'
p4192
aS'91132'
p4193
asS'V\xc3\xb8yenenga'
p4194
(lp4195
S'1313'
p4196
aS'1313'
p4197
asS'V\xc3\xa1povice'
p4198
(lp4199
S'588 56'
p4200
asS'V\xc3\xa1cduka'
p4201
(lp4202
S'2167'
p4203
aS'2167'
p4204
asS'Vracov'
p4205
(lp4206
S'696 42'
p4207
asS'Veltruby'
p4208
(lp4209
S'280 02'
p4210
asS'Vlachnovice'
p4211
(lp4212
S'373 12'
p4213
asS'Volga'
p4214
(lp4215
S'57071'
p4216
aS'57071'
p4217
asS'Vinton'
p4218
(lp4219
S'70668'
p4220
aS'70668'
p4221
asS'Vysok\xc3\xa1 nad Labem'
p4222
(lp4223
S'503 31'
p4224
asS'Vysok\xc3\xa9 Jamn\xc3\xa9'
p4225
(lp4226
S'349 53'
p4227
asS'V\xc3\xbdhledy'
p4228
(lp4229
S'352 01'
p4230
asS'Villyanpur'
p4231
(lp4232
S'605110'
p4233
aS'605110'
p4234
asS'V\xc3\xa9cs'
p4235
(lp4236
S'3265'
p4237
asS'Vok\xc3\xa1ny'
p4238
(lp4239
S'7768'
p4240
aS'7768'
p4241
asS'Virt'
p4242
(lp4243
S'386 01'
p4244
asS'V\xc3\xa5ler I \xc3\x98stfold'
p4245
(lp4246
S'1592'
p4247
aS'1592'
p4248
asS'Vinita'
p4249
(lp4250
S'74301'
p4251
aS'74301'
p4252
asS'Velk\xc3\xa1 nad Veli\xc4\x8dkou'
p4253
(lp4254
S'696 74'
p4255
asS'Verbier'
p4256
(lp4257
g3043
ag3105
asS'Venezia'
p4258
(lp4259
S'30122'
p4260
aS'30124'
p4261
aS'30100'
p4262
aS'30125'
p4263
aS'30131'
p4264
aS'30141'
p4265
aS'30124'
p4266
aS'30131'
p4267
asS'Verdens Ende'
p4268
(lp4269
g124
asS'V\xc3\xa1c'
p4270
(lp4271
S'2600'
p4272
aS'2601'
p4273
asS'Vads\xc3\xb8'
p4274
(lp4275
S'9815'
p4276
aS'9815'
p4277
asS'Valdemoro'
p4278
(lp4279
S'28340'
p4280
aS'28340'
p4281
asS'V\xc3\xa1g'
p4282
(lp4283
S'9327'
p4284
asS'Villaggio Aldisio'
p4285
(lp4286
S'98147'
p4287
asS'Vilassar De Mar'
p4288
(lp4289
S'08340'
p4290
aS'08340'
p4291
asS'Vale da Vinha'
p4292
(lp4293
S'6040-077'
p4294
aS'6040-077'
p4295
asS'Vasco-Da-Gama Town'
p4296
(lp4297
S'403802'
p4298
aS'403802'
p4299
asS'Valkonya'
p4300
(lp4301
S'8885'
p4302
aS'8885'
p4303
asS'Vestskogen'
p4304
(lp4305
g65
asS'Veneto'
p4306
(lp4307
S'36100'
p4308
ag4260
ag4261
aS'32100'
p4309
aS'35121'
p4310
aS'35123'
p4311
aS'35128'
p4312
aS'35131'
p4313
ag978
ag979
ag980
ag981
ag4262
ag4263
ag4264
aS'30172'
p4314
aS'30175'
p4315
aS'35126'
p4316
ag982
aS'30126'
p4317
aS'30173'
p4318
aS'35138'
p4319
ag983
ag984
aS'30141'
p4320
aS'30175'
p4321
aS'35124'
p4322
aS'35133'
p4323
aS'35136'
p4324
aS'35143'
p4325
ag985
ag986
ag4265
aS'30174'
p4326
ag987
aS'30126'
p4327
aS'35129'
p4328
ag988
aS'35129'
p4329
aS'37127'
p4330
aS'45100'
p4331
aS'32100'
p4332
aS'32100'
p4333
aS'30142'
p4334
aS'30142'
p4335
aS'30142'
p4336
aS'30174'
p4337
aS'30122'
p4338
aS'36100'
p4339
aS'31100'
p4340
aS'35125'
p4341
aS'30133'
p4342
aS'30175'
p4343
aS'31100'
p4344
aS'31100'
p4345
aS'32100'
p4346
aS'35124'
p4347
aS'35138'
p4348
aS'36100'
p4349
aS'45100'
p4350
ag4266
aS'30126'
p4351
ag4267
aS'30142'
p4352
aS'30172'
p4353
aS'30173'
p4354
aS'30174'
p4355
aS'30175'
p4356
aS'31100'
p4357
aS'32100'
p4358
aS'35121'
p4359
aS'35123'
p4360
aS'35124'
p4361
aS'35125'
p4362
aS'35126'
p4363
aS'35128'
p4364
aS'35129'
p4365
aS'35131'
p4366
aS'35133'
p4367
aS'35136'
p4368
aS'35138'
p4369
aS'35143'
p4370
ag990
ag991
ag992
aS'37127'
p4371
ag993
aS'45100'
p4372
asS'Vanse'
p4373
(lp4374
g2876
ag2919
ag2953
ag2954
asS'Variglie'
p4375
(lp4376
S'14100'
p4377
asS'V\xc3\xa1t'
p4378
(lp4379
g1315
ag1403
asS'Vlkov'
p4380
(lp4381
S'277 21'
p4382
aS'270 04'
p4383
aS'335 61'
p4384
asS'Venda Nova'
p4385
(lp4386
S'5140-184'
p4387
ag2719
ag2818
aS'5140-184'
p4388
asS'Vnit\xc5\x99n\xc3\xad M\xc4\x9bsto'
p4389
(lp4390
S'588 56'
p4391
aS'588 56'
p4392
aS'588 56'
p4393
asS'Velk\xc3\xa9 Ho\xc5\xa1tice'
p4394
(lp4395
S'747 31'
p4396
asS"Valle D'Aosta"
p4397
(lp4398
S'11100'
p4399
aS'11100'
p4400
aS'11100'
p4401
aS'11100'
p4402
ag4402
asS'V\xc3\xadtkov'
p4403
(lp4404
S'386 01'
p4405
aS'356 01'
p4406
aS'347 01'
p4407
aS'470 01'
p4408
asS'Vancouver (SE Riley Park- Little Mountain / SW Kensington / NE Oakridge / North Sunset)'
p4409
(lp4410
S'V5W'
p4411
aS'V5W'
p4412
asS'Vrtky'
p4413
(lp4414
S'463 48'
p4415
asS'Veleslav\xc3\xadn'
p4416
(lp4417
S'162 00'
p4418
asS'Voznice'
p4419
(lp4420
S'263 01'
p4421
asS'Vokov'
p4422
(lp4423
S'393 01'
p4424
asS'Velk\xc3\xa1 Ledhuje'
p4425
(lp4426
S'549 54'
p4427
asS'Vlkov\xc3\xa1'
p4428
(lp4429
S'285 04'
p4430
asS'Vernon West'
p4431
(lp4432
S'V1H'
p4433
aS'V1H'
p4434
asS'Villafranca Del Bierzo'
p4435
(lp4436
S'24500'
p4437
aS'24500'
p4438
asS'Volduchy'
p4439
(lp4440
S'338 22'
p4441
asS'Vassz\xc3\xa9cseny'
p4442
(lp4443
g1290
ag1406
asS'Valangin'
p4444
(lp4445
S'2042'
p4446
asS'Villamediana De Iregua'
p4447
(lp4448
S'26142'
p4449
aS'26142'
p4450
asS'Veszk\xc3\xa9ny'
p4451
(lp4452
S'9352'
p4453
aS'9352'
p4454
asS'Veer Savarkar Marg'
p4455
(lp4456
S'500027'
p4457
aS'500027'
p4458
asS'Vladm\xc4\x9b\xc5\x99ice'
p4459
(lp4460
S'331 62'
p4461
asS'V\xc5\xa1estudy'
p4462
(lp4463
S'431 11'
p4464
asS'Villigen PSI'
p4465
(lp4466
S'5232'
p4467
asS'Vysok\xc3\xa1 \xc5\xa0tola'
p4468
(lp4469
S'362 21'
p4470
asS'Vrchb\xc4\x9bl\xc3\xa1'
p4471
(lp4472
S'294 21'
p4473
asS'Vellerat'
p4474
(lp4475
S'2830'
p4476
asS'Verden'
p4477
(lp4478
S'73092'
p4479
aS'73092'
p4480
asS'V\xc5\x99esov\xc3\xa1'
p4481
(lp4482
S'357 35'
p4483
asS'V\xc3\xa4stra \xc3\x84mtervik'
p4484
(lp4485
g1556
ag1596
asS'Valencia Del Ventoso'
p4486
(lp4487
S'06330'
p4488
aS'06330'
p4489
asS'Vr\xc5\xa1ovice'
p4490
(lp4491
S'440 01'
p4492
aS'747 61'
p4493
asS'Velk\xc3\xbd Luh'
p4494
(lp4495
S'351 34'
p4496
asS'Venturada'
p4497
(lp4498
S'28729'
p4499
aS'28729'
p4500
asS'Vilarinho da Castanheira'
p4501
(lp4502
S'5140-276'
p4503
aS'5140-278'
p4504
aS'5140-280'
p4505
aS'5140-282'
p4506
aS'5140-284'
p4507
aS'5140-286'
p4508
aS'5140-276'
p4509
aS'5140-278'
p4510
aS'5140-280'
p4511
aS'5140-282'
p4512
aS'5140-284'
p4513
aS'5140-286'
p4514
asS'Vasszentmih\xc3\xa1ly'
p4515
(lp4516
g1346
ag1438
asS'Valles Mines'
p4517
(lp4518
S'63087'
p4519
aS'63087'
p4520
asS'Villanueva De Gallego'
p4521
(lp4522
S'50830'
p4523
aS'50830'
p4524
asS'Villeneuve FR'
p4525
(lp4526
S'1527'
p4527
aS'1527'
p4528
asS'Velhagao'
p4529
(lp4530
S'403402'
p4531
aS'403402'
p4532
asS'V\xc3\xa9rtesbogl\xc3\xa1r'
p4533
(lp4534
S'8085'
p4535
aS'8085'
p4536
asS'V\xc3\xa1pno'
p4537
(lp4538
S'463 48'
p4539
aS'533 16'
p4540
asS'Voltri'
p4541
(lp4542
S'16158'
p4543
asS'Vereb'
p4544
(lp4545
S'2477'
p4546
aS'2477'
p4547
asS'Vattiz'
p4548
(lp4549
S'7146'
p4550
aS'7146'
p4551
asS'Vala\xc5\xa1sk\xc3\xa9 P\xc5\x99\xc3\xadkazy'
p4552
(lp4553
g3224
asS'Vorderthal'
p4554
(lp4555
S'8857'
p4556
aS'8857'
p4557
asS'Viernau'
p4558
(lp4559
S'98547'
p4560
aS'98547'
p4561
asS'Vorderstoder'
p4562
(lp4563
S'4574'
p4564
asS'Viniegra De Abajo'
p4565
(lp4566
S'26329'
p4567
asS'Vestfossen'
p4568
(lp4569
S'3320'
p4570
aS'3320'
p4571
asS'Vraclav'
p4572
(lp4573
S'565 42'
p4574
asS'Vepice'
p4575
(lp4576
S'399 01'
p4577
asS'Villa Rica'
p4578
(lp4579
S'30180'
p4580
asS'V\xc3\xadt\xc4\x9bzov'
p4581
(lp4582
S'280 02'
p4583
asS'Villalgordo Del Jucar'
p4584
(lp4585
S'02636'
p4586
aS'02636'
p4587
asS'V\xc3\xa1rzea'
p4588
(lp4589
S'4615-820'
p4590
aS'4615-820'
p4591
asS'V\xc3\xa4stmanland'
p4592
(lp4593
S'64045'
p4594
aS'71041'
p4595
ag2469
ag2470
ag2471
ag2472
ag2473
ag2474
ag2475
ag2476
ag2477
ag2478
ag2479
ag2480
ag2481
ag2482
ag2483
ag2484
ag2485
ag2486
ag2487
ag2488
ag2489
ag2490
ag2491
ag2492
ag2493
ag2494
ag2495
ag2496
ag2497
ag2498
ag2499
ag2500
ag2501
ag2502
ag2503
ag2504
ag2505
ag2506
ag2507
ag2508
ag2509
ag2510
ag2511
ag2512
ag2513
aS'73060'
p4596
aS'73061'
p4597
aS'73121'
p4598
aS'73124'
p4599
aS'73125'
p4600
aS'73126'
p4601
aS'73129'
p4602
aS'73130'
p4603
aS'73134'
p4604
aS'73135'
p4605
aS'73142'
p4606
aS'73150'
p4607
aS'73154'
p4608
aS'73191'
p4609
aS'73222'
p4610
aS'73230'
p4611
aS'73231'
p4612
aS'73248'
p4613
aS'73249'
p4614
aS'73325'
p4615
aS'73330'
p4616
aS'73331'
p4617
aS'73335'
p4618
aS'73336'
p4619
aS'73392'
p4620
aS'73399'
p4621
aS'73424'
p4622
aS'73427'
p4623
aS'73432'
p4624
aS'73440'
p4625
aS'73537'
p4626
aS'73591'
p4627
aS'73631'
p4628
aS'73632'
p4629
aS'73702'
p4630
aS'73730'
p4631
aS'73744'
p4632
aS'73748'
p4633
aS'73792'
p4634
aS'73821'
p4635
aS'73930'
p4636
aS'73992'
p4637
aS'74021'
p4638
aS'74083'
p4639
aS'74421'
p4640
aS'74431'
p4641
aS'74451'
p4642
aS'74493'
p4643
ag2514
ag2515
aS'71041'
p4644
ag2516
aS'73125'
p4645
aS'73336'
p4646
aS'64045'
p4647
ag4647
ag2517
ag2518
ag2519
ag2520
ag2521
aS'73040'
p4648
aS'73060'
p4649
aS'73121'
p4650
aS'73230'
p4651
aS'73331'
p4652
aS'73440'
p4653
aS'73521'
p4654
aS'73632'
p4655
aS'73992'
p4656
aS'74431'
p4657
ag2522
ag2523
ag2524
ag2525
aS'73061'
p4658
aS'73249'
p4659
aS'73424'
p4660
aS'73702'
p4661
aS'73748'
p4662
aS'74083'
p4663
ag2526
ag2527
ag2528
ag2529
ag2530
ag2531
ag2532
ag2533
ag2534
ag2535
ag2536
ag2537
ag2538
ag2539
ag2540
ag2541
ag2542
aS'73130'
p4664
aS'73134'
p4665
aS'73150'
p4666
aS'73154'
p4667
aS'73191'
p4668
aS'73222'
p4669
aS'73231'
p4670
aS'73248'
p4671
aS'73330'
p4672
aS'73335'
p4673
aS'73392'
p4674
aS'73399'
p4675
aS'73427'
p4676
aS'73432'
p4677
aS'73591'
p4678
aS'73730'
p4679
aS'73744'
p4680
aS'73821'
p4681
aS'73930'
p4682
aS'74021'
p4683
aS'74451'
p4684
aS'74493'
p4685
ag2543
ag2544
ag2545
ag2546
ag2547
ag2548
ag2549
aS'73126'
p4686
aS'73142'
p4687
aS'73325'
p4688
aS'73537'
p4689
aS'73631'
p4690
aS'73792'
p4691
aS'74421'
p4692
ag2550
ag2551
ag2552
ag2553
ag2554
ag2555
ag2556
ag2557
ag2558
ag2559
ag2560
aS'73124'
p4693
aS'73129'
p4694
aS'73135'
p4695
aS'73140'
p4696
asS'Vr\xc5\xbeanov'
p4697
(lp4698
S'588 22'
p4699
asS'Victoriaville South'
p4700
(lp4701
S'G6R'
p4702
aS'G6R'
p4703
asS'Vessy'
p4704
(lp4705
S'1234'
p4706
aS'1234'
p4707
asS'Vestec'
p4708
(lp4709
S'257 24'
p4710
aS'538 43'
p4711
aS'551 01'
p4712
asS'Valle Benedetta'
p4713
(lp4714
S'57124'
p4715
asS'Vauderens'
p4716
(lp4717
S'1675'
p4718
asS'Vojt\xc4\x9b\xc5\xa1ice'
p4719
(lp4720
S'512 43'
p4721
asS'V\xc3\xadno'
p4722
(lp4723
S'793 97'
p4724
asS'Vikran'
p4725
(lp4726
S'9057'
p4727
aS'9057'
p4728
asS'Valt\xc3\xadnov'
p4729
(lp4730
S'378 53'
p4731
asS'V\xc5\xa1etaty'
p4732
(lp4733
S'277 16'
p4734
asS'Vadinar'
p4735
(lp4736
S'361010'
p4737
aS'361010'
p4738
asS'Var\xc3\xa1szl\xc3\xb3'
p4739
(lp4740
S'8723'
p4741
asS'Vysok\xc3\xbd Potok'
p4742
(lp4743
S'788 33'
p4744
asS'Velk\xc3\xa1 \xc4\x8cernoc'
p4745
(lp4746
S'438 01'
p4747
asS'Velenov'
p4748
(lp4749
S'680 01'
p4750
asS'Villanua'
p4751
(lp4752
S'22870'
p4753
aS'22870'
p4754
asS'Villafranca Del Castillo'
p4755
(lp4756
S'28692'
p4757
aS'28692'
p4758
asS'Villaggio Paradiso'
p4759
(lp4760
S'98168'
p4761
asS'Vadakkanendal'
p4762
(lp4763
S'606207'
p4764
aS'606207'
p4765
asS'Vimont'
p4766
(lp4767
S'H7M'
p4768
aS'H7M'
p4769
asS'Versmold'
p4770
(lp4771
S'33775'
p4772
aS'33775'
p4773
asS'Volkov'
p4774
(lp4775
S'351 34'
p4776
asS'Velk\xc3\xbd Karlov'
p4777
(lp4778
S'671 28'
p4779
asS'Vesel\xc3\xad\xc4\x8dko'
p4780
(lp4781
S'398 42'
p4782
aS'783 24'
p4783
asS'Vomp'
p4784
(lp4785
S'6134'
p4786
aS'6134'
p4787
asS'Valoria La Buena'
p4788
(lp4789
S'47200'
p4790
aS'47200'
p4791
asS'Vrcov'
p4792
(lp4793
S'373 12'
p4794
asS'V\xc5\xa1eruby'
p4795
(lp4796
S'345 07'
p4797
asS'Vancouver (South Grandview- Woodlands / NE Kensington)'
p4798
(lp4799
S'V5N'
p4800
aS'V5N'
p4801
asS'Vlachova Lhota'
p4802
(lp4803
S'766 01'
p4804
asS'Vancouver (Dunbar- Southlands / Musqueam)'
p4805
(lp4806
S'V6N'
p4807
aS'V6N'
p4808
asS'Velk\xc3\xa9 Chvojno'
p4809
(lp4810
S'403 34'
p4811
asS'Vele\xc5\x88'
p4812
(lp4813
S'250 63'
p4814
asS'Valladolises'
p4815
(lp4816
S'30154'
p4817
aS'30154'
p4818
asS'Vetlanda'
p4819
(lp4820
S'57421'
p4821
aS'57422'
p4822
aS'57432'
p4823
aS'57434'
p4824
aS'57438'
p4825
aS'57421'
p4826
aS'57432'
p4827
aS'57422'
p4828
aS'57434'
p4829
aS'57438'
p4830
asS'Vancouver (Strathcona / Chinatown / Downtown Eastside)'
p4831
(lp4832
S'V6A'
p4833
aS'V6A'
p4834
asS'Viladecans'
p4835
(lp4836
S'08840'
p4837
asS'V\xc3\xa1clavice'
p4838
(lp4839
S'256 01'
p4840
asS'Vigyana Kendra'
p4841
(lp4842
S'560065'
p4843
aS'560065'
p4844
asS'Verdasio'
p4845
(lp4846
S'6655'
p4847
asS'Velk\xc3\xbd T\xc3\xbdnec'
p4848
(lp4849
S'783 72'
p4850
asS'V\xc3\xbdsada'
p4851
(lp4852
S'431 91'
p4853
asS'Verdun North'
p4854
(lp4855
S'H4G'
p4856
aS'H4G'
p4857
asS'Vadal'
p4858
(lp4859
S'362310'
p4860
aS'362310'
p4861
asS'Vojslavice'
p4862
(lp4863
S'384 21'
p4864
asS'Vedav\xc3\xa5gen'
p4865
(lp4866
S'4276'
p4867
aS'4276'
p4868
asS'Valbo'
p4869
(lp4870
S'81830'
p4871
aS'81832'
p4872
aS'81833'
p4873
aS'81891'
p4874
aS'81833'
p4875
aS'81830'
p4876
aS'81832'
p4877
aS'81891'
p4878
asS'Vacenovice'
p4879
(lp4880
S'696 06'
p4881
aS'675 51'
p4882
asS'Vr\xc5\xa1ovice (\xc4\x8d\xc3\xa1st)'
p4883
(lp4884
S'101 00'
p4885
asS'Vorau'
p4886
(lp4887
S'8250'
p4888
aS'8250'
p4889
asS'V\xc4\x9bdomice'
p4890
(lp4891
S'413 01'
p4892
asS'Vacovy'
p4893
(lp4894
S'340 21'
p4895
asS'Valley Springs'
p4896
(lp4897
S'57068'
p4898
aS'57068'
p4899
asS'Vajta'
p4900
(lp4901
S'7041'
p4902
asS'Val-B\xc3\xa9lair North'
p4903
(lp4904
S'G3J'
p4905
aS'G3J'
p4906
asS'Velk\xc3\xa9 Karlovice'
p4907
(lp4908
g3206
asS'V\xc5\xa1edobrovice'
p4909
(lp4910
S'251 68'
p4911
asS'V\xc3\xadcenice'
p4912
(lp4913
S'339 01'
p4914
asS'Vancouver (South Renfrew- Collingwood)'
p4915
(lp4916
S'V5R'
p4917
aS'V5R'
p4918
asS'Velk\xc3\xbd P\xc4\x9b\xc4\x8d\xc3\xadn'
p4919
(lp4920
S'380 01'
p4921
asS'Veyras'
p4922
(lp4923
g3087
ag3193
asS'Volyn\xc4\x9b'
p4924
(lp4925
S'387 01'
p4926
asS'Vr\xc3\xa1\xc5\xbe'
p4927
(lp4928
S'267 11'
p4929
aS'339 01'
p4930
asS'Vecchiazzano'
p4931
(lp4932
S'47100'
p4933
asS'Velk\xc3\xa1 Ves'
p4934
(lp4935
S'550 01'
p4936
asS'Vrbice u St\xc5\x99\xc3\xadbra'
p4937
(lp4938
S'349 01'
p4939
asS'Valbom'
p4940
(lp4941
S'6000-009'
p4942
aS'6000-009'
p4943
asS'Villars-sous-Mont'
p4944
(lp4945
S'1666'
p4946
asS'Velk\xc3\xa1 Javorsk\xc3\xa1'
p4947
(lp4948
S'471 05'
p4949
asS'Vratimov'
p4950
(lp4951
S'739 32'
p4952
asS'Varen'
p4953
(lp4954
g3147
asS'Veteran'
p4955
(lp4956
S'82243'
p4957
aS'82243'
p4958
asS'Vlachovice'
p4959
(lp4960
S'763 24'
p4961
asS'Visby'
p4962
(lp4963
S'62111'
p4964
aS'62112'
p4965
aS'62114'
p4966
aS'62116'
p4967
aS'62121'
p4968
aS'62123'
p4969
aS'62124'
p4970
aS'62141'
p4971
aS'62144'
p4972
aS'62145'
p4973
aS'62146'
p4974
aS'62148'
p4975
aS'62151'
p4976
aS'62153'
p4977
aS'62154'
p4978
aS'62157'
p4979
aS'62167'
p4980
aS'62173'
p4981
aS'62175'
p4982
aS'62176'
p4983
aS'62177'
p4984
aS'62178'
p4985
aS'62179'
p4986
aS'62185'
p4987
aS'62186'
p4988
aS'62189'
p4989
aS'62190'
p4990
aS'62191'
p4991
aS'62192'
p4992
aS'62198'
p4993
aS'62141'
p4994
aS'62145'
p4995
aS'62150'
p4996
aS'62157'
p4997
aS'62191'
p4998
aS'62123'
p4999
aS'62121'
p5000
aS'62124'
p5001
aS'62146'
p5002
aS'62148'
p5003
aS'62153'
p5004
aS'62175'
p5005
aS'62186'
p5006
aS'62198'
p5007
aS'62177'
p5008
aS'62151'
p5009
aS'62154'
p5010
aS'62173'
p5011
aS'62178'
p5012
aS'62190'
p5013
aS'62100'
p5014
aS'62144'
p5015
aS'62167'
p5016
aS'62179'
p5017
aS'62185'
p5018
aS'62192'
p5019
aS'62176'
p5020
aS'62111'
p5021
aS'62112'
p5022
aS'62114'
p5023
aS'62116'
p5024
aS'62189'
p5025
asS'V\xc3\xa1rbalog'
p5026
(lp5027
S'9243'
p5028
asS'Verdelho'
p5029
(lp5030
S'2000-345'
p5031
aS'2000-345'
p5032
asS'Vlado\xc5\x99ice'
p5033
(lp5034
S'364 52'
p5035
asS'Vich'
p5036
(lp5037
S'1267'
p5038
aS'1267'
p5039
asS'Vindeln'
p5040
(lp5041
S'92231'
p5042
aS'92231'
p5043
asS'Vrbno nad Lesy'
p5044
(lp5045
S'439 06'
p5046
asS'V\xc3\xa4sterhaninge'
p5047
(lp5048
S'13721'
p5049
aS'13721'
p5050
asS'Valladolid'
p5051
(lp5052
S'47002'
p5053
aS'47006'
p5054
aS'47008'
p5055
aS'47009'
p5056
aS'47010'
p5057
aS'47012'
p5058
aS'47071'
p5059
aS'47001'
p5060
aS'47008'
p5061
aS'47002'
p5062
aS'47009'
p5063
aS'47012'
p5064
aS'47006'
p5065
aS'47010'
p5066
aS'47071'
p5067
asS'Visttr\xc3\xa4sk'
p5068
(lp5069
S'94291'
p5070
aS'94291'
p5071
asS'Velk\xc3\xa1 Rovn\xc3\xa1'
p5072
(lp5073
S'395 01'
p5074
asS'Vojnice'
p5075
(lp5076
S'387 16'
p5077
aS'440 01'
p5078
aS'783 46'
p5079
asS'Viso Del Marques'
p5080
(lp5081
S'13770'
p5082
aS'13770'
p5083
asS'V\xc4\x9b\xc5\xben\xc3\xadkov'
p5084
(lp5085
S'285 22'
p5086
asS'V\xc3\xadt\xc4\x9bzn\xc3\xa1-Bukovina x)'
p5087
(lp5088
g1771
asS'Velk\xc3\xbd Hlav\xc3\xa1kov'
p5089
(lp5090
S'364 52'
p5091
asS'Vallenoncello'
p5092
(lp5093
S'33170'
p5094
asS'Vlastec'
p5095
(lp5096
S'397 01'
p5097
asS'Vancouver (Waterfront / Coal Harbour / Canada Place)'
p5098
(lp5099
S'V6C'
p5100
aS'V6C'
p5101
asS'Valdice'
p5102
(lp5103
S'512 51'
p5104
asS'Vintrosa'
p5105
(lp5106
S'71932'
p5107
asS'Velk\xc3\xa9 Mezi\xc5\x99\xc3\xad\xc4\x8d\xc3\xad'
p5108
(lp5109
S'594 01'
p5110
asS'Valmikinagar'
p5111
(lp5112
S'503001'
p5113
asS'Vlkava'
p5114
(lp5115
S'294 43'
p5116
asS'Vaishno Devi'
p5117
(lp5118
S'182302'
p5119
aS'182302'
p5120
asS'Vacovice'
p5121
(lp5122
S'387 19'
p5123
asS'Vy\xc5\xa1kov'
p5124
(lp5125
S'683 01'
p5126
aS'685 01'
p5127
aS'683 04'
p5128
aS'683 52'
p5129
aS'683 03'
p5130
aS'683 41'
p5131
aS'683 05'
p5132
aS'683 35'
p5133
aS'682 01'
p5134
ag5134
aS'685 01'
p5135
ag946
aS'683 08'
p5136
aS'683 54'
p5137
aS'683 21'
p5138
aS'682 01'
p5139
aS'682 01'
p5140
aS'683 04'
p5141
aS'685 01'
p5142
aS'682 01'
p5143
aS'682 01'
p5144
aS'682 01'
p5145
aS'682 01'
p5146
aS'682 01'
p5147
aS'682 01'
p5148
aS'683 01'
p5149
aS'683 04'
p5150
aS'683 08'
p5151
aS'683 21'
p5152
aS'683 41'
p5153
aS'684 01'
p5154
aS'685 01'
p5155
aS'685 01'
p5156
aS'683 33'
p5157
aS'682 01'
p5158
aS'683 01'
p5159
aS'683 01'
p5160
aS'683 03'
p5161
aS'683 21'
p5162
aS'683 33'
p5163
aS'683 41'
p5164
aS'683 52'
p5165
aS'684 01'
p5166
aS'682 01'
p5167
aS'683 21'
p5168
aS'683 33'
p5169
aS'682 01'
p5170
aS'683 33'
p5171
aS'683 41'
p5172
aS'685 01'
p5173
ag3695
aS'682 01'
p5174
aS'682 01'
p5175
aS'682 01'
p5176
aS'683 01'
p5177
aS'683 05'
p5178
aS'683 33'
p5179
aS'683 33'
p5180
aS'683 33'
p5181
aS'683 41'
p5182
aS'682 01'
p5183
aS'683 01'
p5184
aS'684 01'
p5185
aS'685 01'
p5186
asS'Venice'
p5187
(lp5188
S'70091'
p5189
aS'70091'
p5190
asS'Velk\xc3\xa9 V\xc5\xa1elisy'
p5191
(lp5192
S'294 27'
p5193
asS'Vr\xc3\xa1b\xc4\x8de'
p5194
(lp5195
S'370 01'
p5196
asS'Vezseny'
p5197
(lp5198
S'5093'
p5199
asS'Vranice'
p5200
(lp5201
S'285 04'
p5202
asS'Vodochody'
p5203
(lp5204
S'411 84'
p5205
asS'Vicenza'
p5206
g4307
sS'V\xc3\xa4rends N\xc3\xb6bbele'
p5207
(lp5208
S'36047'
p5209
aS'36047'
p5210
asS'Vanvikan'
p5211
(lp5212
S'7126'
p5213
aS'7126'
p5214
asS'V\xc3\xa1clavky'
p5215
(lp5216
S'570 01'
p5217
asS'Viola'
p5218
(lp5219
S'19979'
p5220
aS'19979'
p5221
asS'Visonta'
p5222
(lp5223
S'3272'
p5224
aS'3272'
p5225
asS'Valencia'
p5226
(lp5227
S'46003'
p5228
aS'46005'
p5229
aS'46007'
p5230
aS'46009'
p5231
aS'46018'
p5232
aS'46023'
p5233
aS'46024'
p5234
aS'46026'
p5235
aS'46003'
p5236
aS'46014'
p5237
aS'46001'
p5238
aS'46005'
p5239
aS'46007'
p5240
aS'46009'
p5241
aS'46018'
p5242
aS'46023'
p5243
aS'46013'
p5244
aS'46026'
p5245
aS'46017'
p5246
aS'46024'
p5247
asS'Vranov\xc3\xa1 Lhota'
p5248
(lp5249
S'571 01'
p5250
asS'V\xc5\xa1echlapy'
p5251
(lp5252
S'288 02'
p5253
aS'440 01'
p5254
aS'417 71'
p5255
asS'V\xc4\x9b\xc5\xa1\xc5\xa5any'
p5256
(lp5257
S'415 01'
p5258
asS'Vesteck\xc3\xa1 Lhotka'
p5259
(lp5260
S'583 01'
p5261
asS'Viela'
p5262
(lp5263
g2732
ag2831
asS'Vi\xc4\x8dice'
p5264
(lp5265
S'438 01'
p5266
asS'Vard\xc3\xb8'
p5267
(lp5268
S'9950'
p5269
aS'9951'
p5270
aS'9950'
p5271
asS'V\xc4\x9b\xc5\xbeky'
p5272
(lp5273
S'768 33'
p5274
asS'Valtierra'
p5275
(lp5276
S'31514'
p5277
aS'31514'
p5278
asS'Valchov'
p5279
(lp5280
S'680 01'
p5281
asS'Velenka'
p5282
(lp5283
S'289 12'
p5284
asS'Velkol\xc3\xa1nsk\xc3\xa9'
p5285
(lp5286
S'533 03'
p5287
asS'Valnesfjord'
p5288
(lp5289
S'8215'
p5290
aS'8215'
p5291
asS'Verpel\xc3\xa9t'
p5292
(lp5293
S'3351'
p5294
aS'3351'
p5295
asS'Vrahovice'
p5296
(lp5297
S'798 11'
p5298
asS'Vrchovina'
p5299
(lp5300
S'463 44'
p5301
asS'Vorchdorf'
p5302
(lp5303
S'4655'
p5304
asS'Vatne'
p5305
(lp5306
S'6265'
p5307
aS'6283'
p5308
aS'6265'
p5309
asS'V\xc5\xa1e\xc5\x88'
p5310
(lp5311
S'512 65'
p5312
asS'Vangsvik'
p5313
(lp5314
S'9304'
p5315
aS'9304'
p5316
asS'V\xc3\xa4se'
p5317
(lp5318
g1490
ag1575
asS'Valt\xc3\xa9\xc5\x99ov'
p5319
(lp5320
S'358 01'
p5321
asS'Voss'
p5322
(lp5323
S'5700'
p5324
asS'Vessy Distribution'
p5325
(lp5326
S'1234'
p5327
asS'Veliny'
p5328
(lp5329
S'534 01'
p5330
asS'Vinn\xc3\xa9'
p5331
(lp5332
S'412 01'
p5333
asS'V\xc5\xa1ebo\xc5\x99ice'
p5334
(lp5335
S'400 10'
p5336
asS'Vinn\xc3\xa1'
p5337
(lp5338
S'382 03'
p5339
asS'Vuadens'
p5340
(lp5341
S'1628'
p5342
aS'1628'
p5343
asS'Vevey 1'
p5344
(lp5345
S'1800'
p5346
asS'Vidhana Soudha'
p5347
(lp5348
S'560001'
p5349
asS'Visperterminen'
p5350
(lp5351
g3141
asS'Vancouver (SW Downtown)'
p5352
(lp5353
S'V6Z'
p5354
aS'V6Z'
p5355
asS'Vl\xc4\x8det\xc3\xadn'
p5356
(lp5357
S'394 68'
p5358
aS'463 43'
p5359
asS'Villarejo'
p5360
(lp5361
S'26325'
p5362
asS'Vicques'
p5363
(lp5364
S'2824'
p5365
aS'2824'
p5366
asS'Vackovec'
p5367
(lp5368
S'350 02'
p5369
asS'Villanueva De La Pe\xc3\xb1a'
p5370
(lp5371
S'39509'
p5372
aS'39509'
p5373
asS'V\xc5\xa1em\xc4\x9b\xc5\x99ice'
p5374
(lp5375
S'382 72'
p5376
asS'Valle Guerra'
p5377
(lp5378
S'38270'
p5379
aS'38270'
p5380
asS'V\xc3\xa4stra Fr\xc3\xb6lunda'
p5381
(lp5382
S'42123'
p5383
aS'42130'
p5384
aS'42132'
p5385
aS'42139'
p5386
aS'42605'
p5387
aS'42654'
p5388
aS'42130'
p5389
aS'42132'
p5390
aS'42123'
p5391
aS'42139'
p5392
aS'42605'
p5393
aS'42654'
p5394
asS'Viella'
p5395
(lp5396
S'33429'
p5397
asS'Vuollerim'
p5398
(lp5399
S'96030'
p5400
aS'96030'
p5401
asS'Vashon'
p5402
(lp5403
S'98070'
p5404
aS'98070'
p5405
asS'Vars\xc3\xa1ny'
p5406
(lp5407
S'3178'
p5408
asS'Veszpr\xc3\xa9m'
p5409
(lp5410
S'8200'
p5411
ag5411
aS'8230'
p5412
aS'8400'
p5413
aS'8100'
p5414
aS'8201'
p5415
ag5415
aS'8420'
p5416
aS'8226'
p5417
aS'8253'
p5418
aS'8330'
p5419
aS'8248'
p5420
aS'8105'
p5421
aS'8202'
p5422
ag5422
aS'8242'
p5423
aS'8245'
p5424
aS'8251'
p5425
aS'8263'
p5426
aS'8272'
p5427
aS'8312'
p5428
aS'8401'
p5429
aS'8460'
p5430
aS'8496'
p5431
aS'8597'
p5432
aS'8196'
p5433
aS'8228'
p5434
aS'8274'
p5435
aS'8294'
p5436
aS'8101'
p5437
aS'8164'
p5438
aS'8225'
p5439
aS'8244'
p5440
aS'8254'
p5441
aS'8256'
p5442
aS'8271'
p5443
aS'8284'
p5444
aS'8295'
p5445
aS'8308'
p5446
aS'8318'
p5447
aS'8346'
p5448
aS'8414'
p5449
aS'8417'
p5450
aS'8424'
p5451
aS'8430'
p5452
ag2125
aS'8443'
p5453
ag3603
aS'8452'
p5454
aS'8474'
p5455
aS'8492'
p5456
aS'8553'
p5457
aS'8595'
p5458
aS'9533'
p5459
aS'8103'
p5460
aS'8109'
p5461
aS'8183'
p5462
aS'8195'
p5463
aS'8230'
p5464
ag1171
aS'8272'
p5465
aS'8275'
p5466
aS'8284'
p5467
aS'8296'
p5468
aS'8319'
p5469
aS'8351'
p5470
aS'8418'
p5471
aS'8426'
p5472
aS'8442'
p5473
aS'8454'
p5474
aS'8477'
p5475
aS'8483'
p5476
aS'8495'
p5477
aS'8514'
p5478
aS'8517'
p5479
aS'8521'
p5480
aS'8523'
p5481
aS'8533'
p5482
aS'8551'
p5483
aS'8555'
p5484
aS'8558'
p5485
aS'8562'
p5486
aS'8571'
p5487
aS'8581'
p5488
aS'8597'
p5489
aS'8162'
p5490
aS'8308'
p5491
aS'8423'
p5492
aS'8471'
p5493
aS'8493'
p5494
aS'8511'
p5495
aS'8563'
p5496
aS'8184'
p5497
aS'8272'
p5498
ag1130
aS'8403'
p5499
aS'8445'
p5500
aS'8469'
p5501
aS'8478'
p5502
aS'8101'
p5503
aS'8105'
p5504
aS'8109'
p5505
aS'8162'
p5506
aS'8164'
p5507
aS'8183'
p5508
aS'8184'
p5509
aS'8195'
p5510
aS'8196'
p5511
aS'8226'
p5512
aS'8230'
p5513
aS'8242'
p5514
aS'8244'
p5515
aS'8245'
p5516
aS'8248'
p5517
aS'8254'
p5518
aS'8256'
p5519
aS'8263'
p5520
aS'8271'
p5521
aS'8274'
p5522
aS'8275'
p5523
aS'8284'
p5524
aS'8294'
p5525
aS'8295'
p5526
aS'8296'
p5527
aS'8308'
p5528
aS'8312'
p5529
aS'8318'
p5530
aS'8319'
p5531
aS'8346'
p5532
aS'8351'
p5533
aS'8400'
p5534
aS'8401'
p5535
aS'8403'
p5536
aS'8414'
p5537
aS'8417'
p5538
aS'8418'
p5539
aS'8420'
p5540
aS'8424'
p5541
aS'8430'
p5542
ag2126
aS'8442'
p5543
aS'8443'
p5544
aS'8445'
p5545
aS'8452'
p5546
aS'8460'
p5547
aS'8471'
p5548
aS'8474'
p5549
aS'8477'
p5550
aS'8478'
p5551
aS'8492'
p5552
aS'8493'
p5553
aS'8495'
p5554
aS'8496'
p5555
aS'8511'
p5556
aS'8517'
p5557
aS'8521'
p5558
aS'8523'
p5559
aS'8533'
p5560
aS'8551'
p5561
aS'8555'
p5562
aS'8558'
p5563
aS'8562'
p5564
aS'8563'
p5565
aS'8571'
p5566
aS'8581'
p5567
aS'8597'
p5568
asS'Vysok\xc3\xa1'
p5569
(lp5570
S'277 24'
p5571
aS'431 02'
p5572
aS'569 43'
p5573
aS'566 01'
p5574
aS'586 01'
p5575
aS'788 33'
p5576
asS'V\xc3\xa9senaz Distribution'
p5577
(lp5578
S'1222'
p5579
asS'Vnorovy'
p5580
(lp5581
S'696 61'
p5582
asS'Viratnagar'
p5583
(lp5584
S'303102'
p5585
aS'303102'
p5586
asS'Veltheim AG'
p5587
(lp5588
S'5106'
p5589
asS'Villamayor (Pilo\xc3\xb1a)'
p5590
(lp5591
S'33583'
p5592
aS'33583'
p5593
asS'Volavec'
p5594
(lp5595
S'512 63'
p5596
asS'Vik I Sogn'
p5597
(lp5598
S'6893'
p5599
aS'6891'
p5600
aS'6891'
p5601
aS'6893'
p5602
asS'V\xc3\xa4stra G\xc3\xb6taland'
p5603
(lp5604
S'40015'
p5605
aS'40032'
p5606
ag5606
aS'40053'
p5607
ag5607
aS'40091'
p5608
ag5608
aS'40120'
p5609
ag5609
aS'40530'
p5610
ag5610
aS'41104'
p5611
ag5611
aS'41107'
p5612
ag5612
aS'41136'
p5613
ag5613
aS'41139'
p5614
ag5614
aS'41250'
p5615
ag5615
aS'41265'
p5616
ag5616
aS'41266'
p5617
ag5617
aS'41296'
p5618
ag5618
aS'41328'
p5619
ag5619
aS'41345'
p5620
ag5620
aS'41451'
p5621
ag5621
aS'41503'
p5622
ag5622
aS'41507'
p5623
ag5623
aS'41664'
p5624
ag5624
aS'41674'
p5625
ag5625
aS'41707'
p5626
ag5626
aS'41744'
p5627
ag5627
aS'41755'
p5628
ag5628
aS'41834'
p5629
ag5629
ag5383
ag5384
ag5385
ag5386
aS'42243'
p5630
aS'42246'
p5631
aS'42432'
p5632
aS'42439'
p5633
aS'42502'
p5634
aS'42534'
p5635
aS'42565'
p5636
ag5387
ag5388
aS'42721'
p5637
aS'42834'
p5638
aS'43033'
p5639
aS'43091'
p5640
aS'43124'
p5641
aS'43133'
p5642
aS'43137'
p5643
aS'43153'
p5644
aS'43304'
p5645
aS'43544'
p5646
aS'43632'
p5647
aS'43735'
p5648
aS'43892'
p5649
aS'44180'
p5650
aS'44240'
p5651
aS'44294'
p5652
aS'44331'
p5653
aS'44339'
p5654
aS'44421'
p5655
aS'44423'
p5656
aS'45043'
p5657
aS'45071'
p5658
aS'45152'
p5659
aS'45193'
p5660
aS'45194'
p5661
aS'45230'
p5662
aS'46064'
p5663
aS'46138'
p5664
aS'46235'
p5665
aS'47141'
p5666
aS'50115'
p5667
aS'50336'
p5668
aS'50412'
p5669
aS'50431'
p5670
aS'50494'
p5671
aS'50740'
p5672
aS'50742'
p5673
aS'51104'
p5674
aS'51156'
p5675
aS'51157'
p5676
aS'51491'
p5677
aS'52010'
p5678
aS'52040'
p5679
aS'52102'
p5680
aS'52141'
p5681
aS'52231'
p5682
aS'52326'
p5683
aS'52390'
p5684
aS'53102'
p5685
aS'53198'
p5686
aS'53374'
p5687
aS'54106'
p5688
aS'54128'
p5689
aS'54131'
p5690
aS'54421'
p5691
aS'54531'
p5692
aS'40032'
p5693
ag5693
aS'40530'
p5694
ag5694
aS'41296'
p5695
ag5695
aS'41451'
p5696
ag5696
ag5389
ag5390
aS'42534'
p5697
aS'43153'
p5698
aS'43632'
p5699
aS'44339'
p5700
aS'51157'
p5701
aS'52326'
p5702
aS'53374'
p5703
aS'41250'
p5704
ag5704
aS'41674'
p5705
ag5705
aS'42246'
p5706
aS'42502'
p5707
aS'43033'
p5708
aS'43137'
p5709
aS'44240'
p5710
aS'45193'
p5711
aS'50412'
p5712
aS'50742'
p5713
aS'52040'
p5714
aS'53198'
p5715
aS'54128'
p5716
aS'40015'
p5717
ag5717
aS'40091'
p5718
ag5718
aS'41101'
p5719
ag5719
aS'41104'
p5720
ag5720
aS'41107'
p5721
ag5721
aS'41136'
p5722
ag5722
aS'41266'
p5723
ag5723
aS'41328'
p5724
ag5724
aS'41503'
p5725
ag5725
aS'41664'
p5726
ag5726
aS'41707'
p5727
ag5727
aS'41755'
p5728
ag5728
aS'41834'
p5729
ag5729
ag5391
ag5392
aS'42432'
p5730
ag5393
ag5394
aS'42721'
p5731
aS'43091'
p5732
aS'43124'
p5733
aS'43304'
p5734
aS'43521'
p5735
aS'43544'
p5736
aS'43735'
p5737
aS'43892'
p5738
aS'44180'
p5739
aS'44294'
p5740
aS'44331'
p5741
aS'44421'
p5742
aS'44423'
p5743
aS'45043'
p5744
aS'45071'
p5745
aS'45152'
p5746
aS'45194'
p5747
aS'45230'
p5748
aS'46064'
p5749
aS'46138'
p5750
aS'46235'
p5751
aS'47141'
p5752
aS'50115'
p5753
aS'50336'
p5754
aS'50431'
p5755
aS'50494'
p5756
aS'50740'
p5757
aS'51104'
p5758
aS'51156'
p5759
aS'51491'
p5760
aS'52010'
p5761
aS'52102'
p5762
aS'52141'
p5763
aS'52231'
p5764
aS'52390'
p5765
aS'53102'
p5766
aS'53221'
p5767
aS'54106'
p5768
aS'54131'
p5769
aS'54421'
p5770
aS'54531'
p5771
aS'40013'
p5772
ag5772
aS'40053'
p5773
ag5773
aS'40120'
p5774
ag5774
aS'41139'
p5775
ag5775
aS'41265'
p5776
ag5776
aS'41345'
p5777
ag5777
aS'41507'
p5778
ag5778
aS'41744'
p5779
ag5779
aS'42243'
p5780
aS'42439'
p5781
aS'42565'
p5782
aS'42834'
p5783
aS'43133'
p5784
asS'Volcano'
p5785
(lp5786
S'96785'
p5787
aS'96785'
p5788
asS'V\xc3\xa1rpalota'
p5789
(lp5790
g5414
ag5437
ag5460
ag5503
asS'Valdemaqueda'
p5791
(lp5792
S'28295'
p5793
aS'28295'
p5794
asS'Vr\xc3\xa1to'
p5795
(lp5796
S'370 01'
p5797
asS'Vilarmaior'
p5798
(lp5799
S'15637'
p5800
aS'15637'
p5801
asS'Villatuerta'
p5802
(lp5803
S'31132'
p5804
asS'Vrchovany'
p5805
(lp5806
S'471 41'
p5807
asS'Vitanovice'
p5808
(lp5809
S'463 45'
p5810
asS'Vojkovice'
p5811
(lp5812
S'277 44'
p5813
aS'739 51'
p5814
asS'Viseu'
p5815
(lp5816
S'3430-001'
p5817
aS'3430-003'
p5818
ag5818
aS'3430-007'
p5819
ag5819
aS'3430-009'
p5820
ag5820
aS'3430-016'
p5821
ag5821
aS'3430-018'
p5822
ag5822
aS'3430-021'
p5823
ag5823
aS'3430-025'
p5824
ag5824
aS'3430-027'
p5825
ag5825
aS'3430-029'
p5826
ag5826
aS'3430-033'
p5827
ag5827
aS'3430-038'
p5828
ag5828
aS'3430-040'
p5829
ag5829
aS'3430-044'
p5830
ag5830
aS'3430-046'
p5831
ag5831
aS'3430-048'
p5832
ag5832
aS'3430-051'
p5833
ag5833
aS'3430-055'
p5834
ag5834
aS'3430-059'
p5835
ag5835
aS'3430-067'
p5836
ag5836
aS'3430-071'
p5837
ag5837
aS'3430-073'
p5838
ag5838
aS'3430-077'
p5839
ag5839
aS'3430-083'
p5840
ag5840
aS'3430-086'
p5841
ag5841
aS'3430-088'
p5842
ag5842
aS'3430-090'
p5843
ag5843
aS'3430-094'
p5844
ag5844
aS'3430-120'
p5845
ag5845
aS'3430-122'
p5846
ag5846
aS'3430-127'
p5847
ag5847
aS'3430-131'
p5848
ag5848
aS'3430-134'
p5849
ag5849
aS'3430-139'
p5850
ag5850
aS'3430-142'
p5851
ag5851
aS'3430-144'
p5852
ag5852
aS'3430-147'
p5853
ag5853
aS'3430-149'
p5854
ag5854
aS'3430-151'
p5855
aS'3430-153'
p5856
ag5856
aS'3430-155'
p5857
ag5857
aS'3430-157'
p5858
ag5858
aS'3430-159'
p5859
ag5859
aS'3430-161'
p5860
ag5860
aS'3430-163'
p5861
ag5861
aS'3430-165'
p5862
ag5862
aS'3430-167'
p5863
ag5863
aS'3430-169'
p5864
aS'3430-211'
p5865
aS'3430-261'
p5866
ag5866
aS'3430-271'
p5867
aS'3430-292'
p5868
aS'3430-294'
p5869
aS'3430-298'
p5870
aS'3430-300'
p5871
aS'3430-302'
p5872
aS'3430-304'
p5873
aS'3430-306'
p5874
aS'3430-308'
p5875
aS'3430-310'
p5876
aS'3430-312'
p5877
aS'3430-314'
p5878
aS'3430-316'
p5879
aS'3430-318'
p5880
aS'3430-321'
p5881
aS'3430-341'
p5882
aS'3430-343'
p5883
aS'3430-345'
p5884
aS'3430-350'
p5885
aS'3430-352'
p5886
aS'3430-355'
p5887
aS'3430-358'
p5888
aS'3430-360'
p5889
aS'3430-362'
p5890
aS'3430-364'
p5891
aS'3430-366'
p5892
aS'3430-368'
p5893
aS'3430-371'
p5894
aS'3430-373'
p5895
aS'3430-377'
p5896
aS'3430-392'
p5897
aS'3430-394'
p5898
aS'3430-396'
p5899
aS'3430-399'
p5900
aS'3430-401'
p5901
aS'3430-403'
p5902
aS'3430-405'
p5903
aS'3430-407'
p5904
aS'3430-409'
p5905
aS'3430-412'
p5906
aS'3430-420'
p5907
aS'3430-501'
p5908
aS'3430-503'
p5909
aS'3430-505'
p5910
aS'3430-507'
p5911
aS'3430-509'
p5912
aS'3430-511'
p5913
aS'3430-513'
p5914
aS'3430-515'
p5915
aS'3430-517'
p5916
aS'3430-001'
p5917
ag5917
aS'3430-003'
p5918
ag5918
aS'3430-007'
p5919
ag5919
aS'3430-009'
p5920
ag5920
aS'3430-016'
p5921
ag5921
aS'3430-018'
p5922
ag5922
aS'3430-021'
p5923
ag5923
aS'3430-025'
p5924
ag5924
aS'3430-027'
p5925
ag5925
aS'3430-029'
p5926
ag5926
aS'3430-033'
p5927
ag5927
aS'3430-038'
p5928
ag5928
aS'3430-040'
p5929
ag5929
aS'3430-044'
p5930
ag5930
aS'3430-046'
p5931
ag5931
aS'3430-048'
p5932
ag5932
aS'3430-051'
p5933
ag5933
aS'3430-055'
p5934
ag5934
aS'3430-059'
p5935
ag5935
aS'3430-067'
p5936
ag5936
aS'3430-071'
p5937
ag5937
aS'3430-073'
p5938
ag5938
aS'3430-077'
p5939
ag5939
aS'3430-083'
p5940
ag5940
aS'3430-086'
p5941
ag5941
aS'3430-088'
p5942
ag5942
aS'3430-090'
p5943
ag5943
aS'3430-094'
p5944
ag5944
aS'3430-120'
p5945
ag5945
aS'3430-122'
p5946
ag5946
aS'3430-127'
p5947
ag5947
aS'3430-131'
p5948
ag5948
aS'3430-134'
p5949
ag5949
aS'3430-139'
p5950
ag5950
aS'3430-142'
p5951
ag5951
aS'3430-144'
p5952
ag5952
aS'3430-147'
p5953
ag5953
aS'3430-149'
p5954
ag5954
aS'3430-151'
p5955
aS'3430-153'
p5956
ag5956
aS'3430-155'
p5957
ag5957
aS'3430-157'
p5958
ag5958
aS'3430-159'
p5959
ag5959
aS'3430-161'
p5960
ag5960
aS'3430-163'
p5961
ag5961
aS'3430-165'
p5962
ag5962
aS'3430-167'
p5963
ag5963
aS'3430-169'
p5964
aS'3430-211'
p5965
aS'3430-261'
p5966
ag5966
aS'3430-271'
p5967
aS'3430-292'
p5968
aS'3430-294'
p5969
aS'3430-298'
p5970
aS'3430-300'
p5971
aS'3430-302'
p5972
aS'3430-304'
p5973
aS'3430-306'
p5974
aS'3430-308'
p5975
aS'3430-310'
p5976
aS'3430-312'
p5977
aS'3430-314'
p5978
aS'3430-316'
p5979
aS'3430-318'
p5980
aS'3430-321'
p5981
aS'3430-341'
p5982
aS'3430-343'
p5983
aS'3430-345'
p5984
aS'3430-350'
p5985
aS'3430-352'
p5986
aS'3430-355'
p5987
aS'3430-358'
p5988
aS'3430-360'
p5989
aS'3430-362'
p5990
aS'3430-364'
p5991
aS'3430-366'
p5992
aS'3430-368'
p5993
aS'3430-371'
p5994
aS'3430-373'
p5995
aS'3430-377'
p5996
aS'3430-392'
p5997
aS'3430-394'
p5998
aS'3430-396'
p5999
aS'3430-399'
p6000
aS'3430-401'
p6001
aS'3430-403'
p6002
aS'3430-405'
p6003
aS'3430-407'
p6004
aS'3430-409'
p6005
aS'3430-412'
p6006
aS'3430-420'
p6007
aS'3430-501'
p6008
aS'3430-503'
p6009
aS'3430-505'
p6010
aS'3430-507'
p6011
aS'3430-509'
p6012
aS'3430-511'
p6013
aS'3430-513'
p6014
aS'3430-515'
p6015
aS'3430-517'
p6016
asS'V\xc3\xbd\xc5\xa1ovice'
p6017
(lp6018
S'798 09'
p6019
asS'V Marudur'
p6020
(lp6021
S'605602'
p6022
aS'605602'
p6023
asS'Victoria'
p6024
(lp6025
S'3000'
p6026
aS'3006'
p6027
aS'3043'
p6028
aS'3073'
p6029
aS'3152'
p6030
aS'3182'
p6031
aS'3232'
p6032
aS'3350'
p6033
aS'3550'
p6034
aS'3003'
p6035
aS'3008'
p6036
aS'3012'
p6037
aS'3013'
p6038
aS'3018'
p6039
aS'3020'
p6040
aS'3021'
p6041
aS'3022'
p6042
aS'3023'
p6043
aS'3026'
p6044
aS'3031'
p6045
aS'3034'
p6046
aS'3037'
p6047
aS'3039'
p6048
aS'3040'
p6049
aS'3041'
p6050
aS'3044'
p6051
aS'3047'
p6052
aS'3049'
p6053
aS'3050'
p6054
aS'3052'
p6055
aS'3054'
p6056
aS'3056'
p6057
aS'3058'
p6058
aS'3061'
p6059
aS'3063'
p6060
aS'3066'
p6061
aS'3068'
p6062
aS'3071'
p6063
aS'3074'
p6064
aS'3076'
p6065
aS'3078'
p6066
aS'3081'
p6067
aS'3083'
p6068
aS'3084'
p6069
aS'3085'
p6070
aS'3088'
p6071
aS'3090'
p6072
aS'3094'
p6073
aS'3095'
p6074
aS'3099'
p6075
aS'3102'
p6076
aS'3104'
p6077
aS'3106'
p6078
aS'3109'
p6079
aS'3111'
p6080
aS'3115'
p6081
aS'3121'
p6082
aS'3124'
p6083
aS'3125'
p6084
aS'3127'
p6085
aS'3128'
p6086
aS'3129'
p6087
aS'3130'
p6088
aS'3131'
p6089
aS'3132'
p6090
aS'3134'
p6091
aS'3136'
p6092
aS'3139'
p6093
aS'3141'
p6094
aS'3142'
p6095
aS'3144'
p6096
aS'3145'
p6097
aS'3146'
p6098
aS'3147'
p6099
aS'3149'
p6100
aS'3151'
p6101
aS'3153'
p6102
aS'3156'
p6103
aS'3161'
p6104
aS'3163'
p6105
aS'3165'
p6106
aS'3166'
p6107
aS'3168'
p6108
aS'3170'
p6109
aS'3174'
p6110
aS'3178'
p6111
aS'3180'
p6112
aS'3182'
p6113
aS'3186'
p6114
aS'3188'
p6115
aS'3190'
p6116
aS'3192'
p6117
aS'3194'
p6118
aS'3195'
p6119
aS'3195'
p6120
aS'3197'
p6121
aS'3200'
p6122
aS'3201'
p6123
aS'3204'
p6124
aS'3206'
p6125
aS'3018'
p6126
aS'3020'
p6127
aS'3022'
p6128
aS'3023'
p6129
aS'3031'
p6130
aS'3034'
p6131
aS'3037'
p6132
aS'3039'
p6133
aS'3040'
p6134
aS'3044'
p6135
aS'3047'
p6136
aS'3049'
p6137
aS'3052'
p6138
aS'3054'
p6139
aS'3056'
p6140
aS'3058'
p6141
aS'3061'
p6142
aS'3066'
p6143
aS'3068'
p6144
aS'3073'
p6145
aS'3074'
p6146
aS'3076'
p6147
aS'3078'
p6148
aS'3081'
p6149
aS'3083'
p6150
aS'3084'
p6151
aS'3085'
p6152
aS'3094'
p6153
aS'3095'
p6154
aS'3099'
p6155
aS'3102'
p6156
aS'3104'
p6157
aS'3106'
p6158
aS'3109'
p6159
aS'3111'
p6160
aS'3121'
p6161
aS'3124'
p6162
aS'3125'
p6163
aS'3128'
p6164
aS'3129'
p6165
aS'3130'
p6166
aS'3131'
p6167
aS'3136'
p6168
aS'3139'
p6169
aS'3141'
p6170
aS'3142'
p6171
aS'3144'
p6172
aS'3145'
p6173
aS'3146'
p6174
aS'3147'
p6175
aS'3149'
p6176
aS'3151'
p6177
aS'3153'
p6178
aS'3156'
p6179
aS'3161'
p6180
aS'3163'
p6181
aS'3165'
p6182
aS'3166'
p6183
aS'3168'
p6184
aS'3170'
p6185
aS'3174'
p6186
aS'3180'
p6187
aS'3186'
p6188
aS'3188'
p6189
aS'3190'
p6190
aS'3192'
p6191
aS'3194'
p6192
aS'3195'
p6193
aS'3197'
p6194
aS'3201'
p6195
aS'3204'
p6196
aS'3206'
p6197
aS'3232'
p6198
aS'3350'
p6199
aS'3550'
p6200
aS'41059'
p6201
aS'50162'
p6202
aS'55386'
p6203
aS'50162'
p6204
aS'41059'
p6205
aS'55386'
p6206
asS'Villeray West'
p6207
(lp6208
S'H2P'
p6209
aS'H2P'
p6210
asS'Vijaiganj Mandi'
p6211
(lp6212
S'456666'
p6213
aS'456666'
p6214
asS'Voll\xc3\xa8ges'
p6215
(lp6216
g3045
ag3177
asS'Villarvolard'
p6217
(lp6218
S'1651'
p6219
aS'1651'
p6220
asS'Vallersund'
p6221
(lp6222
S'7167'
p6223
aS'7167'
p6224
asS'Vy\xc5\xa1eho\xc5\x99ovice'
p6225
(lp6226
S'250 87'
p6227
asS'Vagnh\xc3\xa4rad'
p6228
(lp6229
S'61070'
p6230
aS'61072'
p6231
aS'61073'
p6232
aS'61073'
p6233
aS'61072'
p6234
aS'61070'
p6235
asS'Vranov\xc3\xa9 2.d\xc3\xadl'
p6236
(lp6237
S'468 22'
p6238
asS'Vadheim'
p6239
(lp6240
S'6996'
p6241
aS'6996'
p6242
asS'Vl\xc4\x8dnov'
p6243
(lp6244
S'742 31'
p6245
asS'Vletice'
p6246
(lp6247
S'262 56'
p6248
asS'Vi\xc5\xa1\xc5\x88ov\xc3\xa1'
p6249
(lp6250
S'464 01'
p6251
asS'Velden am W\xc3\xb6rther See'
p6252
(lp6253
S'9220'
p6254
asS'Vijoynagar'
p6255
(lp6256
S'792055'
p6257
aS'792055'
p6258
asS'Vigo'
p6259
(lp6260
S'36200'
p6261
aS'36202'
p6262
aS'36204'
p6263
aS'36208'
p6264
aS'36209'
p6265
aS'36211'
p6266
aS'36213'
p6267
aS'36215'
p6268
aS'36216'
p6269
aS'36317'
p6270
aS'36330'
p6271
aS'36211'
p6272
aS'36200'
p6273
aS'36202'
p6274
aS'36204'
p6275
aS'36208'
p6276
aS'36209'
p6277
aS'36213'
p6278
aS'36215'
p6279
aS'36330'
p6280
aS'36216'
p6281
aS'36317'
p6282
asS'Vi\xc5\xa1\xc5\x88ov\xc3\xa9'
p6283
(lp6284
S'671 38'
p6285
asS'Vidyut Parishad'
p6286
(lp6287
S'800021'
p6288
aS'800021'
p6289
asS'Vonyarcvashegy'
p6290
(lp6291
S'8314'
p6292
aS'8314'
p6293
asS'V\xc4\x9bte\xc5\x99ov'
p6294
(lp6295
S'697 01'
p6296
asS'Vy\xc5\xa1ehn\xc4\x9bvice'
p6297
(lp6298
S'533 41'
p6299
asS'Vad\xc3\xadn'
p6300
(lp6301
S'580 01'
p6302
asS'Vicksburg'
p6303
(lp6304
S'39180'
p6305
aS'39180'
p6306
asS'V\xc5\xa1emina'
p6307
(lp6308
S'763 15'
p6309
asS'Vellinge'
p6310
(lp6311
S'23522'
p6312
aS'23539'
p6313
aS'23541'
p6314
aS'23539'
p6315
aS'23522'
p6316
aS'23541'
p6317
asS'V\xc3\xa1rzeas'
p6318
(lp6319
S'3050-266'
p6320
aS'3050-266'
p6321
asS'V\xc3\xbdkleky'
p6322
(lp6323
S'751 25'
p6324
asS'Vy\xc5\xa1\xc3\xadnek'
p6325
(lp6326
S'273 71'
p6327
asS'Virsbo'
p6328
(lp6329
g4597
ag4658
asS'Verm\xc4\x9b\xc5\x99ovice'
p6330
(lp6331
S'561 52'
p6332
asS'Villa San Martino'
p6333
(lp6334
S'61100'
p6335
asS'Von\xc5\xa1ov'
p6336
(lp6337
S'351 34'
p6338
asS'Vikas Nagar'
p6339
(lp6340
S'248191'
p6341
aS'248191'
p6342
asS'V\xc3\xa9rtesacsa'
p6343
(lp6344
S'8089'
p6345
asS'V\xc3\xa1clavov'
p6346
(lp6347
S'789 01'
p6348
asS'Velechv\xc3\xadn'
p6349
(lp6350
S'373 72'
p6351
asS'Val Do Dubra'
p6352
(lp6353
S'15873'
p6354
aS'15873'
p6355
asS'Vl\xc4\x8dtejn'
p6356
(lp6357
S'332 04'
p6358
asS'Vella'
p6359
(lp6360
S'7144'
p6361
asS'V\xc3\xa9szt\xc5\x91'
p6362
(lp6363
S'5530'
p6364
aS'5530'
p6365
asS'V\xc3\xa1mosatya'
p6366
(lp6367
S'4936'
p6368
aS'4936'
p6369
asS'Vienna'
p6370
(lp6371
S'04360'
p6372
ag4006
ag4007
aS'57271'
p6373
aS'04360'
p6374
aS'57271'
p6375
ag4105
ag4106
asS'Vaikom'
p6376
(lp6377
S'686141'
p6378
aS'686141'
p6379
asS'Vanice'
p6380
(lp6381
S'566 01'
p6382
asS'Vega De Liebana'
p6383
(lp6384
S'39577'
p6385
aS'39577'
p6386
asS'Vico Morcote'
p6387
(lp6388
S'6921'
p6389
asS'Varakodu'
p6390
(lp6391
S'571143'
p6392
aS'571143'
p6393
asS'Vaja'
p6394
(lp6395
S'4562'
p6396
asS'Valencia De Don Juan'
p6397
(lp6398
S'24200'
p6399
aS'24200'
p6400
asS'Vysok\xc3\xbd \xc3\x9ajezd'
p6401
(lp6402
S'267 16'
p6403
aS'517 71'
p6404
asS'Vedrovice'
p6405
(lp6406
S'671 75'
p6407
asS'Vrena'
p6408
(lp6409
S'61056'
p6410
aS'61056'
p6411
asS'V\xc3\xb6lcsej'
p6412
(lp6413
S'9462'
p6414
aS'9462'
p6415
asS'Vini\xc4\x8dn\xc3\xa9 \xc5\xa0umice'
p6416
(lp6417
S'664 06'
p6418
asS'Volovka'
p6419
(lp6420
S'551 01'
p6421
asS'Vidlat\xc3\xa1 Se\xc4\x8d'
p6422
(lp6423
S'570 01'
p6424
asS'Vinberg'
p6425
(lp6426
S'31105'
p6427
aS'31105'
p6428
asS'V\xc3\xa1clav\xc3\xad'
p6429
(lp6430
S'512 63'
p6431
asS'Vikmanshyttan'
p6432
(lp6433
S'77670'
p6434
aS'77670'
p6435
asS'Vesec'
p6436
(lp6437
S'463 42'
p6438
aS'507 21'
p6439
asS'Vansbro'
p6440
(lp6441
S'78050'
p6442
aS'78050'
p6443
asS'Vl\xc4\x8dice'
p6444
(lp6445
S'378 53'
p6446
aS'336 01'
p6447
aS'790 65'
p6448
asS'Viterbo'
p6449
(lp6450
S'01100'
p6451
aS'01100'
p6452
asS'Villarroya'
p6453
(lp6454
S'26587'
p6455
asS'Van\xc5\xafvek'
p6456
(lp6457
S'588 56'
p6458
asS'Vernon East'
p6459
(lp6460
S'V1B'
p6461
aS'V1B'
p6462
asS'Villanueva De Cameros'
p6463
(lp6464
S'26123'
p6465
asS'Viduraswatha'
p6466
(lp6467
S'561217'
p6468
aS'561217'
p6469
asS'Vesel\xc3\xad nad Lu\xc5\xbenic\xc3\xad II'
p6470
(lp6471
S'391 81'
p6472
asS'Viatosto'
p6473
(lp6474
S'14100'
p6475
asS'Valle De Trapaga'
p6476
(lp6477
g1942
ag2012
asS'Verdabbio'
p6478
(lp6479
S'6538'
p6480
aS'6538'
p6481
asS'Vrt\xc4\x9b\xc5\xbe\xc3\xad\xc5\x99'
p6482
(lp6483
S'593 01'
p6484
asS'Vy\xc5\xa1etice'
p6485
(lp6486
S'391 43'
p6487
asS'Villach'
p6488
(lp6489
S'9500'
p6490
aS'9300'
p6491
aS'9620'
p6492
aS'9062'
p6493
aS'9074'
p6494
aS'9141'
p6495
aS'9201'
p6496
aS'9330'
p6497
aS'9433'
p6498
aS'9523'
p6499
ag6499
aS'9544'
p6500
aS'9546'
p6501
aS'9570'
p6502
aS'9601'
p6503
aS'9800'
p6504
aS'9831'
p6505
aS'9873'
p6506
aS'9063'
p6507
aS'9082'
p6508
aS'9371'
p6509
aS'9523'
p6510
aS'9543'
p6511
aS'9563'
p6512
aS'9761'
p6513
aS'9061'
p6514
aS'9064'
p6515
aS'9071'
p6516
aS'9073'
p6517
aS'9102'
p6518
aS'9111'
p6519
aS'9121'
p6520
aS'9125'
p6521
aS'9133'
p6522
aS'9143'
p6523
aS'9162'
p6524
aS'9163'
p6525
ag6254
aS'9241'
p6526
aS'9313'
p6527
aS'9322'
p6528
aS'9334'
p6529
aS'9342'
p6530
aS'9346'
p6531
aS'9373'
p6532
aS'9411'
p6533
aS'9422'
p6534
aS'9470'
p6535
aS'9520'
p6536
aS'9555'
p6537
aS'9565'
p6538
aS'9580'
p6539
aS'9581'
p6540
aS'9586'
p6541
aS'9631'
p6542
aS'9633'
p6543
aS'9635'
p6544
aS'9701'
p6545
aS'9712'
p6546
aS'9754'
p6547
aS'9811'
p6548
aS'9814'
p6549
aS'9816'
p6550
aS'9833'
p6551
aS'9842'
p6552
aS'9851'
p6553
aS'9854'
p6554
aS'9131'
p6555
aS'9231'
p6556
aS'9423'
p6557
aS'9461'
p6558
aS'9524'
p6559
aS'9541'
p6560
aS'9611'
p6561
aS'9762'
p6562
aS'9061'
p6563
aS'9125'
p6564
aS'9170'
p6565
aS'9182'
p6566
aS'9322'
p6567
aS'9343'
p6568
aS'9345'
p6569
aS'9362'
p6570
aS'9413'
p6571
aS'9441'
p6572
aS'9463'
p6573
aS'9473'
p6574
aS'9520'
p6575
aS'9552'
p6576
aS'9572'
p6577
aS'9584'
p6578
aS'9615'
p6579
aS'9624'
p6580
aS'9702'
p6581
aS'9713'
p6582
aS'9722'
p6583
aS'9772'
p6584
aS'9861'
p6585
aS'9863'
p6586
aS'8850'
p6587
aS'9064'
p6588
asS'Vy\xc5\xa1ovatka'
p6589
(lp6590
S'384 21'
p6591
asS'Velenice'
p6592
(lp6593
S'289 01'
p6594
aS'471 23'
p6595
asS'Vignogn'
p6596
(lp6597
S'7147'
p6598
aS'7147'
p6599
asS'V\xc3\xb6sendorf'
p6600
(lp6601
S'2334'
p6602
asS'Vodn\xc3\xad \xc3\x9ajezd'
p6603
(lp6604
S'334 41'
p6605
asS'Vil\xc3\xa9movec'
p6606
(lp6607
S'582 32'
p6608
asS'Vestre Gausdal'
p6609
(lp6610
S'2653'
p6611
asS'Vega'
p6612
(lp6613
S'8980'
p6614
aS'8980'
p6615
asS'Valverde'
p6616
(lp6617
S'7000-093'
p6618
aS'7000-093'
p6619
asS'Vaivakaan'
p6620
(lp6621
S'796009'
p6622
aS'796009'
p6623
asS'Vojenice'
p6624
(lp6625
S'517 21'
p6626
asS'Vl\xc4\x8dkov\xc3\xa1'
p6627
(lp6628
S'763 19'
p6629
asS'V\xc3\xadt\xc4\x9bzn\xc3\xa1-Z\xc3\xa1bo\xc5\x99\xc3\xad x)'
p6630
(lp6631
g1773
asS'Vitigudino'
p6632
(lp6633
S'37210'
p6634
asS'Venta De Ba\xc3\xb1os'
p6635
(lp6636
S'34200'
p6637
asS'Vionnaz'
p6638
(lp6639
g3031
ag3119
asS'V\xc3\xa4sterbotten'
p6640
(lp6641
S'83081'
p6642
aS'89054'
p6643
aS'90103'
p6644
aS'90107'
p6645
aS'90108'
p6646
aS'90178'
p6647
aS'90187'
p6648
aS'90304'
p6649
aS'90322'
p6650
aS'90325'
p6651
aS'90329'
p6652
aS'90331'
p6653
aS'90333'
p6654
aS'90336'
p6655
aS'90343'
p6656
aS'90345'
p6657
aS'90352'
p6658
aS'90353'
p6659
aS'90354'
p6660
aS'90360'
p6661
aS'90363'
p6662
aS'90364'
p6663
aS'90420'
p6664
aS'90422'
p6665
aS'90433'
p6666
aS'90435'
p6667
aS'90441'
p6668
aS'90581'
p6669
aS'90583'
p6670
aS'90586'
p6671
aS'90591'
p6672
aS'90592'
p6673
aS'90596'
p6674
aS'90621'
p6675
aS'90625'
p6676
aS'90628'
p6677
aS'90637'
p6678
aS'90642'
p6679
aS'90651'
p6680
aS'90654'
p6681
aS'90655'
p6682
aS'90719'
p6683
aS'90730'
p6684
aS'90732'
p6685
aS'90736'
p6686
aS'90740'
p6687
aS'90750'
p6688
aS'90788'
p6689
aS'91020'
p6690
ag4190
ag4191
ag3707
ag3531
ag3532
aS'91321'
p6691
aS'91335'
p6692
aS'91431'
p6693
aS'91490'
p6694
aS'91491'
p6695
aS'91531'
p6696
aS'91532'
p6697
aS'91591'
p6698
aS'91731'
p6699
aS'91732'
p6700
aS'91831'
p6701
aS'91892'
p6702
aS'92066'
p6703
aS'92131'
p6704
aS'92134'
p6705
aS'92135'
p6706
ag5042
aS'92267'
p6707
aS'93015'
p6708
aS'93055'
p6709
aS'93070'
p6710
aS'93102'
p6711
aS'93127'
p6712
aS'93130'
p6713
aS'93132'
p6714
aS'93137'
p6715
aS'93153'
p6716
aS'93155'
p6717
aS'93161'
p6718
aS'93170'
p6719
aS'93193'
p6720
aS'93196'
p6721
aS'93221'
p6722
aS'93233'
p6723
aS'93236'
p6724
aS'93237'
p6725
aS'93432'
p6726
aS'93521'
p6727
aS'93532'
p6728
aS'93731'
p6729
aS'93791'
p6730
aS'90187'
p6731
aS'91831'
p6732
aS'90363'
p6733
aS'91531'
p6734
aS'83081'
p6735
ag6735
aS'90325'
p6736
aS'90333'
p6737
aS'90354'
p6738
aS'90420'
p6739
aS'90433'
p6740
aS'90581'
p6741
aS'91020'
p6742
ag3708
aS'91532'
p6743
aS'93015'
p6744
aS'93070'
p6745
aS'93132'
p6746
aS'93170'
p6747
aS'93237'
p6748
aS'90103'
p6749
aS'90185'
p6750
aS'90621'
p6751
ag3533
aS'92131'
p6752
aS'93102'
p6753
aS'93137'
p6754
aS'93432'
p6755
aS'89054'
p6756
aS'90108'
p6757
aS'90110'
p6758
aS'90322'
p6759
aS'90329'
p6760
aS'90331'
p6761
aS'90336'
p6762
aS'90352'
p6763
aS'90405'
p6764
aS'90422'
p6765
aS'90441'
p6766
aS'90591'
p6767
aS'90637'
p6768
aS'90642'
p6769
aS'90719'
p6770
aS'90750'
p6771
aS'90788'
p6772
ag4192
ag3534
aS'91321'
p6773
aS'91335'
p6774
aS'91431'
p6775
aS'91491'
p6776
aS'91591'
p6777
aS'91732'
p6778
aS'91892'
p6779
aS'92066'
p6780
aS'92135'
p6781
ag5043
aS'92267'
p6782
aS'93055'
p6783
aS'93127'
p6784
aS'93153'
p6785
aS'93161'
p6786
aS'93196'
p6787
aS'93221'
p6788
aS'93233'
p6789
aS'93236'
p6790
aS'93532'
p6791
aS'93731'
p6792
aS'90132'
p6793
aS'90345'
p6794
aS'90583'
p6795
aS'90655'
p6796
ag4193
aS'91490'
p6797
aS'91731'
p6798
aS'92134'
p6799
aS'93130'
p6800
aS'93155'
p6801
aS'93193'
p6802
aS'93521'
p6803
aS'93791'
p6804
aS'90107'
p6805
aS'90130'
p6806
aS'90178'
p6807
aS'90304'
p6808
aS'90343'
p6809
aS'90353'
p6810
aS'90360'
p6811
aS'90364'
p6812
aS'90435'
p6813
aS'90586'
p6814
aS'90592'
p6815
aS'90596'
p6816
aS'90625'
p6817
aS'90628'
p6818
aS'90651'
p6819
aS'90654'
p6820
aS'90730'
p6821
aS'90732'
p6822
aS'90736'
p6823
aS'90740'
p6824
asS'Valdecilla'
p6825
(lp6826
S'39724'
p6827
asS'V\xe2\x88\x9a\xe2\x88\x82sendorf'
p6828
(lp6829
S'2334'
p6830
asS'Vuisternens-devant-Romont'
p6831
(lp6832
S'1687'
p6833
aS'1687'
p6834
asS'Vysok\xc3\xa9 B\xc5\x99ezno'
p6835
(lp6836
S'434 01'
p6837
asS'Varese'
p6838
(lp6839
S'21100'
p6840
asS'Volborg'
p6841
(lp6842
S'59351'
p6843
aS'59351'
p6844
asS'Vosn\xc3\xa1'
p6845
(lp6846
S'391 43'
p6847
asS'Vandans'
p6848
(lp6849
g226
ag307
asS'V\xc3\xa9m\xc3\xa9nd'
p6850
(lp6851
S'7726'
p6852
asS'Vi\xc5\xbeina'
p6853
(lp6854
S'267 24'
p6855
asS'Vala\xc5\xa1sk\xc3\xa1 Byst\xc5\x99ice'
p6856
(lp6857
g3207
asS'Vran\xc3\xbd'
p6858
(lp6859
S'273 73'
p6860
asS'Vadakkumpuram'
p6861
(lp6862
S'683521'
p6863
aS'683521'
p6864
asS'Vachha Gandhi Road'
p6865
(lp6866
S'400007'
p6867
asS'Velk\xc3\xa1 Bukov\xc3\xa1'
p6868
(lp6869
S'270 23'
p6870
asS'Vancouver (NW Arbutus Ridge)'
p6871
(lp6872
S'V6L'
p6873
aS'V6L'
p6874
asS'Vester\xc3\xb8y'
p6875
(lp6876
S'1684'
p6877
asS'Vojet\xc3\xadn'
p6878
(lp6879
S'471 62'
p6880
asS'Vogorno'
p6881
(lp6882
S'6632'
p6883
asS'V\xc5\xa1eliby'
p6884
(lp6885
S'547 01'
p6886
asS'Vaud'
p6887
(lp6888
S'1000'
p6889
aS'1002'
p6890
ag6890
aS'1004'
p6891
ag6891
aS'1007'
p6892
ag6892
aS'1010'
p6893
ag6893
aS'1023'
p6894
aS'1024'
p6895
aS'1028'
p6896
aS'1030'
p6897
aS'1034'
p6898
aS'1040'
p6899
aS'1041'
p6900
aS'1059'
p6901
aS'1063'
p6902
aS'1066'
p6903
aS'1071'
p6904
aS'1077'
p6905
aS'1080'
p6906
aS'1091'
p6907
aS'1093'
p6908
aS'1095'
p6909
aS'1098'
p6910
aS'1112'
p6911
aS'1117'
p6912
aS'1123'
p6913
aS'1124'
p6914
aS'1143'
p6915
aS'1145'
p6916
aS'1163'
p6917
aS'1166'
p6918
aS'1170'
p6919
aS'1183'
p6920
aS'1260'
p6921
aS'1261'
p6922
aS'1264'
p6923
ag5038
aS'1271'
p6924
aS'1273'
p6925
aS'1279'
p6926
aS'1291'
p6927
aS'1295'
p6928
aS'1303'
p6929
aS'1305'
p6930
aS'1312'
p6931
aS'1348'
p6932
aS'1350'
p6933
aS'1372'
p6934
aS'1373'
p6935
aS'1450'
p6936
aS'1522'
p6937
aS'1580'
p6938
aS'1588'
p6939
aS'1607'
p6940
aS'1610'
p6941
aS'1802'
p6942
aS'1805'
p6943
aS'1806'
p6944
aS'1815'
p6945
aS'1820'
p6946
aS'1822'
p6947
aS'1823'
p6948
aS'1833'
p6949
aS'1865'
p6950
aS'1880'
p6951
aS'1882'
p6952
aS'1885'
p6953
aS'1015'
p6954
ag6954
aS'1000'
p6955
ag6955
aS'1002'
p6956
ag6956
aS'1004'
p6957
ag6957
aS'1007'
p6958
ag6958
aS'1010'
p6959
ag6959
aS'1066'
p6960
aS'1196'
p6961
aS'1400'
p6962
aS'1820'
p6963
aS'1000'
p6964
aS'1012'
p6965
ag6965
aS'1023'
p6966
aS'1040'
p6967
aS'1095'
p6968
aS'1170'
p6969
ag5039
aS'1291'
p6970
aS'1373'
p6971
aS'1510'
p6972
aS'1580'
p6973
aS'1815'
p6974
aS'1880'
p6975
aS'1020'
p6976
aS'1024'
p6977
aS'1028'
p6978
aS'1070'
p6979
aS'1094'
p6980
aS'1112'
p6981
aS'1163'
p6982
aS'1260'
p6983
aS'1295'
p6984
ag3524
aS'1350'
p6985
aS'1522'
p6986
aS'1610'
p6987
aS'1806'
p6988
aS'1865'
p6989
aS'1000'
p6990
aS'1000'
p6991
aS'1000'
p6992
aS'1000'
p6993
aS'1000'
p6994
aS'1026'
p6995
aS'1030'
p6996
aS'1041'
p6997
aS'1071'
p6998
aS'1091'
p6999
aS'1093'
p7000
aS'1123'
p7001
aS'1143'
p7002
aS'1166'
p7003
aS'1260'
p7004
aS'1264'
p7005
aS'1273'
p7006
aS'1279'
p7007
aS'1303'
p7008
aS'1305'
p7009
aS'1348'
p7010
aS'1450'
p7011
aS'1588'
p7012
ag5346
aS'1802'
p7013
aS'1805'
p7014
ag2585
aS'1823'
p7015
aS'1882'
p7016
aS'1000'
p7017
aS'1053'
p7018
aS'1077'
p7019
aS'1098'
p7020
aS'1145'
p7021
aS'1183'
p7022
aS'1261'
p7023
aS'1271'
p7024
aS'1295'
p7025
aS'1312'
p7026
aS'1372'
p7027
aS'1376'
p7028
aS'1607'
p7029
aS'1822'
p7030
aS'1833'
p7031
aS'1885'
p7032
aS'1000'
p7033
aS'1020'
p7034
aS'1034'
p7035
aS'1036'
p7036
ag3486
aS'1041'
p7037
aS'1044'
p7038
aS'1059'
p7039
aS'1063'
p7040
aS'1070'
p7041
aS'1080'
p7042
aS'1082'
p7043
aS'1084'
p7044
aS'1091'
p7045
aS'1110'
p7046
aS'1117'
p7047
aS'1124'
p7048
asS'Virserum'
p7049
(lp7050
S'57080'
p7051
aS'57080'
p7052
asS'V\xc3\xa1penn\xc3\xbd Podol'
p7053
(lp7054
S'538 03'
p7055
asS'Vrcovice'
p7056
(lp7057
S'397 01'
p7058
asS'Votuz'
p7059
(lp7060
S'508 01'
p7061
asS'Villamayor'
p7062
(lp7063
S'37185'
p7064
aS'37185'
p7065
asS"Villaggio Mose'"
p7066
(lp7067
S'92100'
p7068
asS'Villarta Quintana'
p7069
(lp7070
S'26259'
p7071
asS'V\xc3\xad\xc5\xbeky'
p7072
(lp7073
S'538 21'
p7074
asS'Venkatarangapura'
p7075
(lp7076
S'560003'
p7077
asS'Vinice'
p7078
(lp7079
S'289 03'
p7080
asS'Veveri'
p7081
(lp7082
S'28100'
p7083
asS'V\xc3\xad\xc5\xbeka'
p7084
(lp7085
S'348 15'
p7086
asS'Vinary-P\xc5\x99erov XI x)'
p7087
(lp7088
S'751 24'
p7089
asS'Vrbka'
p7090
(lp7091
S'413 01'
p7092
aS'440 01'
p7093
asS'V\xc3\xbdrovice'
p7094
(lp7095
S'671 34'
p7096
asS'Vala\xc5\xa1sk\xc3\xa9 Klobouky'
p7097
(lp7098
S'766 01'
p7099
asS'Valdovi\xc3\xb1o'
p7100
(lp7101
S'15552'
p7102
aS'15552'
p7103
asS'V\xc3\xbdprachtice'
p7104
(lp7105
S'561 34'
p7106
asS'V\xc4\x9bt\xc5\x99n\xc3\xad'
p7107
(lp7108
S'382 11'
p7109
asS'Vang P\xc3\xa5 Hedmark'
p7110
(lp7111
S'2324'
p7112
aS'2324'
p7113
asS'Valsain'
p7114
(lp7115
S'40109'
p7116
asS'Vilanova De Arousa'
p7117
(lp7118
S'36620'
p7119
aS'36620'
p7120
asS'Villaviciosa De Odon'
p7121
(lp7122
S'28670'
p7123
aS'28670'
p7124
asS'Vigrestad'
p7125
(lp7126
S'4362'
p7127
aS'4369'
p7128
aS'4369'
p7129
asS'Valzeina'
p7130
(lp7131
S'7213'
p7132
asS'Vadakkumbad Edso'
p7133
(lp7134
S'670109'
p7135
aS'670109'
p7136
asS'Velk\xc3\xa1 Vele\xc5\x88-D\xc4\x9b\xc4\x8d\xc3\xadn XXX x)'
p7137
(lp7138
g510
asS'Vojtovice'
p7139
(lp7140
S'790 65'
p7141
asS'Vrbice'
p7142
(lp7143
S'262 56'
p7144
aS'270 04'
p7145
aS'384 73'
p7146
aS'364 53'
p7147
aS'411 64'
p7148
aS'507 03'
p7149
aS'517 41'
p7150
asS'Vlachov'
p7151
(lp7152
S'789 01'
p7153
asS'V\xc3\xb6cklamarkt'
p7154
(lp7155
S'4870'
p7156
asS'Vista'
p7157
(lp7158
S'92083'
p7159
aS'92083'
p7160
asS'Villapresente'
p7161
(lp7162
S'39539'
p7163
aS'39539'
p7164
asS'Vilantice'
p7165
(lp7166
g1767
asS'Vales'
p7167
(lp7168
S'9970-380'
p7169
aS'9970-380'
p7170
asS'Vr\xc5\xa1ice'
p7171
(lp7172
S'281 44'
p7173
asS'Viator'
p7174
(lp7175
S'04240'
p7176
aS'04240'
p7177
asS'Vauxhall'
p7178
(lp7179
S'07088'
p7180
aS'07088'
p7181
asS'Vit\xc4\x8dice'
p7182
(lp7183
S'441 01'
p7184
asS'Vadosfa'
p7185
(lp7186
S'9346'
p7187
asS'Vegreville'
p7188
(lp7189
S'T9C'
p7190
aS'T9C'
p7191
asS'Velk\xc3\xa9 Albrechtice'
p7192
(lp7193
S'742 91'
p7194
asS'Villmergen'
p7195
(lp7196
S'5612'
p7197
asS'Valt\xc3\xad\xc5\x99ov'
p7198
(lp7199
S'403 23'
p7200
asS'Veguita'
p7201
(lp7202
S'87062'
p7203
aS'87062'
p7204
asS'Versailles'
p7205
(lp7206
S'40383'
p7207
aS'40383'
p7208
asS'Vilanova I La Geltru'
p7209
(lp7210
S'08800'
p7211
aS'08800'
p7212
asS'Vesel\xc3\xad'
p7213
(lp7214
S'468 22'
p7215
aS'535 01'
p7216
aS'679 23'
p7217
aS'592 65'
p7218
aS'742 35'
p7219
aS'789 85'
p7220
asS'V\xc3\xa4nersborg'
p7221
(lp7222
g5665
ag5751
asS'Veselov'
p7223
(lp7224
S'364 52'
p7225
asS'Vesel\xc3\xa1'
p7226
(lp7227
S'337 01'
p7228
aS'763 15'
p7229
ag3233
asS'Vikersund'
p7230
(lp7231
S'3370'
p7232
aS'3370'
p7233
asS'Vadapalani'
p7234
(lp7235
S'600026'
p7236
aS'600026'
p7237
asS'Vrati\xc5\xa1ov'
p7238
(lp7239
S'393 01'
p7240
asS'V\xc3\xa9senaz'
p7241
(lp7242
S'1222'
p7243
asS'Vysok\xc3\xa9 Popovice'
p7244
(lp7245
S'664 84'
p7246
asS'Vasantanagar'
p7247
(lp7248
S'560052'
p7249
aS'560052'
p7250
asS'Veve\xc5\x99\xc3\xad'
p7251
(lp7252
S'793 51'
p7253
asS'Velk\xc3\xa9 Petrovice-Petrovice x)'
p7254
(lp7255
S'549 54'
p7256
asS'Vyso\xc4\x8dany'
p7257
(lp7258
S'504 01'
p7259
aS'679 13'
p7260
asS'V\xc3\xa4derstad'
p7261
(lp7262
S'59021'
p7263
aS'59021'
p7264
asS'V\xc3\xa4rmd\xc3\xb6'
p7265
(lp7266
S'13923'
p7267
aS'13923'
p7268
asS'V\xc3\xadcov'
p7269
(lp7270
S'798 03'
p7271
asS'V\xc3\xa1s\xc3\xa1rosmiske'
p7272
(lp7273
g1331
asS'Velk\xc3\xbd V\xc5\x99e\xc5\xa1\xc5\xa5ov'
p7274
(lp7275
g1736
asS'Vasia'
p7276
(lp7277
S'18100'
p7278
asS'Villigen'
p7279
(lp7280
S'5234'
p7281
asS'Visings\xc3\xb6'
p7282
(lp7283
S'56034'
p7284
aS'56034'
p7285
asS'Vigra'
p7286
(lp7287
S'6040'
p7288
aS'6040'
p7289
asS'Vittangi'
p7290
(lp7291
S'98010'
p7292
aS'98010'
p7293
asS'Vinje\xc3\xb8ra'
p7294
(lp7295
S'7203'
p7296
asS'Vancouver (Pacific Centre)'
p7297
(lp7298
S'V7Y'
p7299
aS'V7Y'
p7300
asS'Vancouver (North West End / Stanley Park)'
p7301
(lp7302
S'V6G'
p7303
aS'V6G'
p7304
asS'Vadstena'
p7305
(lp7306
S'59230'
p7307
aS'59221'
p7308
aS'59230'
p7309
aS'59240'
p7310
asS'Vierkirchen'
p7311
(lp7312
S'85256'
p7313
asS'Vestnes'
p7314
(lp7315
S'6399'
p7316
aS'6399'
p7317
asS'Velk\xc3\xa9 \xc5\xbdernoseky'
p7318
(lp7319
S'412 01'
p7320
asS'Volt\xc3\xbd\xc5\x99ov'
p7321
(lp7322
S'262 56'
p7323
asS'Vanyarc'
p7324
(lp7325
S'2688'
p7326
asS'Verne\xc5\x99ice'
p7327
(lp7328
g464
aS'417 04'
p7329
asS'Vandergrift'
p7330
(lp7331
S'15690'
p7332
aS'15690'
p7333
as.