(dp1
S'Chorao'
p2
(lp3
S'403102'
p4
aS'403102'
p5
asS'Carol Stream'
p6
(lp7
S'60188'
p8
aS'60188'
p9
asS'Charlotte Hall'
p10
(lp11
S'20622'
p12
aS'20622'
p13
asS'Cabe\xc3\xa7a Boa'
p14
(lp15
S'5160-033'
p16
aS'5160-033'
p17
asS'Chv\xc3\xa1lenice'
p18
(lp19
S'332 05'
p20
asS'Caracenilla'
p21
(lp22
S'16540'
p23
aS'16540'
p24
asS'Chanthaburi'
p25
(lp26
S'22000'
p27
aS'22120'
p28
aS'22130'
p29
aS'22150'
p30
aS'22180'
p31
aS'22000'
p32
ag32
aS'22130'
p33
aS'22150'
p34
aS'22180'
p35
aS'22120'
p36
asS'Chambrelien'
p37
(lp38
S'2019'
p39
aS'2019'
p40
asS'Cik\xc3\xb3'
p41
(lp42
S'7161'
p43
aS'7161'
p44
asS'Cheichema'
p45
(lp46
S'797105'
p47
aS'797105'
p48
asS'Coiano'
p49
(lp50
S'59100'
p51
aS'59100'
p52
asS'Chowkham'
p53
(lp54
S'792104'
p55
aS'792104'
p56
asS'Crystal Bay'
p57
(lp58
S'89402'
p59
aS'89402'
p60
asS'Clearview City'
p61
(lp62
S'66019'
p63
aS'66019'
p64
asS'Canobbio'
p65
(lp66
S'6952'
p67
asS'Catharpin'
p68
(lp69
S'20143'
p70
asS'Cascaria'
p71
(lp72
S'2400-020'
p73
aS'2400-020'
p74
asS'Canadinhas'
p75
(lp76
S'9880-106'
p77
aS'9900-343'
p78
aS'9900-362'
p79
aS'9880-106'
p80
aS'9900-343'
p81
aS'9900-362'
p82
asS'Clover'
p83
(lp84
S'29710'
p85
aS'29710'
p86
asS'Chutnovka'
p87
(lp88
S'511 01'
p89
asS'Chocerady'
p90
(lp91
S'257 24'
p92
asS'Charvatce'
p93
(lp94
S'294 45'
p95
aS'411 19'
p96
asS'Cache Junction'
p97
(lp98
S'84304'
p99
aS'84304'
p100
asS'Cugy FR'
p101
(lp102
S'1482'
p103
aS'1482'
p104
asS'Conception Bay'
p105
(lp106
S'A1X'
p107
aS'A1X'
p108
aS'A1X'
p109
asS'Cudrefin'
p110
(lp111
S'1588'
p112
aS'1588'
p113
asS'Calcinate Del Pesce'
p114
(lp115
S'21100'
p116
asS'Courchavon'
p117
(lp118
S'2922'
p119
aS'2922'
p120
asS'Centre-du- Qu\xc3\xa9bec-Ouest (Saint- Bonaventure)'
p121
(lp122
S'J0C'
p123
aS'J0C'
p124
asS'Coal Dock Road'
p125
(lp126
S'700043'
p127
aS'700043'
p128
asS'Cala Galdana'
p129
(lp130
S'07750'
p131
aS'07750'
p132
asS'Chandler'
p133
(lp134
S'85224'
p135
aS'85226'
p136
aS'85244'
p137
aS'85248'
p138
aS'85224'
p139
aS'85226'
p140
aS'85244'
p141
aS'85248'
p142
asS'Calamonte'
p143
(lp144
S'06810'
p145
aS'06810'
p146
asS'Chude\xc4\x8d'
p147
(lp148
S'330 41'
p149
asS'Cs\xc3\xa1szl\xc3\xb3'
p150
(lp151
S'4973'
p152
aS'4973'
p153
asS'Cascade'
p154
(lp155
S'59421'
p156
aS'59421'
p157
asS'Ch\xc3\xbd\xc5\xa1ky'
p158
(lp159
S'364 53'
p160
asS'Courtenay Central'
p161
(lp162
S'V9N'
p163
aS'V9N'
p164
asS'Caulfield North'
p165
(lp166
S'3161'
p167
aS'3161'
p168
asS'Chaudi\xc3\xa8re-Sud (Disraeli)'
p169
(lp170
S'G0N'
p171
aS'G0N'
p172
asS'Courcelon'
p173
(lp174
S'2823'
p175
aS'2823'
p176
asS'Cabine'
p177
(lp178
S'4880-018'
p179
aS'4880-018'
p180
asS'Casais de Advagar'
p181
(lp182
S'2000-331'
p183
aS'2000-331'
p184
asS'Caborana'
p185
(lp186
S'33684'
p187
aS'33684'
p188
asS'Centralia'
p189
(lp190
S'66415'
p191
aS'66415'
p192
asS'Cs\xc3\xa1kv\xc3\xa1r'
p193
(lp194
S'8084'
p195
aS'8084'
p196
asS'Candedo'
p197
(lp198
S'4870-074'
p199
aS'4870-074'
p200
asS'Colunga'
p201
(lp202
S'33320'
p203
aS'33320'
p204
asS'Castle Cove'
p205
(lp206
S'2069'
p207
aS'2069'
p208
asS'Clarksville'
p209
(lp210
S'37040'
p211
aS'37042'
p212
aS'37040'
p213
aS'37042'
p214
asS'Chiasso'
p215
(lp216
S'6830'
p217
asS'Coquitlam North'
p218
(lp219
S'V3J'
p220
aS'V3J'
p221
asS'Canda'
p222
(lp223
S'4870-040'
p224
aS'4870-040'
p225
asS'Chvaletice'
p226
(lp227
S'533 12'
p228
asS'Chesterfield'
p229
(lp230
S'03443'
p231
aS'63017'
p232
aS'63017'
p233
aS'03443'
p234
asS'Ceresco'
p235
(lp236
S'68017'
p237
aS'68017'
p238
asS'Compton'
p239
(lp240
S'90221'
p241
aS'90224'
p242
aS'90221'
p243
aS'90224'
p244
asS'Cervera De Buitrago'
p245
(lp246
S'28193'
p247
aS'28193'
p248
asS'Chhatarpur'
p249
(lp250
S'822113'
p251
aS'822113'
p252
asS'Charlotte'
p253
(lp254
S'28201'
p255
aS'28262'
p256
aS'48813'
p257
aS'48813'
p258
aS'28262'
p259
aS'28201'
p260
aS'28203'
p261
asS'Ceglie Del Campo'
p262
(lp263
S'70129'
p264
aS'70129'
p265
asS'Courtedoux'
p266
(lp267
S'2905'
p268
asS'Cs\xc3\xa1k\xc3\xa1nydoroszl\xc3\xb3'
p269
(lp270
S'9919'
p271
aS'9919'
p272
asS'Chalais'
p273
(lp274
S'3966'
p275
aS'3966'
p276
asS'Ciempozuelos'
p277
(lp278
S'28350'
p279
aS'28350'
p280
asS'Casalgiate'
p281
(lp282
S'28100'
p283
aS'28100'
p284
asS'Conway'
p285
(lp286
S'29526'
p287
aS'72032'
p288
aS'98238'
p289
aS'72032'
p290
aS'29526'
p291
aS'98238'
p292
asS'Casais Arro\xc3\xa7adas'
p293
(lp294
S'2000-326'
p295
aS'2000-326'
p296
asS'Chot\xc4\x9b\xc5\xa1ovi\xc4\x8dky'
p297
(lp298
S'349 01'
p299
asS'Command Hq'
p300
(lp301
S'171003'
p302
asS'Ca\xc3\xb1ete'
p303
(lp304
S'16300'
p305
aS'16300'
p306
asS'Chrudim IV (\xc4\x8d\xc3\xa1st)'
p307
(lp308
S'537 01'
p309
aS'537 05'
p310
asS'Cottondale'
p311
(lp312
S'35453'
p313
aS'35453'
p314
asS'C G Colony'
p315
(lp316
S'751001'
p317
aS'751001'
p318
asS'Clement Town'
p319
(lp320
S'248002'
p321
aS'248002'
p322
asS'Campillo De Altobuey'
p323
(lp324
S'16210'
p325
aS'16210'
p326
asS'Courgevaux'
p327
(lp328
S'1796'
p329
aS'1796'
p330
asS'Castiello De Jaca'
p331
(lp332
S'22710'
p333
aS'22710'
p334
asS'Collierville'
p335
(lp336
S'38017'
p337
aS'38017'
p338
asS'Cala Santanyi'
p339
(lp340
S'07659'
p341
aS'07659'
p342
asS'Colton'
p343
(lp344
S'97017'
p345
aS'97017'
p346
asS'Ch\xc5\x99\xc3\xad\xc4\x8d'
p347
(lp348
S'331 41'
p349
asS'Cala Millor'
p350
(lp351
S'07560'
p352
aS'07560'
p353
asS'Cs\xc3\xb6rnyef\xc3\xb6ld'
p354
(lp355
S'8873'
p356
aS'8873'
p357
asS'Contra'
p358
(lp359
S'6646'
p360
aS'6646'
p361
asS'Cs\xc3\xb6nge'
p362
(lp363
S'9513'
p364
aS'9513'
p365
asS'Corg\xc3\xa9mont'
p366
(lp367
S'2606'
p368
aS'2606'
p369
asS'Calvi\xc3\xa0'
p370
(lp371
S'07184'
p372
aS'07184'
p373
asS'Ching Kompong'
p374
(lp375
S'795158'
p376
aS'795158'
p377
asS'Chrastavice'
p378
(lp379
S'344 01'
p380
asS'Cascilla'
p381
(lp382
S'38920'
p383
aS'38920'
p384
asS'Circle'
p385
(lp386
S'59215'
p387
aS'99733'
p388
aS'99733'
p389
aS'59215'
p390
asS'Chur'
p391
(lp392
S'7000'
p393
aS'7002'
p394
aS'7004'
p395
aS'7007'
p396
aS'7000'
p397
aS'7002'
p398
aS'7007'
p399
aS'7004'
p400
asS'Cabo De Palos'
p401
(lp402
S'30370'
p403
aS'30370'
p404
asS'Cable'
p405
(lp406
S'43009'
p407
aS'43009'
p408
asS'Chankyapuri'
p409
(lp410
S'110021'
p411
aS'110021'
p412
asS'Cevio'
p413
(lp414
S'6675'
p415
aS'6675'
p416
asS'Camrose'
p417
(lp418
S'T4V'
p419
aS'T4V'
p420
asS'Cartierville Central'
p421
(lp422
S'H4J'
p423
aS'H4J'
p424
asS'Charama'
p425
(lp426
S'494337'
p427
aS'494337'
p428
asS'Campanario'
p429
(lp430
S'06460'
p431
aS'06460'
p432
asS'Corcelles NE'
p433
(lp434
S'2035'
p435
aS'2035'
p436
asS'Coalwood'
p437
(lp438
S'24824'
p439
aS'24824'
p440
asS'Chamberlain'
p441
(lp442
S'57325'
p443
aS'57325'
p444
asS'Chrudim III (\xc4\x8d\xc3\xa1st)'
p445
(lp446
S'537 01'
p447
aS'537 03'
p448
asS'Cruz'
p449
(lp450
S'9580-213'
p451
aS'9960-500'
p452
aS'9580-213'
p453
aS'9960-500'
p454
asS'Chaimundi Betta'
p455
(lp456
S'570018'
p457
aS'570018'
p458
asS'Chavannes-de-Bogis'
p459
(lp460
S'1279'
p461
aS'1279'
p462
asS'Callaway'
p463
(lp464
S'20620'
p465
aS'20620'
p466
asS'Calgary (Sandstone / Harvest Hills / Coventry Hills / Panorama Hills / Beddington)'
p467
(lp468
S'T3K'
p469
aS'T3K'
p470
asS'Coonawarra'
p471
(lp472
S'0820'
p473
asS'Camijanes'
p474
(lp475
S'39594'
p476
aS'39594'
p477
asS'Cedar Hill'
p478
(lp479
S'63016'
p480
aS'75104'
p481
aS'75106'
p482
aS'63016'
p483
aS'75104'
p484
aS'75106'
p485
asS'Chomutov'
p486
(lp487
S'431 11'
p488
aS'431 51'
p489
aS'431 57'
p490
aS'431 86'
p491
aS'431 01'
p492
aS'431 45'
p493
aS'431 02'
p494
aS'431 43'
p495
aS'431 55'
p496
aS'431 59'
p497
aS'431 83'
p498
aS'431 15'
p499
aS'431 21'
p500
aS'431 53'
p501
aS'430 01'
p502
aS'430 01'
p503
aS'430 01'
p504
aS'430 01'
p505
aS'430 01'
p506
aS'430 01'
p507
aS'430 01'
p508
aS'430 01'
p509
aS'430 01'
p510
aS'430 01'
p511
aS'430 01'
p512
aS'430 01'
p513
aS'430 04'
p514
aS'431 02'
p515
aS'431 11'
p516
aS'431 11'
p517
aS'431 11'
p518
aS'431 21'
p519
aS'431 32'
p520
aS'431 51'
p521
aS'431 51'
p522
aS'431 51'
p523
aS'431 51'
p524
aS'431 51'
p525
aS'431 51'
p526
aS'431 51'
p527
aS'431 56'
p528
aS'431 63'
p529
aS'431 84'
p530
aS'431 84'
p531
aS'431 84'
p532
aS'431 91'
p533
aS'432 01'
p534
aS'432 01'
p535
aS'432 01'
p536
aS'432 01'
p537
aS'432 01'
p538
aS'432 01'
p539
aS'438 01'
p540
aS'438 01'
p541
aS'438 01'
p542
aS'438 01'
p543
aS'438 01'
p544
aS'438 01'
p545
aS'438 01'
p546
aS'438 01'
p547
aS'438 01'
p548
aS'441 01'
p549
aS'441 01'
p550
aS'441 01'
p551
aS'430 01'
p552
aS'431 51'
p553
aS'430 01'
p554
aS'431 11'
p555
aS'431 11'
p556
aS'431 51'
p557
aS'431 51'
p558
aS'432 01'
p559
aS'438 01'
p560
aS'468 22'
p561
aS'430 01'
p562
aS'431 01'
p563
aS'432 01'
p564
asS'Chakisain'
p565
(lp566
S'246130'
p567
aS'246130'
p568
asS'Cairnlea'
p569
(lp570
S'3023'
p571
aS'3023'
p572
asS'Cardal'
p573
(lp574
S'9580-211'
p575
aS'9580-211'
p576
asS'Chepauk'
p577
(lp578
S'600005'
p579
aS'600005'
p580
asS'Chandrapuri'
p581
(lp582
S'246425'
p583
aS'246425'
p584
asS'Cibakh\xc3\xa1za'
p585
(lp586
S'5462'
p587
aS'5462'
p588
asS'Cedartown'
p589
(lp590
S'30125'
p591
aS'30125'
p592
asS'Campagnola'
p593
(lp594
S'24126'
p595
aS'24126'
p596
asS'Chum Phuang'
p597
(lp598
S'30270'
p599
aS'30270'
p600
asS'Corcubion'
p601
(lp602
S'15130'
p603
aS'15130'
p604
asS'Castanheiro Norte'
p605
(lp606
S'5140-131'
p607
aS'5140-131'
p608
asS'Calgary (Discovery Ridge / Signal Hill / Aspen Woods / Patterson / Cougar Ridge)'
p609
(lp610
S'T3H'
p611
aS'T3H'
p612
asS'Clinton'
p613
(lp614
S'06413'
p615
aS'08809'
p616
aS'37716'
p617
aS'52732'
p618
aS'73601'
p619
aS'98236'
p620
aS'06413'
p621
aS'52732'
p622
aS'08809'
p623
aS'73601'
p624
aS'37716'
p625
aS'98236'
p626
asS'Csik\xc3\xb3st\xc5\x91tt\xc5\x91s'
p627
(lp628
S'7341'
p629
aS'7341'
p630
asS'Cowandilla'
p631
(lp632
S'5033'
p633
aS'5033'
p634
asS'Columbia'
p635
(lp636
S'06237'
p637
aS'21044'
p638
aS'21046'
p639
aS'29203'
p640
aS'29205'
p641
aS'29208'
p642
aS'29210'
p643
aS'29212'
p644
aS'29214'
p645
aS'29216'
p646
aS'29218'
p647
aS'29220'
p648
aS'29222'
p649
aS'29225'
p650
aS'29227'
p651
aS'29229'
p652
aS'29240'
p653
aS'29260'
p654
aS'29292'
p655
aS'38401'
p656
aS'50057'
p657
aS'65201'
p658
aS'65203'
p659
aS'06237'
p660
aS'50057'
p661
aS'21044'
p662
aS'21046'
p663
aS'65201'
p664
aS'65203'
p665
aS'29210'
p666
aS'29212'
p667
aS'29203'
p668
aS'29205'
p669
aS'29208'
p670
aS'29214'
p671
aS'29216'
p672
aS'29218'
p673
aS'29220'
p674
aS'29222'
p675
aS'29225'
p676
aS'29227'
p677
aS'29229'
p678
aS'29240'
p679
aS'29260'
p680
aS'29292'
p681
aS'38401'
p682
asS'Cizkrajov'
p683
(lp684
S'378 81'
p685
asS'Chvalkovice'
p686
(lp687
S'378 81'
p688
aS'683 41'
p689
asS'Chapmanville'
p690
(lp691
S'25508'
p692
aS'25508'
p693
asS'Cala Murada'
p694
(lp695
S'07688'
p696
aS'07688'
p697
asS'Cebiv'
p698
(lp699
S'349 52'
p700
asS'Ch\xc3\xa9nens'
p701
(lp702
S'1744'
p703
aS'1744'
p704
asS'Chestermere'
p705
(lp706
S'T1X'
p707
aS'T1X'
p708
asS'Camp Hill'
p709
(lp710
S'4152'
p711
aS'4152'
p712
asS'C T Tonk'
p713
(lp714
S'304001'
p715
aS'304001'
p716
asS'Clare'
p717
(lp718
S'48617'
p719
aS'48617'
p720
asS'Companhia de Baixo'
p721
(lp722
S'9930-422'
p723
aS'9930-424'
p724
aS'9930-426'
p725
aS'9930-428'
p726
aS'9930-430'
p727
aS'9930-432'
p728
aS'9930-422'
p729
aS'9930-424'
p730
aS'9930-426'
p731
aS'9930-428'
p732
aS'9930-430'
p733
aS'9930-432'
p734
asS'Cremorne Junction'
p735
(lp736
S'2090'
p737
aS'2090'
p738
asS'Cap-Pel\xc3\xa9'
p739
(lp740
S'E4N'
p741
aS'E4N'
p742
aS'E4N'
p743
asS'Churag'
p744
(lp745
S'171303'
p746
aS'171303'
p747
asS'Cruzeiro'
p748
(lp749
S'4615-808'
p750
aS'4615-808'
p751
asS'Cerekvice nad Lou\xc4\x8dnou'
p752
(lp753
S'569 53'
p754
asS'Chiang Khan'
p755
(lp756
S'42110'
p757
aS'42110'
p758
asS'Chiang Kham'
p759
(lp760
S'56110'
p761
aS'56110'
p762
asS'Central Labrador (Happy Valley-Goose Bay)'
p763
(lp764
S'A0P'
p765
aS'A0P'
p766
asS'Carvalheira'
p767
(lp768
S'4615-805'
p769
aS'4615-805'
p770
asS'Carregal do Sal'
p771
(lp772
S'3430-001'
p773
aS'3430-003'
p774
ag774
aS'3430-007'
p775
ag775
aS'3430-009'
p776
ag776
aS'3430-016'
p777
ag777
aS'3430-018'
p778
ag778
aS'3430-021'
p779
ag779
aS'3430-025'
p780
ag780
aS'3430-027'
p781
ag781
aS'3430-029'
p782
ag782
aS'3430-033'
p783
ag783
aS'3430-038'
p784
ag784
aS'3430-040'
p785
ag785
aS'3430-044'
p786
ag786
aS'3430-046'
p787
ag787
aS'3430-048'
p788
ag788
aS'3430-051'
p789
ag789
aS'3430-055'
p790
ag790
aS'3430-059'
p791
ag791
aS'3430-067'
p792
ag792
aS'3430-071'
p793
ag793
aS'3430-073'
p794
ag794
aS'3430-077'
p795
ag795
aS'3430-083'
p796
ag796
aS'3430-086'
p797
ag797
aS'3430-088'
p798
ag798
aS'3430-090'
p799
ag799
aS'3430-094'
p800
ag800
aS'3430-120'
p801
ag801
aS'3430-122'
p802
ag802
aS'3430-127'
p803
ag803
aS'3430-131'
p804
ag804
aS'3430-134'
p805
ag805
aS'3430-139'
p806
ag806
aS'3430-142'
p807
ag807
aS'3430-144'
p808
ag808
aS'3430-147'
p809
ag809
aS'3430-149'
p810
ag810
aS'3430-151'
p811
aS'3430-153'
p812
ag812
aS'3430-155'
p813
ag813
aS'3430-157'
p814
ag814
aS'3430-159'
p815
ag815
aS'3430-161'
p816
ag816
aS'3430-163'
p817
ag817
aS'3430-165'
p818
ag818
aS'3430-167'
p819
ag819
aS'3430-169'
p820
aS'3430-211'
p821
aS'3430-261'
p822
ag822
aS'3430-271'
p823
aS'3430-292'
p824
aS'3430-294'
p825
aS'3430-298'
p826
aS'3430-300'
p827
aS'3430-302'
p828
aS'3430-304'
p829
aS'3430-306'
p830
aS'3430-308'
p831
aS'3430-310'
p832
aS'3430-312'
p833
aS'3430-314'
p834
aS'3430-316'
p835
aS'3430-318'
p836
aS'3430-321'
p837
aS'3430-341'
p838
aS'3430-343'
p839
aS'3430-345'
p840
aS'3430-350'
p841
aS'3430-352'
p842
aS'3430-355'
p843
aS'3430-358'
p844
aS'3430-360'
p845
aS'3430-362'
p846
aS'3430-364'
p847
aS'3430-366'
p848
aS'3430-368'
p849
aS'3430-371'
p850
aS'3430-373'
p851
aS'3430-377'
p852
aS'3430-392'
p853
aS'3430-394'
p854
aS'3430-396'
p855
aS'3430-399'
p856
aS'3430-401'
p857
aS'3430-403'
p858
aS'3430-405'
p859
aS'3430-407'
p860
aS'3430-409'
p861
aS'3430-412'
p862
aS'3430-420'
p863
aS'3430-501'
p864
aS'3430-503'
p865
aS'3430-505'
p866
aS'3430-507'
p867
aS'3430-509'
p868
aS'3430-511'
p869
aS'3430-513'
p870
aS'3430-515'
p871
aS'3430-517'
p872
aS'3430-001'
p873
ag873
aS'3430-003'
p874
ag874
aS'3430-007'
p875
ag875
aS'3430-009'
p876
ag876
aS'3430-016'
p877
ag877
aS'3430-018'
p878
ag878
aS'3430-021'
p879
ag879
aS'3430-025'
p880
ag880
aS'3430-027'
p881
ag881
aS'3430-029'
p882
ag882
aS'3430-033'
p883
ag883
aS'3430-038'
p884
ag884
aS'3430-040'
p885
ag885
aS'3430-044'
p886
ag886
aS'3430-046'
p887
ag887
aS'3430-048'
p888
ag888
aS'3430-051'
p889
ag889
aS'3430-055'
p890
ag890
aS'3430-059'
p891
ag891
aS'3430-067'
p892
ag892
aS'3430-071'
p893
ag893
aS'3430-073'
p894
ag894
aS'3430-077'
p895
ag895
aS'3430-083'
p896
ag896
aS'3430-086'
p897
ag897
aS'3430-088'
p898
ag898
aS'3430-090'
p899
ag899
aS'3430-094'
p900
ag900
aS'3430-120'
p901
ag901
aS'3430-122'
p902
ag902
aS'3430-127'
p903
ag903
aS'3430-131'
p904
ag904
aS'3430-134'
p905
ag905
aS'3430-139'
p906
ag906
aS'3430-142'
p907
ag907
aS'3430-144'
p908
ag908
aS'3430-147'
p909
ag909
aS'3430-149'
p910
ag910
aS'3430-151'
p911
aS'3430-153'
p912
ag912
aS'3430-155'
p913
ag913
aS'3430-157'
p914
ag914
aS'3430-159'
p915
ag915
aS'3430-161'
p916
ag916
aS'3430-163'
p917
ag917
aS'3430-165'
p918
ag918
aS'3430-167'
p919
ag919
aS'3430-169'
p920
aS'3430-211'
p921
aS'3430-261'
p922
ag922
aS'3430-271'
p923
aS'3430-292'
p924
aS'3430-294'
p925
aS'3430-298'
p926
aS'3430-300'
p927
aS'3430-302'
p928
aS'3430-304'
p929
aS'3430-306'
p930
aS'3430-308'
p931
aS'3430-310'
p932
aS'3430-312'
p933
aS'3430-314'
p934
aS'3430-316'
p935
aS'3430-318'
p936
aS'3430-321'
p937
aS'3430-341'
p938
aS'3430-343'
p939
aS'3430-345'
p940
aS'3430-350'
p941
aS'3430-352'
p942
aS'3430-355'
p943
aS'3430-358'
p944
aS'3430-360'
p945
aS'3430-362'
p946
aS'3430-364'
p947
aS'3430-366'
p948
aS'3430-368'
p949
aS'3430-371'
p950
aS'3430-373'
p951
aS'3430-377'
p952
aS'3430-392'
p953
aS'3430-394'
p954
aS'3430-396'
p955
aS'3430-399'
p956
aS'3430-401'
p957
aS'3430-403'
p958
aS'3430-405'
p959
aS'3430-407'
p960
aS'3430-409'
p961
aS'3430-412'
p962
aS'3430-420'
p963
aS'3430-501'
p964
aS'3430-503'
p965
aS'3430-505'
p966
aS'3430-507'
p967
aS'3430-509'
p968
aS'3430-511'
p969
aS'3430-513'
p970
aS'3430-515'
p971
aS'3430-517'
p972
asS'Carlsbad'
p973
(lp974
S'88220'
p975
aS'92009'
p976
aS'92009'
p977
aS'88220'
p978
asS'Calzadilla De Los Barros'
p979
(lp980
S'06249'
p981
aS'06249'
p982
asS'Chval\xc5\xa1iny'
p983
(lp984
S'382 08'
p985
asS'Canonsburg'
p986
(lp987
S'15317'
p988
aS'15317'
p989
asS'City'
p990
(lp991
S'2601'
p992
asS'Contoocook'
p993
(lp994
S'03229'
p995
aS'03229'
p996
asS'Chicopee'
p997
(lp998
S'01013'
p999
aS'01014'
p1000
aS'01013'
p1001
aS'01014'
p1002
asS'Cockeysville'
p1003
(lp1004
S'21030'
p1005
aS'21030'
p1006
asS'Canton'
p1007
(lp1008
S'04221'
p1009
aS'30114'
p1010
aS'48187'
p1011
aS'57013'
p1012
aS'30114'
p1013
aS'04221'
p1014
aS'48187'
p1015
aS'57013'
p1016
asS'Chernex'
p1017
(lp1018
S'1822'
p1019
aS'1822'
p1020
asS'Chiang Yun'
p1021
(lp1022
S'44160'
p1023
aS'44160'
p1024
asS'Calabardina'
p1025
(lp1026
S'30889'
p1027
aS'30889'
p1028
asS'Chiacg Muan'
p1029
(lp1030
S'56160'
p1031
aS'56160'
p1032
asS'Chilliwack Central'
p1033
(lp1034
S'V2P'
p1035
aS'V2P'
p1036
asS'Caleta De Fuste'
p1037
(lp1038
S'35610'
p1039
asS'Centreville'
p1040
(lp1041
S'E7K'
p1042
aS'E7K'
p1043
aS'E7K'
p1044
aS'20120'
p1045
aS'20120'
p1046
asS'Crhov'
p1047
(lp1048
S'679 74'
p1049
asS'Canarias'
p1050
(lp1051
S'35001'
p1052
aS'35003'
p1053
ag1053
aS'35006'
p1054
ag1054
aS'35009'
p1055
ag1055
aS'35010'
p1056
ag1056
aS'35012'
p1057
ag1057
aS'35017'
p1058
ag1058
aS'35018'
p1059
aS'35019'
p1060
ag1060
aS'35100'
p1061
aS'35109'
p1062
aS'35110'
p1063
aS'35118'
p1064
aS'35119'
p1065
aS'35139'
p1066
aS'35214'
p1067
aS'35219'
p1068
aS'35320'
p1069
aS'35350'
p1070
aS'35470'
p1071
aS'35500'
p1072
aS'35508'
p1073
aS'35542'
p1074
aS'35543'
p1075
aS'35544'
p1076
aS'35560'
p1077
aS'35572'
p1078
aS'35626'
p1079
aS'35627'
p1080
aS'35629'
p1081
aS'35640'
p1082
aS'35660'
p1083
aS'38002'
p1084
aS'38004'
p1085
aS'38006'
p1086
aS'38008'
p1087
aS'38010'
p1088
aS'38150'
p1089
aS'38190'
p1090
aS'38200'
p1091
aS'38203'
p1092
aS'38205'
p1093
aS'38206'
p1094
aS'38207'
p1095
aS'38240'
p1096
aS'38260'
p1097
aS'38270'
p1098
aS'38290'
p1099
aS'38293'
p1100
aS'38295'
p1101
aS'38297'
p1102
aS'38380'
p1103
aS'38400'
p1104
aS'38410'
p1105
aS'38420'
p1106
aS'38430'
p1107
aS'38435'
p1108
aS'38470'
p1109
aS'38509'
p1110
aS'38520'
p1111
aS'38530'
p1112
aS'38550'
p1113
aS'38580'
p1114
aS'38600'
p1115
aS'38617'
p1116
aS'38630'
p1117
aS'38639'
p1118
aS'38677'
p1119
aS'38678'
p1120
aS'38680'
p1121
aS'38686'
p1122
aS'38689'
p1123
aS'38700'
p1124
aS'38715'
p1125
aS'38770'
p1126
aS'38780'
p1127
aS'38787'
p1128
aS'38812'
p1129
aS'38870'
p1130
aS'38900'
p1131
aS'38911'
p1132
aS'38915'
p1133
aS'35001'
p1134
ag1134
aS'38400'
p1135
aS'35003'
p1136
ag1136
aS'35100'
p1137
aS'35500'
p1138
aS'38002'
p1139
aS'35006'
p1140
ag1140
aS'35010'
p1141
ag1141
aS'35110'
p1142
aS'35130'
p1143
aS'35660'
p1144
aS'38004'
p1145
aS'38006'
p1146
aS'38200'
p1147
aS'38205'
p1148
aS'38410'
p1149
aS'38700'
p1150
aS'35017'
p1151
ag1151
aS'38206'
p1152
aS'38350'
p1153
aS'38430'
p1154
aS'38770'
p1155
aS'35009'
p1156
ag1156
aS'35012'
p1157
ag1157
aS'35014'
p1158
ag1158
aS'35100'
p1159
aS'35219'
p1160
aS'35508'
p1161
ag1039
aS'35626'
p1162
aS'35627'
p1163
aS'38008'
p1164
aS'38010'
p1165
aS'38190'
p1166
aS'38207'
p1167
aS'38290'
p1168
aS'38420'
p1169
aS'38530'
p1170
aS'38600'
p1171
aS'38620'
p1172
aS'38680'
p1173
aS'38780'
p1174
aS'38870'
p1175
aS'35118'
p1176
aS'35543'
p1177
aS'38203'
p1178
aS'38550'
p1179
aS'38715'
p1180
aS'38911'
p1181
aS'35019'
p1182
ag1182
aS'35139'
p1183
aS'35320'
p1184
aS'35560'
p1185
aS'35629'
p1186
aS'38190'
p1187
aS'38240'
p1188
aS'38260'
p1189
aS'38297'
p1190
aS'38380'
p1191
aS'38470'
p1192
aS'38580'
p1193
aS'38630'
p1194
aS'38678'
p1195
aS'38689'
p1196
aS'38720'
p1197
aS'38740'
p1198
aS'38812'
p1199
aS'35017'
p1200
aS'35100'
p1201
aS'35109'
p1202
aS'35129'
p1203
aS'35213'
p1204
aS'35320'
p1205
aS'35570'
p1206
aS'35572'
p1207
aS'35640'
p1208
aS'38150'
p1209
aS'38293'
p1210
aS'38435'
p1211
aS'38617'
p1212
aS'38627'
p1213
aS'38787'
p1214
aS'38900'
p1215
aS'35100'
p1216
aS'35119'
p1217
aS'35544'
p1218
aS'38509'
p1219
aS'38627'
p1220
aS'38639'
p1221
aS'38686'
p1222
aS'35018'
p1223
aS'35214'
p1224
aS'35350'
p1225
aS'35470'
p1226
aS'35542'
p1227
aS'38270'
p1228
aS'38295'
p1229
aS'38520'
p1230
aS'38677'
p1231
aS'38915'
p1232
asS'C\xc3\xadsa\xc5\x99sk\xc3\xbd'
p1233
(lp1234
S'407 77'
p1235
asS'Cortega\xc3\xa7a'
p1236
(lp1237
S'4880-026'
p1238
aS'4880-026'
p1239
asS'Casal Comba'
p1240
(lp1241
S'3050-152'
p1242
aS'3050-154'
p1243
aS'3050-156'
p1244
aS'3050-158'
p1245
aS'3050-160'
p1246
aS'3050-162'
p1247
aS'3050-164'
p1248
aS'3050-166'
p1249
aS'3050-168'
p1250
aS'3050-170'
p1251
aS'3050-172'
p1252
aS'3050-174'
p1253
aS'3050-176'
p1254
aS'3050-152'
p1255
aS'3050-154'
p1256
aS'3050-156'
p1257
aS'3050-158'
p1258
aS'3050-160'
p1259
aS'3050-162'
p1260
aS'3050-164'
p1261
aS'3050-166'
p1262
aS'3050-168'
p1263
aS'3050-170'
p1264
aS'3050-172'
p1265
aS'3050-174'
p1266
aS'3050-176'
p1267
asS'Clovelly'
p1268
(lp1269
S'2031'
p1270
aS'2031'
p1271
asS'Chlume\xc4\x8dek'
p1272
(lp1273
S'382 03'
p1274
asS'Calgary (Elbow Park / Britannia / Parkhill / Mission)'
p1275
(lp1276
S'T2S'
p1277
aS'T2S'
p1278
asS'Cvr\xc4\x8dovice'
p1279
(lp1280
S'273 41'
p1281
aS'691 23'
p1282
asS'Condamine'
p1283
(lp1284
S'4416'
p1285
asS'Cavel Cross Lane'
p1286
(lp1287
S'400002'
p1288
asS'Chaloem Phakiat'
p1289
(lp1290
S'18000'
p1291
aS'18110'
p1292
aS'18130'
p1293
aS'18150'
p1294
aS'18170'
p1295
aS'18190'
p1296
aS'18210'
p1297
aS'18000'
p1298
ag1298
aS'18110'
p1299
aS'18130'
p1300
aS'18150'
p1301
aS'18170'
p1302
aS'18190'
p1303
aS'18210'
p1304
asS'Churwalden'
p1305
(lp1306
S'7075'
p1307
aS'7075'
p1308
asS'Chavornay'
p1309
(lp1310
S'1373'
p1311
aS'1373'
p1312
asS'Csabrendek'
p1313
(lp1314
S'8474'
p1315
aS'8474'
p1316
asS'Corning'
p1317
(lp1318
S'66417'
p1319
aS'66417'
p1320
asS'Cresson'
p1321
(lp1322
S'16630'
p1323
aS'16630'
p1324
asS'Centerburg'
p1325
(lp1326
S'43011'
p1327
aS'43011'
p1328
asS'Chhatia'
p1329
(lp1330
S'754023'
p1331
aS'754023'
p1332
asS'Chengalpattu Medical College'
p1333
(lp1334
S'603001'
p1335
asS'Calgary (Lakeview / Glendale / Killarney / Glamorgan)'
p1336
(lp1337
S'T3E'
p1338
aS'T3E'
p1339
asS'Coswig'
p1340
(lp1341
S'01640'
p1342
aS'01640'
p1343
asS'Csaholc'
p1344
(lp1345
S'4967'
p1346
aS'4967'
p1347
asS'Coltons Point'
p1348
(lp1349
S'20626'
p1350
aS'20626'
p1351
asS'Chrudim II (\xc4\x8d\xc3\xa1st)'
p1352
(lp1353
S'537 01'
p1354
asS'Christine'
p1355
(lp1356
S'58015'
p1357
aS'58015'
p1358
asS'Csesztreg'
p1359
(lp1360
S'8973'
p1361
asS'Ch\xc3\xa9sopelloz'
p1362
(lp1363
S'1720'
p1364
aS'1720'
p1365
asS'Chumukhedima'
p1366
(lp1367
S'797103'
p1368
aS'797103'
p1369
asS'Cogswell'
p1370
(lp1371
S'58017'
p1372
aS'58017'
p1373
asS'Chopra'
p1374
(lp1375
S'246495'
p1376
aS'246495'
p1377
asS'Coeuve'
p1378
(lp1379
S'2932'
p1380
asS'Corral'
p1381
(lp1382
S'83322'
p1383
aS'83322'
p1384
asS'Chlumy'
p1385
(lp1386
S'335 01'
p1387
asS'Chumsaeng'
p1388
(lp1389
S'60120'
p1390
aS'60120'
p1391
asS'Crowley'
p1392
(lp1393
S'70526'
p1394
aS'70526'
p1395
asS'Cs\xc3\xa9vharaszt'
p1396
(lp1397
S'2212'
p1398
aS'2212'
p1399
asS'Cece'
p1400
(lp1401
S'7013'
p1402
aS'7013'
p1403
asS'Cerdeirinhas'
p1404
(lp1405
S'4880-022'
p1406
aS'4880-022'
p1407
asS'Chandsen'
p1408
(lp1409
S'304508'
p1410
aS'304508'
p1411
asS'C M C Ludhiana'
p1412
(lp1413
S'141008'
p1414
aS'141008'
p1415
asS'Citonice'
p1416
(lp1417
S'671 01'
p1418
aS'671 01'
p1419
asS'Chaudwar'
p1420
(lp1421
S'754025'
p1422
aS'754025'
p1423
asS'Cape May'
p1424
(lp1425
S'08204'
p1426
aS'08204'
p1427
asS'Castropol'
p1428
(lp1429
S'33760'
p1430
aS'33760'
p1431
asS'Cheltenham'
p1432
(lp1433
S'3192'
p1434
aS'3192'
p1435
asS'Chhamb'
p1436
(lp1437
S'181205'
p1438
aS'181205'
p1439
asS'Cham 1'
p1440
(lp1441
S'6330'
p1442
asS'Calumet'
p1443
(lp1444
S'73014'
p1445
aS'73014'
p1446
asS'Castell\xc3\xb3 De La Plana/Castell\xc3\xb3n De La Plana'
p1447
(lp1448
S'12001'
p1449
aS'12001'
p1450
asS'Cooleemee'
p1451
(lp1452
S'27014'
p1453
aS'27014'
p1454
asS'Calcuttawala Compound'
p1455
(lp1456
S'400008'
p1457
asS'Collonge-Bellerive'
p1458
(lp1459
S'1245'
p1460
aS'1245'
p1461
asS'Capannelle'
p1462
(lp1463
S'00178'
p1464
aS'00178'
p1465
asS'Cammeray'
p1466
(lp1467
S'2062'
p1468
aS'2062'
p1469
asS'Chevak'
p1470
(lp1471
S'99563'
p1472
aS'99563'
p1473
asS'Choce\xc5\x88sk\xc3\xa9 P\xc5\x99edm\xc4\x9bst\xc3\xad'
p1474
(lp1475
S'566 01'
p1476
asS'Chimayo'
p1477
(lp1478
S'87522'
p1479
aS'87522'
p1480
asS'Chappells'
p1481
(lp1482
S'29037'
p1483
asS'Colchester'
p1484
(lp1485
S'05439'
p1486
aS'05446'
p1487
aS'05449'
p1488
aS'05439'
p1489
aS'05446'
p1490
aS'05449'
p1491
asS'Cathedral'
p1492
(lp1493
S'600006'
p1494
aS'600006'
p1495
asS'Castelo Branco'
p1496
(lp1497
S'6000-001'
p1498
aS'6000-003'
p1499
aS'6000-005'
p1500
aS'6000-007'
p1501
aS'6000-009'
p1502
aS'6000-021'
p1503
aS'6000-028'
p1504
ag1504
aS'6000-030'
p1505
aS'6000-032'
p1506
ag1506
aS'6000-034'
p1507
ag1507
aS'6000-036'
p1508
ag1508
aS'6000-038'
p1509
ag1509
aS'6000-040'
p1510
ag1510
aS'6000-042'
p1511
ag1511
aS'6000-044'
p1512
ag1512
aS'6000-046'
p1513
ag1513
aS'6000-048'
p1514
ag1514
aS'6000-050'
p1515
ag1515
aS'6000-052'
p1516
ag1516
aS'6000-054'
p1517
ag1517
aS'6000-056'
p1518
ag1518
aS'6000-058'
p1519
ag1519
aS'6000-060'
p1520
ag1520
aS'6000-062'
p1521
ag1521
aS'6000-064'
p1522
ag1522
aS'6000-066'
p1523
ag1523
aS'6000-068'
p1524
ag1524
aS'6000-070'
p1525
ag1525
aS'6000-072'
p1526
ag1526
aS'6000-074'
p1527
ag1527
aS'6000-076'
p1528
ag1528
aS'6000-078'
p1529
ag1529
aS'6000-080'
p1530
ag1530
aS'6000-082'
p1531
ag1531
aS'6000-084'
p1532
ag1532
aS'6000-086'
p1533
ag1533
aS'6000-088'
p1534
ag1534
aS'6000-090'
p1535
ag1535
aS'6000-092'
p1536
ag1536
aS'6000-095'
p1537
ag1537
aS'6000-097'
p1538
ag1538
aS'6000-099'
p1539
ag1539
aS'6000-101'
p1540
ag1540
aS'6000-103'
p1541
ag1541
aS'6000-105'
p1542
ag1542
aS'6000-107'
p1543
ag1543
aS'6000-109'
p1544
ag1544
aS'6000-111'
p1545
ag1545
aS'6000-113'
p1546
ag1546
aS'6000-115'
p1547
ag1547
aS'6000-117'
p1548
ag1548
aS'6000-119'
p1549
ag1549
aS'6000-121'
p1550
ag1550
aS'6000-123'
p1551
ag1551
aS'6000-125'
p1552
ag1552
aS'6000-127'
p1553
ag1553
aS'6000-129'
p1554
ag1554
aS'6000-131'
p1555
ag1555
aS'6000-133'
p1556
ag1556
aS'6000-135'
p1557
ag1557
aS'6000-138'
p1558
ag1558
aS'6000-140'
p1559
ag1559
aS'6000-142'
p1560
ag1560
aS'6000-144'
p1561
ag1561
aS'6000-146'
p1562
ag1562
aS'6000-148'
p1563
ag1563
aS'6000-150'
p1564
ag1564
aS'6000-152'
p1565
ag1565
aS'6000-154'
p1566
ag1566
aS'6000-156'
p1567
ag1567
aS'6000-158'
p1568
ag1568
aS'6000-160'
p1569
ag1569
aS'6000-162'
p1570
ag1570
aS'6000-164'
p1571
ag1571
aS'6000-166'
p1572
ag1572
aS'6000-168'
p1573
ag1573
aS'6000-170'
p1574
ag1574
aS'6000-172'
p1575
ag1575
aS'6000-174'
p1576
ag1576
aS'6000-176'
p1577
ag1577
aS'6000-178'
p1578
ag1578
aS'6000-180'
p1579
ag1579
aS'6000-182'
p1580
ag1580
aS'6000-184'
p1581
ag1581
aS'6000-186'
p1582
ag1582
aS'6000-188'
p1583
ag1583
aS'6000-190'
p1584
ag1584
aS'6000-192'
p1585
ag1585
aS'6000-194'
p1586
ag1586
aS'6000-196'
p1587
ag1587
aS'6000-198'
p1588
ag1588
aS'6000-200'
p1589
ag1589
aS'6000-202'
p1590
ag1590
aS'6000-204'
p1591
ag1591
aS'6000-206'
p1592
ag1592
aS'6000-208'
p1593
ag1593
aS'6000-210'
p1594
ag1594
aS'6000-212'
p1595
ag1595
aS'6000-214'
p1596
ag1596
aS'6000-216'
p1597
ag1597
aS'9900-323'
p1598
aS'6000-001'
p1599
ag1599
aS'6000-003'
p1600
aS'6000-005'
p1601
aS'6000-007'
p1602
aS'6000-009'
p1603
aS'6000-021'
p1604
aS'6000-028'
p1605
ag1605
aS'6000-030'
p1606
aS'6000-032'
p1607
ag1607
aS'6000-034'
p1608
ag1608
aS'6000-036'
p1609
ag1609
aS'6000-038'
p1610
ag1610
aS'6000-040'
p1611
ag1611
aS'6000-042'
p1612
ag1612
aS'6000-044'
p1613
ag1613
aS'6000-046'
p1614
ag1614
aS'6000-048'
p1615
ag1615
aS'6000-050'
p1616
ag1616
aS'6000-052'
p1617
ag1617
aS'6000-054'
p1618
ag1618
aS'6000-056'
p1619
ag1619
aS'6000-058'
p1620
ag1620
aS'6000-060'
p1621
ag1621
aS'6000-062'
p1622
ag1622
aS'6000-064'
p1623
ag1623
aS'6000-066'
p1624
ag1624
aS'6000-068'
p1625
ag1625
aS'6000-070'
p1626
ag1626
aS'6000-072'
p1627
ag1627
aS'6000-074'
p1628
ag1628
aS'6000-076'
p1629
ag1629
aS'6000-078'
p1630
ag1630
aS'6000-080'
p1631
ag1631
aS'6000-082'
p1632
ag1632
aS'6000-084'
p1633
ag1633
aS'6000-086'
p1634
ag1634
aS'6000-088'
p1635
ag1635
aS'6000-090'
p1636
ag1636
aS'6000-092'
p1637
ag1637
aS'6000-095'
p1638
ag1638
aS'6000-097'
p1639
ag1639
aS'6000-099'
p1640
ag1640
aS'6000-101'
p1641
ag1641
aS'6000-103'
p1642
ag1642
aS'6000-105'
p1643
ag1643
aS'6000-107'
p1644
ag1644
aS'6000-109'
p1645
ag1645
aS'6000-111'
p1646
ag1646
aS'6000-113'
p1647
ag1647
aS'6000-115'
p1648
ag1648
aS'6000-117'
p1649
ag1649
aS'6000-119'
p1650
ag1650
aS'6000-121'
p1651
ag1651
aS'6000-123'
p1652
ag1652
aS'6000-125'
p1653
ag1653
aS'6000-127'
p1654
ag1654
aS'6000-129'
p1655
ag1655
aS'6000-131'
p1656
ag1656
aS'6000-133'
p1657
ag1657
aS'6000-135'
p1658
ag1658
aS'6000-138'
p1659
ag1659
aS'6000-140'
p1660
ag1660
aS'6000-142'
p1661
ag1661
aS'6000-144'
p1662
ag1662
aS'6000-146'
p1663
ag1663
aS'6000-148'
p1664
ag1664
aS'6000-150'
p1665
ag1665
aS'6000-152'
p1666
ag1666
aS'6000-154'
p1667
ag1667
aS'6000-156'
p1668
ag1668
aS'6000-158'
p1669
ag1669
aS'6000-160'
p1670
ag1670
aS'6000-162'
p1671
ag1671
aS'6000-164'
p1672
ag1672
aS'6000-166'
p1673
ag1673
aS'6000-168'
p1674
ag1674
aS'6000-170'
p1675
ag1675
aS'6000-172'
p1676
ag1676
aS'6000-174'
p1677
ag1677
aS'6000-176'
p1678
ag1678
aS'6000-178'
p1679
ag1679
aS'6000-180'
p1680
ag1680
aS'6000-182'
p1681
ag1681
aS'6000-184'
p1682
ag1682
aS'6000-186'
p1683
ag1683
aS'6000-188'
p1684
ag1684
aS'6000-190'
p1685
ag1685
aS'6000-192'
p1686
ag1686
aS'6000-194'
p1687
ag1687
aS'6000-196'
p1688
ag1688
aS'6000-198'
p1689
ag1689
aS'6000-200'
p1690
ag1690
aS'6000-202'
p1691
ag1691
aS'6000-204'
p1692
ag1692
aS'6000-206'
p1693
ag1693
aS'6000-208'
p1694
ag1694
aS'6000-210'
p1695
ag1695
aS'6000-212'
p1696
ag1696
aS'6000-214'
p1697
ag1697
aS'6000-216'
p1698
ag1698
aS'9900-323'
p1699
asS'Chermside'
p1700
(lp1701
S'4032'
p1702
aS'4032'
p1703
asS'Crailsheim'
p1704
(lp1705
S'74564'
p1706
aS'74564'
p1707
asS'Cayce'
p1708
(lp1709
S'29033'
p1710
aS'29033'
p1711
asS'Candeleda'
p1712
(lp1713
S'05480'
p1714
aS'05480'
p1715
asS'Cobalt'
p1716
(lp1717
S'83229'
p1718
aS'83229'
p1719
asS'Chiaravalle Milanese'
p1720
(lp1721
S'20139'
p1722
asS'Crows Nest'
p1723
(lp1724
S'1585'
p1725
aS'1585'
p1726
asS'Cabe\xc3\xa7o'
p1727
(lp1728
S'9400-030'
p1729
aS'9400-030'
p1730
asS'Carpinteiros'
p1731
(lp1732
S'3050-204'
p1733
aS'3050-204'
p1734
asS'Chengalpattu Cutcherry'
p1735
(lp1736
S'603002'
p1737
asS'Courtepin'
p1738
(lp1739
S'1784'
p1740
aS'1784'
p1741
asS'Carregueiro'
p1742
(lp1743
S'7600-160'
p1744
aS'7600-160'
p1745
asS'Chroustov'
p1746
(lp1747
S'507 71'
p1748
aS'675 52'
p1749
asS'Chaumont'
p1750
(lp1751
S'2067'
p1752
asS'Cintruenigo'
p1753
(lp1754
S'31592'
p1755
aS'31592'
p1756
asS'Caraquet'
p1757
(lp1758
S'E1W'
p1759
aS'E1W'
p1760
aS'E1W'
p1761
asS'Camacha'
p1762
(lp1763
S'9400-010'
p1764
aS'9400-010'
p1765
asS'Cannon Road'
p1766
(lp1767
S'400001'
p1768
asS'Cala Mandia'
p1769
(lp1770
S'07689'
p1771
aS'07689'
p1772
asS'Cocoa'
p1773
(lp1774
S'32926'
p1775
aS'32926'
p1776
asS'Cs\xc3\xa9m'
p1777
(lp1778
S'2949'
p1779
aS'2949'
p1780
asS'Centre-Sud North'
p1781
(lp1782
S'H2K'
p1783
aS'H2K'
p1784
asS'Colstrip'
p1785
(lp1786
S'59323'
p1787
aS'59323'
p1788
asS'Crabtree'
p1789
(lp1790
S'15624'
p1791
aS'15624'
p1792
asS'Casey'
p1793
(lp1794
S'50048'
p1795
aS'50048'
p1796
asS'Chiri'
p1797
(lp1798
S'124524'
p1799
aS'124524'
p1800
asS'Chot\xc4\x9b\xc5\xa1ice'
p1801
(lp1802
S'289 01'
p1803
aS'289 01'
p1804
asS'Clackamas'
p1805
(lp1806
S'97015'
p1807
aS'97015'
p1808
asS'Cosenza'
p1809
(lp1810
S'87100'
p1811
aS'89100'
p1812
aS'88100'
p1813
aS'89135'
p1814
aS'89135'
p1815
aS'89133'
p1816
aS'89135'
p1817
aS'89135'
p1818
aS'89128'
p1819
aS'89134'
p1820
aS'89135'
p1821
aS'87100'
p1822
aS'88100'
p1823
aS'89121'
p1824
aS'89123'
p1825
aS'89125'
p1826
aS'89126'
p1827
aS'89128'
p1828
aS'89131'
p1829
aS'89133'
p1830
aS'89134'
p1831
aS'87100'
p1832
ag1832
aS'88100'
p1833
aS'89100'
p1834
aS'89126'
p1835
aS'89128'
p1836
aS'89134'
p1837
aS'89135'
p1838
asS'C B V Marg (Stable Street'
p1839
(lp1840
S'400007'
p1841
asS'Charmey (Gruy\xc3\xa8re)'
p1842
(lp1843
S'1637'
p1844
aS'1637'
p1845
asS'Clayton'
p1846
(lp1847
S'27520'
p1848
aS'83227'
p1849
aS'83227'
p1850
aS'27520'
p1851
asS'Chitravad'
p1852
(lp1853
S'360452'
p1854
aS'360452'
p1855
asS'Csabdi'
p1856
(lp1857
S'2064'
p1858
aS'2064'
p1859
asS'Cathay'
p1860
(lp1861
S'58422'
p1862
aS'58422'
p1863
asS'C-In-C Road'
p1864
(lp1865
S'600105'
p1866
aS'600105'
p1867
asS'Cedar Grove'
p1868
(lp1869
S'53013'
p1870
aS'53013'
p1871
asS'Cercedilla'
p1872
(lp1873
S'28470'
p1874
aS'28470'
p1875
asS'Commugny'
p1876
(lp1877
S'1291'
p1878
aS'1291'
p1879
asS'Calgary (Mount Pleasant / Capitol Hill / Banff Trail)'
p1880
(lp1881
S'T2M'
p1882
aS'T2M'
p1883
asS'Campobello'
p1884
(lp1885
S'29322'
p1886
aS'29322'
p1887
asS'Cs\xc3\xa9p'
p1888
(lp1889
S'2946'
p1890
aS'2946'
p1891
asS'Cave City'
p1892
(lp1893
S'42127'
p1894
aS'42127'
p1895
asS'Chattanooga'
p1896
(lp1897
S'37412'
p1898
aS'37402'
p1899
aS'37412'
p1900
asS'Chvalatice'
p1901
(lp1902
S'671 02'
p1903
asS'Central Alberta (Stettler)'
p1904
(lp1905
S'T0C'
p1906
aS'T0C'
p1907
asS'Cheboygan'
p1908
(lp1909
S'49721'
p1910
aS'49721'
p1911
asS'Cale'
p1912
(lp1913
S'71828'
p1914
aS'71828'
p1915
asS'Cullacabardee'
p1916
(lp1917
S'6067'
p1918
aS'6067'
p1919
asS'Campania'
p1920
(lp1921
S'80121'
p1922
aS'80126'
p1923
ag1923
aS'80133'
p1924
ag1924
aS'80138'
p1925
ag1925
aS'81100'
p1926
aS'80100'
p1927
ag1927
aS'80128'
p1928
ag1928
aS'80135'
p1929
ag1929
aS'83100'
p1930
aS'84129'
p1931
aS'80123'
p1932
ag1932
aS'80127'
p1933
ag1933
aS'80139'
p1934
ag1934
aS'80144'
p1935
ag1935
aS'84125'
p1936
aS'80136'
p1937
ag1937
aS'80145'
p1938
ag1938
aS'80147'
p1939
ag1939
aS'84123'
p1940
aS'84126'
p1941
aS'80125'
p1942
aS'84124'
p1943
aS'84132'
p1944
aS'84131'
p1945
aS'80144'
p1946
aS'80126'
p1947
aS'81100'
p1948
aS'80146'
p1949
aS'81100'
p1950
aS'81100'
p1951
aS'82100'
p1952
aS'84135'
p1953
aS'81100'
p1954
aS'81100'
p1955
aS'84135'
p1956
aS'81100'
p1957
aS'84135'
p1958
aS'81100'
p1959
aS'80131'
p1960
aS'81100'
p1961
aS'84128'
p1962
aS'84131'
p1963
aS'80100'
p1964
ag1964
aS'80121'
p1965
ag1965
aS'80123'
p1966
ag1966
aS'80125'
p1967
aS'80127'
p1968
ag1968
aS'80128'
p1969
ag1969
aS'80133'
p1970
ag1970
aS'80135'
p1971
ag1971
aS'80136'
p1972
ag1972
aS'80138'
p1973
ag1973
aS'80139'
p1974
ag1974
aS'80144'
p1975
ag1975
aS'80145'
p1976
ag1976
aS'80146'
p1977
aS'80147'
p1978
ag1978
aS'81100'
p1979
aS'82100'
p1980
aS'83100'
p1981
aS'84123'
p1982
aS'84124'
p1983
aS'84125'
p1984
aS'84126'
p1985
aS'84128'
p1986
aS'84129'
p1987
aS'84131'
p1988
aS'84132'
p1989
aS'84135'
p1990
asS'Chavdigate'
p1991
(lp1992
S'364001'
p1993
aS'364001'
p1994
asS'Castro'
p1995
(lp1996
S'6723'
p1997
aS'6723'
p1998
asS'Caledon'
p1999
(lp2000
S'L7C'
p2001
aS'L7C'
p2002
asS'Cejle'
p2003
(lp2004
S'588 51'
p2005
asS'Cava Tigozzi'
p2006
(lp2007
S'26100'
p2008
aS'26100'
p2009
asS'Corydon'
p2010
(lp2011
S'50060'
p2012
aS'50060'
p2013
asS'Casal do Carrascal'
p2014
(lp2015
S'2000-344'
p2016
asS'Corralejo'
p2017
(lp2018
g1083
ag1144
asS'Chot\xc3\xbd\xc5\xa1'
p2019
(lp2020
S'281 63'
p2021
asS'Calheta de Baixo'
p2022
(lp2023
S'9580-209'
p2024
aS'9580-209'
p2025
asS'Casal dos Florindos'
p2026
(lp2027
S'2000-320'
p2028
aS'2000-320'
p2029
asS'Castelseras'
p2030
(lp2031
S'44630'
p2032
aS'44630'
p2033
asS'Chom Bung'
p2034
(lp2035
S'70150'
p2036
aS'70150'
p2037
asS'Central Institute Of Tech'
p2038
(lp2039
S'600020'
p2040
aS'600020'
p2041
asS'Churchill'
p2042
(lp2043
S'4305'
p2044
asS'Crofton'
p2045
(lp2046
S'21114'
p2047
aS'21114'
p2048
asS'Calgary (Forest Lawn / Dover / Erin Woods)'
p2049
(lp2050
S'T2B'
p2051
aS'T2B'
p2052
asS'Chancellor'
p2053
(lp2054
S'57015'
p2055
aS'57015'
p2056
asS'Carlile'
p2057
(lp2058
S'82713'
p2059
aS'82713'
p2060
asS'Central Tractor'
p2061
(lp2062
S'110012'
p2063
aS'110012'
p2064
asS'Cs\xc3\xb6k\xc3\xb6ly'
p2065
(lp2066
S'7526'
p2067
aS'7526'
p2068
asS'Castelo Melhor'
p2069
(lp2070
S'5150-101'
p2071
aS'5150-103'
p2072
aS'5150-106'
p2073
aS'5150-108'
p2074
aS'5150-110'
p2075
aS'5150-112'
p2076
aS'5150-114'
p2077
aS'5150-116'
p2078
aS'5150-118'
p2079
aS'5150-120'
p2080
aS'5150-122'
p2081
aS'5150-124'
p2082
aS'5150-126'
p2083
aS'5150-128'
p2084
aS'5150-130'
p2085
aS'5150-101'
p2086
aS'5150-103'
p2087
aS'5150-106'
p2088
aS'5150-108'
p2089
aS'5150-110'
p2090
aS'5150-112'
p2091
aS'5150-114'
p2092
aS'5150-116'
p2093
aS'5150-118'
p2094
aS'5150-120'
p2095
aS'5150-122'
p2096
aS'5150-124'
p2097
aS'5150-126'
p2098
aS'5150-128'
p2099
aS'5150-130'
p2100
asS'Cedar Rapids'
p2101
(lp2102
S'52402'
p2103
aS'52402'
p2104
asS'Chotouchov'
p2105
(lp2106
S'281 44'
p2107
asS'Castle Rock'
p2108
(lp2109
S'55010'
p2110
aS'55010'
p2111
asS'Cheswold'
p2112
(lp2113
S'19936'
p2114
aS'19936'
p2115
asS'Cered'
p2116
(lp2117
S'3123'
p2118
asS'Cascade Locks'
p2119
(lp2120
S'97014'
p2121
aS'97014'
p2122
asS'Catarroja'
p2123
(lp2124
S'46470'
p2125
asS'Cs\xc3\xb6r\xc3\xb6tnek'
p2126
(lp2127
S'9962'
p2128
aS'9962'
p2129
asS'Clearwater'
p2130
(lp2131
S'33755'
p2132
aS'33762'
p2133
aS'33755'
p2134
aS'33762'
p2135
asS'Chrastava'
p2136
(lp2137
S'463 31'
p2138
aS'463 48'
p2139
aS'463 62'
p2140
aS'463 42'
p2141
aS'463 46'
p2142
aS'463 45'
p2143
aS'463 53'
p2144
aS'460 07'
p2145
aS'463 31'
p2146
aS'463 43'
p2147
aS'463 62'
p2148
aS'460 01'
p2149
aS'460 07'
p2150
aS'460 15'
p2151
aS'463 62'
p2152
aS'464 01'
p2153
aS'463 31'
p2154
aS'463 52'
p2155
aS'460 01'
p2156
aS'463 12'
p2157
aS'463 31'
p2158
aS'464 01'
p2159
aS'463 12'
p2160
aS'463 44'
p2161
aS'463 45'
p2162
aS'460 07'
p2163
aS'460 15'
p2164
aS'463 43'
p2165
aS'294 13'
p2166
aS'460 01'
p2167
aS'460 01'
p2168
aS'460 01'
p2169
aS'460 01'
p2170
aS'460 01'
p2171
aS'460 01'
p2172
aS'460 01'
p2173
aS'460 06'
p2174
aS'460 07'
p2175
aS'460 08'
p2176
aS'460 08'
p2177
aS'460 10'
p2178
aS'460 10'
p2179
aS'460 10'
p2180
aS'460 14'
p2181
aS'460 14'
p2182
aS'460 15'
p2183
aS'460 15'
p2184
aS'463 12'
p2185
aS'463 12'
p2186
aS'463 12'
p2187
aS'463 31'
p2188
aS'463 31'
p2189
aS'463 31'
p2190
aS'463 31'
p2191
aS'463 31'
p2192
aS'463 31'
p2193
aS'463 31'
p2194
aS'463 34'
p2195
aS'463 34'
p2196
aS'463 34'
p2197
aS'463 34'
p2198
aS'463 42'
p2199
aS'463 42'
p2200
aS'463 42'
p2201
aS'463 43'
p2202
aS'463 43'
p2203
aS'463 43'
p2204
aS'463 43'
p2205
aS'463 43'
p2206
aS'463 43'
p2207
aS'463 43'
p2208
aS'463 43'
p2209
aS'463 43'
p2210
aS'463 43'
p2211
aS'463 43'
p2212
aS'463 43'
p2213
aS'463 43'
p2214
aS'463 43'
p2215
aS'463 44'
p2216
aS'463 44'
p2217
aS'463 44'
p2218
aS'463 44'
p2219
aS'463 44'
p2220
aS'463 45'
p2221
aS'463 45'
p2222
aS'463 45'
p2223
aS'463 45'
p2224
aS'463 45'
p2225
aS'463 45'
p2226
aS'463 48'
p2227
aS'463 48'
p2228
aS'463 48'
p2229
aS'463 48'
p2230
aS'463 48'
p2231
aS'463 48'
p2232
aS'463 48'
p2233
aS'463 48'
p2234
aS'460 01'
p2235
aS'463 12'
p2236
aS'464 01'
p2237
asS'Capels'
p2238
(lp2239
S'24820'
p2240
aS'24820'
p2241
asS'Chomuti\xc4\x8dky'
p2242
(lp2243
S'507 53'
p2244
asS'C\xc3\xb4te-des-Neiges Northeast'
p2245
(lp2246
S'H3T'
p2247
aS'H3T'
p2248
asS'Chamba Ghat'
p2249
(lp2250
S'173213'
p2251
aS'173213'
p2252
asS'C C I (Tandur)'
p2253
(lp2254
S'501158'
p2255
aS'501158'
p2256
asS'Cs\xc3\xb6km\xc5\x91'
p2257
(lp2258
S'4145'
p2259
aS'4145'
p2260
asS'Chapelle-sur-Moudon'
p2261
(lp2262
S'1063'
p2263
aS'1063'
p2264
asS'Chabua'
p2265
(lp2266
S'786184'
p2267
aS'786184'
p2268
asS'Capac'
p2269
(lp2270
S'48014'
p2271
asS'Central Island (Chemainus)'
p2272
(lp2273
S'V0R'
p2274
aS'V0R'
p2275
asS'Carpenter'
p2276
(lp2277
S'82054'
p2278
aS'82054'
p2279
asS'Casinhas do Pico'
p2280
(lp2281
S'9400-040'
p2282
aS'9400-040'
p2283
asS'Cando'
p2284
(lp2285
S'58324'
p2286
aS'58324'
p2287
asS'Covington'
p2288
(lp2289
S'30016'
p2290
aS'38019'
p2291
aS'70433'
p2292
aS'30016'
p2293
aS'70433'
p2294
aS'38019'
p2295
asS'Chr\xc3\xa1st'
p2296
(lp2297
S'284 01'
p2298
aS'277 15'
p2299
aS'293 01'
p2300
aS'387 73'
p2301
aS'330 03'
p2302
aS'330 03'
p2303
asS'Courtion'
p2304
(lp2305
S'1721'
p2306
aS'1721'
p2307
asS'Cvr\xc4\x8dov'
p2308
(lp2309
S'751 01'
p2310
aS'751 01'
p2311
asS'Cir\xc3\xa1k'
p2312
(lp2313
S'9364'
p2314
aS'9364'
p2315
asS'Cabo Cima das Casas'
p2316
(lp2317
S'9960-610'
p2318
aS'9960-610'
p2319
asS'Chrastov\xc3\xa1 Lhota'
p2320
(lp2321
S'569 04'
p2322
asS'Champ\xc3\xa9ry'
p2323
(lp2324
S'1874'
p2325
aS'1874'
p2326
asS'Churachandpur'
p2327
(lp2328
S'795128'
p2329
aS'795001'
p2330
aS'795002'
p2331
aS'795004'
p2332
aS'795011'
p2333
aS'795102'
p2334
aS'795104'
p2335
aS'795106'
p2336
aS'795116'
p2337
aS'795121'
p2338
aS'795123'
p2339
aS'795125'
p2340
aS'795127'
p2341
aS'795130'
p2342
aS'795132'
p2343
aS'795136'
p2344
aS'795138'
p2345
aS'795140'
p2346
aS'795144'
p2347
aS'795146'
p2348
aS'795150'
p2349
ag376
aS'795134'
p2350
aS'795142'
p2351
aS'795001'
p2352
aS'795002'
p2353
aS'795004'
p2354
aS'795011'
p2355
aS'795102'
p2356
aS'795104'
p2357
aS'795106'
p2358
aS'795116'
p2359
aS'795121'
p2360
aS'795123'
p2361
aS'795125'
p2362
aS'795127'
p2363
aS'795128'
p2364
ag2364
aS'795130'
p2365
aS'795132'
p2366
aS'795134'
p2367
aS'795136'
p2368
aS'795138'
p2369
aS'795140'
p2370
aS'795142'
p2371
aS'795144'
p2372
aS'795146'
p2373
aS'795150'
p2374
ag377
asS'Chenga'
p2375
(lp2376
S'781305'
p2377
aS'781305'
p2378
asS'Central Saanich'
p2379
(lp2380
S'V8M'
p2381
aS'V8M'
p2382
asS'Corera'
p2383
(lp2384
S'26144'
p2385
aS'26144'
p2386
asS'Chodouny'
p2387
(lp2388
S'411 71'
p2389
asS'Casta\xc3\xb1eda'
p2390
(lp2391
S'39660'
p2392
aS'39660'
p2393
asS'Calgary (Queensland Downs / Lake Bonavista / Willow Park / Acadia)'
p2394
(lp2395
S'T2J'
p2396
aS'T2J'
p2397
asS'Chandaos'
p2398
(lp2399
S'801114'
p2400
aS'801114'
p2401
asS'Carnegie'
p2402
(lp2403
S'3163'
p2404
aS'3163'
p2405
asS'Cantavieja'
p2406
(lp2407
S'44140'
p2408
aS'44140'
p2409
asS'Charpokhri'
p2410
(lp2411
S'802223'
p2412
aS'802223'
p2413
asS'Cabezuela Del Valle'
p2414
(lp2415
S'10610'
p2416
aS'10610'
p2417
asS'Conil'
p2418
(lp2419
g1078
ag1207
asS'Camberwell'
p2420
(lp2421
S'3124'
p2422
aS'3124'
p2423
asS'Catania'
p2424
(lp2425
S'95125'
p2426
aS'95100'
p2427
aS'95126'
p2428
aS'95128'
p2429
aS'95121'
p2430
aS'95122'
p2431
aS'95100'
p2432
aS'95121'
p2433
aS'95122'
p2434
aS'95125'
p2435
aS'95126'
p2436
aS'95128'
p2437
asS'Carrollton'
p2438
(lp2439
S'30116'
p2440
aS'41008'
p2441
aS'75007'
p2442
aS'75010'
p2443
aS'30116'
p2444
aS'41008'
p2445
aS'75007'
p2446
aS'75010'
p2447
asS'Chlumec'
p2448
(lp2449
S'373 41'
p2450
aS'382 32'
p2451
aS'380 01'
p2452
aS'403 39'
p2453
asS'Cabo da Costa'
p2454
(lp2455
S'4870-038'
p2456
aS'4870-038'
p2457
asS'Chotovice'
p2458
(lp2459
S'473 01'
p2460
aS'473 01'
p2461
asS'Chot\xc4\x9bborky'
p2462
(lp2463
S'544 55'
p2464
asS'Castellbisbal'
p2465
(lp2466
S'08755'
p2467
aS'08755'
p2468
asS'Chrastiny'
p2469
(lp2470
S'397 01'
p2471
asS'Celanova'
p2472
(lp2473
S'32800'
p2474
aS'32800'
p2475
asS'Coya'
p2476
(lp2477
S'33535'
p2478
aS'33535'
p2479
asS'Candia'
p2480
(lp2481
S'03034'
p2482
aS'03034'
p2483
asS'Cabeza La Vaca'
p2484
(lp2485
S'06293'
p2486
aS'06293'
p2487
asS'Coober Pedy'
p2488
(lp2489
S'5723'
p2490
aS'5723'
p2491
asS'Chylice'
p2492
(lp2493
S'364 01'
p2494
aS'687 22'
p2495
asS'Castelldefels'
p2496
(lp2497
S'08860'
p2498
aS'08860'
p2499
asS'Chickasha'
p2500
(lp2501
S'73018'
p2502
aS'73023'
p2503
aS'73018'
p2504
aS'73023'
p2505
asS'Ch\xc3\xa2tonnaye'
p2506
(lp2507
S'1553'
p2508
aS'1553'
p2509
asS'Carnarvon'
p2510
(lp2511
S'6701'
p2512
aS'6701'
p2513
asS'Charleroi'
p2514
(lp2515
S'15022'
p2516
aS'15022'
p2517
asS'Corzoneso'
p2518
(lp2519
S'6722'
p2520
aS'6722'
p2521
asS'Caslano'
p2522
(lp2523
S'6987'
p2524
aS'6987'
p2525
asS'Chaiya'
p2526
(lp2527
S'84110'
p2528
aS'84140'
p2529
aS'84160'
p2530
aS'84180'
p2531
aS'84190'
p2532
aS'84210'
p2533
aS'84230'
p2534
aS'84250'
p2535
aS'84260'
p2536
aS'84140'
p2537
aS'84110'
p2538
ag2538
aS'84130'
p2539
aS'84160'
p2540
aS'84180'
p2541
aS'84190'
p2542
aS'84210'
p2543
aS'84230'
p2544
aS'84260'
p2545
aS'84250'
p2546
asS'Carindale'
p2547
(lp2548
S'4152'
p2549
asS'Cooke City'
p2550
(lp2551
S'59020'
p2552
aS'59020'
p2553
asS'Cervera De Pisuerga'
p2554
(lp2555
S'34840'
p2556
aS'34840'
p2557
asS'Ca\xc3\xb1amero'
p2558
(lp2559
S'10136'
p2560
aS'10136'
p2561
asS'Chmel\xc3\xadk'
p2562
(lp2563
S'570 01'
p2564
asS'Center Ossipee'
p2565
(lp2566
S'03814'
p2567
aS'03814'
p2568
asS'Cut Bank'
p2569
(lp2570
S'59427'
p2571
aS'59427'
p2572
asS'Chicago Heights'
p2573
(lp2574
S'60411'
p2575
aS'60411'
p2576
asS'Cerentino'
p2577
(lp2578
S'6683'
p2579
aS'6683'
p2580
asS'Chula Vista'
p2581
(lp2582
S'91911'
p2583
aS'91914'
p2584
aS'91911'
p2585
aS'91914'
p2586
asS'Ch\xc5\x99ibsk\xc3\xa1'
p2587
(lp2588
S'407 44'
p2589
asS'Costa Teguise'
p2590
(lp2591
g1073
ag1161
asS'Corvera'
p2592
(lp2593
S'33400'
p2594
asS'Cape Girardeau'
p2595
(lp2596
S'63701'
p2597
aS'63701'
p2598
asS'Cantabria'
p2599
(lp2600
S'39002'
p2601
aS'39005'
p2602
ag2602
aS'39006'
p2603
ag2603
aS'39009'
p2604
ag2604
aS'39011'
p2605
ag2605
aS'39012'
p2606
ag2606
aS'39071'
p2607
ag2607
aS'39080'
p2608
ag2608
aS'39108'
p2609
aS'39140'
p2610
aS'39150'
p2611
aS'39160'
p2612
aS'39170'
p2613
aS'39192'
p2614
aS'39195'
p2615
aS'39197'
p2616
aS'39212'
p2617
aS'39220'
p2618
aS'39292'
p2619
aS'39300'
p2620
aS'39310'
p2621
aS'39311'
p2622
aS'39312'
p2623
aS'39314'
p2624
aS'39318'
p2625
aS'39320'
p2626
aS'39330'
p2627
aS'39360'
p2628
aS'39400'
p2629
aS'39408'
p2630
aS'39419'
p2631
aS'39430'
p2632
aS'39450'
p2633
aS'39460'
p2634
aS'39478'
p2635
aS'39479'
p2636
aS'39509'
p2637
aS'39520'
p2638
aS'39525'
p2639
aS'39526'
p2640
aS'39527'
p2641
aS'39528'
p2642
aS'39539'
p2643
aS'39548'
p2644
aS'39549'
p2645
aS'39557'
p2646
aS'39570'
p2647
aS'39571'
p2648
aS'39574'
p2649
aS'39577'
p2650
aS'39580'
p2651
aS'39582'
p2652
aS'39584'
p2653
aS'39586'
p2654
aS'39587'
p2655
aS'39588'
p2656
aS'39592'
p2657
aS'39593'
p2658
ag476
aS'39600'
p2659
aS'39608'
p2660
aS'39609'
p2661
aS'39612'
p2662
aS'39613'
p2663
aS'39620'
p2664
aS'39627'
p2665
ag2392
aS'39670'
p2666
aS'39685'
p2667
aS'39694'
p2668
aS'39696'
p2669
aS'39698'
p2670
aS'39699'
p2671
aS'39709'
p2672
aS'39710'
p2673
aS'39718'
p2674
aS'39719'
p2675
aS'39722'
p2676
aS'39724'
p2677
aS'39730'
p2678
aS'39770'
p2679
aS'39776'
p2680
aS'39792'
p2681
aS'39795'
p2682
aS'39798'
p2683
aS'39820'
p2684
aS'39005'
p2685
ag2685
aS'39012'
p2686
ag2686
aS'39002'
p2687
ag2687
aS'39004'
p2688
ag2688
aS'39009'
p2689
ag2689
aS'39011'
p2690
ag2690
aS'39006'
p2691
ag2691
aS'39080'
p2692
ag2692
aS'39600'
p2693
aS'39770'
p2694
aS'39330'
p2695
aS'39520'
p2696
aS'39071'
p2697
ag2697
aS'39110'
p2698
aS'39140'
p2699
aS'39195'
p2700
aS'39400'
p2701
aS'39525'
p2702
aS'39570'
p2703
aS'39609'
p2704
aS'39620'
p2705
aS'39710'
p2706
aS'39722'
p2707
aS'39792'
p2708
aS'39130'
p2709
aS'39478'
p2710
aS'39587'
p2711
aS'39696'
p2712
aS'39795'
p2713
aS'39820'
p2714
aS'39150'
p2715
aS'39170'
p2716
aS'39197'
p2717
aS'39220'
p2718
aS'39310'
p2719
aS'39312'
p2720
aS'39314'
p2721
aS'39320'
p2722
aS'39408'
p2723
aS'39450'
p2724
aS'39478'
p2725
aS'39527'
p2726
aS'39548'
p2727
aS'39571'
p2728
aS'39577'
p2729
aS'39582'
p2730
aS'39586'
p2731
aS'39588'
p2732
ag477
aS'39608'
p2733
aS'39613'
p2734
aS'39638'
p2735
ag2393
aS'39694'
p2736
aS'39709'
p2737
aS'39718'
p2738
aS'39719'
p2739
aS'39776'
p2740
aS'39798'
p2741
aS'39108'
p2742
aS'39160'
p2743
aS'39192'
p2744
aS'39212'
p2745
aS'39292'
p2746
aS'39300'
p2747
aS'39300'
p2748
aS'39311'
p2749
aS'39314'
p2750
aS'39318'
p2751
aS'39360'
p2752
aS'39419'
p2753
aS'39430'
p2754
aS'39460'
p2755
aS'39479'
p2756
aS'39509'
p2757
aS'39526'
p2758
aS'39528'
p2759
aS'39539'
p2760
aS'39549'
p2761
aS'39557'
p2762
aS'39571'
p2763
aS'39574'
p2764
aS'39580'
p2765
aS'39584'
p2766
aS'39584'
p2767
aS'39590'
p2768
aS'39592'
p2769
aS'39593'
p2770
aS'39594'
p2771
aS'39612'
p2772
aS'39627'
p2773
aS'39670'
p2774
aS'39685'
p2775
aS'39694'
p2776
aS'39698'
p2777
aS'39699'
p2778
aS'39719'
p2779
aS'39724'
p2780
aS'39724'
p2781
aS'39730'
p2782
asS'Cruz Teixeira'
p2783
(lp2784
S'9580-473'
p2785
aS'9580-473'
p2786
asS'Cawasji Road'
p2787
(lp2788
S'400005'
p2789
aS'400005'
p2790
asS'Can Pastilla'
p2791
(lp2792
S'07610'
p2793
aS'07610'
p2794
asS'Chot\xc4\x9blice'
p2795
(lp2796
S'503 53'
p2797
asS'Castanea'
p2798
(lp2799
S'98155'
p2800
aS'98155'
p2801
asS'Chaila'
p2802
(lp2803
S'171305'
p2804
aS'171305'
p2805
asS'Casta\xc3\xb1ares De Rioja'
p2806
(lp2807
S'26240'
p2808
aS'26240'
p2809
asS'Cabe\xc3\xa7o Vermelho'
p2810
(lp2811
S'9940-014'
p2812
aS'9940-014'
p2813
asS'Caminho'
p2814
(lp2815
S'4870-111'
p2816
aS'4870-111'
p2817
asS'Cabanas de Baixo'
p2818
(lp2819
S'5160-031'
p2820
aS'5160-031'
p2821
asS'Colombier NE Dist Ba'
p2822
(lp2823
S'2013'
p2824
aS'2013'
p2825
asS'Ch\xc3\xa2tel-St-Denis'
p2826
(lp2827
S'1618'
p2828
aS'1618'
p2829
asS'Calpiogna'
p2830
(lp2831
S'6760'
p2832
aS'6760'
p2833
asS'Chinchilla'
p2834
(lp2835
S'4413'
p2836
aS'4413'
p2837
asS'Cattle Pound'
p2838
(lp2839
S'400004'
p2840
asS'Camden Wyoming'
p2841
(lp2842
S'19934'
p2843
aS'19934'
p2844
asS'Cayes'
p2845
(lp2846
S'33428'
p2847
aS'33428'
p2848
asS'Casas do Concelho'
p2849
(lp2850
S'9970-061'
p2851
aS'9970-061'
p2852
asS'Campo Internacional'
p2853
(lp2854
g1061
ag1201
asS'Chatswood'
p2855
(lp2856
S'2067'
p2857
aS'2067'
p2858
asS'Cohasset'
p2859
(lp2860
S'02025'
p2861
aS'02025'
p2862
asS'Chy\xc5\xa1ka'
p2863
(lp2864
S'582 53'
p2865
asS'Crossett'
p2866
(lp2867
S'71635'
p2868
aS'71635'
p2869
asS'Courgenay'
p2870
(lp2871
S'2950'
p2872
aS'2950'
p2873
asS'Claremont'
p2874
(lp2875
S'6010'
p2876
aS'6010'
p2877
asS'Courtenay Northern Outskirts'
p2878
(lp2879
S'V9J'
p2880
aS'V9J'
p2881
asS'Carre\xc3\xa7o'
p2882
(lp2883
S'4900-278'
p2884
aS'4900-280'
p2885
aS'4900-278'
p2886
aS'4900-280'
p2887
asS'Canones'
p2888
(lp2889
S'87516'
p2890
aS'87516'
p2891
asS'Coxs Creek'
p2892
(lp2893
S'40013'
p2894
aS'40013'
p2895
asS'C\xc3\xadtkov'
p2896
(lp2897
S'538 03'
p2898
asS'Chandpur'
p2899
(lp2900
S'752024'
p2901
aS'752024'
p2902
asS'Cangas De Onis'
p2903
(lp2904
S'33550'
p2905
aS'33550'
p2906
asS'Cs\xc3\xa1talja'
p2907
(lp2908
S'6523'
p2909
aS'6523'
p2910
asS'Chiang Dao'
p2911
(lp2912
S'50170'
p2913
aS'50170'
p2914
asS'Central Kirti Nagar'
p2915
(lp2916
S'110015'
p2917
aS'110015'
p2918
asS'Chy\xc5\xa1ky'
p2919
(lp2920
S'398 53'
p2921
asS'Cranston'
p2922
(lp2923
S'02910'
p2924
aS'02910'
p2925
asS'Cascante'
p2926
(lp2927
S'31520'
p2928
aS'31520'
p2929
asS'Cicero'
p2930
(lp2931
S'46034'
p2932
aS'46034'
p2933
asS'Cegl\xc3\xa9d'
p2934
(lp2935
S'2701'
p2936
aS'2701'
p2937
asS'Cuxhaven'
p2938
(lp2939
S'27472'
p2940
aS'27472'
p2941
asS'Chalupy'
p2942
(lp2943
S'345 06'
p2944
asS'Combermere'
p2945
(lp2946
S'171001'
p2947
aS'171001'
p2948
asS'Crowder'
p2949
(lp2950
S'38622'
p2951
aS'38622'
p2952
asS'Charadava'
p2953
(lp2954
S'363331'
p2955
aS'363331'
p2956
asS'Chl\xc3\xadvce'
p2957
(lp2958
S'549 31'
p2959
asS'Chendel'
p2960
(lp2961
g2341
ag2363
asS'Cabo dos Tapados'
p2962
(lp2963
S'5160-068'
p2964
aS'5160-068'
p2965
asS'Castel Porziano'
p2966
(lp2967
S'00122'
p2968
aS'00122'
p2969
asS'Chettupattu Polur'
p2970
(lp2971
S'606801'
p2972
aS'606801'
p2973
asS'Cece\xc3\xb1as'
p2974
(lp2975
g2677
ag2781
asS'Currumbin'
p2976
(lp2977
S'4223'
p2978
asS'Chandolin'
p2979
(lp2980
S'3961'
p2981
aS'3961'
p2982
asS'Carleton'
p2983
(lp2984
S'68326'
p2985
aS'68326'
p2986
asS'Campbellsville'
p2987
(lp2988
S'42718'
p2989
aS'42718'
p2990
asS'Ch\xc3\xa2tel-sur-Montsalvens'
p2991
(lp2992
S'1653'
p2993
aS'1653'
p2994
asS'Connecticut'
p2995
(lp2996
S'06001'
p2997
aS'06011'
p2998
aS'06018'
p2999
aS'06020'
p3000
aS'06022'
p3001
aS'06024'
p3002
aS'06026'
p3003
aS'06027'
p3004
aS'06029'
p3005
aS'06031'
p3006
aS'06033'
p3007
aS'06035'
p3008
aS'06039'
p3009
aS'06040'
p3010
aS'06043'
p3011
aS'06050'
p3012
aS'06053'
p3013
aS'06058'
p3014
aS'06060'
p3015
aS'06062'
p3016
aS'06063'
p3017
aS'06065'
p3018
aS'06068'
p3019
aS'06073'
p3020
aS'06074'
p3021
aS'06076'
p3022
aS'06079'
p3023
aS'06081'
p3024
aS'06082'
p3025
aS'06084'
p3026
aS'06087'
p3027
aS'06089'
p3028
aS'06091'
p3029
aS'06093'
p3030
aS'06096'
p3031
aS'06098'
p3032
aS'06103'
p3033
aS'06104'
p3034
aS'06106'
p3035
aS'06111'
p3036
aS'06114'
p3037
aS'06115'
p3038
aS'06123'
p3039
aS'06128'
p3040
aS'06131'
p3041
aS'06134'
p3042
aS'06140'
p3043
aS'06142'
p3044
aS'06144'
p3045
aS'06146'
p3046
aS'06150'
p3047
aS'06152'
p3048
aS'06154'
p3049
aS'06156'
p3050
aS'06161'
p3051
aS'06180'
p3052
aS'06199'
p3053
aS'06230'
p3054
aS'06232'
p3055
aS'06234'
p3056
ag637
aS'06239'
p3057
aS'06242'
p3058
aS'06244'
p3059
aS'06246'
p3060
aS'06248'
p3061
aS'06250'
p3062
aS'06254'
p3063
aS'06256'
p3064
aS'06259'
p3065
aS'06262'
p3066
aS'06264'
p3067
aS'06320'
p3068
aS'06355'
p3069
aS'06357'
p3070
aS'06401'
p3071
aS'06405'
p3072
ag615
aS'06437'
p3073
aS'06443'
p3074
aS'06450'
p3075
aS'06473'
p3076
aS'06492'
p3077
aS'06510'
p3078
aS'06514'
p3079
aS'06604'
p3080
aS'06708'
p3081
aS'06776'
p3082
aS'06801'
p3083
aS'06820'
p3084
aS'06851'
p3085
aS'06877'
p3086
aS'06905'
p3087
aS'44011'
p3088
aS'81620'
p3089
aS'81620'
p3090
aS'06001'
p3091
ag3091
aS'06040'
p3092
aS'06320'
p3093
aS'06357'
p3094
aS'06405'
p3095
aS'06450'
p3096
aS'06492'
p3097
aS'06810'
p3098
aS'06851'
p3099
aS'06880'
p3100
aS'06002'
p3101
aS'06026'
p3102
aS'06033'
p3103
aS'06062'
p3104
aS'06074'
p3105
aS'06082'
p3106
aS'06089'
p3107
aS'06096'
p3108
aS'06103'
p3109
aS'06106'
p3110
aS'06114'
p3111
aS'06355'
p3112
aS'06401'
p3113
ag621
aS'06437'
p3114
aS'06443'
p3115
aS'06467'
p3116
aS'06473'
p3117
aS'06484'
p3118
aS'06510'
p3119
aS'06514'
p3120
aS'06604'
p3121
aS'06708'
p3122
aS'06776'
p3123
aS'06801'
p3124
aS'06820'
p3125
aS'06840'
p3126
aS'06877'
p3127
aS'06905'
p3128
aS'06011'
p3129
aS'06018'
p3130
aS'06020'
p3131
aS'06022'
p3132
aS'06024'
p3133
aS'06027'
p3134
aS'06029'
p3135
aS'06031'
p3136
aS'06035'
p3137
aS'06039'
p3138
aS'06043'
p3139
aS'06050'
p3140
aS'06053'
p3141
aS'06058'
p3142
aS'06060'
p3143
aS'06063'
p3144
aS'06065'
p3145
aS'06068'
p3146
aS'06071'
p3147
aS'06073'
p3148
aS'06076'
p3149
aS'06079'
p3150
aS'06081'
p3151
aS'06084'
p3152
aS'06087'
p3153
aS'06091'
p3154
aS'06093'
p3155
aS'06098'
p3156
aS'06104'
p3157
aS'06111'
p3158
aS'06115'
p3159
aS'06123'
p3160
aS'06128'
p3161
aS'06131'
p3162
aS'06134'
p3163
aS'06140'
p3164
aS'06142'
p3165
aS'06144'
p3166
aS'06146'
p3167
aS'06150'
p3168
aS'06152'
p3169
aS'06154'
p3170
aS'06156'
p3171
aS'06161'
p3172
aS'06180'
p3173
aS'06199'
p3174
aS'06230'
p3175
aS'06232'
p3176
aS'06234'
p3177
ag660
aS'06239'
p3178
aS'06242'
p3179
aS'06244'
p3180
aS'06246'
p3181
aS'06248'
p3182
aS'06250'
p3183
aS'06254'
p3184
aS'06256'
p3185
aS'06259'
p3186
aS'06262'
p3187
aS'06264'
p3188
aS'44011'
p3189
asS'Canteras (Canteras)'
p3190
(lp3191
S'30394'
p3192
aS'30394'
p3193
asS'Cambridge'
p3194
(lp3195
S'7170'
p3196
aS'02140'
p3197
aS'02142'
p3198
aS'05444'
p3199
aS'50046'
p3200
aS'55008'
p3201
aS'50046'
p3202
aS'02140'
p3203
aS'02142'
p3204
aS'55008'
p3205
aS'05444'
p3206
asS'Chelusain (Cpo A.1997)'
p3207
(lp3208
S'246122'
p3209
aS'246122'
p3210
asS'Chala East B.O'
p3211
(lp3212
S'670621'
p3213
aS'670621'
p3214
asS'Chandkuchi'
p3215
(lp3216
S'781336'
p3217
aS'781336'
p3218
asS'Carlton North'
p3219
(lp3220
S'3054'
p3221
aS'3054'
p3222
asS'Cal Nev Ari'
p3223
(lp3224
S'89039'
p3225
aS'89039'
p3226
asS'Coviolo'
p3227
(lp3228
S'42100'
p3229
aS'42100'
p3230
asS'Chinchon'
p3231
(lp3232
S'28370'
p3233
aS'28370'
p3234
asS'Collinsville'
p3235
(lp3236
g3001
ag3132
asS'Cs\xc3\xa1sz\xc3\xa1r'
p3237
(lp3238
S'2858'
p3239
aS'2858'
p3240
asS'Croton On Hudson'
p3241
(lp3242
S'10520'
p3243
aS'10520'
p3244
asS'Chmelovice'
p3245
(lp3246
S'503 15'
p3247
asS'Crane Hill'
p3248
(lp3249
S'35053'
p3250
aS'35053'
p3251
asS'Cho\xc5\xa5ovice'
p3252
(lp3253
S'289 05'
p3254
asS'Cala Egos'
p3255
(lp3256
S'07660'
p3257
asS'Camale\xc3\xb1o'
p3258
(lp3259
g2655
ag2711
asS'Churrasc\xc3\xa3o'
p3260
(lp3261
S'5160-111'
p3262
aS'5160-111'
p3263
asS'Churdan'
p3264
(lp3265
S'50050'
p3266
aS'50050'
p3267
asS'Chotyn\xc4\x9b'
p3268
(lp3269
g2196
asS'Cava Di Catanzaro'
p3270
(lp3271
g1823
asS'Cs\xc3\xa1kber\xc3\xa9ny'
p3272
(lp3273
S'8073'
p3274
asS"Ca' Emiliani"
p3275
(lp3276
S'30175'
p3277
aS'30175'
p3278
asS'Casta\xc3\xb1ares De Las Cuevas'
p3279
(lp3280
S'26121'
p3281
aS'26121'
p3282
asS'Central Newfoundland (Bishops Falls)'
p3283
(lp3284
S'A0H'
p3285
aS'A0H'
p3286
asS'Courtemautruy'
p3287
(lp3288
S'2950'
p3289
asS'Chakpikarong'
p3290
(lp3291
g2334
ag2356
asS'Cais do Galego'
p3292
(lp3293
S'9930-203'
p3294
aS'9930-203'
p3295
asS'Chicoutimi North'
p3296
(lp3297
S'G7G'
p3298
aS'G7G'
p3299
asS'Civic Square'
p3300
(lp3301
S'2608'
p3302
aS'2608'
p3303
asS'Camperdown'
p3304
(lp3305
S'2050'
p3306
aS'2050'
p3307
asS'Coaldale'
p3308
(lp3309
S'T1M'
p3310
aS'T1M'
p3311
asS'Chavannes-les-Forts'
p3312
(lp3313
S'1676'
p3314
aS'1676'
p3315
asS'Clatonia'
p3316
(lp3317
S'68328'
p3318
aS'68328'
p3319
asS'Corlim Industrial Estate'
p3320
(lp3321
S'403110'
p3322
aS'403110'
p3323
asS'Cedar Valley'
p3324
(lp3325
S'84013'
p3326
aS'84013'
p3327
asS'Colva'
p3328
(lp3329
S'403708'
p3330
aS'403708'
p3331
asS'Cold Spring'
p3332
(lp3333
S'56320'
p3334
aS'56320'
p3335
asS'Csan\xc3\xa1dpalota'
p3336
(lp3337
S'6913'
p3338
aS'6913'
p3339
asS'Chr\xc3\xa1mce'
p3340
(lp3341
S'434 01'
p3342
asS'Cornwall East'
p3343
(lp3344
S'K6H'
p3345
aS'K6H'
p3346
asS'Carido'
p3347
(lp3348
S'4870-113'
p3349
aS'4870-113'
p3350
asS'Chodou\xc5\x88'
p3351
(lp3352
S'267 51'
p3353
asS'Churchville'
p3354
(lp3355
S'21028'
p3356
aS'21028'
p3357
asS'Casais da Caba\xc3\xa7a'
p3358
(lp3359
S'2000-329'
p3360
aS'2000-329'
p3361
asS'Carnesy Road'
p3362
(lp3363
S'400001'
p3364
asS'Carcar'
p3365
(lp3366
S'31579'
p3367
aS'31579'
p3368
asS'China Grove'
p3369
(lp3370
S'28023'
p3371
aS'28023'
p3372
asS'Chum Tabong'
p3373
(lp3374
S'60150'
p3375
aS'60150'
p3376
asS'Caminomorisco'
p3377
(lp3378
S'10620'
p3379
aS'10620'
p3380
asS'Catona'
p3381
(lp3382
g1815
ag1838
asS'Chandaka'
p3383
(lp3384
S'754015'
p3385
aS'754015'
p3386
asS'Cedar Falls'
p3387
(lp3388
S'50613'
p3389
aS'50613'
p3390
asS'Chy\xc5\x88ava'
p3391
(lp3392
S'267 07'
p3393
asS'Corbett'
p3394
(lp3395
S'97019'
p3396
aS'97019'
p3397
asS'Crawfordsville'
p3398
(lp3399
S'47933'
p3400
aS'47933'
p3401
asS'Clarkson'
p3402
(lp3403
S'6030'
p3404
aS'6030'
p3405
asS'Charleville'
p3406
(lp3407
S'4470'
p3408
aS'4470'
p3409
asS'Celld\xc3\xb6m\xc3\xb6lk'
p3410
(lp3411
S'9500'
p3412
aS'9500'
p3413
asS'Calanda'
p3414
(lp3415
S'44570'
p3416
aS'44570'
p3417
asS'Cejsice'
p3418
(lp3419
S'385 01'
p3420
asS'Crab Orchard'
p3421
(lp3422
S'68332'
p3423
aS'68332'
p3424
asS'Cheles'
p3425
(lp3426
S'06105'
p3427
aS'06105'
p3428
asS'Cortez'
p3429
(lp3430
S'81321'
p3431
aS'81321'
p3432
asS'Carteret'
p3433
(lp3434
S'07008'
p3435
aS'07008'
p3436
asS'Charleston'
p3437
(lp3438
S'25304'
p3439
aS'25314'
p3440
aS'29403'
p3441
aS'29407'
p3442
aS'37310'
p3443
aS'29407'
p3444
aS'29403'
p3445
aS'37310'
p3446
aS'25304'
p3447
aS'25314'
p3448
asS'Coffeeville'
p3449
(lp3450
S'38922'
p3451
aS'38922'
p3452
asS'Chama'
p3453
(lp3454
S'87520'
p3455
aS'87520'
p3456
asS'Casal Palocco'
p3457
(lp3458
S'00124'
p3459
aS'00124'
p3460
asS'Castellar Del Valles'
p3461
(lp3462
S'08211'
p3463
aS'08211'
p3464
asS'Campbellsport'
p3465
(lp3466
S'53010'
p3467
aS'53010'
p3468
asS'Chirana'
p3469
(lp3470
S'124427'
p3471
aS'124427'
p3472
asS'Canberra'
p3473
(lp3474
S'2600'
p3475
asS'Concord'
p3476
(lp3477
S'L4K'
p3478
aS'L4K'
p3479
aS'28026'
p3480
aS'28026'
p3481
asS'Calgary (Oak Ridge / Haysboro / Kingsland / Windsor Park)'
p3482
(lp3483
S'T2V'
p3484
aS'T2V'
p3485
asS'Craig'
p3486
(lp3487
S'68019'
p3488
aS'81625'
p3489
aS'81625'
p3490
aS'68019'
p3491
asS'Carroll'
p3492
(lp3493
S'43112'
p3494
aS'51401'
p3495
aS'51401'
p3496
aS'43112'
p3497
asS'Clarkston'
p3498
(lp3499
S'48346'
p3500
aS'48346'
p3501
asS'Canton Center'
p3502
(lp3503
g3000
ag3131
asS'Croydon'
p3504
(lp3505
S'3136'
p3506
aS'3136'
p3507
asS'Cs\xc3\xb6gle'
p3508
(lp3509
S'8495'
p3510
aS'8495'
p3511
asS'Concordia'
p3512
(lp3513
S'64020'
p3514
aS'64020'
p3515
asS'Chai Buri'
p3516
(lp3517
g2533
ag2543
asS'Casper'
p3518
(lp3519
S'82601'
p3520
aS'82604'
p3521
aS'82601'
p3522
aS'82604'
p3523
asS'Cressier FR'
p3524
(lp3525
S'1785'
p3526
aS'1785'
p3527
asS'Cornellana (Salas)'
p3528
(lp3529
S'33850'
p3530
aS'33850'
p3531
asS'Camp H M Smith'
p3532
(lp3533
S'96861'
p3534
aS'96861'
p3535
asS'City Beach'
p3536
(lp3537
S'6015'
p3538
aS'6015'
p3539
asS'Chrast'
p3540
(lp3541
S'580 01'
p3542
aS'538 51'
p3543
asS'Chot\xc4\x9bm\xc4\x9b\xc5\x99ice t. Pan\xc4\x8dava'
p3544
(lp3545
S'285 22'
p3546
asS'Chopal'
p3547
(lp3548
S'171211'
p3549
aS'171211'
p3550
asS'Ciri\xc3\xb1uela'
p3551
(lp3552
S'26258'
p3553
aS'26258'
p3554
asS'Cody'
p3555
(lp3556
S'82414'
p3557
aS'82414'
p3558
asS'C\xc3\xb3rdoba'
p3559
(lp3560
S'14002'
p3561
aS'14004'
p3562
aS'14005'
p3563
aS'14013'
p3564
aS'14071'
p3565
aS'14004'
p3566
aS'14071'
p3567
aS'14002'
p3568
aS'14005'
p3569
aS'14013'
p3570
asS'Chud\xc4\x8dice'
p3571
(lp3572
S'664 71'
p3573
asS'Carmona'
p3574
(lp3575
S'403717'
p3576
aS'41410'
p3577
aS'403717'
p3578
aS'41410'
p3579
asS'Cangas De Narcea'
p3580
(lp3581
S'33800'
p3582
aS'33800'
p3583
asS'Crown Point'
p3584
(lp3585
S'46307'
p3586
aS'46307'
p3587
asS'C\xc3\xa9ligny'
p3588
(lp3589
S'1298'
p3590
aS'1298'
p3591
asS'Casas Iba\xc3\xb1ez'
p3592
(lp3593
S'02200'
p3594
aS'02200'
p3595
asS'Crystal Lake'
p3596
(lp3597
S'60012'
p3598
aS'60014'
p3599
aS'60039'
p3600
aS'60014'
p3601
aS'60012'
p3602
aS'60039'
p3603
asS'Chantilly'
p3604
(lp3605
S'20152'
p3606
asS'Cebolla'
p3607
(lp3608
S'87518'
p3609
aS'87518'
p3610
asS'Clear Lake'
p3611
(lp3612
S'50428'
p3613
aS'57226'
p3614
aS'50428'
p3615
aS'57226'
p3616
asS'Calw'
p3617
(lp3618
S'75365'
p3619
aS'75365'
p3620
asS'Cruger'
p3621
(lp3622
S'38924'
p3623
aS'38924'
p3624
asS'C\xc3\xb4te-des-Neiges Southwest'
p3625
(lp3626
S'H3W'
p3627
aS'H3W'
p3628
asS'Chok Chai'
p3629
(lp3630
S'30190'
p3631
asS'Corserey'
p3632
(lp3633
S'1747'
p3634
aS'1747'
p3635
asS'Ciutadella De Menorca'
p3636
(lp3637
S'07760'
p3638
aS'07760'
p3639
asS'Cset\xc3\xa9ny'
p3640
(lp3641
S'8417'
p3642
aS'8417'
p3643
asS'C\xc3\xa1diz'
p3644
(lp3645
S'11002'
p3646
aS'11003'
p3647
aS'11005'
p3648
aS'11007'
p3649
aS'11009'
p3650
aS'11002'
p3651
aS'11003'
p3652
aS'11005'
p3653
aS'11007'
p3654
aS'11009'
p3655
asS'Council Bluffs'
p3656
(lp3657
S'51501'
p3658
aS'51501'
p3659
asS'Colloto (Siero)'
p3660
(lp3661
S'33010'
p3662
asS'Carreira Aberta'
p3663
(lp3664
S'9880-015'
p3665
aS'9880-307'
p3666
aS'9880-015'
p3667
aS'9880-307'
p3668
asS'Court Road'
p3669
(lp3670
S'190001'
p3671
asS'Csanytelek'
p3672
(lp3673
S'6647'
p3674
aS'6648'
p3675
aS'6647'
p3676
aS'6648'
p3677
asS'Camarena De La Sierra'
p3678
(lp3679
S'44459'
p3680
aS'44459'
p3681
asS'Cudon'
p3682
(lp3683
g2625
ag2751
asS'Catraia'
p3684
(lp3685
S'3050-206'
p3686
aS'3050-206'
p3687
asS'Cala Mosca'
p3688
(lp3689
S'09126'
p3690
aS'09126'
p3691
asS'Chiang Rai'
p3692
(lp3693
S'57110'
p3694
aS'57130'
p3695
aS'57150'
p3696
aS'57160'
p3697
aS'57180'
p3698
aS'57190'
p3699
aS'57290'
p3700
aS'57340'
p3701
aS'57180'
p3702
aS'57150'
p3703
aS'57110'
p3704
aS'57110'
p3705
ag3705
aS'57130'
p3706
aS'57160'
p3707
aS'57190'
p3708
aS'57290'
p3709
aS'57340'
p3710
asS'Central Leather Research'
p3711
(lp3712
S'600020'
p3713
asS'Casco'
p3714
(lp3715
S'04015'
p3716
aS'04015'
p3717
asS'Carlton'
p3718
(lp3719
S'97111'
p3720
aS'97111'
p3721
asS'Ctibo\xc5\x99'
p3722
(lp3723
S'258 01'
p3724
aS'258 01'
p3725
asS'Chmelnice-D\xc4\x9b\xc4\x8d\xc3\xadn XXV x)'
p3726
(lp3727
S'405 02'
p3728
asS'Covas'
p3729
(lp3730
S'9580-019'
p3731
aS'9580-019'
p3732
asS'Corbi\xc3\xa8res'
p3733
(lp3734
S'1647'
p3735
aS'1647'
p3736
asS'Chang Han'
p3737
(lp3738
S'45000'
p3739
aS'45120'
p3740
aS'45140'
p3741
aS'45150'
p3742
aS'45170'
p3743
aS'45190'
p3744
aS'45220'
p3745
aS'45240'
p3746
aS'45170'
p3747
aS'45000'
p3748
ag3748
aS'45000'
p3749
aS'45120'
p3750
aS'45140'
p3751
aS'45150'
p3752
aS'45170'
p3753
aS'45190'
p3754
aS'45220'
p3755
aS'45240'
p3756
asS'Cais do Boqueir\xc3\xa3o'
p3757
(lp3758
S'9970-225'
p3759
aS'9970-225'
p3760
asS'Centurano'
p3761
(lp3762
g1948
asS'Charbatia'
p3763
(lp3764
S'754028'
p3765
aS'754028'
p3766
asS'Caledonia'
p3767
(lp3768
S'N3W'
p3769
aS'N3W'
p3770
aS'43314'
p3771
aS'58219'
p3772
aS'58219'
p3773
aS'43314'
p3774
asS'Chernelh\xc3\xa1zadamonya'
p3775
(lp3776
S'9624'
p3777
aS'9624'
p3778
asS'Cold Bay'
p3779
(lp3780
S'99571'
p3781
aS'99571'
p3782
asS'Chalad'
p3783
(lp3784
S'670014'
p3785
aS'670014'
p3786
asS'Chot\xc4\x9bbo\xc5\x99'
p3787
(lp3788
S'583 01'
p3789
asS'Comenda'
p3790
(lp3791
S'6040-041'
p3792
aS'6040-041'
p3793
asS'Csatka'
p3794
(lp3795
S'2888'
p3796
aS'2888'
p3797
asS'Courfaivre'
p3798
(lp3799
S'2853'
p3800
aS'2853'
p3801
asS'Chabua Air Field'
p3802
(lp3803
S'786102'
p3804
aS'786102'
p3805
asS'Chrudim I'
p3806
(lp3807
S'537 01'
p3808
aS'537 01'
p3809
asS'Chotilsko'
p3810
(lp3811
S'262 03'
p3812
asS'Calamocha'
p3813
(lp3814
S'44200'
p3815
aS'44200'
p3816
asS'Cortalim'
p3817
(lp3818
S'403710'
p3819
aS'403710'
p3820
asS'Chudob\xc3\xadn'
p3821
(lp3822
S'783 21'
p3823
asS'Clear Fork'
p3824
(lp3825
S'24822'
p3826
aS'24822'
p3827
asS'Canto do Cabecinho'
p3828
(lp3829
S'9940-016'
p3830
aS'9940-016'
p3831
asS'Cho\xc5\xbeov'
p3832
(lp3833
S'439 22'
p3834
asS'Chamrapet West'
p3835
(lp3836
S'560018'
p3837
aS'560018'
p3838
asS'Cornwall North'
p3839
(lp3840
S'K6K'
p3841
aS'K6K'
p3842
asS'Chuan Chum'
p3843
(lp3844
S'44160'
p3845
asS'Chila Colony (Cpo A2471)'
p3846
(lp3847
S'249132'
p3848
aS'249132'
p3849
asS'Chikhalda'
p3850
(lp3851
S'454341'
p3852
aS'454341'
p3853
asS'Caudete'
p3854
(lp3855
S'02660'
p3856
aS'02660'
p3857
asS'Choratice'
p3858
(lp3859
S'407 03'
p3860
asS'Chvalovice'
p3861
(lp3862
S'669 02'
p3863
asS'Chapel Hill'
p3864
(lp3865
S'4069'
p3866
aS'4069'
p3867
aS'27514'
p3868
aS'27514'
p3869
asS'Chauntra'
p3870
(lp3871
S'175032'
p3872
aS'175032'
p3873
asS'Castel Giubileo'
p3874
(lp3875
S'00138'
p3876
asS'Columbus'
p3877
(lp3878
S'43202'
p3879
aS'43204'
p3880
aS'43206'
p3881
aS'43209'
p3882
aS'43211'
p3883
aS'43213'
p3884
aS'43215'
p3885
aS'43216'
p3886
aS'43219'
p3887
aS'43221'
p3888
aS'43223'
p3889
aS'43226'
p3890
aS'43228'
p3891
aS'43231'
p3892
aS'43234'
p3893
aS'43240'
p3894
aS'47201'
p3895
aS'53925'
p3896
aS'47201'
p3897
aS'43215'
p3898
aS'43202'
p3899
aS'43204'
p3900
aS'43206'
p3901
aS'43209'
p3902
aS'43211'
p3903
aS'43213'
p3904
aS'43216'
p3905
aS'43219'
p3906
aS'43221'
p3907
aS'43223'
p3908
aS'43226'
p3909
aS'43228'
p3910
aS'43231'
p3911
aS'43234'
p3912
aS'43240'
p3913
aS'53925'
p3914
asS'Centennial Park'
p3915
(lp3916
S'2021'
p3917
aS'2021'
p3918
asS'Ch\xc3\xbdnov'
p3919
(lp3920
S'391 55'
p3921
asS'Cabeza Del Buey'
p3922
(lp3923
S'06600'
p3924
aS'06600'
p3925
asS'Cheb'
p3926
(lp3927
S'350 02'
p3928
ag3928
aS'351 01'
p3929
aS'351 37'
p3930
aS'351 34'
p3931
aS'351 35'
p3932
aS'350 02'
p3933
aS'353 01'
p3934
aS'350 02'
p3935
aS'353 01'
p3936
aS'350 02'
p3937
aS'350 02'
p3938
aS'350 02'
p3939
aS'350 02'
p3940
aS'350 02'
p3941
aS'350 02'
p3942
aS'350 02'
p3943
aS'350 02'
p3944
aS'350 02'
p3945
aS'350 02'
p3946
aS'350 02'
p3947
aS'350 02'
p3948
aS'350 02'
p3949
aS'350 02'
p3950
aS'350 02'
p3951
aS'350 02'
p3952
aS'350 02'
p3953
aS'351 01'
p3954
aS'351 01'
p3955
aS'351 34'
p3956
aS'351 34'
p3957
aS'351 34'
p3958
aS'351 34'
p3959
aS'351 34'
p3960
aS'351 34'
p3961
aS'351 34'
p3962
aS'351 34'
p3963
aS'351 34'
p3964
aS'351 34'
p3965
aS'351 34'
p3966
aS'351 34'
p3967
aS'351 34'
p3968
aS'351 34'
p3969
aS'351 34'
p3970
aS'351 34'
p3971
aS'352 01'
p3972
aS'352 01'
p3973
aS'352 01'
p3974
aS'352 01'
p3975
aS'352 01'
p3976
aS'352 01'
p3977
aS'352 01'
p3978
aS'352 01'
p3979
aS'353 01'
p3980
aS'353 01'
p3981
aS'353 01'
p3982
aS'353 01'
p3983
aS'353 01'
p3984
aS'353 01'
p3985
aS'353 01'
p3986
aS'353 01'
p3987
aS'353 01'
p3988
aS'350 02'
p3989
aS'350 02'
p3990
aS'350 02'
p3991
aS'350 02'
p3992
aS'352 01'
p3993
aS'353 01'
p3994
aS'353 01'
p3995
aS'350 02'
p3996
aS'350 02'
p3997
aS'350 02'
p3998
aS'350 02'
p3999
aS'350 02'
p4000
aS'350 02'
p4001
aS'351 34'
p4002
aS'352 01'
p4003
aS'353 01'
p4004
aS'353 01'
p4005
aS'353 01'
p4006
aS'350 02'
p4007
ag4007
aS'351 01'
p4008
aS'352 01'
p4009
asS'Chabi\xc4\x8dov'
p4010
(lp4011
S'785 01'
p4012
aS'785 01'
p4013
asS'Cold Lake'
p4014
(lp4015
S'T9M'
p4016
aS'T9M'
p4017
asS'Companhia de Cima'
p4018
(lp4019
S'9930-451'
p4020
aS'9930-453'
p4021
aS'9930-455'
p4022
aS'9930-457'
p4023
aS'9930-451'
p4024
aS'9930-453'
p4025
aS'9930-455'
p4026
aS'9930-457'
p4027
asS'Chaiyaphum'
p4028
(lp4029
S'36110'
p4030
aS'36120'
p4031
aS'36130'
p4032
aS'36140'
p4033
aS'36160'
p4034
aS'36180'
p4035
aS'36210'
p4036
aS'36250'
p4037
aS'36110'
p4038
ag4038
aS'36120'
p4039
aS'36130'
p4040
aS'36140'
p4041
aS'36160'
p4042
aS'36180'
p4043
aS'36210'
p4044
aS'36250'
p4045
asS'Calgary (Midnapore / Sundance)'
p4046
(lp4047
S'T2X'
p4048
aS'T2X'
p4049
asS'Clearfield'
p4050
(lp4051
S'84015'
p4052
aS'84089'
p4053
aS'84015'
p4054
aS'84089'
p4055
asS'Crandall'
p4056
(lp4057
S'75114'
p4058
aS'75114'
p4059
asS'Colfax'
p4060
(lp4061
S'27235'
p4062
aS'27235'
p4063
asS'Corner Brook'
p4064
(lp4065
S'A2H'
p4066
aS'A2H'
p4067
asS'Cedar Lake'
p4068
(lp4069
S'46303'
p4070
aS'46303'
p4071
asS'Chambi'
p4072
(lp4073
S'174405'
p4074
aS'174405'
p4075
asS'Cornish Flat'
p4076
(lp4077
S'03746'
p4078
aS'03746'
p4079
asS'Canto'
p4080
(lp4081
S'9930-303'
p4082
aS'9900-304'
p4083
aS'9900-304'
p4084
aS'9930-303'
p4085
asS'Campbellfield'
p4086
(lp4087
S'3061'
p4088
aS'3061'
p4089
asS'Caserta'
p4090
(lp4091
g1926
ag1979
asS'Chr\xc3\xa1\xc5\xa1\xc5\xa5any'
p4092
(lp4093
S'256 01'
p4094
aS'252 19'
p4095
aS'270 01'
p4096
aS'768 24'
p4097
aS'270 01'
p4098
asS'Chockov'
p4099
(lp4100
S'338 24'
p4101
asS'Catoosa'
p4102
(lp4103
S'74015'
p4104
aS'74015'
p4105
asS'Chlum\xc4\x8dany'
p4106
(lp4107
S'334 42'
p4108
asS'C\xc3\xb4te-Saint-Luc West'
p4109
(lp4110
S'H4W'
p4111
aS'H4W'
p4112
asS'Chot\xc4\x9b\xc5\xa1iny'
p4113
(lp4114
S'566 01'
p4115
asS'Chomedey Northeast'
p4116
(lp4117
S'H7S'
p4118
aS'H7S'
p4119
asS'Corseaux'
p4120
(lp4121
S'1802'
p4122
aS'1802'
p4123
asS'Chalmette'
p4124
(lp4125
S'70043'
p4126
aS'70044'
p4127
aS'70043'
p4128
aS'70044'
p4129
asS'Chomedey South'
p4130
(lp4131
S'H7W'
p4132
aS'H7W'
p4133
asS'Canedo'
p4134
(lp4135
S'4870-022'
p4136
aS'4870-022'
p4137
asS'Canberra Bc'
p4138
(lp4139
S'2610'
p4140
aS'2610'
p4141
asS'Chaparral'
p4142
(lp4143
S'30189'
p4144
aS'30189'
p4145
asS'Cartagena'
p4146
(lp4147
S'30202'
p4148
aS'30204'
p4149
aS'30202'
p4150
aS'30204'
p4151
asS'Chandanakampara B.O'
p4152
(lp4153
S'670633'
p4154
aS'670633'
p4155
asS'Chengam'
p4156
(lp4157
S'606701'
p4158
aS'606701'
p4159
asS'Costilla'
p4160
(lp4161
S'87524'
p4162
aS'87524'
p4163
asS'Coolangatta'
p4164
(lp4165
S'4225'
p4166
asS'Castilleja De La Cuesta'
p4167
(lp4168
S'41950'
p4169
aS'41950'
p4170
asS'Caviano'
p4171
(lp4172
S'6578'
p4173
aS'6578'
p4174
asS'Carvalhal'
p4175
(lp4176
S'5160-081'
p4177
aS'6050-081'
p4178
aS'5160-081'
p4179
aS'6050-081'
p4180
asS'Covelo'
p4181
(lp4182
S'4880-083'
p4183
aS'4880-083'
p4184
asS'Cala Mondrago'
p4185
(lp4186
S'07691'
p4187
aS'07691'
p4188
asS'Chou\xc4\x8d'
p4189
(lp4190
S'417 57'
p4191
asS'Chhara'
p4192
(lp4193
S'362733'
p4194
aS'124504'
p4195
aS'124504'
p4196
aS'362733'
p4197
asS'Chelmsford'
p4198
(lp4199
S'01824'
p4200
aS'01824'
p4201
asS'C R P Line (Bbr-11) Piri'
p4202
(lp4203
S'751011'
p4204
aS'751011'
p4205
asS'Coffee Creek'
p4206
(lp4207
S'59424'
p4208
aS'59424'
p4209
asS'Cidlina'
p4210
(lp4211
S'507 13'
p4212
asS'Coldwater'
p4213
(lp4214
S'38618'
p4215
aS'49036'
p4216
aS'49036'
p4217
aS'38618'
p4218
asS'Casar De Caceres'
p4219
(lp4220
S'10190'
p4221
aS'10190'
p4222
asS'Claunch'
p4223
(lp4224
S'87011'
p4225
aS'87011'
p4226
asS'Capon Bridge'
p4227
(lp4228
S'26711'
p4229
aS'26711'
p4230
asS'Casal Gouveia'
p4231
(lp4232
S'2000-340'
p4233
aS'2000-340'
p4234
asS'Comunidad Valenciana'
p4235
(lp4236
S'03002'
p4237
aS'03003'
p4238
ag4238
aS'03004'
p4239
ag4239
aS'03006'
p4240
ag4240
aS'03009'
p4241
ag4241
aS'03012'
p4242
ag4242
aS'03014'
p4243
ag4243
aS'03016'
p4244
ag4244
aS'03110'
p4245
aS'03130'
p4246
aS'03150'
p4247
aS'03160'
p4248
aS'03180'
p4249
aS'03190'
p4250
aS'03194'
p4251
aS'03201'
p4252
aS'03203'
p4253
aS'03204'
p4254
aS'03205'
p4255
aS'03291'
p4256
aS'03300'
p4257
aS'03340'
p4258
aS'03360'
p4259
aS'03380'
p4260
aS'03410'
p4261
aS'03430'
p4262
aS'03450'
p4263
aS'03501'
p4264
aS'03503'
p4265
aS'03509'
p4266
aS'03530'
p4267
aS'03540'
p4268
ag4268
aS'03570'
p4269
aS'03590'
p4270
aS'03599'
p4271
aS'03610'
p4272
aS'03650'
p4273
aS'03660'
p4274
aS'03670'
p4275
aS'03690'
p4276
aS'03700'
p4277
aS'03710'
p4278
aS'03724'
p4279
aS'03726'
p4280
aS'03730'
p4281
aS'03760'
p4282
aS'03778'
p4283
aS'03780'
p4284
aS'03790'
p4285
aS'03802'
p4286
aS'03804'
p4287
aS'03850'
p4288
ag1449
aS'12140'
p4289
aS'12200'
p4290
aS'12520'
p4291
aS'12530'
p4292
aS'12540'
p4293
aS'12580'
p4294
aS'12594'
p4295
aS'46003'
p4296
aS'46005'
p4297
aS'46007'
p4298
aS'46009'
p4299
aS'46018'
p4300
aS'46023'
p4301
aS'46024'
p4302
aS'46026'
p4303
aS'46100'
p4304
aS'46110'
p4305
aS'46111'
p4306
aS'46117'
p4307
aS'46160'
p4308
aS'46185'
p4309
aS'46200'
p4310
aS'46300'
p4311
aS'46340'
p4312
aS'46370'
p4313
aS'46400'
p4314
aS'46469'
p4315
aS'46470'
p4316
aS'46520'
p4317
aS'46600'
p4318
aS'46700'
p4319
aS'46800'
p4320
aS'46810'
p4321
aS'46900'
p4322
aS'46920'
p4323
aS'46940'
p4324
aS'46950'
p4325
aS'03700'
p4326
aS'46003'
p4327
aS'46014'
p4328
aS'03180'
p4329
aS'03590'
p4330
aS'03690'
p4331
aS'03700'
p4332
aS'03724'
p4333
aS'46001'
p4334
aS'46005'
p4335
aS'46007'
p4336
aS'46009'
p4337
aS'46018'
p4338
aS'46023'
p4339
aS'46100'
p4340
aS'46700'
p4341
aS'46900'
p4342
aS'03130'
p4343
aS'03300'
p4344
aS'03503'
p4345
aS'12540'
p4346
aS'12580'
p4347
aS'46013'
p4348
aS'46026'
p4349
aS'46340'
p4350
ag2125
aS'46600'
p4351
aS'46800'
p4352
aS'46920'
p4353
aS'46940'
p4354
aS'03003'
p4355
ag4355
aS'03160'
p4356
aS'03201'
p4357
aS'03203'
p4358
aS'03410'
p4359
aS'03430'
p4360
aS'03501'
p4361
aS'03530'
p4362
aS'03570'
p4363
aS'03610'
p4364
aS'03660'
p4365
aS'03690'
p4366
aS'12200'
p4367
aS'12530'
p4368
aS'46017'
p4369
aS'46024'
p4370
aS'46110'
p4371
aS'46117'
p4372
aS'46160'
p4373
aS'46200'
p4374
aS'46370'
p4375
aS'46400'
p4376
aS'46470'
p4377
aS'46520'
p4378
aS'46700'
p4379
aS'46810'
p4380
aS'46950'
p4381
aS'03004'
p4382
ag4382
aS'03110'
p4383
aS'03204'
p4384
aS'03650'
p4385
aS'03780'
p4386
aS'12520'
p4387
aS'12594'
p4388
aS'46111'
p4389
aS'46185'
p4390
aS'46300'
p4391
aS'46469'
p4392
aS'03002'
p4393
ag4393
aS'03006'
p4394
ag4394
aS'03009'
p4395
ag4395
aS'03012'
p4396
ag4396
aS'03014'
p4397
ag4397
aS'03016'
p4398
ag4398
aS'03150'
p4399
aS'03160'
p4400
aS'03190'
p4401
aS'03194'
p4402
aS'03205'
p4403
aS'03291'
p4404
aS'03340'
p4405
aS'03360'
p4406
aS'03380'
p4407
aS'03450'
p4408
aS'03509'
p4409
aS'03540'
p4410
ag4410
aS'03599'
p4411
aS'03670'
p4412
aS'03710'
p4413
aS'03726'
p4414
aS'03730'
p4415
aS'03749'
p4416
aS'03760'
p4417
aS'03778'
p4418
aS'03790'
p4419
aS'03802'
p4420
aS'03804'
p4421
aS'03850'
p4422
ag1450
aS'12140'
p4423
asS'Chot\xc4\x9bvice'
p4424
(lp4425
S'543 76'
p4426
asS'Ch\xc3\xa3os'
p4427
(lp4428
S'4880-024'
p4429
aS'4880-024'
p4430
asS'Campobasso'
p4431
(lp4432
S'86100'
p4433
aS'86170'
p4434
aS'86100'
p4435
ag4435
aS'86170'
p4436
asS'Cuzcurritilla'
p4437
(lp4438
S'26214'
p4439
asS'Chamarajendrapeta'
p4440
(lp4441
S'560002'
p4442
aS'560002'
p4443
asS'Crystal'
p4444
(lp4445
S'58222'
p4446
aS'58222'
p4447
asS'Cancienes'
p4448
(lp4449
S'33470'
p4450
aS'33470'
p4451
asS'Christmas Island'
p4452
(lp4453
S'B1T'
p4454
aS'B1T'
p4455
asS'Central Station'
p4456
(lp4457
S'600003'
p4458
aS'600003'
p4459
asS'Chelmer'
p4460
(lp4461
S'4068'
p4462
aS'4068'
p4463
asS'Cikh\xc3\xa1j'
p4464
(lp4465
S'591 02'
p4466
asS'Cerler'
p4467
(lp4468
S'22449'
p4469
aS'22449'
p4470
asS'Chandlai'
p4471
(lp4472
S'303907'
p4473
aS'303907'
p4474
asS'Coffrane'
p4475
(lp4476
S'2207'
p4477
aS'2207'
p4478
asS'Colorado'
p4479
(lp4480
S'80001'
p4481
aS'80002'
p4482
ag4482
aS'80004'
p4483
ag4483
aS'80006'
p4484
ag4484
aS'80011'
p4485
aS'80013'
p4486
aS'80014'
p4487
aS'80015'
p4488
aS'80018'
p4489
aS'80020'
p4490
aS'80022'
p4491
aS'80025'
p4492
aS'80026'
p4493
aS'80031'
p4494
aS'80033'
p4495
aS'80034'
p4496
aS'80036'
p4497
aS'80038'
p4498
aS'80041'
p4499
aS'80044'
p4500
aS'80046'
p4501
aS'80101'
p4502
aS'80103'
p4503
aS'80106'
p4504
aS'80110'
p4505
aS'80112'
p4506
aS'80116'
p4507
aS'80118'
p4508
aS'80122'
p4509
aS'80124'
p4510
aS'80131'
p4511
aS'80134'
p4512
aS'80151'
p4513
aS'80160'
p4514
aS'80162'
p4515
aS'80165'
p4516
aS'80202'
p4517
aS'80204'
p4518
aS'80206'
p4519
aS'80208'
p4520
aS'80209'
p4521
aS'80211'
p4522
aS'80217'
p4523
aS'80218'
p4524
aS'80220'
p4525
aS'80223'
p4526
aS'80225'
p4527
aS'80230'
p4528
aS'80231'
p4529
aS'80235'
p4530
aS'80236'
p4531
aS'80239'
p4532
aS'80249'
p4533
aS'80250'
p4534
aS'80262'
p4535
aS'80265'
p4536
aS'80290'
p4537
aS'80293'
p4538
aS'80302'
p4539
aS'80401'
p4540
aS'80403'
p4541
aS'80439'
p4542
aS'80443'
p4543
aS'80461'
p4544
aS'80487'
p4545
aS'80498'
p4546
aS'80504'
p4547
aS'80513'
p4548
aS'80517'
p4549
aS'80524'
p4550
aS'80525'
p4551
aS'80537'
p4552
aS'80550'
p4553
aS'80701'
p4554
aS'80829'
p4555
aS'80904'
p4556
aS'80906'
p4557
aS'80910'
p4558
aS'80916'
p4559
aS'80918'
p4560
aS'80919'
p4561
aS'80921'
p4562
aS'81003'
p4563
aS'81052'
p4564
aS'81101'
p4565
aS'81201'
p4566
aS'81212'
p4567
aS'81301'
p4568
ag3431
aS'81416'
p4569
aS'81506'
p4570
aS'81612'
p4571
ag3089
aS'81621'
p4572
ag3489
aS'81632'
p4573
aS'80202'
p4574
aS'80011'
p4575
aS'80014'
p4576
aS'80033'
p4577
aS'80110'
p4578
aS'80112'
p4579
aS'80204'
p4580
aS'80206'
p4581
aS'80209'
p4582
aS'80211'
p4583
aS'80218'
p4584
aS'80231'
p4585
aS'80239'
p4586
aS'80249'
p4587
aS'80302'
p4588
aS'80401'
p4589
aS'80443'
p4590
aS'80487'
p4591
aS'80525'
p4592
aS'80906'
p4593
aS'80919'
p4594
aS'81301'
p4595
ag3090
aS'80002'
p4596
ag4596
aS'80004'
p4597
ag4597
aS'80013'
p4598
aS'80020'
p4599
aS'80026'
p4600
aS'80031'
p4601
aS'80122'
p4602
aS'80124'
p4603
aS'80134'
p4604
aS'80208'
p4605
aS'80217'
p4606
aS'80220'
p4607
aS'80223'
p4608
aS'80236'
p4609
aS'80250'
p4610
aS'80262'
p4611
aS'80265'
p4612
aS'80290'
p4613
aS'80293'
p4614
aS'80403'
p4615
aS'80439'
p4616
aS'80461'
p4617
aS'80498'
p4618
aS'80504'
p4619
aS'80513'
p4620
aS'80517'
p4621
aS'80524'
p4622
aS'80537'
p4623
aS'80550'
p4624
aS'80701'
p4625
aS'80829'
p4626
aS'80904'
p4627
aS'80910'
p4628
aS'80916'
p4629
aS'80918'
p4630
aS'80921'
p4631
aS'81003'
p4632
aS'81052'
p4633
aS'81101'
p4634
aS'81201'
p4635
aS'81212'
p4636
ag3432
aS'81416'
p4637
aS'81506'
p4638
aS'81612'
p4639
aS'81621'
p4640
ag3490
aS'81632'
p4641
aS'80001'
p4642
ag4642
aS'80006'
p4643
ag4643
aS'80015'
p4644
aS'80018'
p4645
aS'80022'
p4646
aS'80025'
p4647
aS'80034'
p4648
aS'80036'
p4649
aS'80038'
p4650
aS'80041'
p4651
aS'80044'
p4652
aS'80046'
p4653
aS'80101'
p4654
aS'80103'
p4655
aS'80106'
p4656
aS'80116'
p4657
aS'80118'
p4658
aS'80125'
p4659
aS'80131'
p4660
aS'80133'
p4661
aS'80136'
p4662
aS'80138'
p4663
aS'80151'
p4664
aS'80160'
p4665
aS'80162'
p4666
aS'80165'
p4667
aS'80225'
p4668
aS'80230'
p4669
aS'80235'
p4670
asS'Choupica'
p4671
(lp4672
S'4870-205'
p4673
aS'4870-205'
p4674
asS'Carona'
p4675
(lp4676
S'6914'
p4677
aS'6914'
p4678
asS'Cabins'
p4679
(lp4680
S'26855'
p4681
aS'26855'
p4682
asS'Casas De Don Pedro'
p4683
(lp4684
S'06770'
p4685
aS'06770'
p4686
asS'Cak\xc3\xb3h\xc3\xa1za'
p4687
(lp4688
S'9165'
p4689
aS'9165'
p4690
asS'Cavergno'
p4691
(lp4692
S'6690'
p4693
aS'6690'
p4694
asS'Chand Nagar'
p4695
(lp4696
S'110018'
p4697
aS'110018'
p4698
asS'Chandnichouk H O'
p4699
(lp4700
S'753002'
p4701
aS'753002'
p4702
asS'Casselton'
p4703
(lp4704
S'58012'
p4705
aS'58012'
p4706
asS'Cecchignola'
p4707
(lp4708
S'00143'
p4709
aS'00143'
p4710
asS'Calgary (Cranston)'
p4711
(lp4712
S'T3M'
p4713
aS'T3M'
p4714
asS'Cebreros'
p4715
(lp4716
S'05260'
p4717
aS'05260'
p4718
asS'Camden'
p4719
(lp4720
S'29020'
p4721
aS'71701'
p4722
aS'71701'
p4723
aS'29020'
p4724
asS'Cause Court'
p4725
(lp4726
S'400002'
p4727
asS'Casa Grande'
p4728
(lp4729
S'85222'
p4730
aS'85222'
p4731
asS'Colorado Springs'
p4732
(lp4733
g4556
ag4557
ag4558
ag4559
ag4560
ag4561
ag4562
ag4593
ag4594
ag4627
ag4628
ag4629
ag4630
ag4631
asS'Calgary (Inglewood / Burnsland / Chinatown / East Victoria Park / Saddledome)'
p4734
(lp4735
S'T2G'
p4736
aS'T2G'
p4737
asS'Center Harbor'
p4738
(lp4739
S'03226'
p4740
aS'03226'
p4741
asS'Commerce City'
p4742
(lp4743
g4491
ag4646
asS'Cheyres'
p4744
(lp4745
S'1468'
p4746
aS'1474'
p4747
ag103
aS'1486'
p4748
aS'1489'
p4749
aS'1527'
p4750
aS'1532'
p4751
aS'1541'
p4752
aS'1542'
p4753
ag2508
aS'1566'
p4754
aS'1609'
p4755
aS'1616'
p4756
ag2828
aS'1623'
p4757
aS'1628'
p4758
aS'1630'
p4759
aS'1632'
p4760
aS'1635'
p4761
ag1844
aS'1638'
p4762
ag3735
aS'1648'
p4763
aS'1651'
p4764
aS'1652'
p4765
ag2993
aS'1656'
p4766
aS'1663'
p4767
aS'1665'
p4768
aS'1666'
p4769
aS'1673'
p4770
ag3314
aS'1677'
p4771
aS'1678'
p4772
aS'1684'
p4773
aS'1687'
p4774
aS'1688'
p4775
aS'1696'
p4776
aS'1701'
p4777
ag4777
aS'1702'
p4778
ag4778
aS'1707'
p4779
ag4779
aS'1709'
p4780
ag4780
aS'1715'
p4781
aS'1716'
p4782
aS'1719'
p4783
ag1364
ag2306
aS'1723'
p4784
aS'1726'
p4785
aS'1731'
p4786
aS'1732'
p4787
aS'1733'
p4788
aS'1737'
p4789
ag703
ag3634
aS'1753'
p4790
aS'1757'
p4791
aS'1762'
p4792
aS'1773'
p4793
aS'1774'
p4794
aS'1775'
p4795
aS'1782'
p4796
aS'1783'
p4797
ag1740
ag3526
aS'1788'
p4798
aS'1794'
p4799
ag329
aS'3175'
p4800
aS'3178'
p4801
aS'3210'
p4802
aS'3215'
p4803
aS'3216'
p4804
aS'3280'
p4805
aS'3285'
p4806
aS'1700'
p4807
ag4807
aS'1701'
p4808
ag4808
aS'3280'
p4809
ag2829
aS'1723'
p4810
aS'1762'
p4811
aS'3210'
p4812
aS'1628'
p4813
ag1741
aS'3175'
p4814
aS'1616'
p4815
aS'1630'
p4816
aS'1632'
p4817
aS'1635'
p4818
ag1845
aS'1648'
p4819
aS'1663'
p4820
aS'1702'
p4821
ag4821
aS'1709'
p4822
ag4822
aS'1716'
p4823
aS'1723'
p4824
aS'1733'
p4825
aS'1737'
p4826
aS'1753'
p4827
aS'1782'
p4828
aS'3182'
p4829
aS'3216'
p4830
aS'1468'
p4831
ag4831
aS'1623'
p4832
aS'1666'
p4833
aS'1670'
p4834
aS'1678'
p4835
aS'1732'
p4836
aS'1789'
p4837
ag330
aS'3285'
p4838
ag104
aS'1489'
p4839
aS'1532'
p4840
aS'1541'
p4841
ag2509
aS'1566'
p4842
aS'1614'
p4843
aS'1617'
p4844
aS'1638'
p4845
aS'1651'
p4846
aS'1656'
p4847
aS'1663'
p4848
aS'1665'
p4849
aS'1675'
p4850
aS'1687'
p4851
aS'1696'
p4852
aS'1707'
p4853
ag4853
aS'1715'
p4854
aS'1719'
p4855
ag2307
aS'1726'
p4856
aS'1731'
p4857
ag704
ag3635
aS'1757'
p4858
aS'1773'
p4859
aS'1775'
p4860
aS'1776'
p4861
aS'1783'
p4862
ag3527
aS'1788'
p4863
aS'1794'
p4864
aS'3178'
p4865
aS'3213'
p4866
aS'3215'
p4867
aS'3215'
p4868
aS'3280'
p4869
aS'1470'
p4870
aS'1486'
p4871
aS'1542'
p4872
ag3736
aS'1673'
p4873
ag3315
aS'1688'
p4874
aS'1718'
p4875
aS'1782'
p4876
aS'1474'
p4877
aS'1527'
p4878
aS'1541'
p4879
aS'1609'
p4880
aS'1617'
p4881
aS'1652'
p4882
ag2994
aS'1666'
p4883
aS'1673'
p4884
aS'1677'
p4885
aS'1684'
p4886
aS'1700'
p4887
ag1365
aS'1723'
p4888
aS'1724'
p4889
aS'1726'
p4890
aS'1773'
p4891
aS'1774'
p4892
asS'Carpin'
p4893
(lp4894
S'17237'
p4895
asS'Cashion'
p4896
(lp4897
S'73016'
p4898
aS'73016'
p4899
asS'Cabriz'
p4900
(lp4901
S'4870-039'
p4902
aS'4870-039'
p4903
asS'Charlottesville'
p4904
(lp4905
S'22902'
p4906
aS'22911'
p4907
aS'46117'
p4908
aS'22902'
p4909
aS'22911'
p4910
asS'Cap-de-la- Madeleine Central and southeast'
p4911
(lp4912
S'G8T'
p4913
aS'G8T'
p4914
asS'Csapod'
p4915
(lp4916
S'9372'
p4917
aS'9372'
p4918
asS'Chabeypur (Kanpur)'
p4919
(lp4920
S'209203'
p4921
aS'209203'
p4922
asS'Clarendon Vale'
p4923
(lp4924
S'7019'
p4925
aS'7019'
p4926
asS'Cullman'
p4927
(lp4928
S'35056'
p4929
aS'35058'
p4930
aS'35056'
p4931
aS'35058'
p4932
asS'Cerekvice nad Byst\xc5\x99ic\xc3\xad'
p4933
(lp4934
S'507 77'
p4935
asS'Cheyenne'
p4936
(lp4937
S'82001'
p4938
aS'82008'
p4939
aS'82009'
p4940
aS'82010'
p4941
aS'82001'
p4942
aS'82009'
p4943
aS'82008'
p4944
aS'82010'
p4945
asS'Carnation'
p4946
(lp4947
S'98014'
p4948
aS'98014'
p4949
asS'Chaloupky'
p4950
(lp4951
S'339 01'
p4952
asS'Ca N Picafort'
p4953
(lp4954
S'07458'
p4955
aS'07458'
p4956
asS'Calheta'
p4957
(lp4958
S'9850-021'
p4959
aS'9850-023'
p4960
aS'9850-028'
p4961
aS'9850-030'
p4962
aS'9850-032'
p4963
aS'9850-034'
p4964
aS'9850-036'
p4965
aS'9850-038'
p4966
aS'9850-040'
p4967
aS'9850-042'
p4968
aS'9850-045'
p4969
aS'9850-021'
p4970
aS'9850-023'
p4971
aS'9850-028'
p4972
aS'9850-030'
p4973
aS'9850-032'
p4974
aS'9850-034'
p4975
aS'9850-036'
p4976
aS'9850-038'
p4977
aS'9850-040'
p4978
aS'9850-042'
p4979
aS'9850-045'
p4980
asS'Clifton Hill'
p4981
(lp4982
S'3068'
p4983
aS'3068'
p4984
asS'Carseldine'
p4985
(lp4986
S'4034'
p4987
aS'4034'
p4988
asS'Cavigliano'
p4989
(lp4990
S'6654'
p4991
aS'6654'
p4992
asS'Chlum'
p4993
(lp4994
S'285 04'
p4995
aS'270 21'
p4996
aS'382 03'
p4997
aS'384 51'
p4998
aS'391 33'
p4999
aS'331 62'
p5000
aS'332 04'
p5001
aS'471 41'
p5002
aS'508 01'
p5003
aS'763 02'
p5004
asS'Cloverdale'
p5005
(lp5006
S'35617'
p5007
aS'35617'
p5008
asS'Calabria'
p5009
g1810
sS'Casa Blanca'
p5010
(lp5011
S'87007'
p5012
aS'87007'
p5013
asS'Craigie'
p5014
(lp5015
S'6025'
p5016
aS'6025'
p5017
asS'Cabezon De Liebana'
p5018
(lp5019
g2648
ag2728
asS'Cafede'
p5020
(lp5021
g1505
ag1606
asS'Central University Campus'
p5022
(lp5023
S'500134'
p5024
aS'500134'
p5025
asS"Carreira D'\xc3\x81gua"
p5026
(lp5027
S'2400-016'
p5028
aS'2400-016'
p5029
asS'Chot\xc4\x9bnice'
p5030
(lp5031
S'538 03'
p5032
asS'Cedar City'
p5033
(lp5034
S'84720'
p5035
aS'84720'
p5036
asS'Clyman'
p5037
(lp5038
S'53016'
p5039
aS'53016'
p5040
asS'Ch\xc3\xa3o da Cruz'
p5041
(lp5042
S'4870-115'
p5043
aS'4870-115'
p5044
asS'Curchorem'
p5045
(lp5046
S'403706'
p5047
aS'403706'
p5048
asS'Chraberce'
p5049
(lp5050
S'440 01'
p5051
asS'C R R I'
p5052
(lp5053
S'110020'
p5054
aS'110020'
p5055
asS'Chaparmukh'
p5056
(lp5057
S'782425'
p5058
aS'782425'
p5059
asS'Caseda'
p5060
(lp5061
S'31490'
p5062
aS'31490'
p5063
asS'Chodov'
p5064
(lp5065
S'345 33'
p5066
aS'357 35'
p5067
asS'Cut Off'
p5068
(lp5069
S'70345'
p5070
aS'70345'
p5071
asS'Ciudad Real'
p5072
(lp5073
S'13001'
p5074
aS'13003'
p5075
aS'13005'
p5076
aS'13001'
p5077
aS'13003'
p5078
aS'13005'
p5079
asS'Central'
p5080
(lp5081
S'99730'
p5082
aS'99730'
p5083
asS'Chr\xc3\xa1stov'
p5084
(lp5085
S'394 03'
p5086
aS'330 35'
p5087
aS'394 03'
p5088
asS'Croton'
p5089
(lp5090
S'43013'
p5091
aS'43013'
p5092
asS'Cov\xc3\xb5es'
p5093
(lp5094
S'9580-309'
p5095
aS'9580-309'
p5096
asS'Cologne'
p5097
(lp5098
S'55322'
p5099
aS'55322'
p5100
asS'Casal da Comenda'
p5101
(lp5102
S'2000-334'
p5103
aS'2000-334'
p5104
asS'Cochrane'
p5105
(lp5106
S'T4C'
p5107
aS'T4C'
p5108
asS'Competa'
p5109
(lp5110
S'29754'
p5111
aS'29754'
p5112
asS'Chermignon'
p5113
(lp5114
S'3971'
p5115
aS'3971'
p5116
asS'Cadafaz'
p5117
(lp5118
S'6040-052'
p5119
aS'6040-052'
p5120
asS'Chandon'
p5121
(lp5122
g4793
ag4891
asS'Cabrera De Mar'
p5123
(lp5124
S'08349'
p5125
aS'08349'
p5126
asS'Cottage Grove'
p5127
(lp5128
S'53527'
p5129
aS'53527'
p5130
asS'Canadas'
p5131
(lp5132
S'9930-051'
p5133
aS'9930-051'
p5134
asS'Chibroo'
p5135
(lp5136
S'248164'
p5137
aS'248164'
p5138
asS'Command H Q'
p5139
(lp5140
S'171003'
p5141
aS'171003'
p5142
asS'Central City'
p5143
(lp5144
S'15926'
p5145
aS'15926'
p5146
asS'Calhoun City'
p5147
(lp5148
S'38916'
p5149
aS'38916'
p5150
asS'Cawasji Harmasji Street'
p5151
(lp5152
S'400002'
p5153
asS'Carreira de Tiro'
p5154
(lp5155
S'9900-403'
p5156
aS'9900-403'
p5157
asS'C\xc3\xa9g\xc3\xa9nyd\xc3\xa1ny\xc3\xa1d'
p5158
(lp5159
S'4732'
p5160
aS'4732'
p5161
asS'Cora'
p5162
(lp5163
S'82925'
p5164
aS'82925'
p5165
asS'Coverciano'
p5166
(lp5167
S'50135'
p5168
aS'50135'
p5169
asS'Cairns'
p5170
(lp5171
S'4870'
p5172
aS'4870'
p5173
asS'Chio'
p5174
(lp5175
g1123
ag1196
asS'Casal do Ralha'
p5176
(lp5177
S'2400-018'
p5178
aS'2400-018'
p5179
asS'Central R Bldg'
p5180
(lp5181
S'800001'
p5182
asS'Cornelius'
p5183
(lp5184
S'28031'
p5185
aS'97113'
p5186
aS'28031'
p5187
aS'97113'
p5188
asS'Coogee'
p5189
(lp5190
S'2034'
p5191
aS'2034'
p5192
asS'Campus'
p5193
(lp5194
S'180001'
p5195
aS'180001'
p5196
asS'Calp/Calpe'
p5197
(lp5198
g4278
ag4413
asS'Carlisle'
p5199
(lp5200
S'6101'
p5201
aS'6101'
p5202
aS'17013'
p5203
aS'29031'
p5204
aS'17013'
p5205
aS'29031'
p5206
asS'Chetput H O'
p5207
(lp5208
S'600031'
p5209
aS'600031'
p5210
asS'Crissier'
p5211
(lp5212
S'1023'
p5213
aS'1023'
p5214
asS'Chuchyemlong'
p5215
(lp5216
S'798614'
p5217
aS'798614'
p5218
asS'Cornol'
p5219
(lp5220
S'2952'
p5221
asS'Cataluna'
p5222
(lp5223
S'08001'
p5224
aS'08003'
p5225
ag5225
aS'08004'
p5226
ag5226
aS'08006'
p5227
ag5227
aS'08008'
p5228
ag5228
aS'08010'
p5229
ag5229
aS'08012'
p5230
ag5230
aS'08014'
p5231
ag5231
aS'08017'
p5232
ag5232
aS'08020'
p5233
ag5233
aS'08021'
p5234
ag5234
aS'08024'
p5235
ag5235
aS'08026'
p5236
ag5236
aS'08028'
p5237
ag5237
aS'08030'
p5238
ag5238
aS'08031'
p5239
ag5239
aS'08033'
p5240
ag5240
aS'08034'
p5241
ag5241
aS'08036'
p5242
ag5242
aS'08039'
p5243
ag5243
aS'08040'
p5244
ag5244
aS'08042'
p5245
ag5245
aS'08120'
p5246
aS'08150'
p5247
aS'08160'
p5248
aS'08184'
p5249
aS'08191'
p5250
aS'08192'
p5251
aS'08193'
p5252
aS'08203'
p5253
aS'08206'
p5254
aS'08207'
p5255
aS'08210'
p5256
ag3463
aS'08222'
p5257
aS'08224'
p5258
aS'08226'
p5259
aS'08228'
p5260
aS'08240'
p5261
aS'08242'
p5262
aS'08272'
p5263
aS'08291'
p5264
aS'08302'
p5265
aS'08303'
p5266
aS'08310'
p5267
aS'08320'
p5268
aS'08339'
p5269
aS'08340'
p5270
ag5125
aS'08360'
p5271
aS'08370'
p5272
aS'08400'
p5273
aS'08402'
p5274
aS'08430'
p5275
aS'08440'
p5276
aS'08470'
p5277
aS'08530'
p5278
aS'08600'
p5279
aS'08620'
p5280
aS'08635'
p5281
aS'08650'
p5282
aS'08700'
p5283
ag2467
aS'08760'
p5284
aS'08783'
p5285
aS'08800'
p5286
aS'08810'
p5287
aS'08830'
p5288
ag2498
aS'08912'
p5289
aS'08918'
p5290
aS'08950'
p5291
aS'08970'
p5292
aS'17001'
p5293
aS'17002'
p5294
aS'17003'
p5295
aS'17140'
p5296
aS'17230'
p5297
aS'17244'
p5298
aS'17310'
p5299
aS'17430'
p5300
aS'17480'
p5301
aS'17800'
p5302
aS'17820'
p5303
aS'25003'
p5304
aS'25006'
p5305
aS'25300'
p5306
aS'43002'
p5307
aS'43004'
p5308
aS'43201'
p5309
aS'43800'
p5310
aS'43840'
p5311
aS'43870'
p5312
aS'08001'
p5313
ag5313
aS'08003'
p5314
ag5314
aS'08006'
p5315
ag5315
aS'08008'
p5316
ag5316
aS'08010'
p5317
ag5317
aS'08012'
p5318
ag5318
aS'08014'
p5319
ag5319
aS'08017'
p5320
ag5320
aS'08021'
p5321
ag5321
aS'08024'
p5322
ag5322
aS'08028'
p5323
ag5323
aS'08034'
p5324
ag5324
aS'08036'
p5325
ag5325
aS'08039'
p5326
ag5326
aS'08193'
p5327
aS'08400'
p5328
aS'17001'
p5329
aS'25007'
p5330
aS'08004'
p5331
ag5331
aS'08020'
p5332
ag5332
aS'08026'
p5333
ag5333
aS'08030'
p5334
ag5334
aS'08040'
p5335
ag5335
aS'08100'
p5336
aS'08191'
p5337
aS'08210'
p5338
aS'08222'
p5339
aS'08224'
p5340
aS'08240'
p5341
aS'08302'
p5342
aS'08370'
p5343
aS'08700'
p5344
aS'08800'
p5345
aS'08830'
p5346
ag2499
aS'08912'
p5347
aS'08950'
p5348
aS'08970'
p5349
aS'17002'
p5350
aS'17244'
p5351
aS'17310'
p5352
aS'17480'
p5353
aS'17800'
p5354
aS'25003'
p5355
aS'43002'
p5356
aS'43201'
p5357
aS'43840'
p5358
aS'43870'
p5359
aS'08031'
p5360
ag5360
aS'08042'
p5361
ag5361
aS'08150'
p5362
aS'08203'
p5363
aS'08206'
p5364
ag3464
aS'08291'
p5365
aS'08320'
p5366
aS'08340'
p5367
aS'08440'
p5368
aS'08600'
p5369
aS'08760'
p5370
aS'08840'
p5371
aS'08918'
p5372
aS'17003'
p5373
aS'17140'
p5374
aS'17230'
p5375
aS'17430'
p5376
aS'17820'
p5377
aS'25004'
p5378
aS'25006'
p5379
aS'25230'
p5380
aS'25300'
p5381
aS'43004'
p5382
aS'43007'
p5383
aS'43204'
p5384
aS'43800'
p5385
aS'08033'
p5386
ag5386
aS'08120'
p5387
aS'08160'
p5388
aS'08184'
p5389
aS'08192'
p5390
aS'08207'
p5391
aS'08226'
p5392
aS'08228'
p5393
aS'08242'
p5394
aS'08272'
p5395
aS'08303'
p5396
aS'08310'
p5397
aS'08339'
p5398
ag5126
aS'08360'
p5399
aS'08402'
p5400
aS'08430'
p5401
aS'08470'
p5402
aS'08530'
p5403
aS'08620'
p5404
aS'08635'
p5405
aS'08650'
p5406
ag2468
aS'08783'
p5407
aS'08810'
p5408
asS'Crescenzago'
p5409
(lp5410
S'20127'
p5411
aS'20127'
p5412
asS'Confignon'
p5413
(lp5414
S'1232'
p5415
aS'1232'
p5416
asS'Churaib'
p5417
(lp5418
S'799262'
p5419
aS'799262'
p5420
asS'Camp Lake'
p5421
(lp5422
S'53109'
p5423
aS'53109'
p5424
asS'Carreira'
p5425
(lp5426
S'9580-017'
p5427
aS'9580-017'
p5428
asS'Cerhenice'
p5429
(lp5430
S'281 02'
p5431
aS'281 02'
p5432
asS'Cibot\xc3\xadn'
p5433
(lp5434
S'583 01'
p5435
asS'Clarksdale'
p5436
(lp5437
S'38614'
p5438
aS'38614'
p5439
asS'Cyril'
p5440
(lp5441
S'73029'
p5442
aS'73029'
p5443
asS'Castilla'
p5444
(lp5445
S'02001'
p5446
aS'02002'
p5447
ag5447
ag5447
aS'02004'
p5448
ag5448
ag5448
aS'02007'
p5449
ag5449
ag5449
aS'02080'
p5450
ag5450
ag5450
aS'02130'
p5451
ag5451
ag3594
ag3594
aS'02210'
p5452
ag5452
aS'02260'
p5453
ag5453
aS'02313'
p5454
ag5454
aS'02320'
p5455
ag5455
aS'02327'
p5456
ag5456
aS'02430'
p5457
ag5457
aS'02435'
p5458
ag5458
aS'02500'
p5459
ag5459
aS'02510'
p5460
ag5460
aS'02530'
p5461
ag5461
aS'02610'
p5462
ag5462
aS'02611'
p5463
ag5463
aS'02636'
p5464
ag5464
aS'02640'
p5465
ag5465
aS'02651'
p5466
ag5466
ag3856
ag3856
aS'02690'
p5467
ag5467
aS'05200'
p5468
aS'05230'
p5469
ag4717
aS'05400'
p5470
ag1714
aS'05600'
p5471
aS'05635'
p5472
aS'09002'
p5473
aS'09004'
p5474
aS'09005'
p5475
aS'09007'
p5476
aS'09080'
p5477
aS'09199'
p5478
aS'09300'
p5479
aS'09346'
p5480
aS'09400'
p5481
aS'09550'
p5482
aS'09570'
p5483
aS'09670'
p5484
ag5074
ag5074
ag5075
ag5075
ag5076
ag5076
aS'13130'
p5485
ag5485
aS'13160'
p5486
ag5486
aS'13200'
p5487
ag5487
aS'13210'
p5488
ag5488
aS'13240'
p5489
ag5489
aS'13300'
p5490
ag5490
aS'13320'
p5491
ag5491
aS'13330'
p5492
ag5492
aS'13370'
p5493
ag5493
aS'13420'
p5494
ag5494
aS'13440'
p5495
ag5495
aS'13600'
p5496
ag5496
aS'13620'
p5497
ag5497
aS'13670'
p5498
ag5498
aS'13730'
p5499
ag5499
aS'13770'
p5500
ag5500
aS'16001'
p5501
ag5501
aS'16002'
p5502
ag5502
aS'16003'
p5503
ag5503
aS'16123'
p5504
ag5504
aS'16190'
p5505
ag5505
aS'16200'
p5506
ag5506
ag325
ag325
aS'16235'
p5507
ag5507
aS'16237'
p5508
ag5508
aS'16260'
p5509
ag5509
ag305
ag305
aS'16400'
p5510
ag5510
aS'16410'
p5511
ag5511
aS'16411'
p5512
ag5512
aS'16430'
p5513
ag5513
ag23
ag23
aS'16600'
p5514
ag5514
aS'16640'
p5515
ag5515
aS'16700'
p5516
ag5516
aS'16800'
p5517
ag5517
aS'16870'
p5518
ag5518
aS'19003'
p5519
ag5519
aS'19071'
p5520
ag5520
aS'19117'
p5521
ag5521
aS'19120'
p5522
ag5522
aS'19171'
p5523
ag5523
aS'19180'
p5524
ag5524
aS'19200'
p5525
ag5525
aS'19222'
p5526
ag5526
aS'19230'
p5527
ag5527
aS'19250'
p5528
ag5528
aS'19269'
p5529
ag5529
aS'19300'
p5530
ag5530
aS'24001'
p5531
aS'24004'
p5532
aS'24006'
p5533
aS'24007'
p5534
aS'24080'
p5535
aS'24200'
p5536
aS'24227'
p5537
aS'24300'
p5538
aS'24500'
p5539
aS'24540'
p5540
aS'24640'
p5541
aS'24700'
p5542
aS'34001'
p5543
aS'34003'
p5544
aS'34005'
p5545
aS'34071'
p5546
aS'34100'
p5547
aS'34191'
p5548
aS'34800'
p5549
ag2556
aS'37002'
p5550
aS'37004'
p5551
aS'37005'
p5552
aS'37008'
p5553
aS'37184'
p5554
aS'37185'
p5555
aS'37710'
p5556
aS'37800'
p5557
aS'37900'
p5558
aS'40001'
p5559
aS'40005'
p5560
aS'40191'
p5561
aS'40200'
p5562
aS'40320'
p5563
aS'40500'
p5564
aS'42002'
p5565
aS'42005'
p5566
aS'42162'
p5567
aS'42300'
p5568
aS'45001'
p5569
ag5569
aS'45003'
p5570
ag5570
aS'45005'
p5571
ag5571
aS'45111'
p5572
ag5572
aS'45210'
p5573
ag5573
aS'45221'
p5574
ag5574
aS'45280'
p5575
ag5575
aS'45340'
p5576
ag5576
aS'45400'
p5577
ag5577
aS'45500'
p5578
ag5578
aS'45510'
p5579
ag5579
aS'45560'
p5580
ag5580
aS'45695'
p5581
ag5581
aS'45800'
p5582
ag5582
aS'45870'
p5583
ag5583
aS'45910'
p5584
ag5584
aS'47002'
p5585
aS'47006'
p5586
aS'47008'
p5587
aS'47009'
p5588
aS'47010'
p5589
aS'47012'
p5590
aS'47071'
p5591
aS'47151'
p5592
aS'47193'
p5593
aS'47200'
p5594
aS'47320'
p5595
aS'47400'
p5596
aS'47410'
p5597
aS'47490'
p5598
aS'47600'
p5599
aS'49001'
p5600
aS'49003'
p5601
aS'49004'
p5602
aS'49012'
p5603
aS'49016'
p5604
aS'49022'
p5605
aS'49024'
p5606
aS'49029'
p5607
aS'37008'
p5608
aS'09005'
p5609
aS'37002'
p5610
aS'47001'
p5611
aS'47008'
p5612
aS'09002'
p5613
aS'09004'
p5614
aS'09007'
p5615
aS'09400'
p5616
aS'34001'
p5617
aS'37005'
p5618
aS'40001'
p5619
aS'47002'
p5620
aS'47009'
p5621
aS'47012'
p5622
aS'24001'
p5623
aS'24006'
p5624
aS'24700'
p5625
aS'34003'
p5626
aS'34005'
p5627
aS'37004'
p5628
aS'37080'
p5629
aS'37800'
p5630
aS'40003'
p5631
aS'42002'
p5632
aS'42110'
p5633
aS'47006'
p5634
aS'47010'
p5635
aS'47071'
p5636
aS'47151'
p5637
aS'47400'
p5638
aS'05400'
p5639
aS'24004'
p5640
aS'24007'
p5641
aS'34800'
p5642
aS'37300'
p5643
aS'42005'
p5644
aS'47140'
p5645
aS'49003'
p5646
aS'05200'
p5647
ag1715
aS'05635'
p5648
aS'09080'
p5649
aS'09199'
p5650
aS'09300'
p5651
aS'09346'
p5652
aS'09570'
p5653
aS'24010'
p5654
aS'24080'
p5655
aS'24200'
p5656
aS'24300'
p5657
aS'24540'
p5658
aS'34071'
p5659
aS'34100'
p5660
aS'34200'
p5661
ag2557
aS'37184'
p5662
aS'37210'
p5663
aS'37710'
p5664
aS'37900'
p5665
aS'40005'
p5666
aS'40109'
p5667
aS'40191'
p5668
aS'40200'
p5669
aS'40320'
p5670
aS'40500'
p5671
aS'42162'
p5672
aS'42300'
p5673
aS'47130'
p5674
aS'47193'
p5675
aS'47200'
p5676
aS'47320'
p5677
aS'47410'
p5678
aS'47490'
p5679
aS'47600'
p5680
aS'49001'
p5681
aS'49004'
p5682
aS'49007'
p5683
aS'49009'
p5684
aS'49012'
p5685
aS'49014'
p5686
aS'49016'
p5687
aS'49022'
p5688
aS'49024'
p5689
aS'49029'
p5690
aS'49080'
p5691
aS'05100'
p5692
aS'05230'
p5693
ag4718
aS'05600'
p5694
aS'09550'
p5695
aS'09670'
p5696
aS'24227'
p5697
aS'24500'
p5698
aS'24640'
p5699
aS'34191'
p5700
aS'37185'
p5701
aS'02002'
p5702
ag5702
ag5702
aS'02001'
p5703
ag5703
ag5703
aS'02640'
p5704
ag5704
aS'16001'
p5705
ag5705
aS'45001'
p5706
ag5706
aS'45003'
p5707
ag5707
aS'45071'
p5708
ag5708
aS'02004'
p5709
ag5709
ag5709
aS'02007'
p5710
ag5710
ag5710
aS'02080'
p5711
ag5711
ag5711
aS'02500'
p5712
ag5712
ag5077
ag5077
ag5078
ag5078
ag5079
ag5079
aS'13200'
p5713
ag5713
aS'13300'
p5714
ag5714
aS'13600'
p5715
ag5715
aS'16002'
p5716
ag5716
aS'16400'
p5717
ag5717
aS'19003'
p5718
ag5718
aS'19200'
p5719
ag5719
aS'45005'
p5720
ag5720
aS'45100'
p5721
ag5721
aS'45340'
p5722
ag5722
ag3857
ag3857
aS'16003'
p5723
ag5723
aS'45500'
p5724
ag5724
ag3595
ag3595
aS'02260'
p5725
ag5725
aS'02430'
p5726
ag5726
aS'02611'
p5727
ag5727
aS'13100'
p5728
ag5728
aS'13240'
p5729
ag5729
aS'13320'
p5730
ag5730
aS'13420'
p5731
ag5731
aS'13620'
p5732
ag5732
aS'13640'
p5733
ag5733
aS'13730'
p5734
ag5734
aS'16200'
p5735
ag5735
aS'16235'
p5736
ag5736
aS'16600'
p5737
ag5737
aS'16640'
p5738
ag5738
aS'19071'
p5739
ag5739
aS'19100'
p5740
ag5740
aS'19120'
p5741
ag5741
aS'19171'
p5742
ag5742
aS'45210'
p5743
ag5743
aS'45221'
p5744
ag5744
aS'45280'
p5745
ag5745
aS'45400'
p5746
ag5746
aS'45510'
p5747
ag5747
aS'45800'
p5748
ag5748
aS'45870'
p5749
ag5749
aS'45910'
p5750
ag5750
aS'02210'
p5751
ag5751
aS'02530'
p5752
ag5752
aS'13670'
p5753
ag5753
aS'16100'
p5754
ag5754
aS'16260'
p5755
ag5755
aS'16411'
p5756
ag5756
aS'19180'
p5757
ag5757
aS'19300'
p5758
ag5758
aS'45111'
p5759
ag5759
aS'45560'
p5760
ag5760
aS'45695'
p5761
ag5761
aS'02110'
p5762
ag5762
aS'02130'
p5763
ag5763
aS'02313'
p5764
ag5764
aS'02320'
p5765
ag5765
aS'02327'
p5766
ag5766
aS'02435'
p5767
ag5767
aS'02510'
p5768
ag5768
aS'02610'
p5769
ag5769
aS'02636'
p5770
ag5770
aS'02651'
p5771
ag5771
aS'02690'
p5772
ag5772
aS'13130'
p5773
ag5773
aS'13160'
p5774
ag5774
aS'13210'
p5775
ag5775
aS'13330'
p5776
ag5776
aS'13370'
p5777
ag5777
aS'13440'
p5778
ag5778
aS'13770'
p5779
ag5779
aS'16123'
p5780
ag5780
aS'16150'
p5781
ag5781
aS'16190'
p5782
ag5782
ag326
ag326
aS'16237'
p5783
ag5783
ag306
ag306
aS'16410'
p5784
ag5784
aS'16430'
p5785
ag5785
ag24
ag24
aS'16700'
p5786
ag5786
aS'16800'
p5787
ag5787
aS'16870'
p5788
ag5788
aS'19117'
p5789
ag5789
aS'19222'
p5790
ag5790
aS'19230'
p5791
ag5791
aS'19250'
p5792
ag5792
aS'19269'
p5793
ag5793
asS'Chlum\xc3\xadn'
p5794
(lp5795
S'294 02'
p5796
asS'Casal Vale de Monas'
p5797
(lp5798
S'2000-344'
p5799
aS'2000-344'
p5800
asS'Campasso'
p5801
(lp5802
S'16151'
p5803
aS'16151'
p5804
asS'Clines Corners'
p5805
(lp5806
S'87070'
p5807
aS'87070'
p5808
asS'Cary'
p5809
(lp5810
S'27511'
p5811
aS'27511'
p5812
asS'Cehegin'
p5813
(lp5814
S'30430'
p5815
aS'30430'
p5816
asS'Chiva'
p5817
(lp5818
g4313
ag4375
asS'Canal Colony'
p5819
(lp5820
S'142040'
p5821
aS'142040'
p5822
aS'142040'
p5823
asS'Chicago'
p5824
(lp5825
S'60601'
p5826
aS'60603'
p5827
aS'60604'
p5828
aS'60606'
p5829
aS'60609'
p5830
aS'60610'
p5831
aS'60613'
p5832
aS'60616'
p5833
aS'60618'
p5834
aS'60620'
p5835
aS'60622'
p5836
aS'60624'
p5837
aS'60626'
p5838
aS'60629'
p5839
aS'60631'
p5840
aS'60633'
p5841
aS'60636'
p5842
aS'60638'
p5843
aS'60640'
p5844
aS'60643'
p5845
aS'60645'
p5846
aS'60647'
p5847
aS'60651'
p5848
aS'60653'
p5849
aS'60655'
p5850
aS'60657'
p5851
aS'60659'
p5852
aS'60661'
p5853
aS'60601'
p5854
aS'60610'
p5855
aS'60603'
p5856
aS'60606'
p5857
aS'60657'
p5858
aS'60604'
p5859
aS'60609'
p5860
aS'60613'
p5861
aS'60616'
p5862
aS'60618'
p5863
aS'60620'
p5864
aS'60622'
p5865
aS'60624'
p5866
aS'60626'
p5867
aS'60629'
p5868
aS'60631'
p5869
aS'60633'
p5870
aS'60636'
p5871
aS'60638'
p5872
aS'60640'
p5873
aS'60643'
p5874
aS'60645'
p5875
aS'60647'
p5876
aS'60651'
p5877
aS'60653'
p5878
aS'60655'
p5879
aS'60659'
p5880
aS'60661'
p5881
asS'Circle Pines'
p5882
(lp5883
S'55014'
p5884
aS'55014'
p5885
asS'Chandrapur'
p5886
(lp5887
S'781150'
p5888
aS'781150'
p5889
asS'Ch\xc3\xa2telaine Cases'
p5890
(lp5891
S'1219'
p5892
aS'1219'
p5893
asS'Cross Anchor'
p5894
(lp5895
S'29331'
p5896
aS'29331'
p5897
asS'Conil De La Frontera'
p5898
(lp5899
S'11140'
p5900
asS'Cedar'
p5901
(lp5902
S'V9X'
p5903
aS'V9X'
p5904
asS'Cedas'
p5905
(lp5906
S'34136'
p5907
aS'34136'
p5908
asS'Colombres'
p5909
(lp5910
S'33590'
p5911
aS'33590'
p5912
asS'Chawri Bazar'
p5913
(lp5914
S'110006'
p5915
asS'Carrouge VD'
p5916
(lp5917
S'1084'
p5918
asS'Cagliari'
p5919
(lp5920
S'09124'
p5921
aS'09100'
p5922
aS'09125'
p5923
aS'09129'
p5924
aS'09121'
p5925
aS'09128'
p5926
aS'09134'
p5927
aS'09100'
p5928
aS'09121'
p5929
aS'09124'
p5930
aS'09125'
p5931
aS'09128'
p5932
aS'09129'
p5933
aS'09134'
p5934
asS'Carnac Bunder'
p5935
(lp5936
S'400001'
p5937
asS'Camargo'
p5938
(lp5939
g2661
ag2704
asS'Coimbra'
p5940
(lp5941
S'3000-001'
p5942
ag5942
aS'3000-003'
p5943
ag5943
aS'3000-005'
p5944
ag5944
aS'3000-007'
p5945
ag5945
aS'3000-009'
p5946
ag5946
aS'3000-011'
p5947
ag5947
aS'3000-014'
p5948
ag5948
aS'3000-016'
p5949
ag5949
aS'3000-018'
p5950
ag5950
aS'3000-020'
p5951
ag5951
aS'3000-022'
p5952
ag5952
aS'3000-024'
p5953
ag5953
aS'3000-026'
p5954
ag5954
aS'3000-028'
p5955
ag5955
aS'3000-030'
p5956
ag5956
aS'3000-032'
p5957
ag5957
aS'3000-034'
p5958
ag5958
aS'3000-036'
p5959
ag5959
aS'3000-038'
p5960
ag5960
aS'3000-041'
p5961
ag5961
aS'3000-043'
p5962
ag5962
aS'3000-045'
p5963
ag5963
aS'3000-048'
p5964
ag5964
aS'3000-051'
p5965
ag5965
aS'3000-053'
p5966
ag5966
aS'3000-055'
p5967
ag5967
aS'3000-057'
p5968
ag5968
aS'3000-059'
p5969
ag5969
aS'3000-061'
p5970
ag5970
aS'3000-063'
p5971
ag5971
aS'3000-065'
p5972
ag5972
aS'3000-067'
p5973
ag5973
aS'3000-069'
p5974
ag5974
aS'3000-071'
p5975
ag5975
aS'3000-073'
p5976
ag5976
aS'3000-075'
p5977
ag5977
aS'3000-077'
p5978
ag5978
aS'3000-079'
p5979
ag5979
aS'3000-082'
p5980
ag5980
aS'3000-084'
p5981
ag5981
aS'3000-086'
p5982
ag5982
aS'3000-088'
p5983
ag5983
aS'3000-092'
p5984
ag5984
aS'3000-095'
p5985
ag5985
aS'3000-098'
p5986
ag5986
aS'3000-100'
p5987
ag5987
aS'3000-102'
p5988
ag5988
aS'3000-104'
p5989
ag5989
aS'3000-107'
p5990
ag5990
aS'3000-109'
p5991
ag5991
aS'3000-111'
p5992
ag5992
aS'3000-113'
p5993
ag5993
aS'3000-115'
p5994
ag5994
aS'3000-117'
p5995
ag5995
aS'3000-119'
p5996
ag5996
aS'3000-121'
p5997
ag5997
aS'3000-123'
p5998
ag5998
aS'3000-125'
p5999
ag5999
aS'3000-129'
p6000
ag6000
aS'3000-131'
p6001
ag6001
aS'3000-133'
p6002
ag6002
aS'3000-135'
p6003
ag6003
aS'3000-137'
p6004
ag6004
aS'3000-139'
p6005
ag6005
aS'3000-141'
p6006
ag6006
aS'3000-143'
p6007
ag6007
aS'3000-147'
p6008
ag6008
aS'3000-150'
p6009
ag6009
aS'3000-153'
p6010
ag6010
aS'3000-157'
p6011
ag6011
aS'3000-159'
p6012
ag6012
aS'3000-161'
p6013
ag6013
aS'3000-163'
p6014
ag6014
aS'3000-165'
p6015
ag6015
aS'3000-167'
p6016
ag6016
aS'3000-169'
p6017
ag6017
aS'3000-171'
p6018
ag6018
aS'3000-173'
p6019
ag6019
aS'3000-175'
p6020
ag6020
aS'3000-177'
p6021
ag6021
aS'3000-179'
p6022
ag6022
aS'3000-182'
p6023
ag6023
aS'3000-184'
p6024
ag6024
aS'3000-186'
p6025
ag6025
aS'3000-189'
p6026
ag6026
aS'3000-191'
p6027
ag6027
aS'3000-194'
p6028
ag6028
aS'3000-196'
p6029
ag6029
aS'3000-199'
p6030
ag6030
aS'3000-201'
p6031
ag6031
aS'3000-203'
p6032
ag6032
aS'3000-205'
p6033
ag6033
aS'3000-207'
p6034
ag6034
aS'3000-209'
p6035
ag6035
aS'3000-213'
p6036
ag6036
aS'3000-215'
p6037
ag6037
aS'3000-218'
p6038
ag6038
aS'3000-220'
p6039
ag6039
aS'3000-222'
p6040
ag6040
aS'3000-224'
p6041
ag6041
aS'3000-001'
p6042
ag6042
aS'3000-003'
p6043
ag6043
aS'3000-005'
p6044
ag6044
aS'3000-007'
p6045
ag6045
aS'3000-009'
p6046
ag6046
aS'3000-011'
p6047
ag6047
aS'3000-014'
p6048
ag6048
aS'3000-016'
p6049
ag6049
aS'3000-018'
p6050
ag6050
aS'3000-020'
p6051
ag6051
aS'3000-022'
p6052
ag6052
aS'3000-024'
p6053
ag6053
aS'3000-026'
p6054
ag6054
aS'3000-028'
p6055
ag6055
aS'3000-030'
p6056
ag6056
aS'3000-032'
p6057
ag6057
aS'3000-034'
p6058
ag6058
aS'3000-036'
p6059
ag6059
aS'3000-038'
p6060
ag6060
aS'3000-041'
p6061
ag6061
aS'3000-043'
p6062
ag6062
aS'3000-045'
p6063
ag6063
aS'3000-048'
p6064
ag6064
aS'3000-051'
p6065
ag6065
aS'3000-053'
p6066
ag6066
aS'3000-055'
p6067
ag6067
aS'3000-057'
p6068
ag6068
aS'3000-059'
p6069
ag6069
aS'3000-061'
p6070
ag6070
aS'3000-063'
p6071
ag6071
aS'3000-065'
p6072
ag6072
aS'3000-067'
p6073
ag6073
aS'3000-069'
p6074
ag6074
aS'3000-071'
p6075
ag6075
aS'3000-073'
p6076
ag6076
aS'3000-075'
p6077
ag6077
aS'3000-077'
p6078
ag6078
aS'3000-079'
p6079
ag6079
aS'3000-082'
p6080
ag6080
aS'3000-084'
p6081
ag6081
aS'3000-086'
p6082
ag6082
aS'3000-088'
p6083
ag6083
aS'3000-092'
p6084
ag6084
aS'3000-095'
p6085
ag6085
aS'3000-098'
p6086
ag6086
aS'3000-100'
p6087
ag6087
aS'3000-102'
p6088
ag6088
aS'3000-104'
p6089
ag6089
aS'3000-107'
p6090
ag6090
aS'3000-109'
p6091
ag6091
aS'3000-111'
p6092
ag6092
aS'3000-113'
p6093
ag6093
aS'3000-115'
p6094
ag6094
aS'3000-117'
p6095
ag6095
aS'3000-119'
p6096
ag6096
aS'3000-121'
p6097
ag6097
aS'3000-123'
p6098
ag6098
aS'3000-125'
p6099
ag6099
aS'3000-129'
p6100
ag6100
aS'3000-131'
p6101
ag6101
aS'3000-133'
p6102
ag6102
aS'3000-135'
p6103
ag6103
aS'3000-137'
p6104
ag6104
aS'3000-139'
p6105
ag6105
aS'3000-141'
p6106
ag6106
aS'3000-143'
p6107
ag6107
aS'3000-147'
p6108
ag6108
aS'3000-150'
p6109
ag6109
aS'3000-153'
p6110
ag6110
aS'3000-157'
p6111
ag6111
aS'3000-159'
p6112
ag6112
aS'3000-161'
p6113
ag6113
aS'3000-163'
p6114
ag6114
aS'3000-165'
p6115
ag6115
aS'3000-167'
p6116
ag6116
aS'3000-169'
p6117
ag6117
aS'3000-171'
p6118
ag6118
aS'3000-173'
p6119
ag6119
aS'3000-175'
p6120
ag6120
aS'3000-177'
p6121
ag6121
aS'3000-179'
p6122
ag6122
aS'3000-182'
p6123
ag6123
aS'3000-184'
p6124
ag6124
aS'3000-186'
p6125
ag6125
aS'3000-189'
p6126
ag6126
aS'3000-191'
p6127
ag6127
aS'3000-194'
p6128
ag6128
aS'3000-196'
p6129
ag6129
aS'3000-199'
p6130
ag6130
aS'3000-201'
p6131
ag6131
aS'3000-203'
p6132
ag6132
aS'3000-205'
p6133
ag6133
aS'3000-207'
p6134
ag6134
aS'3000-209'
p6135
ag6135
aS'3000-213'
p6136
ag6136
aS'3000-215'
p6137
ag6137
aS'3000-218'
p6138
ag6138
aS'3000-220'
p6139
ag6139
aS'3000-222'
p6140
ag6140
aS'3000-224'
p6141
ag6141
asS'Cugy VD'
p6142
(lp6143
S'1053'
p6144
asS'Corvo'
p6145
(lp6146
S'9980-021'
p6147
aS'9980-023'
p6148
aS'9980-025'
p6149
aS'9980-027'
p6150
aS'9980-029'
p6151
aS'9980-031'
p6152
aS'9980-033'
p6153
aS'9980-035'
p6154
aS'9980-037'
p6155
aS'9980-039'
p6156
aS'9980-999'
p6157
aS'9980-021'
p6158
aS'9980-023'
p6159
aS'9980-025'
p6160
aS'9980-027'
p6161
aS'9980-029'
p6162
aS'9980-031'
p6163
aS'9980-033'
p6164
aS'9980-035'
p6165
aS'9980-037'
p6166
aS'9980-039'
p6167
aS'9980-999'
p6168
asS'Chachoengsao'
p6169
(lp6170
S'24110'
p6171
aS'24120'
p6172
aS'24130'
p6173
aS'24150'
p6174
aS'24160'
p6175
aS'24120'
p6176
aS'24160'
p6177
aS'24110'
p6178
ag6178
aS'24130'
p6179
aS'24150'
p6180
aS'24160'
p6181
asS'Chilton'
p6182
(lp6183
S'53014'
p6184
aS'53014'
p6185
asS'Corinth'
p6186
(lp6187
S'38834'
p6188
aS'38834'
p6189
asS'Chander Nagar'
p6190
(lp6191
S'141001'
p6192
aS'141001'
p6193
aS'141001'
p6194
asS'Calicut'
p6195
(lp6196
S'673001'
p6197
aS'673001'
p6198
asS'Chot\xc4\x9bnov-Skl\xc3\xa1\xc5\x99e'
p6199
(lp6200
g3982
asS'Cheog'
p6201
(lp6202
S'171219'
p6203
aS'171219'
p6204
asS'Chamardi'
p6205
(lp6206
S'364410'
p6207
aS'364410'
p6208
asS'Cumming'
p6209
(lp6210
S'30028'
p6211
aS'30040'
p6212
aS'30028'
p6213
aS'30040'
p6214
asS'Chouzovy'
p6215
(lp6216
S'332 04'
p6217
asS'Chol\xc3\xadn'
p6218
(lp6219
S'262 03'
p6220
asS'Cabo das Manadas'
p6221
(lp6222
S'9800-011'
p6223
aS'9800-022'
p6224
aS'9800-024'
p6225
aS'9800-026'
p6226
aS'9800-028'
p6227
aS'9800-030'
p6228
aS'9800-032'
p6229
aS'9800-034'
p6230
aS'9800-036'
p6231
aS'9800-038'
p6232
aS'9800-040'
p6233
aS'9800-051'
p6234
aS'9800-101'
p6235
aS'9800-103'
p6236
aS'9800-105'
p6237
aS'9800-122'
p6238
aS'9800-124'
p6239
aS'9800-126'
p6240
aS'9800-128'
p6241
aS'9800-130'
p6242
aS'9800-132'
p6243
aS'9800-151'
p6244
aS'9800-153'
p6245
aS'9800-202'
p6246
aS'9800-204'
p6247
aS'9800-206'
p6248
aS'9800-208'
p6249
aS'9800-210'
p6250
aS'9800-222'
p6251
aS'9800-225'
p6252
aS'9800-227'
p6253
aS'9800-229'
p6254
aS'9800-231'
p6255
aS'9800-301'
p6256
aS'9800-303'
p6257
aS'9800-305'
p6258
aS'9800-307'
p6259
aS'9800-309'
p6260
aS'9800-322'
p6261
aS'9800-324'
p6262
aS'9800-326'
p6263
aS'9800-328'
p6264
aS'9800-330'
p6265
aS'9800-332'
p6266
aS'9800-334'
p6267
aS'9800-336'
p6268
aS'9800-338'
p6269
aS'9800-340'
p6270
aS'9800-342'
p6271
aS'9800-344'
p6272
aS'9800-346'
p6273
aS'9800-348'
p6274
aS'9800-401'
p6275
aS'9800-404'
p6276
aS'9800-421'
p6277
aS'9800-423'
p6278
aS'9800-425'
p6279
aS'9800-427'
p6280
aS'9800-429'
p6281
aS'9800-431'
p6282
aS'9800-433'
p6283
aS'9800-435'
p6284
aS'9800-502'
p6285
aS'9800-504'
p6286
aS'9800-506'
p6287
aS'9800-522'
p6288
aS'9800-524'
p6289
aS'9800-526'
p6290
aS'9800-528'
p6291
aS'9800-530'
p6292
aS'9800-532'
p6293
aS'9800-534'
p6294
aS'9800-536'
p6295
aS'9800-538'
p6296
aS'9800-540'
p6297
aS'9800-542'
p6298
aS'9800-544'
p6299
aS'9800-546'
p6300
aS'9800-548'
p6301
aS'9800-550'
p6302
aS'9800-552'
p6303
aS'9800-554'
p6304
aS'9800-556'
p6305
aS'9800-558'
p6306
aS'9800-560'
p6307
aS'9800-999'
p6308
aS'9850-013'
p6309
ag4959
ag4960
aS'9850-026'
p6310
ag4961
ag4962
ag4963
ag4964
ag4965
ag4966
ag4967
ag4968
ag4969
aS'9850-062'
p6311
aS'9800-011'
p6312
ag6312
aS'9800-022'
p6313
aS'9800-024'
p6314
aS'9800-026'
p6315
aS'9800-028'
p6316
aS'9800-030'
p6317
aS'9800-032'
p6318
aS'9800-034'
p6319
aS'9800-036'
p6320
aS'9800-038'
p6321
aS'9800-040'
p6322
aS'9800-051'
p6323
aS'9800-101'
p6324
aS'9800-103'
p6325
aS'9800-105'
p6326
aS'9800-122'
p6327
aS'9800-124'
p6328
aS'9800-126'
p6329
aS'9800-128'
p6330
aS'9800-130'
p6331
aS'9800-132'
p6332
aS'9800-151'
p6333
aS'9800-153'
p6334
aS'9800-202'
p6335
aS'9800-204'
p6336
aS'9800-206'
p6337
aS'9800-208'
p6338
aS'9800-210'
p6339
aS'9800-222'
p6340
aS'9800-225'
p6341
aS'9800-227'
p6342
aS'9800-229'
p6343
aS'9800-231'
p6344
aS'9800-301'
p6345
aS'9800-303'
p6346
aS'9800-305'
p6347
aS'9800-307'
p6348
aS'9800-309'
p6349
aS'9800-322'
p6350
aS'9800-324'
p6351
aS'9800-326'
p6352
aS'9800-328'
p6353
aS'9800-330'
p6354
aS'9800-332'
p6355
aS'9800-334'
p6356
aS'9800-336'
p6357
aS'9800-338'
p6358
aS'9800-340'
p6359
aS'9800-342'
p6360
aS'9800-344'
p6361
aS'9800-346'
p6362
aS'9800-348'
p6363
aS'9800-401'
p6364
aS'9800-404'
p6365
aS'9800-421'
p6366
aS'9800-423'
p6367
aS'9800-425'
p6368
aS'9800-427'
p6369
aS'9800-429'
p6370
aS'9800-431'
p6371
aS'9800-433'
p6372
aS'9800-435'
p6373
aS'9800-502'
p6374
aS'9800-504'
p6375
aS'9800-506'
p6376
aS'9800-522'
p6377
aS'9800-524'
p6378
aS'9800-526'
p6379
aS'9800-528'
p6380
aS'9800-530'
p6381
aS'9800-532'
p6382
aS'9800-534'
p6383
aS'9800-536'
p6384
aS'9800-538'
p6385
aS'9800-540'
p6386
aS'9800-542'
p6387
aS'9800-544'
p6388
aS'9800-546'
p6389
aS'9800-548'
p6390
aS'9800-550'
p6391
aS'9800-552'
p6392
aS'9800-554'
p6393
aS'9800-556'
p6394
aS'9800-558'
p6395
aS'9800-560'
p6396
aS'9800-999'
p6397
aS'9850-013'
p6398
ag4970
ag4971
aS'9850-026'
p6399
ag4972
ag4973
ag4974
ag4975
ag4976
ag4977
ag4978
ag4979
ag4980
aS'9850-062'
p6400
asS'Chyn\xc3\xadn'
p6401
(lp6402
S'335 63'
p6403
asS'Chot\xc4\x9bjovice'
p6404
(lp6405
S'417 72'
p6406
asS'Cacabelos'
p6407
(lp6408
g5540
ag5658
asS'Cucumber'
p6409
(lp6410
S'24826'
p6411
aS'24826'
p6412
asS'Castel Di Decima'
p6413
(lp6414
S'00128'
p6415
aS'00128'
p6416
asS'Cs\xc3\xb3lyosp\xc3\xa1los'
p6417
(lp6418
S'6135'
p6419
aS'6135'
p6420
asS'Clearmont'
p6421
(lp6422
S'82835'
p6423
aS'82835'
p6424
asS'Chud\xc3\xad\xc5\x99'
p6425
(lp6426
S'294 45'
p6427
asS'Chrami\xc5\xa1t\xc4\x9b'
p6428
(lp6429
S'262 03'
p6430
asS'Corban'
p6431
(lp6432
S'2826'
p6433
aS'2826'
p6434
asS'Canaan'
p6435
(lp6436
S'03741'
p6437
ag2999
ag3130
aS'03741'
p6438
asS'Capartice'
p6439
(lp6440
S'344 01'
p6441
asS'Champf\xc3\xa8r'
p6442
(lp6443
S'7512'
p6444
aS'7512'
p6445
asS'Chattisgarh'
p6446
(lp6447
S'465686'
p6448
aS'490001'
p6449
aS'490001'
p6450
aS'490010'
p6451
aS'490012'
p6452
aS'490024'
p6453
aS'490026'
p6454
aS'490036'
p6455
aS'490042'
p6456
aS'491001'
p6457
aS'491001'
p6458
aS'491001'
p6459
aS'491002'
p6460
aS'491002'
p6461
aS'491003'
p6462
aS'491004'
p6463
aS'491113'
p6464
aS'491222'
p6465
aS'491225'
p6466
aS'491227'
p6467
aS'491229'
p6468
aS'491230'
p6469
aS'491332'
p6470
aS'491336'
p6471
aS'491338'
p6472
aS'491340'
p6473
aS'491443'
p6474
aS'491445'
p6475
aS'491557'
p6476
aS'491559'
p6477
aS'491665'
p6478
aS'491771'
p6479
aS'491881'
p6480
aS'491888'
p6481
aS'491993'
p6482
aS'492001'
p6483
aS'492004'
p6484
aS'492007'
p6485
aS'492009'
p6486
aS'492015'
p6487
aS'492112'
p6488
aS'493101'
p6489
aS'493113'
p6490
aS'493116'
p6491
aS'493222'
p6492
aS'493228'
p6493
aS'493332'
p6494
aS'493344'
p6495
aS'493354'
p6496
aS'493445'
p6497
aS'493551'
p6498
aS'493559'
p6499
aS'493661'
p6500
aS'493776'
p6501
aS'493881'
p6502
aS'493889'
p6503
aS'493895'
p6504
aS'493992'
p6505
aS'494001'
p6506
aS'494005'
p6507
aS'494111'
p6508
aS'494115'
p6509
aS'494221'
p6510
aS'494223'
p6511
aS'494225'
p6512
aS'494227'
p6513
aS'494229'
p6514
aS'494331'
p6515
aS'494333'
p6516
aS'494335'
p6517
ag427
aS'494441'
p6518
aS'494445'
p6519
aS'494448'
p6520
aS'494449'
p6521
aS'494552'
p6522
aS'494554'
p6523
aS'494635'
p6524
aS'494665'
p6525
aS'494670'
p6526
aS'494775'
p6527
aS'494777'
p6528
aS'495684'
p6529
aS'496004'
p6530
aS'496107'
p6531
aS'496113'
p6532
aS'496116'
p6533
aS'496223'
p6534
aS'496225'
p6535
aS'496330'
p6536
aS'496334'
p6537
aS'496338'
p6538
aS'496445'
p6539
aS'496460'
p6540
aS'496554'
p6541
aS'496665'
p6542
aS'497001'
p6543
aS'497001'
p6544
aS'497111'
p6545
aS'497114'
p6546
aS'465686'
p6547
ag6547
aS'490001'
p6548
aS'490010'
p6549
aS'490012'
p6550
aS'490024'
p6551
aS'490026'
p6552
aS'490036'
p6553
aS'490042'
p6554
aS'491001'
p6555
aS'491002'
p6556
aS'491003'
p6557
aS'491004'
p6558
aS'491113'
p6559
aS'491222'
p6560
aS'491225'
p6561
aS'491227'
p6562
aS'491229'
p6563
aS'491230'
p6564
aS'491332'
p6565
aS'491336'
p6566
aS'491338'
p6567
aS'491340'
p6568
aS'491443'
p6569
aS'491445'
p6570
aS'491557'
p6571
aS'491559'
p6572
aS'491665'
p6573
aS'491771'
p6574
aS'491881'
p6575
aS'491888'
p6576
aS'491993'
p6577
aS'492001'
p6578
aS'492004'
p6579
aS'492007'
p6580
aS'492009'
p6581
aS'492015'
p6582
aS'492112'
p6583
aS'493101'
p6584
aS'493113'
p6585
aS'493116'
p6586
aS'493222'
p6587
aS'493228'
p6588
aS'493332'
p6589
aS'493344'
p6590
aS'493354'
p6591
aS'493445'
p6592
aS'493551'
p6593
aS'493559'
p6594
aS'493661'
p6595
aS'493776'
p6596
aS'493881'
p6597
aS'493889'
p6598
aS'493895'
p6599
aS'493992'
p6600
aS'494001'
p6601
aS'494005'
p6602
aS'494111'
p6603
aS'494115'
p6604
aS'494221'
p6605
aS'494223'
p6606
aS'494225'
p6607
aS'494227'
p6608
aS'494229'
p6609
aS'494331'
p6610
aS'494333'
p6611
aS'494335'
p6612
ag428
aS'494441'
p6613
aS'494445'
p6614
aS'494448'
p6615
aS'494449'
p6616
aS'494552'
p6617
aS'494554'
p6618
aS'494635'
p6619
aS'494665'
p6620
aS'494670'
p6621
aS'494775'
p6622
aS'494777'
p6623
aS'495684'
p6624
aS'496004'
p6625
aS'496107'
p6626
aS'496113'
p6627
aS'496116'
p6628
aS'496223'
p6629
aS'496225'
p6630
aS'496330'
p6631
aS'496334'
p6632
aS'496338'
p6633
aS'496445'
p6634
aS'496460'
p6635
aS'496554'
p6636
aS'496665'
p6637
aS'497001'
p6638
aS'497111'
p6639
aS'497114'
p6640
asS'Chamaraja Puram'
p6641
(lp6642
S'570004'
p6643
aS'570004'
p6644
asS'Crana'
p6645
(lp6646
S'6611'
p6647
aS'6611'
p6648
asS'Coruche'
p6649
(lp6650
S'3570-120'
p6651
aS'3570-120'
p6652
asS'Cleveland'
p6653
(lp6654
S'35049'
p6655
aS'37312'
p6656
aS'37320'
p6657
aS'44103'
p6658
aS'44105'
p6659
aS'44109'
p6660
aS'58424'
p6661
aS'74020'
p6662
aS'35049'
p6663
aS'38732'
p6664
aS'58424'
p6665
aS'44103'
p6666
aS'44105'
p6667
aS'44109'
p6668
aS'74020'
p6669
aS'37312'
p6670
aS'37320'
p6671
asS'Ch\xc3\xa9zard-St-Martin'
p6672
(lp6673
S'2054'
p6674
aS'2054'
p6675
asS'Canto da Grota'
p6676
(lp6677
S'9880-305'
p6678
aS'9880-305'
p6679
asS'Coffs Harbour'
p6680
(lp6681
S'2450'
p6682
aS'2450'
p6683
asS'Cetkovice'
p6684
(lp6685
S'679 38'
p6686
asS'C\xc3\xb4te-Nord/Anticosti (Schefferville)'
p6687
(lp6688
S'G0G'
p6689
aS'G0G'
p6690
asS'Cumberland'
p6691
(lp6692
S'K4C'
p6693
aS'K4C'
p6694
asS'Coslada'
p6695
(lp6696
S'28820'
p6697
aS'28820'
p6698
asS'Cruz do Redondo'
p6699
(lp6700
S'9930-205'
p6701
aS'9930-205'
p6702
asS'Cheznovice'
p6703
(lp6704
S'338 06'
p6705
aS'338 06'
p6706
asS'Canet De Mar'
p6707
(lp6708
g5271
ag5399
asS'Chrudim'
p6709
(lp6710
S'539 01'
p6711
aS'538 07'
p6712
ag3543
aS'538 07'
p6713
aS'538 43'
p6714
aS'539 44'
p6715
aS'538 34'
p6716
aS'538 63'
p6717
aS'539 43'
p6718
aS'539 45'
p6719
ag3808
aS'538 61'
p6720
aS'539 55'
p6721
aS'538 03'
p6722
aS'538 26'
p6723
aS'538 35'
p6724
aS'538 45'
p6725
aS'539 53'
p6726
aS'538 23'
p6727
aS'538 24'
p6728
aS'538 33'
p6729
aS'538 21'
p6730
aS'539 44'
p6731
ag309
ag447
ag1354
aS'537 01'
p6732
aS'537 01'
p6733
ag448
ag310
aS'538 03'
p6734
aS'538 03'
p6735
ag2898
aS'538 03'
p6736
aS'538 03'
p6737
aS'538 03'
p6738
ag5032
aS'538 03'
p6739
aS'538 03'
p6740
aS'538 07'
p6741
aS'538 07'
p6742
aS'538 07'
p6743
aS'538 07'
p6744
aS'538 07'
p6745
aS'538 07'
p6746
aS'538 07'
p6747
aS'538 07'
p6748
aS'538 21'
p6749
aS'538 21'
p6750
aS'538 21'
p6751
aS'538 21'
p6752
aS'538 21'
p6753
aS'538 21'
p6754
aS'538 21'
p6755
aS'538 21'
p6756
aS'538 21'
p6757
aS'538 21'
p6758
aS'538 25'
p6759
aS'538 25'
p6760
aS'538 25'
p6761
aS'538 25'
p6762
aS'538 25'
p6763
aS'538 25'
p6764
aS'538 25'
p6765
aS'538 25'
p6766
aS'538 25'
p6767
aS'538 25'
p6768
aS'538 25'
p6769
aS'538 25'
p6770
aS'538 25'
p6771
aS'538 43'
p6772
aS'538 43'
p6773
aS'538 43'
p6774
aS'538 43'
p6775
aS'538 43'
p6776
aS'538 43'
p6777
aS'538 43'
p6778
aS'538 43'
p6779
aS'538 51'
p6780
aS'538 51'
p6781
aS'538 51'
p6782
aS'538 51'
p6783
aS'538 51'
p6784
aS'538 54'
p6785
aS'538 54'
p6786
aS'538 54'
p6787
aS'538 54'
p6788
aS'538 54'
p6789
aS'538 54'
p6790
aS'538 62'
p6791
aS'538 62'
p6792
aS'538 62'
p6793
aS'538 62'
p6794
aS'538 63'
p6795
aS'751 31'
p6796
ag3809
aS'538 03'
p6797
aS'539 01'
p6798
ag6798
asS'Clarksburg'
p6799
(lp6800
S'20871'
p6801
aS'26301'
p6802
aS'43115'
p6803
aS'20871'
p6804
aS'43115'
p6805
aS'26301'
p6806
asS'Cobisa'
p6807
(lp6808
g5572
ag5759
asS'Chhodvadi'
p6809
(lp6810
S'362036'
p6811
aS'362036'
p6812
asS'Central Falls'
p6813
(lp6814
S'02863'
p6815
aS'02863'
p6816
asS'Cascadia'
p6817
(lp6818
S'97329'
p6819
aS'97329'
p6820
asS'Csorv\xc3\xa1s'
p6821
(lp6822
S'5920'
p6823
aS'5920'
p6824
asS'Cap-de-la- Madeleine West'
p6825
(lp6826
S'G8W'
p6827
aS'G8W'
p6828
asS'Cordova'
p6829
(lp6830
S'29039'
p6831
aS'68330'
p6832
aS'99574'
p6833
aS'99574'
p6834
aS'68330'
p6835
aS'29039'
p6836
asS'Cancela'
p6837
(lp6838
S'9980-010'
p6839
ag6147
ag6148
ag6149
ag6150
ag6151
ag6152
ag6153
ag6154
ag6155
ag6156
aS'9980-060'
p6840
ag6157
aS'9980-010'
p6841
ag6841
ag6158
ag6159
ag6160
ag6161
ag6162
ag6163
ag6164
ag6165
ag6166
ag6167
aS'9980-060'
p6842
ag6168
asS'Chrudichromy'
p6843
(lp6844
S'680 01'
p6845
aS'680 01'
p6846
asS'Chomedey Northwest'
p6847
(lp6848
S'H7T'
p6849
aS'H7T'
p6850
asS'Cabanillas Del Campo'
p6851
(lp6852
g5523
ag5742
asS'Colman'
p6853
(lp6854
S'57017'
p6855
aS'57017'
p6856
asS'Clairton'
p6857
(lp6858
S'15025'
p6859
aS'15025'
p6860
asS'Coldbrook'
p6861
(lp6862
S'B4R'
p6863
aS'B4R'
p6864
aS'B4R'
p6865
asS'Chaura Maidan Simla'
p6866
(lp6867
S'171004'
p6868
aS'171004'
p6869
asS'Charlestown'
p6870
(lp6871
S'02813'
p6872
aS'03603'
p6873
aS'47111'
p6874
aS'47111'
p6875
aS'03603'
p6876
aS'02813'
p6877
asS'Cobe\xc3\xb1a'
p6878
(lp6879
S'28863'
p6880
aS'28863'
p6881
asS'Callao Salvaje'
p6882
(lp6883
g1120
ag1195
asS'Cetechovice'
p6884
(lp6885
S'768 02'
p6886
asS'Campbellton'
p6887
(lp6888
S'E3N'
p6889
aS'E3N'
p6890
aS'E3N'
p6891
asS'Colony'
p6892
(lp6893
S'73021'
p6894
aS'73021'
p6895
asS'Chomoutova Lhota'
p6896
(lp6897
S'391 33'
p6898
asS'Cserh\xc3\xa1thal\xc3\xa1p'
p6899
(lp6900
S'2694'
p6901
aS'2694'
p6902
asS'Choli'
p6903
(lp6904
S'451223'
p6905
aS'451223'
p6906
asS'Champad'
p6907
(lp6908
S'670694'
p6909
aS'670694'
p6910
asS'Csit\xc3\xa1r'
p6911
(lp6912
S'2673'
p6913
aS'2673'
p6914
asS'Champai'
p6915
(lp6916
S'796321'
p6917
aS'796321'
p6918
asS'Calangute'
p6919
(lp6920
S'403516'
p6921
aS'403519'
p6922
aS'403401'
p6923
aS'403702'
p6924
aS'403001'
p6925
aS'403001'
p6926
aS'403001'
p6927
aS'403103'
p6928
aS'403106'
p6929
ag3322
aS'403112'
p6930
aS'403402'
p6931
aS'403404'
p6932
aS'403407'
p6933
aS'403505'
p6934
aS'403508'
p6935
aS'403517'
p6936
aS'403521'
p6937
aS'403526'
p6938
aS'403601'
p6939
aS'403603'
p6940
ag5047
ag3819
aS'403716'
p6941
aS'403720'
p6942
aS'403724'
p6943
aS'403725'
p6944
aS'403727'
p6945
aS'403730'
p6946
aS'403802'
p6947
aS'403803'
p6948
aS'403004'
p6949
ag4
aS'403108'
p6950
aS'403501'
p6951
aS'403503'
p6952
aS'403506'
p6953
aS'403512'
p6954
aS'403602'
p6955
aS'403701'
p6956
aS'403705'
p6957
ag3330
aS'403713'
p6958
ag3576
aS'403723'
p6959
aS'403801'
p6960
aS'403001'
p6961
aS'403004'
p6962
ag5
aS'403103'
p6963
aS'403106'
p6964
aS'403108'
p6965
ag3323
aS'403112'
p6966
aS'403401'
p6967
aS'403402'
p6968
aS'403404'
p6969
aS'403407'
p6970
aS'403501'
p6971
aS'403503'
p6972
aS'403505'
p6973
aS'403506'
p6974
aS'403508'
p6975
aS'403512'
p6976
aS'403516'
p6977
ag6977
aS'403517'
p6978
aS'403519'
p6979
aS'403521'
p6980
aS'403526'
p6981
aS'403601'
p6982
aS'403602'
p6983
aS'403603'
p6984
aS'403701'
p6985
aS'403702'
p6986
aS'403705'
p6987
ag5048
ag3331
ag3820
aS'403713'
p6988
aS'403716'
p6989
ag3578
aS'403720'
p6990
aS'403723'
p6991
aS'403724'
p6992
aS'403725'
p6993
aS'403727'
p6994
aS'403730'
p6995
aS'403801'
p6996
aS'403802'
p6997
aS'403803'
p6998
asS'Chakeri Ad'
p6999
(lp7000
S'208003'
p7001
aS'208003'
p7002
asS'Cuenca'
p7003
(lp7004
g5501
ag5502
ag5503
ag5705
ag5716
ag5723
asS'Cedarvale'
p7005
(lp7006
S'87009'
p7007
aS'87009'
p7008
asS'Caddo Gap'
p7009
(lp7010
S'71935'
p7011
aS'71935'
p7012
asS'Calheta de Nesquim'
p7013
(lp7014
S'9930-022'
p7015
aS'9930-024'
p7016
aS'9930-026'
p7017
aS'9930-028'
p7018
aS'9930-030'
p7019
aS'9930-022'
p7020
aS'9930-024'
p7021
aS'9930-026'
p7022
aS'9930-028'
p7023
aS'9930-030'
p7024
asS'Cullera'
p7025
(lp7026
g4314
ag4376
asS'Candelario'
p7027
(lp7028
g5556
ag5664
asS'Central Police Lines'
p7029
(lp7030
S'500013'
p7031
aS'500013'
p7032
asS'California'
p7033
(lp7034
S'90002'
p7035
aS'90004'
p7036
ag7036
aS'90005'
p7037
ag7037
aS'90008'
p7038
ag7038
aS'90010'
p7039
ag7039
aS'90012'
p7040
ag7040
aS'90013'
p7041
ag7041
aS'90015'
p7042
ag7042
aS'90018'
p7043
ag7043
aS'90019'
p7044
ag7044
aS'90022'
p7045
ag7045
aS'90024'
p7046
ag7046
aS'90026'
p7047
ag7047
aS'90028'
p7048
ag7048
aS'90029'
p7049
ag7049
aS'90032'
p7050
ag7050
aS'90034'
p7051
ag7051
aS'90036'
p7052
ag7052
aS'90037'
p7053
ag7053
aS'90039'
p7054
ag7054
aS'90042'
p7055
ag7055
aS'90044'
p7056
ag7056
aS'90045'
p7057
ag7057
aS'90048'
p7058
ag7058
aS'90050'
p7059
ag7059
aS'90052'
p7060
ag7060
aS'90054'
p7061
ag7061
aS'90056'
p7062
ag7062
aS'90057'
p7063
ag7063
aS'90059'
p7064
ag7064
aS'90061'
p7065
ag7065
aS'90063'
p7066
ag7066
aS'90066'
p7067
ag7067
aS'90067'
p7068
ag7068
aS'90069'
p7069
aS'90072'
p7070
ag7070
aS'90074'
p7071
ag7071
aS'90076'
p7072
ag7072
aS'90079'
p7073
ag7073
aS'90081'
p7074
ag7074
aS'90083'
p7075
ag7075
aS'90086'
p7076
ag7076
aS'90088'
p7077
ag7077
aS'90091'
p7078
ag7078
aS'90094'
p7079
ag7079
aS'90096'
p7080
ag7080
aS'90102'
p7081
ag7081
aS'90185'
p7082
ag7082
aS'90201'
p7083
aS'90209'
p7084
aS'90210'
p7085
aS'90213'
p7086
ag241
ag242
aS'90230'
p7087
aS'90232'
p7088
aS'90239'
p7089
aS'90241'
p7090
aS'90245'
p7091
aS'90248'
p7092
aS'90250'
p7093
aS'90254'
p7094
aS'90260'
p7095
aS'90262'
p7096
aS'90264'
p7097
aS'90266'
p7098
aS'90274'
p7099
aS'90278'
p7100
aS'90290'
p7101
aS'90292'
p7102
aS'90293'
p7103
aS'90295'
p7104
aS'90301'
p7105
aS'90303'
p7106
aS'90306'
p7107
aS'90308'
p7108
aS'90403'
p7109
aS'90405'
p7110
aS'90620'
p7111
aS'90804'
p7112
aS'91105'
p7113
aS'91505'
p7114
ag2583
ag2584
aS'91977'
p7115
ag976
aS'92020'
p7116
aS'92026'
p7117
aS'92037'
p7118
aS'92056'
p7119
aS'92083'
p7120
aS'92103'
p7121
aS'92109'
p7122
aS'92121'
p7123
aS'93940'
p7124
aS'94102'
p7125
aS'94105'
p7126
aS'94109'
p7127
aS'95814'
p7128
aS'90210'
p7129
ag2585
ag2586
aS'91977'
p7130
ag977
aS'92020'
p7131
aS'92026'
p7132
aS'92037'
p7133
aS'92056'
p7134
aS'92083'
p7135
aS'94102'
p7136
aS'90002'
p7137
ag7137
aS'90004'
p7138
ag7138
aS'90012'
p7139
ag7139
aS'90018'
p7140
ag7140
aS'90024'
p7141
ag7141
aS'90026'
p7142
ag7142
aS'90029'
p7143
ag7143
aS'90034'
p7144
ag7144
aS'90036'
p7145
ag7145
aS'90039'
p7146
ag7146
aS'90045'
p7147
ag7147
aS'90048'
p7148
ag7148
aS'90057'
p7149
ag7149
aS'90067'
p7150
ag7150
aS'90201'
p7151
aS'90230'
p7152
aS'90292'
p7153
aS'90403'
p7154
aS'90405'
p7155
aS'90620'
p7156
aS'90804'
p7157
aS'91105'
p7158
aS'91505'
p7159
aS'92103'
p7160
aS'92109'
p7161
aS'92121'
p7162
aS'93940'
p7163
aS'94105'
p7164
aS'94109'
p7165
aS'95814'
p7166
aS'90005'
p7167
ag7167
aS'90008'
p7168
ag7168
aS'90010'
p7169
ag7169
aS'90013'
p7170
ag7170
aS'90015'
p7171
ag7171
aS'90019'
p7172
ag7172
aS'90022'
p7173
ag7173
aS'90028'
p7174
ag7174
aS'90032'
p7175
ag7175
aS'90037'
p7176
ag7176
aS'90042'
p7177
ag7177
aS'90044'
p7178
ag7178
aS'90050'
p7179
ag7179
aS'90052'
p7180
ag7180
aS'90054'
p7181
ag7181
aS'90056'
p7182
ag7182
aS'90059'
p7183
ag7183
aS'90061'
p7184
ag7184
aS'90063'
p7185
ag7185
aS'90066'
p7186
ag7186
aS'90069'
p7187
aS'90072'
p7188
ag7188
aS'90074'
p7189
ag7189
aS'90076'
p7190
ag7190
aS'90079'
p7191
ag7191
aS'90081'
p7192
ag7192
aS'90083'
p7193
ag7193
aS'90086'
p7194
ag7194
aS'90088'
p7195
ag7195
aS'90091'
p7196
ag7196
aS'90094'
p7197
ag7197
aS'90096'
p7198
ag7198
aS'90102'
p7199
ag7199
aS'90185'
p7200
ag7200
aS'90209'
p7201
aS'90213'
p7202
ag243
ag244
aS'90232'
p7203
aS'90239'
p7204
aS'90241'
p7205
aS'90245'
p7206
aS'90248'
p7207
aS'90250'
p7208
aS'90254'
p7209
aS'90260'
p7210
aS'90262'
p7211
aS'90264'
p7212
aS'90266'
p7213
aS'90270'
p7214
aS'90274'
p7215
aS'90278'
p7216
aS'90290'
p7217
aS'90293'
p7218
aS'90295'
p7219
aS'90301'
p7220
aS'90303'
p7221
aS'90306'
p7222
aS'90308'
p7223
asS'Coy'
p7224
(lp7225
S'30812'
p7226
aS'30812'
p7227
asS'Chocorua'
p7228
(lp7229
S'03817'
p7230
aS'03817'
p7231
asS'Clive'
p7232
(lp7233
S'50325'
p7234
aS'50325'
p7235
asS'Chr\xc3\xa1\xc5\xa1\xc5\xa5ovice'
p7236
(lp7237
S'331 41'
p7238
asS'Courtland'
p7239
(lp7240
S'38620'
p7241
aS'38620'
p7242
asS'Clarenville'
p7243
(lp7244
S'A5A'
p7245
aS'A5A'
p7246
asS'Campos Del Rio'
p7247
(lp7248
S'30191'
p7249
aS'30191'
p7250
asS'Coaling'
p7251
(lp7252
S'35449'
p7253
aS'35449'
p7254
asS'Chlaponice'
p7255
(lp7256
S'397 01'
p7257
asS'Carmen'
p7258
(lp7259
S'83462'
p7260
aS'83462'
p7261
asS'Chengalpattu H O'
p7262
(lp7263
S'603001'
p7264
aS'603001'
p7265
asS'Carmel'
p7266
(lp7267
S'46032'
p7268
aS'46032'
p7269
asS'Callosa De Segura'
p7270
(lp7271
g4259
ag4406
asS'Chval\xc5\xa1ovice'
p7272
(lp7273
S'384 73'
p7274
asS'Calella'
p7275
(lp7276
g5272
ag5343
asS'Cartierville Northeast'
p7277
(lp7278
S'H3M'
p7279
aS'H3M'
p7280
asS'Chl\xc3\xadstov'
p7281
(lp7282
g2166
aS'675 22'
p7283
asS'Csehb\xc3\xa1nya'
p7284
(lp7285
S'8445'
p7286
aS'8445'
p7287
asS'Cancelas'
p7288
(lp7289
S'9900-327'
p7290
aS'9900-327'
p7291
asS'Colle Brincioni'
p7292
(lp7293
S'67100'
p7294
aS'67100'
p7295
asS'Center Line'
p7296
(lp7297
S'48015'
p7298
aS'48015'
p7299
asS'Cabot'
p7300
(lp7301
S'05647'
p7302
aS'16023'
p7303
aS'16023'
p7304
aS'05647'
p7305
asS'Clinton Township'
p7306
(lp7307
S'48035'
p7308
aS'48035'
p7309
asS'Cabin John'
p7310
(lp7311
S'20818'
p7312
aS'20818'
p7313
asS'Cheraw'
p7314
(lp7315
S'29520'
p7316
aS'29520'
p7317
asS'Cliffside Park'
p7318
(lp7319
S'07010'
p7320
aS'07010'
p7321
asS'Cedar Bluffs'
p7322
(lp7323
S'68015'
p7324
aS'68015'
p7325
asS'Corvallis'
p7326
(lp7327
S'97333'
p7328
aS'97333'
p7329
asS'Cantalejo'
p7330
(lp7331
g5563
ag5670
asS'Canso region (Havre Boucher)'
p7332
(lp7333
S'B0H'
p7334
aS'B0H'
p7335
asS'Chuderovec'
p7336
(lp7337
S'400 11'
p7338
asS'Cauco'
p7339
(lp7340
S'6546'
p7341
aS'6546'
p7342
asS'Caldeira'
p7343
(lp7344
S'5150-085'
p7345
aS'5150-085'
p7346
asS'Campo de Cima'
p7347
(lp7348
S'9400-020'
p7349
aS'9400-020'
p7350
asS'Chiang Mai'
p7351
(lp7352
S'50000'
p7353
aS'50130'
p7354
aS'50140'
p7355
aS'50160'
p7356
ag2913
aS'50180'
p7357
aS'50210'
p7358
aS'50260'
p7359
aS'50320'
p7360
aS'50000'
p7361
ag7361
aS'50130'
p7362
aS'50140'
p7363
aS'50160'
p7364
ag2914
aS'50210'
p7365
aS'50230'
p7366
aS'50260'
p7367
aS'50280'
p7368
aS'50320'
p7369
aS'50360'
p7370
aS'50180'
p7371
asS'Ciappaira'
p7372
(lp7373
S'98000'
p7374
asS'Conyers'
p7375
(lp7376
S'30012'
p7377
aS'30013'
p7378
aS'30094'
p7379
aS'30013'
p7380
aS'30012'
p7381
aS'30094'
p7382
asS'Cs\xc3\xa1nig'
p7383
(lp7384
S'9654'
p7385
aS'9654'
p7386
asS'Cava'
p7387
(lp7388
S'47100'
p7389
aS'47100'
p7390
asS'Carrapatosa'
p7391
(lp7392
S'5140-153'
p7393
aS'5140-153'
p7394
asS'Clarion'
p7395
(lp7396
S'16214'
p7397
aS'16214'
p7398
asS'Cotkytle'
p7399
(lp7400
S'561 32'
p7401
asS'Colby'
p7402
(lp7403
S'67701'
p7404
aS'67701'
p7405
asS'Chandankiari'
p7406
(lp7407
S'828134'
p7408
aS'828134'
p7409
asS'Charkhi Dadri Factory'
p7410
(lp7411
S'123306'
p7412
asS'Culpeper'
p7413
(lp7414
S'22701'
p7415
aS'22701'
p7416
asS'Castellote'
p7417
(lp7418
S'44560'
p7419
aS'44560'
p7420
asS'Clugin'
p7421
(lp7422
S'7442'
p7423
aS'7442'
p7424
asS'Cherrabazar'
p7425
(lp7426
S'793111'
p7427
aS'793111'
p7428
asS'Cowan'
p7429
(lp7430
S'2081'
p7431
aS'2081'
p7432
asS'Custer'
p7433
(lp7434
S'40115'
p7435
aS'57730'
p7436
aS'59024'
p7437
aS'98240'
p7438
aS'40115'
p7439
aS'59024'
p7440
aS'57730'
p7441
aS'98240'
p7442
asS'Chaushala'
p7443
(lp7444
S'124527'
p7445
aS'124527'
p7446
asS'Champaign'
p7447
(lp7448
S'61821'
p7449
aS'61821'
p7450
asS'Chichola'
p7451
(lp7452
g6476
ag6571
asS'Chachiot'
p7453
(lp7454
S'175028'
p7455
aS'175028'
p7456
asS'Circus Avenue'
p7457
(lp7458
S'700017'
p7459
aS'700017'
p7460
asS'Chval\xc3\xadkovice'
p7461
(lp7462
S'747 06'
p7463
asS'Calas De Mallorca'
p7464
(lp7465
S'07689'
p7466
asS'Charlottenberg'
p7467
(lp7468
S'67331'
p7469
aS'67332'
p7470
aS'67331'
p7471
aS'67332'
p7472
asS'Chebeague Island'
p7473
(lp7474
S'04017'
p7475
aS'04017'
p7476
asS'Cochiti Lake'
p7477
(lp7478
S'87083'
p7479
aS'87083'
p7480
asS'Campbell Town'
p7481
(lp7482
S'7210'
p7483
aS'7210'
p7484
asS'Cha-Am'
p7485
(lp7486
S'76120'
p7487
aS'76120'
p7488
asS'Champawat'
p7489
(lp7490
S'262523'
p7491
aS'262523'
p7492
asS'Chlustina'
p7493
(lp7494
S'267 51'
p7495
asS'Chot\xc4\x9bbudice'
p7496
(lp7497
S'441 01'
p7498
asS'Chexbres'
p7499
(lp7500
S'1071'
p7501
aS'1071'
p7502
asS'Coal Center'
p7503
(lp7504
S'15423'
p7505
aS'15423'
p7506
asS'Cala Pi'
p7507
(lp7508
S'07639'
p7509
aS'07639'
p7510
asS'Csengersima'
p7511
(lp7512
S'4743'
p7513
aS'4743'
p7514
asS'Collinston'
p7515
(lp7516
S'84306'
p7517
aS'84306'
p7518
asS'Cahecho'
p7519
(lp7520
g2763
asS'Canfranc'
p7521
(lp7522
S'22880'
p7523
aS'22880'
p7524
asS'Chomedey East'
p7525
(lp7526
S'H7V'
p7527
aS'H7V'
p7528
asS'Cadempino'
p7529
(lp7530
S'6814'
p7531
aS'6814'
p7532
asS'Canon City'
p7533
(lp7534
g4567
ag4636
asS'Cs\xc3\xa1rdasz\xc3\xa1ll\xc3\xa1s'
p7535
(lp7536
S'5621'
p7537
aS'5621'
p7538
asS'Chirkunda'
p7539
(lp7540
S'828202'
p7541
aS'828202'
p7542
asS'Comstock'
p7543
(lp7544
S'56525'
p7545
aS'56525'
p7546
asS'Charnwood'
p7547
(lp7548
S'2615'
p7549
aS'2615'
p7550
asS'Chlupice'
p7551
(lp7552
S'671 71'
p7553
asS'C\xc3\xadsa\xc5\x99sk\xc3\xa1 Kuchyn\xc4\x9b'
p7554
(lp7555
S'250 88'
p7556
asS'Chvojnov'
p7557
(lp7558
S'393 01'
p7559
asS'Charlesbourg North'
p7560
(lp7561
S'G2L'
p7562
aS'G2L'
p7563
asS'Clements'
p7564
(lp7565
S'20624'
p7566
aS'20624'
p7567
asS'Casal de Santo Amaro'
p7568
(lp7569
S'2000-338'
p7570
aS'2000-338'
p7571
asS'Csongr\xc3\xa1d'
p7572
(lp7573
S'6720'
p7574
aS'6600'
p7575
aS'6721'
p7576
ag7576
aS'6723'
p7577
ag7577
aS'6726'
p7578
ag7578
aS'6800'
p7579
aS'6900'
p7580
aS'6771'
p7581
ag7581
aS'6727'
p7582
ag7582
aS'6782'
p7583
aS'6630'
p7584
aS'6636'
p7585
aS'6750'
p7586
aS'6758'
p7587
aS'6763'
p7588
aS'6781'
p7589
aS'6786'
p7590
aS'6801'
p7591
aS'6933'
p7592
aS'6710'
p7593
ag7593
aS'6787'
p7594
aS'6622'
p7595
ag3674
aS'6745'
p7596
ag7596
aS'6756'
p7597
aS'6765'
p7598
aS'6769'
p7599
aS'6793'
p7600
aS'6795'
p7601
ag3338
aS'6916'
p7602
aS'6922'
p7603
aS'6641'
p7604
ag7604
aS'6646'
p7605
aS'6740'
p7606
ag7606
aS'6755'
p7607
aS'6774'
p7608
aS'6912'
p7609
aS'6917'
p7610
aS'6932'
p7611
aS'6806'
p7612
aS'6704'
p7613
ag7613
aS'6747'
p7614
ag7614
aS'6705'
p7615
ag7615
aS'6708'
p7616
ag7616
aS'6717'
p7617
ag7617
aS'6719'
p7618
ag7618
aS'6742'
p7619
ag7619
aS'6602'
p7620
ag3675
aS'6757'
p7621
aS'6803'
p7622
aS'6748'
p7623
ag7623
aS'6804'
p7624
aS'6791'
p7625
aS'6808'
p7626
aS'6602'
p7627
aS'6622'
p7628
aS'6630'
p7629
aS'6641'
p7630
ag7630
ag3676
ag3677
aS'6704'
p7631
ag7631
aS'6705'
p7632
ag7632
aS'6726'
p7633
ag7633
aS'6740'
p7634
ag7634
aS'6747'
p7635
ag7635
aS'6750'
p7636
aS'6755'
p7637
aS'6756'
p7638
aS'6757'
p7639
aS'6758'
p7640
aS'6765'
p7641
aS'6769'
p7642
aS'6782'
p7643
aS'6786'
p7644
aS'6793'
p7645
aS'6795'
p7646
aS'6801'
p7647
aS'6803'
p7648
aS'6804'
p7649
aS'6806'
p7650
aS'6808'
p7651
ag3339
aS'6916'
p7652
aS'6922'
p7653
asS'Chotim\xc4\x9b\xc5\x99'
p7654
(lp7655
S'410 02'
p7656
aS'410 02'
p7657
asS'Cama'
p7658
(lp7659
S'6557'
p7660
aS'6557'
p7661
asS'Clarens'
p7662
(lp7663
S'1815'
p7664
aS'1815'
p7665
asS'Celle'
p7666
(lp7667
S'29223'
p7668
aS'29223'
p7669
asS'Contemplazione'
p7670
(lp7671
S'98168'
p7672
aS'98168'
p7673
asS'Cabramatta'
p7674
(lp7675
S'2166'
p7676
aS'2166'
p7677
asS'Chot\xc3\xadkov'
p7678
(lp7679
S'330 17'
p7680
asS'Cottesloe'
p7681
(lp7682
S'6011'
p7683
aS'6011'
p7684
asS'Central Vehicle Depot'
p7685
(lp7686
S'600055'
p7687
aS'600055'
p7688
asS'Calatorao'
p7689
(lp7690
S'50280'
p7691
aS'50280'
p7692
asS'Ch\xc3\xbdstovice'
p7693
(lp7694
S'394 22'
p7695
asS'Central Foothills (Sundre)'
p7696
(lp7697
S'T0M'
p7698
aS'T0M'
p7699
asS'Clontarf'
p7700
(lp7701
S'4019'
p7702
asS'Comox'
p7703
(lp7704
S'V9M'
p7705
aS'V9M'
p7706
asS'Cureglia'
p7707
(lp7708
S'6944'
p7709
aS'6944'
p7710
asS'Ch\xc3\xbd\xc5\xa1\xc5\xa5'
p7711
(lp7712
S'533 16'
p7713
asS'Calgary (Symons Valley)'
p7714
(lp7715
S'T3P'
p7716
aS'T3P'
p7717
asS'Clay'
p7718
(lp7719
S'25043'
p7720
aS'35048'
p7721
aS'35048'
p7722
aS'25043'
p7723
asS'Costa D En Blanes'
p7724
(lp7725
S'07181'
p7726
asS'Charhi'
p7727
(lp7728
S'825336'
p7729
aS'825336'
p7730
asS'Cobequid Bay north shore (Springhill)'
p7731
(lp7732
S'B0M'
p7733
aS'B0M'
p7734
asS'Castilblanco'
p7735
(lp7736
S'06680'
p7737
aS'06680'
p7738
asS'C\xc3\xadrkvice'
p7739
(lp7740
S'285 33'
p7741
aS'403 02'
p7742
asS'Consell'
p7743
(lp7744
S'07330'
p7745
aS'07330'
p7746
asS'Chhatra Bazar'
p7747
(lp7748
S'753012'
p7749
aS'753012'
p7750
asS'Cruz do Bairro'
p7751
(lp7752
S'9880-311'
p7753
aS'9880-311'
p7754
asS'C\xc3\xadsa\xc5\x99ov'
p7755
(lp7756
S'751 03'
p7757
asS'Castelhana'
p7758
(lp7759
S'9580-307'
p7760
aS'9580-307'
p7761
asS'Caba\xc3\xb1aquinta'
p7762
(lp7763
S'33686'
p7764
aS'33686'
p7765
asS'Caldwell'
p7766
(lp7767
S'83605'
p7768
aS'83606'
p7769
aS'83607'
p7770
aS'83605'
p7771
aS'83607'
p7772
aS'83606'
p7773
asS'Capelo'
p7774
(lp7775
S'9900-302'
p7776
aS'9900-302'
p7777
asS'Colorado City'
p7778
(lp7779
S'86021'
p7780
aS'86021'
p7781
asS'Chot\xc3\xbd\xc4\x8dany'
p7782
(lp7783
S'373 62'
p7784
asS'Charv\xc3\xa1ty'
p7785
(lp7786
S'783 75'
p7787
asS'Capalaba'
p7788
(lp7789
S'4157'
p7790
aS'4157'
p7791
asS'Chroustovice'
p7792
(lp7793
g6717
asS'Cervo'
p7794
(lp7795
S'27891'
p7796
aS'27891'
p7797
asS'Cerva'
p7798
(lp7799
S'4870-042'
p7800
aS'4870-042'
p7801
asS'Calzada De Calatrava'
p7802
(lp7803
g5493
ag5777
asS'Centerville'
p7804
(lp7805
S'37033'
p7806
aS'63633'
p7807
aS'66014'
p7808
aS'66014'
p7809
aS'63633'
p7810
aS'37033'
p7811
asS'Csikv\xc3\xa1nd'
p7812
(lp7813
S'8534'
p7814
aS'8534'
p7815
asS'Chillicothe'
p7816
(lp7817
S'64601'
p7818
aS'64601'
p7819
asS'Clemmons'
p7820
(lp7821
S'27012'
p7822
ag1453
aS'27018'
p7823
aS'27021'
p7824
aS'27028'
p7825
aS'27043'
p7826
aS'27051'
p7827
aS'27055'
p7828
aS'27103'
p7829
aS'27105'
p7830
aS'27107'
p7831
aS'27201'
p7832
aS'27208'
p7833
aS'27215'
p7834
aS'27217'
p7835
ag4062
aS'27243'
p7836
aS'27249'
p7837
aS'27253'
p7838
aS'27258'
p7839
aS'27262'
p7840
aS'27265'
p7841
aS'27282'
p7842
aS'27284'
p7843
aS'27292'
p7844
aS'27295'
p7845
aS'27302'
p7846
aS'27313'
p7847
aS'27317'
p7848
aS'27330'
p7849
aS'27344'
p7850
aS'27358'
p7851
aS'27360'
p7852
aS'27401'
p7853
aS'27405'
p7854
aS'27407'
p7855
aS'27409'
p7856
aS'27455'
p7857
aS'27504'
p7858
ag5811
ag3868
ag1848
aS'27526'
p7859
aS'27534'
p7860
aS'27540'
p7861
aS'27549'
p7862
aS'27565'
p7863
aS'27573'
p7864
aS'27577'
p7865
aS'27596'
p7866
aS'27603'
p7867
aS'27606'
p7868
aS'27609'
p7869
aS'27612'
p7870
aS'27615'
p7871
aS'27703'
p7872
aS'27707'
p7873
aS'27802'
p7874
aS'27806'
p7875
aS'27808'
p7876
aS'27812'
p7877
aS'27829'
p7878
aS'27834'
p7879
aS'27870'
p7880
aS'27889'
p7881
aS'27909'
p7882
aS'27932'
p7883
aS'27954'
p7884
aS'28001'
p7885
aS'28016'
p7886
ag3371
ag3480
ag5185
aS'28034'
p7887
aS'28037'
p7888
aS'28041'
p7889
aS'28053'
p7890
aS'28056'
p7891
aS'28071'
p7892
aS'28075'
p7893
aS'28079'
p7894
aS'28082'
p7895
aS'28086'
p7896
aS'28092'
p7897
aS'28093'
p7898
aS'28098'
p7899
aS'28105'
p7900
aS'28107'
p7901
aS'28111'
p7902
aS'28115'
p7903
aS'28130'
p7904
aS'28137'
p7905
aS'28144'
p7906
aS'28146'
p7907
aS'28159'
p7908
aS'28166'
p7909
ag255
ag256
ag259
aS'28092'
p7910
aS'27012'
p7911
ag7911
ag1454
aS'27018'
p7912
aS'27021'
p7913
aS'27028'
p7914
aS'27043'
p7915
aS'27051'
p7916
aS'27055'
p7917
aS'27103'
p7918
aS'27105'
p7919
aS'27107'
p7920
aS'27201'
p7921
aS'27208'
p7922
aS'27215'
p7923
aS'27217'
p7924
ag4063
aS'27243'
p7925
aS'27249'
p7926
aS'27253'
p7927
aS'27258'
p7928
aS'27262'
p7929
aS'27265'
p7930
aS'27282'
p7931
aS'27284'
p7932
aS'27292'
p7933
aS'27295'
p7934
aS'27302'
p7935
aS'27313'
p7936
aS'27317'
p7937
aS'27330'
p7938
aS'27344'
p7939
aS'27358'
p7940
aS'27360'
p7941
aS'27401'
p7942
aS'27405'
p7943
aS'27407'
p7944
aS'27409'
p7945
aS'27455'
p7946
aS'27504'
p7947
ag5812
ag3869
ag1851
aS'27526'
p7948
aS'27534'
p7949
aS'27540'
p7950
aS'27549'
p7951
aS'27565'
p7952
aS'27573'
p7953
aS'27577'
p7954
aS'27596'
p7955
aS'27603'
p7956
aS'27606'
p7957
aS'27609'
p7958
aS'27612'
p7959
aS'27615'
p7960
aS'27703'
p7961
aS'27707'
p7962
aS'27802'
p7963
aS'27806'
p7964
aS'27808'
p7965
aS'27812'
p7966
aS'27829'
p7967
aS'27834'
p7968
aS'27870'
p7969
aS'27889'
p7970
aS'27909'
p7971
aS'27932'
p7972
aS'27954'
p7973
aS'28001'
p7974
aS'28016'
p7975
ag3372
ag3481
ag5187
aS'28034'
p7976
aS'28037'
p7977
aS'28041'
p7978
aS'28053'
p7979
aS'28056'
p7980
aS'28071'
p7981
aS'28075'
p7982
aS'28079'
p7983
aS'28082'
p7984
aS'28086'
p7985
aS'28093'
p7986
aS'28098'
p7987
aS'28105'
p7988
aS'28107'
p7989
aS'28111'
p7990
aS'28115'
p7991
aS'28120'
p7992
aS'28130'
p7993
aS'28137'
p7994
aS'28144'
p7995
aS'28146'
p7996
aS'28159'
p7997
aS'28166'
p7998
ag260
ag261
asS'Coraopolis'
p7999
(lp8000
S'15108'
p8001
aS'15108'
p8002
asS'Chakra Nagar'
p8003
(lp8004
S'206125'
p8005
aS'206125'
p8006
asS'Coleja'
p8007
(lp8008
S'5140-231'
p8009
aS'5140-231'
p8010
asS'C\xc3\xa1ceres'
p8011
(lp8012
S'10002'
p8013
aS'10003'
p8014
aS'10004'
p8015
aS'10005'
p8016
aS'10002'
p8017
aS'10003'
p8018
aS'10005'
p8019
aS'10004'
p8020
asS'Cuba'
p8021
(lp8022
S'87013'
p8023
aS'87013'
p8024
asS'Casuarina'
p8025
(lp8026
S'0810'
p8027
aS'0811'
p8028
aS'0811'
p8029
asS'Coalville'
p8030
(lp8031
S'84017'
p8032
aS'84017'
p8033
asS'Cassa De La Selva'
p8034
(lp8035
g5298
ag5351
asS'Cedrillas'
p8036
(lp8037
S'44147'
p8038
aS'44147'
p8039
asS'Ch\xc3\xaane-Bougeries'
p8040
(lp8041
S'1224'
p8042
asS'Cihuri'
p8043
(lp8044
S'26210'
p8045
aS'26210'
p8046
asS'Cala Bona'
p8047
(lp8048
S'07559'
p8049
aS'07559'
p8050
asS'Catanzaro Sala'
p8051
(lp8052
g1813
ag1833
asS'Cloquet'
p8053
(lp8054
S'55720'
p8055
aS'55720'
p8056
asS'Castello'
p8057
(lp8058
S'50141'
p8059
aS'50141'
p8060
asS'Campo (Blenio)'
p8061
(lp8062
S'6720'
p8063
aS'6720'
p8064
asS'Cobreces'
p8065
(lp8066
g2626
ag2722
asS'Cogolludo'
p8067
(lp8068
g5527
ag5791
asS'Campbellsburg'
p8069
(lp8070
S'40011'
p8071
aS'40011'
p8072
asS'Cs\xc3\xb6de'
p8073
(lp8074
S'8999'
p8075
aS'8999'
p8076
asS'Chesi\xc3\xa8res'
p8077
(lp8078
S'1885'
p8079
aS'1885'
p8080
asS'Chai Prakarn'
p8081
(lp8082
g7360
ag7369
asS'Candelaria'
p8083
(lp8084
g1110
ag1112
ag1170
ag1219
asS'Chillaron De Cuenca'
p8085
(lp8086
g5505
ag5782
asS'Chrome\xc4\x8d'
p8087
(lp8088
S'789 01'
p8089
aS'789 01'
p8090
asS'Chroboly'
p8091
(lp8092
S'384 04'
p8093
asS'Chandragiri Edso'
p8094
(lp8095
S'671317'
p8096
aS'671317'
p8097
asS'Chlumsk\xc3\xa1'
p8098
(lp8099
S'340 12'
p8100
asS'Cizur Menor'
p8101
(lp8102
S'31190'
p8103
aS'31190'
p8104
asS'Chandni Chowk'
p8105
(lp8106
S'110006'
p8107
aS'110006'
p8108
asS'Chester'
p8109
(lp8110
S'01011'
p8111
aS'05143'
p8112
aS'26034'
p8113
aS'83421'
p8114
aS'83421'
p8115
aS'01011'
p8116
aS'05143'
p8117
aS'26034'
p8118
asS'Ceuti'
p8119
(lp8120
S'30562'
p8121
aS'30562'
p8122
asS'Clermont'
p8123
(lp8124
S'40110'
p8125
asS'Cia\xc3\xb1o'
p8126
(lp8127
S'33900'
p8128
aS'33900'
p8129
asS'Canacona'
p8130
(lp8131
g6924
ag6986
asS'Curtisville'
p8132
(lp8133
S'15032'
p8134
aS'15032'
p8135
asS'Changlong'
p8136
(lp8137
S'792120'
p8138
aS'792120'
p8139
asS'Cortaillod'
p8140
(lp8141
S'2016'
p8142
aS'2016'
p8143
asS'Campiglia'
p8144
(lp8145
S'19132'
p8146
aS'19132'
p8147
asS'Caramagna Ligure'
p8148
(lp8149
S'18100'
p8150
aS'18100'
p8151
asS'Carqueijo'
p8152
(lp8153
S'3050-131'
p8154
aS'3050-131'
p8155
asS'Caliente'
p8156
(lp8157
S'89008'
p8158
aS'89008'
p8159
asS'Claire City'
p8160
(lp8161
S'57224'
p8162
aS'57224'
p8163
asS'Coolalinga'
p8164
(lp8165
S'0835'
p8166
aS'0835'
p8167
asS'Csaroda'
p8168
(lp8169
S'4844'
p8170
asS'Cussignacco'
p8171
(lp8172
S'33100'
p8173
aS'33100'
p8174
asS'Csatasz\xc3\xb6g'
p8175
(lp8176
S'5064'
p8177
aS'5064'
p8178
asS'Cadillac'
p8179
(lp8180
S'49601'
p8181
aS'49601'
p8182
asS'Collins'
p8183
(lp8184
S'50055'
p8185
aS'50055'
p8186
asS'Capolago'
p8187
(lp8188
S'6825'
p8189
aS'6825'
p8190
asS'Chemnitz'
p8191
(lp8192
S'09111'
p8193
aS'09113'
p8194
aS'09116'
p8195
aS'09120'
p8196
aS'09125'
p8197
aS'09127'
p8198
aS'09119'
p8199
aS'09131'
p8200
aS'09111'
p8201
aS'09113'
p8202
aS'09116'
p8203
aS'09119'
p8204
aS'09120'
p8205
aS'09127'
p8206
aS'09131'
p8207
asS'Chaiyo'
p8208
(lp8209
S'14140'
p8210
aS'14140'
p8211
asS'Celorio (Llanes)'
p8212
(lp8213
S'33595'
p8214
aS'33595'
p8215
asS'Cass'
p8216
(lp8217
S'24927'
p8218
aS'24927'
p8219
asS'Carthage'
p8220
(lp8221
S'37030'
p8222
aS'57323'
p8223
aS'71725'
p8224
aS'71725'
p8225
aS'57323'
p8226
aS'37030'
p8227
asS'Chodov (\xc4\x8d\xc3\xa1st)'
p8228
(lp8229
S'148 00'
p8230
aS'148 00'
p8231
asS'Calgary (Lynnwood Ridge / Ogden / Foothills Industrial / Great Plains)'
p8232
(lp8233
S'T2C'
p8234
aS'T2C'
p8235
asS'Corti\xc3\xa7ada'
p8236
(lp8237
S'3570-110'
p8238
aS'3570-110'
p8239
asS'Chiang Saen'
p8240
(lp8241
g3696
ag3703
asS'Cue'
p8242
(lp8243
S'33509'
p8244
aS'33509'
p8245
asS'Cimo de S\xc3\xa3o Pedro'
p8246
(lp8247
S'9900-364'
p8248
aS'9900-364'
p8249
asS'Casal Mendo'
p8250
(lp8251
g821
ag921
asS'Cynthiana'
p8252
(lp8253
S'41031'
p8254
aS'41031'
p8255
asS'Cartersville'
p8256
(lp8257
S'30120'
p8258
asS'Crivitz'
p8259
(lp8260
S'19089'
p8261
aS'19089'
p8262
asS'Chaileng'
p8263
(lp8264
S'799273'
p8265
aS'799273'
p8266
asS'Caveira'
p8267
(lp8268
S'9970-010'
p8269
aS'9970-010'
p8270
asS'Cornago'
p8271
(lp8272
S'26526'
p8273
aS'26526'
p8274
asS'Chela'
p8275
(lp8276
S'361012'
p8277
aS'361012'
p8278
asS'Cacicedo'
p8279
(lp8280
g2660
ag2733
asS'Cruz da Vit\xc3\xb3ria'
p8281
(lp8282
S'9880-017'
p8283
aS'9880-017'
p8284
asS'Custom House'
p8285
(lp8286
S'700001'
p8287
asS'Carrazeda de Ansi\xc3\xa3es'
p8288
(lp8289
S'5140-053'
p8290
aS'5140-056'
p8291
aS'5140-058'
p8292
aS'5140-060'
p8293
aS'5140-062'
p8294
aS'5140-064'
p8295
aS'5140-066'
p8296
aS'5140-068'
p8297
aS'5140-070'
p8298
aS'5140-072'
p8299
aS'5140-074'
p8300
aS'5140-076'
p8301
aS'5140-078'
p8302
aS'5140-080'
p8303
aS'5140-082'
p8304
aS'5140-084'
p8305
aS'5140-086'
p8306
aS'5140-088'
p8307
aS'5140-090'
p8308
aS'5140-092'
p8309
aS'5140-094'
p8310
aS'5140-096'
p8311
aS'5140-098'
p8312
aS'5140-100'
p8313
aS'5140-102'
p8314
aS'5140-104'
p8315
aS'5140-106'
p8316
aS'5140-109'
p8317
aS'5140-999'
p8318
aS'5140-053'
p8319
aS'5140-056'
p8320
aS'5140-058'
p8321
aS'5140-060'
p8322
aS'5140-062'
p8323
aS'5140-064'
p8324
aS'5140-066'
p8325
aS'5140-068'
p8326
aS'5140-070'
p8327
aS'5140-072'
p8328
aS'5140-074'
p8329
aS'5140-076'
p8330
aS'5140-078'
p8331
aS'5140-080'
p8332
aS'5140-082'
p8333
aS'5140-084'
p8334
aS'5140-086'
p8335
aS'5140-088'
p8336
aS'5140-090'
p8337
aS'5140-092'
p8338
aS'5140-094'
p8339
aS'5140-096'
p8340
aS'5140-098'
p8341
aS'5140-100'
p8342
aS'5140-102'
p8343
aS'5140-104'
p8344
aS'5140-106'
p8345
aS'5140-109'
p8346
aS'5140-999'
p8347
asS'Cuellar'
p8348
(lp8349
g5562
ag5669
asS'Charles Darwin University'
p8350
(lp8351
S'0815'
p8352
aS'0909'
p8353
aS'0815'
p8354
aS'0909'
p8355
asS'Chuchel'
p8356
(lp8357
S'583 01'
p8358
asS'Colonia'
p8359
(lp8360
S'07067'
p8361
aS'07067'
p8362
asS'Crooks'
p8363
(lp8364
S'57020'
p8365
aS'57020'
p8366
asS'Chleby'
p8367
(lp8368
S'289 31'
p8369
asS'Cs\xc3\xb3t'
p8370
(lp8371
S'8558'
p8372
aS'8558'
p8373
asS'Campbell Bay'
p8374
(lp8375
S'744302'
p8376
aS'744302'
p8377
asS'Campobello Island'
p8378
(lp8379
S'E5E'
p8380
aS'E5E'
p8381
aS'E5E'
p8382
asS'Chugiak'
p8383
(lp8384
S'99567'
p8385
aS'99567'
p8386
asS'Como'
p8387
(lp8388
S'6152'
p8389
aS'6152'
p8390
asS'Cig\xc3\xbcenza'
p8391
(lp8392
g2640
ag2758
asS'Chengalpattu Bazaar'
p8393
(lp8394
S'603002'
p8395
aS'603002'
p8396
asS'Csengele'
p8397
(lp8398
g7598
ag7641
asS'Chude\xc5\x99\xc3\xadn'
p8399
(lp8400
S'438 01'
p8401
aS'436 03'
p8402
aS'438 01'
p8403
asS'Colebrook'
p8404
(lp8405
S'03576'
p8406
aS'03576'
p8407
asS'Cserh\xc3\xa1tszentiv\xc3\xa1n'
p8408
(lp8409
S'3066'
p8410
asS'Clavijo'
p8411
(lp8412
S'26130'
p8413
aS'26130'
p8414
asS'Costa Del Silencio'
p8415
(lp8416
g1117
ag1194
asS'Calgary (Montgomery / Bowness / Silver Springs / Greenwood)'
p8417
(lp8418
S'T3B'
p8419
aS'T3B'
p8420
asS'Covarrubias'
p8421
(lp8422
g5480
ag5652
asS'Cardedeu'
p8423
(lp8424
g5276
ag5368
asS'Comillas'
p8425
(lp8426
g2638
ag2696
asS'Cornish'
p8427
(lp8428
S'04020'
p8429
aS'84308'
p8430
aS'04020'
p8431
aS'84308'
p8432
asS'Catlettsburg'
p8433
(lp8434
S'41129'
p8435
aS'41129'
p8436
asS'Cattabrighe'
p8437
(lp8438
S'61100'
p8439
aS'61100'
p8440
asS'Central Rice Research'
p8441
(lp8442
S'753003'
p8443
aS'753003'
p8444
asS'Ch\xc3\xaane-Bourg Distribution'
p8445
(lp8446
S'1225'
p8447
asS'Calwell'
p8448
(lp8449
S'2905'
p8450
aS'2905'
p8451
asS'Cas Catal\xc3\xa0'
p8452
(lp8453
S'07181'
p8454
asS'Casanova'
p8455
(lp8456
S'20139'
p8457
aS'20139'
p8458
asS'Clyde Park'
p8459
(lp8460
S'59018'
p8461
aS'59018'
p8462
asS'Canterbury'
p8463
(lp8464
S'E6H'
p8465
aS'E6H'
p8466
aS'E6H'
p8467
aS'03224'
p8468
aS'03224'
p8469
asS'Craigmont'
p8470
(lp8471
S'83523'
p8472
aS'83523'
p8473
asS'Custais'
p8474
(lp8475
S'4880-028'
p8476
aS'4880-028'
p8477
asS'Chisago City'
p8478
(lp8479
S'55013'
p8480
aS'55013'
p8481
asS'Chrtn\xc3\xad\xc4\x8d'
p8482
(lp8483
S'582 82'
p8484
asS'Chelsea'
p8485
(lp8486
S'05038'
p8487
aS'35043'
p8488
aS'35043'
p8489
aS'05038'
p8490
asS'Colombier NE Distribution'
p8491
(lp8492
S'2013'
p8493
asS'Capitol'
p8494
(lp8495
S'59319'
p8496
aS'59319'
p8497
asS'Chicoutimi West'
p8498
(lp8499
S'G7J'
p8500
aS'G7J'
p8501
asS'Chmeln\xc3\xa1'
p8502
(lp8503
S'257 65'
p8504
aS'382 03'
p8505
asS'Cummington'
p8506
(lp8507
S'01026'
p8508
aS'01026'
p8509
asS'Chbany'
p8510
(lp8511
g490
asS'Chaturat'
p8512
(lp8513
g4032
ag4040
asS'Campillos'
p8514
(lp8515
S'29320'
p8516
asS'Capitol Heights'
p8517
(lp8518
S'20743'
p8519
aS'20743'
p8520
asS'C R P Lines Deoli'
p8521
(lp8522
S'304804'
p8523
aS'304804'
p8524
asS'Chotoviny'
p8525
(lp8526
S'391 37'
p8527
aS'392 01'
p8528
ag3921
aS'391 33'
p8529
aS'391 31'
p8530
aS'391 72'
p8531
aS'391 76'
p8532
aS'391 26'
p8533
aS'391 36'
p8534
aS'391 62'
p8535
aS'391 65'
p8536
aS'398 52'
p8537
aS'391 35'
p8538
aS'391 16'
p8539
aS'391 20'
p8540
aS'391 81'
p8541
aS'391 11'
p8542
aS'391 43'
p8543
aS'391 73'
p8544
aS'392 01'
p8545
aS'390 01'
p8546
aS'390 02'
p8547
aS'390 02'
p8548
aS'390 03'
p8549
aS'390 03'
p8550
aS'391 01'
p8551
aS'391 11'
p8552
aS'391 11'
p8553
aS'391 17'
p8554
aS'391 31'
p8555
aS'391 31'
p8556
aS'391 31'
p8557
aS'391 31'
p8558
aS'391 32'
p8559
aS'391 33'
p8560
aS'391 33'
p8561
ag6898
aS'391 33'
p8562
aS'391 33'
p8563
aS'391 33'
p8564
aS'391 33'
p8565
aS'391 33'
p8566
aS'391 33'
p8567
aS'391 33'
p8568
aS'391 33'
p8569
aS'391 33'
p8570
ag4999
aS'391 33'
p8571
aS'391 37'
p8572
aS'391 37'
p8573
aS'391 37'
p8574
aS'391 37'
p8575
aS'391 43'
p8576
aS'391 43'
p8577
aS'391 43'
p8578
aS'391 43'
p8579
aS'391 43'
p8580
aS'391 43'
p8581
aS'391 43'
p8582
aS'391 43'
p8583
aS'391 43'
p8584
aS'391 43'
p8585
aS'391 43'
p8586
aS'391 43'
p8587
aS'391 43'
p8588
aS'391 43'
p8589
aS'391 43'
p8590
aS'391 43'
p8591
aS'391 43'
p8592
aS'391 43'
p8593
aS'391 43'
p8594
aS'391 43'
p8595
aS'391 43'
p8596
aS'391 43'
p8597
aS'391 43'
p8598
aS'391 43'
p8599
aS'391 43'
p8600
aS'391 43'
p8601
aS'391 43'
p8602
aS'391 43'
p8603
aS'391 43'
p8604
aS'391 43'
p8605
aS'391 43'
p8606
aS'391 43'
p8607
aS'391 52'
p8608
aS'391 55'
p8609
aS'391 55'
p8610
aS'391 55'
p8611
aS'391 55'
p8612
aS'391 55'
p8613
aS'391 55'
p8614
aS'391 55'
p8615
aS'391 55'
p8616
aS'391 55'
p8617
aS'391 55'
p8618
aS'391 55'
p8619
aS'391 55'
p8620
aS'747 75'
p8621
aS'390 01'
p8622
aS'391 01'
p8623
aS'392 01'
p8624
asS'Chakchaki Bazar'
p8625
(lp8626
S'781320'
p8627
aS'781320'
p8628
asS'Cocagne'
p8629
(lp8630
S'E4R'
p8631
aS'E4R'
p8632
asS'Chhal'
p8633
(lp8634
g6542
ag6637
asS'Carrum'
p8635
(lp8636
S'3197'
p8637
aS'3197'
p8638
asS'Carrum Downs'
p8639
(lp8640
S'3201'
p8641
aS'3201'
p8642
asS'Crary'
p8643
(lp8644
S'58327'
p8645
aS'58327'
p8646
asS'Clanton'
p8647
(lp8648
S'35045'
p8649
aS'35045'
p8650
asS'Carapito'
p8651
(lp8652
S'3570-100'
p8653
aS'3570-100'
p8654
asS'Chr\xc3\xa1st nad S\xc3\xa1zavou'
p8655
(lp8656
S'257 41'
p8657
asS'Cenicero'
p8658
(lp8659
S'26350'
p8660
aS'26350'
p8661
asS'Castagnola'
p8662
(lp8663
S'6976'
p8664
aS'6976'
p8665
asS'Cuarte De Huerva'
p8666
(lp8667
S'50410'
p8668
aS'50410'
p8669
asS'Carabooda'
p8670
(lp8671
S'6033'
p8672
aS'6033'
p8673
asS'Cressier NE'
p8674
(lp8675
S'2088'
p8676
aS'2088'
p8677
asS'Chloumek'
p8678
(lp8679
S'294 41'
p8680
aS'335 44'
p8681
aS'511 01'
p8682
asS'Chung Thung'
p8683
(lp8684
S'737120'
p8685
aS'737120'
p8686
asS'Cs\xc3\xb6m\xc3\xb6d\xc3\xa9r'
p8687
(lp8688
S'8957'
p8689
aS'8957'
p8690
asS'Cambridgeport'
p8691
(lp8692
S'05141'
p8693
aS'05141'
p8694
asS'Crans-Montana 2'
p8695
(lp8696
S'3963'
p8697
aS'3963'
p8698
asS'Chrustenice'
p8699
(lp8700
S'267 12'
p8701
asS'Carvalhais'
p8702
(lp8703
S'4870-071'
p8704
aS'4880-020'
p8705
aS'4870-071'
p8706
aS'4880-020'
p8707
asS'Chvat\xc4\x9bruby'
p8708
(lp8709
S'278 01'
p8710
aS'278 01'
p8711
asS'Calgary (Douglas Glen / McKenzie Lake / Copperfield / East Shepard)'
p8712
(lp8713
S'T2Z'
p8714
aS'T2Z'
p8715
asS'Coburg'
p8716
(lp8717
S'3058'
p8718
aS'96450'
p8719
aS'3058'
p8720
aS'96450'
p8721
asS'Cellorigo'
p8722
(lp8723
S'26212'
p8724
aS'26212'
p8725
asS'Calgary (Thornecliffe / Tuxedo)'
p8726
(lp8727
S'T2K'
p8728
aS'T2K'
p8729
asS'Cs\xc3\xa9nye'
p8730
(lp8731
S'9611'
p8732
aS'9611'
p8733
asS'Cooper Landing'
p8734
(lp8735
S'99572'
p8736
aS'99572'
p8737
asS'Chandigarh'
p8738
(lp8739
S'160017'
p8740
ag8740
aS'160002'
p8741
aS'160008'
p8742
aS'160010'
p8743
aS'160011'
p8744
aS'160014'
p8745
aS'160017'
p8746
aS'160018'
p8747
aS'160019'
p8748
aS'160020'
p8749
aS'160022'
p8750
aS'160023'
p8751
aS'160026'
p8752
aS'160036'
p8753
aS'160059'
p8754
aS'160101'
p8755
aS'160002'
p8756
aS'160008'
p8757
aS'160010'
p8758
aS'160011'
p8759
aS'160014'
p8760
aS'160017'
p8761
ag8761
aS'160018'
p8762
aS'160019'
p8763
aS'160020'
p8764
aS'160022'
p8765
aS'160023'
p8766
aS'160026'
p8767
aS'160036'
p8768
aS'160059'
p8769
aS'160101'
p8770
asS'Cal\xc3\xa7o da Cruz'
p8771
(lp8772
S'9900-325'
p8773
aS'9900-325'
p8774
asS'Culver City'
p8775
(lp8776
g7087
ag7088
ag7152
ag7203
asS'Curtis'
p8777
(lp8778
S'15310'
p8779
aS'15379'
p8780
aS'71728'
p8781
aS'15310'
p8782
aS'15379'
p8783
aS'71728'
p8784
asS'Cova'
p8785
(lp8786
S'9930-106'
p8787
aS'9930-106'
p8788
asS'Ciudad Santo Domingo'
p8789
(lp8790
S'28120'
p8791
aS'28120'
p8792
asS'Cherry Hill'
p8793
(lp8794
S'08003'
p8795
aS'08034'
p8796
asS'Cherrapunjee'
p8797
(lp8798
S'793108'
p8799
aS'793108'
p8800
asS'Chiang Klang'
p8801
(lp8802
S'55160'
p8803
aS'55160'
p8804
asS'C P S Compound Proctor R'
p8805
(lp8806
S'400007'
p8807
asS'Converse'
p8808
(lp8809
S'29329'
p8810
aS'29329'
p8811
asS'Carey'
p8812
(lp8813
S'83320'
p8814
aS'83320'
p8815
asS'Cs\xc3\xb6m\xc3\xb6r'
p8816
(lp8817
S'2141'
p8818
asS'Chanunman'
p8819
(lp8820
S'37210'
p8821
aS'37210'
p8822
asS'Clayville'
p8823
(lp8824
S'02815'
p8825
aS'02815'
p8826
asS'Charco Velho'
p8827
(lp8828
S'9880-309'
p8829
aS'9880-309'
p8830
asS'Cuesta Blanca'
p8831
(lp8832
S'30396'
p8833
aS'30396'
p8834
asS'Chandoli'
p8835
(lp8836
S'301037'
p8837
aS'301037'
p8838
asS'Curtin'
p8839
(lp8840
S'2605'
p8841
aS'2605'
p8842
asS'Corcelles-le-Jorat'
p8843
(lp8844
S'1082'
p8845
asS'Cardenas'
p8846
(lp8847
S'26311'
p8848
asS'Continental Divide'
p8849
(lp8850
S'87312'
p8851
aS'87312'
p8852
asS'Cosgaya'
p8853
(lp8854
g2652
ag2730
asS'Cerhovice'
p8855
(lp8856
S'267 61'
p8857
asS'Carson City'
p8858
(lp8859
S'89701'
p8860
aS'89703'
p8861
aS'89701'
p8862
aS'89703'
p8863
asS'Costa'
p8864
(lp8865
S'9960-330'
p8866
aS'9960-330'
p8867
asS'Canova'
p8868
(lp8869
S'57321'
p8870
aS'57321'
p8871
asS'Chouki Dingee'
p8872
(lp8873
S'786001'
p8874
aS'786001'
p8875
asS'Champion Reefs'
p8876
(lp8877
S'563117'
p8878
aS'563117'
p8879
asS'College Park'
p8880
(lp8881
S'20740'
p8882
aS'20740'
p8883
asS'Cremona'
p8884
(lp8885
S'26100'
p8886
asS'Cs\xc3\xa9pa'
p8887
(lp8888
S'5475'
p8889
aS'5475'
p8890
asS'Capdepera'
p8891
(lp8892
S'07580'
p8893
aS'07580'
p8894
asS'Csom\xc3\xa1d'
p8895
(lp8896
S'2161'
p8897
aS'2161'
p8898
asS'Csurg\xc3\xb3'
p8899
(lp8900
S'8840'
p8901
aS'8840'
p8902
asS'Currambine'
p8903
(lp8904
S'6028'
p8905
aS'6028'
p8906
asS'Chvojenec'
p8907
(lp8908
S'534 01'
p8909
asS'Concelho'
p8910
(lp8911
S'4870-116'
p8912
aS'4870-116'
p8913
asS'Cummings'
p8914
(lp8915
S'66016'
p8916
aS'66016'
p8917
asS'Collingwood'
p8918
(lp8919
S'3066'
p8920
aS'3066'
p8921
asS'Chauparan'
p8922
(lp8923
S'825406'
p8924
aS'825406'
p8925
asS'Chaudkulat'
p8926
(lp8927
S'754222'
p8928
aS'754222'
p8929
asS'Chausa(Arrah)'
p8930
(lp8931
S'802114'
p8932
aS'802114'
p8933
asS'Cuzcurrita De Rio Tiron'
p8934
(lp8935
S'26214'
p8936
aS'26214'
p8937
asS'Cadenazzo'
p8938
(lp8939
S'6593'
p8940
aS'6593'
p8941
asS'Christies Beach'
p8942
(lp8943
S'5165'
p8944
asS'Chandakavadi'
p8945
(lp8946
S'571178'
p8947
aS'571178'
p8948
asS'Canada Bay'
p8949
(lp8950
S'2046'
p8951
asS'Calicut Medical College'
p8952
(lp8953
S'673008'
p8954
aS'673008'
p8955
asS'Chomutov (\xc4\x8d\xc3\xa1st)'
p8956
(lp8957
g514
asS'Champlin'
p8958
(lp8959
S'55316'
p8960
aS'55316'
p8961
asS'Cala D Or'
p8962
(lp8963
S'07660'
p8964
aS'07660'
p8965
asS'Chamnad'
p8966
(lp8967
S'671320'
p8968
aS'671320'
p8969
asS'Clifton'
p8970
(lp8971
S'2515'
p8972
aS'2515'
p8973
aS'07012'
p8974
aS'07014'
p8975
aS'20124'
p8976
aS'29324'
p8977
aS'07012'
p8978
aS'07014'
p8979
aS'29324'
p8980
aS'20124'
p8981
asS'Chotusice'
p8982
(lp8983
S'285 76'
p8984
asS'Chana'
p8985
(lp8986
S'90130'
p8987
aS'90130'
p8988
asS'Chrastn\xc3\xa1'
p8989
(lp8990
S'285 04'
p8991
asS'Cartabbia'
p8992
(lp8993
S'21100'
p8994
asS'Chilcotin (Alexis Creek)'
p8995
(lp8996
S'V0L'
p8997
aS'V0L'
p8998
asS'Chesapeake Beach'
p8999
(lp9000
S'20732'
p9001
aS'20732'
p9002
asS'Calgary (City Centre / Calgary Tower)'
p9003
(lp9004
S'T2P'
p9005
aS'T2P'
p9006
asS'Corte De Peleas'
p9007
(lp9008
S'06196'
p9009
aS'06196'
p9010
asS'Cima da Fonte'
p9011
(lp9012
S'9960-310'
p9013
aS'9960-310'
p9014
asS'Corsica'
p9015
(lp9016
S'57328'
p9017
aS'57328'
p9018
asS'Chetla'
p9019
(lp9020
S'700027'
p9021
asS'Cottleville'
p9022
(lp9023
S'63338'
p9024
aS'63338'
p9025
asS'Charkhi Dadri City'
p9026
(lp9027
S'123306'
p9028
aS'123306'
p9029
as.