(dp1
S'Ulrichskirchen'
p2
(lp3
S'2122'
p4
asS'Uhersk\xc3\xbd Brod'
p5
(lp6
S'688 01'
p7
aS'688 01'
p8
asS'Uriarra'
p9
(lp10
S'2611'
p11
asS'Union'
p12
(lp13
S'24983'
p14
aS'41091'
p15
aS'41091'
p16
aS'24983'
p17
asS'Utah'
p18
(lp19
S'84002'
p20
aS'84004'
p21
aS'84006'
p22
aS'84008'
p23
aS'84013'
p24
aS'84015'
p25
aS'84017'
p26
aS'84021'
p27
aS'84023'
p28
aS'84025'
p29
aS'84027'
p30
aS'84029'
p31
aS'84032'
p32
aS'84034'
p33
aS'84036'
p34
aS'84038'
p35
aS'84040'
p36
aS'84041'
p37
aS'84044'
p38
aS'84046'
p39
aS'84050'
p40
aS'84052'
p41
aS'84054'
p42
aS'84056'
p43
aS'84057'
p44
aS'84061'
p45
aS'84063'
p46
aS'84065'
p47
aS'84066'
p48
aS'84068'
p49
aS'84071'
p50
aS'84073'
p51
aS'84075'
p52
aS'84078'
p53
aS'84083'
p54
aS'84084'
p55
aS'84086'
p56
aS'84089'
p57
aS'84090'
p58
aS'84092'
p59
aS'84094'
p60
aS'84098'
p61
aS'84101'
p62
aS'84103'
p63
aS'84105'
p64
aS'84107'
p65
aS'84108'
p66
aS'84112'
p67
aS'84114'
p68
aS'84116'
p69
aS'84118'
p70
aS'84121'
p71
aS'84127'
p72
aS'84133'
p73
aS'84136'
p74
aS'84138'
p75
aS'84139'
p76
aS'84141'
p77
aS'84144'
p78
aS'84147'
p79
aS'84150'
p80
aS'84152'
p81
aS'84153'
p82
aS'84165'
p83
aS'84170'
p84
aS'84184'
p85
aS'84185'
p86
aS'84199'
p87
aS'84201'
p88
aS'84301'
p89
aS'84304'
p90
aS'84306'
p91
aS'84308'
p92
aS'84310'
p93
aS'84312'
p94
aS'84314'
p95
aS'84316'
p96
aS'84318'
p97
aS'84320'
p98
aS'84323'
p99
aS'84325'
p100
aS'84327'
p101
aS'84329'
p102
aS'84331'
p103
aS'84333'
p104
aS'84335'
p105
aS'84337'
p106
aS'84339'
p107
aS'84341'
p108
aS'84401'
p109
aS'84601'
p110
aS'84660'
p111
aS'84720'
p112
aS'84770'
p113
aS'84006'
p114
aS'84044'
p115
aS'84065'
p116
aS'84084'
p117
aS'84090'
p118
aS'84092'
p119
aS'84094'
p120
aS'84101'
p121
aS'84103'
p122
aS'84105'
p123
aS'84108'
p124
aS'84110'
p125
aS'84112'
p126
aS'84114'
p127
aS'84116'
p128
aS'84118'
p129
aS'84121'
p130
aS'84123'
p131
aS'84125'
p132
aS'84127'
p133
aS'84130'
p134
aS'84133'
p135
aS'84138'
p136
aS'84144'
p137
aS'84147'
p138
aS'84150'
p139
aS'84152'
p140
aS'84165'
p141
aS'84184'
p142
aS'84199'
p143
aS'84107'
p144
aS'84131'
p145
aS'84136'
p146
aS'84139'
p147
aS'84141'
p148
aS'84153'
p149
aS'84170'
p150
aS'84185'
p151
aS'84720'
p152
aS'84041'
p153
aS'84057'
p154
aS'84098'
p155
aS'84401'
p156
aS'84601'
p157
aS'84660'
p158
aS'84770'
p159
aS'84002'
p160
ag160
aS'84004'
p161
aS'84008'
p162
aS'84013'
p163
aS'84015'
p164
aS'84017'
p165
aS'84021'
p166
aS'84023'
p167
aS'84025'
p168
aS'84027'
p169
aS'84029'
p170
aS'84032'
p171
aS'84034'
p172
aS'84036'
p173
aS'84038'
p174
aS'84040'
p175
aS'84046'
p176
aS'84050'
p177
aS'84052'
p178
aS'84054'
p179
aS'84056'
p180
aS'84061'
p181
aS'84063'
p182
aS'84066'
p183
aS'84068'
p184
aS'84071'
p185
aS'84073'
p186
aS'84075'
p187
aS'84078'
p188
aS'84080'
p189
aS'84083'
p190
aS'84086'
p191
aS'84089'
p192
aS'84201'
p193
aS'84301'
p194
aS'84304'
p195
aS'84306'
p196
aS'84308'
p197
aS'84310'
p198
aS'84312'
p199
aS'84314'
p200
aS'84316'
p201
aS'84318'
p202
aS'84320'
p203
aS'84323'
p204
aS'84325'
p205
aS'84327'
p206
aS'84329'
p207
aS'84331'
p208
aS'84333'
p209
aS'84335'
p210
aS'84337'
p211
aS'84339'
p212
aS'84341'
p213
asS'Ualand'
p214
(lp215
S'4463'
p216
asS'Uh\xc5\x99\xc3\xadnov'
p217
(lp218
S'594 41'
p219
aS'753 61'
p220
asS'Ume\xc3\xa5'
p221
(lp222
S'90103'
p223
aS'90107'
p224
aS'90108'
p225
aS'90178'
p226
aS'90187'
p227
aS'90304'
p228
aS'90322'
p229
aS'90325'
p230
aS'90329'
p231
aS'90331'
p232
aS'90333'
p233
aS'90336'
p234
aS'90343'
p235
aS'90345'
p236
aS'90352'
p237
aS'90353'
p238
aS'90354'
p239
aS'90360'
p240
aS'90363'
p241
aS'90364'
p242
aS'90420'
p243
aS'90422'
p244
aS'90433'
p245
aS'90435'
p246
aS'90581'
p247
aS'90583'
p248
aS'90586'
p249
aS'90591'
p250
aS'90592'
p251
aS'90596'
p252
aS'90621'
p253
aS'90625'
p254
aS'90628'
p255
aS'90637'
p256
aS'90642'
p257
aS'90651'
p258
aS'90654'
p259
aS'90655'
p260
aS'90719'
p261
aS'90730'
p262
aS'90732'
p263
aS'90736'
p264
aS'90740'
p265
aS'90750'
p266
aS'90187'
p267
aS'90363'
p268
aS'90325'
p269
aS'90333'
p270
aS'90354'
p271
aS'90420'
p272
aS'90433'
p273
aS'90581'
p274
aS'90103'
p275
aS'90185'
p276
aS'90621'
p277
aS'90108'
p278
aS'90110'
p279
aS'90322'
p280
aS'90329'
p281
aS'90331'
p282
aS'90336'
p283
aS'90352'
p284
aS'90405'
p285
aS'90422'
p286
aS'90591'
p287
aS'90637'
p288
aS'90642'
p289
aS'90719'
p290
aS'90750'
p291
aS'90132'
p292
aS'90345'
p293
aS'90583'
p294
aS'90655'
p295
aS'90107'
p296
aS'90130'
p297
aS'90178'
p298
aS'90304'
p299
aS'90343'
p300
aS'90353'
p301
aS'90360'
p302
aS'90364'
p303
aS'90435'
p304
aS'90586'
p305
aS'90592'
p306
aS'90596'
p307
aS'90625'
p308
aS'90628'
p309
aS'90651'
p310
aS'90654'
p311
aS'90730'
p312
aS'90732'
p313
aS'90736'
p314
aS'90740'
p315
asS'Urdazubi'
p316
(lp317
S'31711'
p318
aS'31711'
p319
asS'Upperkot'
p320
(lp321
S'202001'
p322
asS'Uttigen'
p323
(lp324
S'3628'
p325
aS'3628'
p326
asS'Uznach'
p327
(lp328
S'8730'
p329
aS'8730'
p330
asS'Ulla'
p331
(lp332
S'17140'
p333
aS'17140'
p334
asS'Utiel'
p335
(lp336
S'46300'
p337
aS'46300'
p338
asS'Ulvik'
p339
(lp340
S'5730'
p341
asS'Uh\xc5\x99\xc3\xadnovice'
p342
(lp343
S'517 21'
p344
asS'Ujjain Gaughat Railway Co'
p345
(lp346
S'456010'
p347
asS'Ujjain Nayapura'
p348
(lp349
S'456006'
p350
asS'Unterwart'
p351
(lp352
S'7501'
p353
asS'Ubon Ratchathani'
p354
(lp355
S'34000'
p356
aS'34140'
p357
aS'34160'
p358
aS'34220'
p359
aS'34270'
p360
aS'34000'
p361
ag361
aS'34140'
p362
aS'34160'
p363
aS'34220'
p364
aS'34270'
p365
asS'Unders\xc3\xa5ker'
p366
(lp367
S'83010'
p368
aS'83010'
p369
asS'Utzigen'
p370
(lp371
S'3068'
p372
asS'Urn\xc3\xa4sch'
p373
(lp374
S'9107'
p375
aS'9107'
p376
asS'Uetikon am See'
p377
(lp378
S'8707'
p379
aS'8707'
p380
asS'Uhersk\xc3\xa9 Hradi\xc5\xa1t\xc4\x9b (\xc4\x8d\xc3\xa1st'
p381
(lp382
S'686 06'
p383
asS'Ujjain Bined Mills'
p384
(lp385
S'456001'
p386
aS'456001'
p387
asS'Ulefoss'
p388
(lp389
S'3830'
p390
aS'3831'
p391
aS'3830'
p392
aS'3831'
p393
asS'Unterwasser'
p394
(lp395
S'9657'
p396
asS'Ud\xc3\xa1nky'
p397
(lp398
S'571 01'
p399
asS'Untereggen'
p400
(lp401
S'9033'
p402
aS'9033'
p403
asS'Ursviken'
p404
(lp405
S'93236'
p406
aS'93237'
p407
aS'93237'
p408
aS'93236'
p409
asS'Udumbanthala'
p410
(lp411
S'671350'
p412
aS'671350'
p413
asS'Una Sorath'
p414
(lp415
S'362560'
p416
aS'362560'
p417
asS'Umer Jamal Compound'
p418
(lp419
S'400008'
p420
asS'Uniontown'
p421
(lp422
S'15401'
p423
asS'Unterbergen'
p424
(lp425
S'9163'
p426
asS'Uetersen'
p427
(lp428
S'25436'
p429
asS'Umpire'
p430
(lp431
S'71971'
p432
aS'71971'
p433
asS'Ujjain Pandanba'
p434
(lp435
S'456006'
p436
asS'Upputhara'
p437
(lp438
S'685505'
p439
aS'685505'
p440
asS'Umrala'
p441
(lp442
S'364330'
p443
aS'364330'
p444
asS'Unken'
p445
(lp446
S'5091'
p447
asS'Uh\xc5\x99ice'
p448
(lp449
S'696 34'
p450
aS'768 33'
p451
aS'683 33'
p452
asS'Ujjain'
p453
(lp454
S'456010'
p455
aS'456010'
p456
asS'Uerschhausen'
p457
(lp458
S'8537'
p459
aS'8537'
p460
asS'Uni\xc4\x8dov'
p461
(lp462
S'783 91'
p463
asS'Uttar Pradesh'
p464
(lp465
S'282001'
p466
aS'121001'
p467
aS'121007'
p468
aS'247001'
p469
aS'283203'
p470
aS'121102'
p471
aS'121001'
p472
aS'121001'
p473
aS'121001'
p474
aS'121001'
p475
aS'121001'
p476
aS'121005'
p477
aS'121006'
p478
aS'121102'
p479
aS'201009'
p480
aS'201201'
p481
aS'201303'
p482
aS'202001'
p483
ag322
aS'202001'
p484
aS'202001'
p485
aS'202001'
p486
aS'202001'
p487
aS'202121'
p488
aS'202128'
p489
aS'202133'
p490
aS'202136'
p491
aS'202140'
p492
aS'202150'
p493
aS'202389'
p494
aS'202392'
p495
aS'202394'
p496
aS'202397'
p497
aS'202410'
p498
aS'202414'
p499
aS'202521'
p500
aS'202525'
p501
aS'202527'
p502
aS'203121'
p503
aS'203141'
p504
aS'203155'
p505
aS'203203'
p506
aS'204101'
p507
aS'204104'
p508
aS'204215'
p509
aS'205001'
p510
aS'205119'
p511
aS'205130'
p512
aS'205142'
p513
aS'206001'
p514
aS'206001'
p515
aS'206002'
p516
aS'206121'
p517
aS'206125'
p518
aS'206127'
p519
aS'206241'
p520
aS'206248'
p521
aS'207001'
p522
aS'207122'
p523
aS'207243'
p524
aS'207245'
p525
aS'207502'
p526
aS'207502'
p527
aS'208001'
p528
aS'208001'
p529
aS'208001'
p530
aS'208001'
p531
aS'208001'
p532
aS'208003'
p533
aS'208004'
p534
aS'208005'
p535
aS'208007'
p536
aS'208010'
p537
aS'208012'
p538
aS'208016'
p539
aS'208020'
p540
aS'208022'
p541
aS'208024'
p542
aS'209101'
p543
aS'209203'
p544
aS'209301'
p545
aS'209601'
p546
aS'209601'
p547
aS'209602'
p548
aS'209625'
p549
aS'209625'
p550
aS'209724'
p551
aS'209725'
p552
aS'209733'
p553
aS'209738'
p554
aS'209801'
p555
aS'209821'
p556
aS'209861'
p557
aS'210125'
p558
aS'210128'
p559
aS'210202'
p560
aS'210206'
p561
aS'210301'
p562
aS'210423'
p563
aS'210429'
p564
aS'121001'
p565
aS'121005'
p566
aS'121006'
p567
aS'121007'
p568
aS'121102'
p569
aS'201009'
p570
aS'201201'
p571
aS'201303'
p572
aS'202001'
p573
aS'202121'
p574
aS'202128'
p575
aS'202133'
p576
aS'202136'
p577
aS'202140'
p578
aS'202150'
p579
aS'202389'
p580
aS'202392'
p581
aS'202394'
p582
aS'202397'
p583
aS'202410'
p584
aS'202414'
p585
aS'202521'
p586
aS'202525'
p587
aS'202527'
p588
aS'203121'
p589
aS'203141'
p590
aS'203155'
p591
aS'203203'
p592
aS'204101'
p593
aS'204104'
p594
aS'204215'
p595
aS'205001'
p596
aS'205119'
p597
aS'205130'
p598
aS'205142'
p599
aS'206001'
p600
aS'206002'
p601
aS'206121'
p602
aS'206125'
p603
aS'206127'
p604
aS'206241'
p605
aS'206248'
p606
aS'207001'
p607
aS'207122'
p608
aS'207243'
p609
aS'207245'
p610
aS'207502'
p611
aS'208001'
p612
aS'208003'
p613
aS'208004'
p614
aS'208005'
p615
aS'208007'
p616
aS'208010'
p617
aS'208012'
p618
aS'208016'
p619
aS'208020'
p620
aS'208022'
p621
aS'208024'
p622
aS'209101'
p623
aS'209203'
p624
aS'209301'
p625
aS'209601'
p626
aS'209602'
p627
aS'209625'
p628
aS'209724'
p629
aS'209725'
p630
aS'209733'
p631
aS'209738'
p632
aS'209801'
p633
aS'209821'
p634
aS'209861'
p635
aS'210125'
p636
aS'210128'
p637
aS'210202'
p638
aS'210206'
p639
aS'210301'
p640
aS'210423'
p641
aS'210429'
p642
aS'247001'
p643
aS'282001'
p644
ag644
aS'283203'
p645
asS'Ujjan Bherongarh'
p646
(lp647
S'456003'
p648
aS'456003'
p649
asS'Ukhrul'
p650
(lp651
S'795142'
p652
aS'795142'
p653
asS'Unterentfelden'
p654
(lp655
S'5035'
p656
aS'5035'
p657
asS'Udayagiri Extn'
p658
(lp659
S'570019'
p660
aS'570019'
p661
asS'Unterweitersdorf'
p662
(lp663
S'4210'
p664
aS'4210'
p665
asS'Undheim'
p666
(lp667
S'4342'
p668
asS'Uga'
p669
(lp670
S'35570'
p671
asS'Udon Thani'
p672
(lp673
S'41000'
p674
aS'41110'
p675
aS'41130'
p676
aS'41150'
p677
aS'41190'
p678
aS'41210'
p679
aS'41240'
p680
aS'41260'
p681
aS'41310'
p682
aS'41380'
p683
aS'41190'
p684
aS'41000'
p685
ag685
aS'41110'
p686
aS'41130'
p687
aS'41150'
p688
aS'41210'
p689
aS'41240'
p690
aS'41260'
p691
aS'41310'
p692
aS'41380'
p693
asS'Uttukottai'
p694
(lp695
S'602026'
p696
aS'602026'
p697
asS'Ulnes'
p698
(lp699
S'2918'
p700
aS'2918'
p701
asS'Urzelina'
p702
(lp703
S'9800-421'
p704
aS'9800-423'
p705
aS'9800-425'
p706
aS'9800-427'
p707
aS'9800-429'
p708
aS'9800-431'
p709
aS'9800-433'
p710
aS'9800-435'
p711
aS'9800-421'
p712
aS'9800-423'
p713
aS'9800-425'
p714
aS'9800-427'
p715
aS'9800-429'
p716
aS'9800-431'
p717
aS'9800-433'
p718
aS'9800-435'
p719
asS'Uhwiesen'
p720
(lp721
S'8248'
p722
asS'Urgueira'
p723
(lp724
S'3570-170'
p725
asS'Urmein'
p726
(lp727
S'7427'
p728
asS'Urnieta'
p729
(lp730
S'20130'
p731
aS'20130'
p732
asS'Unnao H O'
p733
(lp734
g555
ag633
asS'Unter\xc3\xa4geri'
p735
(lp736
S'6314'
p737
asS'Ujjain Chhota Sarafa'
p738
(lp739
S'456006'
p740
asS'Ulsoor H O'
p741
(lp742
S'560008'
p743
aS'560008'
p744
asS'Usri'
p745
(lp746
S'804428'
p747
aS'804428'
p748
asS'Ujjain Begampura'
p749
(lp750
S'456006'
p751
aS'456006'
p752
asS'Udine'
p753
(lp754
S'33100'
p755
aS'34100'
p756
aS'34170'
p757
aS'34127'
p758
aS'34133'
p759
aS'34124'
p760
aS'34125'
p761
aS'34131'
p762
aS'34135'
p763
aS'34137'
p764
aS'34148'
p765
aS'34143'
p766
aS'34129'
p767
aS'34141'
p768
aS'34145'
p769
aS'34149'
p770
aS'33100'
p771
aS'34147'
p772
aS'33170'
p773
aS'33100'
p774
aS'33170'
p775
aS'34136'
p776
aS'33100'
p777
aS'33170'
p778
aS'34125'
p779
aS'34129'
p780
aS'34133'
p781
aS'34135'
p782
aS'34136'
p783
aS'34141'
p784
aS'34143'
p785
aS'34147'
p786
aS'34148'
p787
aS'34149'
p788
aS'34170'
p789
asS'Unalaska'
p790
(lp791
S'99685'
p792
aS'99685'
p793
asS'Unterd\xc3\xb6bling'
p794
(lp795
S'1190'
p796
asS'Udyognagar (Kanpur)'
p797
(lp798
g541
ag621
asS'Ultimo'
p799
(lp800
S'2007'
p801
asS'Umiken'
p802
(lp803
S'5222'
p804
asS'Unterhaching'
p805
(lp806
S'82008'
p807
asS'Untervaz'
p808
(lp809
S'7204'
p810
aS'7204'
p811
asS'Uhersk\xc3\xbd Ostroh'
p812
(lp813
S'687 24'
p814
asS'Untersievering'
p815
(lp816
S'1190'
p817
asS'Unterpetersdorf'
p818
(lp819
S'7312'
p820
asS'University'
p821
(lp822
S'456010'
p823
aS'38677'
p824
asS'Ujjain City'
p825
(lp826
S'456006'
p827
asS'Union Furnace'
p828
(lp829
S'43158'
p830
aS'43158'
p831
asS'Unterplatten'
p832
(lp833
S'6700'
p834
asS'Uri'
p835
(lp836
S'6377'
p837
aS'6460'
p838
aS'6461'
p839
aS'6463'
p840
aS'6466'
p841
aS'6467'
p842
aS'6468'
p843
aS'6473'
p844
aS'6475'
p845
aS'6484'
p846
aS'6487'
p847
aS'6490'
p848
aS'6493'
p849
aS'6490'
p850
aS'6467'
p851
aS'6377'
p852
ag852
aS'6468'
p853
aS'6461'
p854
aS'6473'
p855
aS'6487'
p856
aS'6452'
p857
aS'6463'
p858
aS'6466'
p859
aS'6475'
p860
aS'6493'
p861
aS'6460'
p862
aS'6484'
p863
aS'6460'
p864
aS'6460'
p865
asS'Udma'
p866
(lp867
S'671319'
p868
aS'671319'
p869
asS'Un\xc4\x8dice'
p870
(lp871
S'798 27'
p872
asS'Udhampur H O'
p873
(lp874
S'182101'
p875
asS'Und'
p876
(lp877
S'9464'
p878
aS'9464'
p879
asS'Unterramsern'
p880
(lp881
S'4588'
p882
asS'Uettligen'
p883
(lp884
S'3043'
p885
asS'Uggdal'
p886
(lp887
S'5685'
p888
aS'5685'
p889
asS'Uh\xc5\x99\xc3\xadn\xc4\x9bves'
p890
(lp891
S'104 00'
p892
asS'Ultadanga'
p893
(lp894
S'700004'
p895
asS'Ujjain Nagjhiri'
p896
(lp897
S'456010'
p898
asS'Upper Marlboro'
p899
(lp900
S'20772'
p901
aS'20772'
p902
asS'Uttaranchal'
p903
(lp904
S'248179'
p905
aS'244711'
p906
aS'244714'
p907
aS'244715'
p908
aS'244717'
p909
aS'246113'
p910
aS'246122'
p911
aS'246125'
p912
aS'246130'
p913
aS'246132'
p914
aS'246144'
p915
aS'246147'
p916
aS'246149'
p917
aS'246155'
p918
aS'246162'
p919
aS'246164'
p920
aS'246166'
p921
aS'246168'
p922
aS'246170'
p923
aS'246172'
p924
aS'246174'
p925
aS'246176'
p926
aS'246185'
p927
aS'246188'
p928
aS'246191'
p929
aS'246193'
p930
aS'246276'
p931
aS'246278'
p932
aS'246281'
p933
aS'246401'
p934
aS'246421'
p935
aS'246423'
p936
aS'246425'
p937
aS'246427'
p938
aS'246429'
p939
aS'246435'
p940
aS'246438'
p941
aS'246440'
p942
aS'246442'
p943
aS'246444'
p944
aS'246447'
p945
aS'246449'
p946
aS'246452'
p947
aS'246455'
p948
aS'246458'
p949
aS'246470'
p950
aS'246472'
p951
aS'246474'
p952
aS'246476'
p953
aS'246482'
p954
aS'246487'
p955
aS'246495'
p956
aS'248002'
p957
aS'248005'
p958
aS'248007'
p959
aS'248008'
p960
aS'248102'
p961
aS'248115'
p962
aS'248119'
p963
aS'248122'
p964
aS'248124'
p965
aS'248141'
p966
aS'248143'
p967
aS'248145'
p968
aS'248147'
p969
aS'248152'
p970
aS'248160'
p971
aS'248164'
p972
aS'248191'
p973
aS'248196'
p974
aS'248199'
p975
aS'248201'
p976
aS'248203'
p977
aS'249132'
p978
aS'249204'
p979
aS'249302'
p980
aS'261405'
p981
aS'262301'
p982
aS'262309'
p983
aS'262311'
p984
aS'262403'
p985
aS'262501'
p986
aS'262519'
p987
aS'262521'
p988
aS'262523'
p989
aS'262525'
p990
aS'262527'
p991
aS'262529'
p992
aS'262531'
p993
aS'262533'
p994
aS'262542'
p995
aS'262544'
p996
aS'262546'
p997
aS'262550'
p998
aS'262552'
p999
aS'262554'
p1000
aS'262561'
p1001
aS'262572'
p1002
aS'262574'
p1003
aS'262575'
p1004
aS'244711'
p1005
aS'244714'
p1006
aS'244715'
p1007
aS'244717'
p1008
aS'246113'
p1009
aS'246122'
p1010
aS'246125'
p1011
aS'246130'
p1012
aS'246132'
p1013
aS'246144'
p1014
aS'246147'
p1015
aS'246149'
p1016
aS'246155'
p1017
aS'246162'
p1018
aS'246164'
p1019
aS'246166'
p1020
aS'246168'
p1021
aS'246170'
p1022
aS'246172'
p1023
aS'246174'
p1024
aS'246176'
p1025
aS'246185'
p1026
aS'246188'
p1027
aS'246191'
p1028
aS'246193'
p1029
aS'246276'
p1030
aS'246278'
p1031
aS'246281'
p1032
aS'246401'
p1033
aS'246421'
p1034
aS'246423'
p1035
aS'246425'
p1036
aS'246427'
p1037
aS'246429'
p1038
aS'246435'
p1039
aS'246438'
p1040
aS'246440'
p1041
aS'246442'
p1042
aS'246444'
p1043
aS'246447'
p1044
aS'246449'
p1045
aS'246452'
p1046
aS'246455'
p1047
aS'246458'
p1048
aS'246470'
p1049
aS'246472'
p1050
aS'246474'
p1051
aS'246476'
p1052
aS'246482'
p1053
aS'246487'
p1054
aS'246495'
p1055
aS'248002'
p1056
aS'248005'
p1057
aS'248007'
p1058
aS'248008'
p1059
aS'248102'
p1060
aS'248115'
p1061
aS'248119'
p1062
aS'248122'
p1063
aS'248124'
p1064
aS'248141'
p1065
aS'248143'
p1066
aS'248145'
p1067
aS'248147'
p1068
aS'248152'
p1069
aS'248160'
p1070
aS'248164'
p1071
aS'248179'
p1072
ag1072
aS'248191'
p1073
aS'248196'
p1074
aS'248199'
p1075
aS'248201'
p1076
aS'248203'
p1077
aS'249132'
p1078
aS'249204'
p1079
aS'249302'
p1080
aS'261405'
p1081
aS'262301'
p1082
aS'262309'
p1083
aS'262311'
p1084
aS'262403'
p1085
aS'262501'
p1086
aS'262519'
p1087
aS'262521'
p1088
aS'262523'
p1089
aS'262525'
p1090
aS'262527'
p1091
aS'262529'
p1092
aS'262531'
p1093
aS'262533'
p1094
aS'262542'
p1095
aS'262544'
p1096
aS'262546'
p1097
aS'262550'
p1098
aS'262552'
p1099
aS'262554'
p1100
aS'262561'
p1101
aS'262572'
p1102
aS'262574'
p1103
aS'262575'
p1104
asS'Unterschlei\xc3\x9fheim'
p1105
(lp1106
S'85716'
p1107
aS'85716'
p1108
asS'Ueberstorf'
p1109
(lp1110
S'3182'
p1111
asS'Unhel'
p1112
(lp1113
S'456221'
p1114
aS'456221'
p1115
asS'Uh\xc5\x99i\xc4\x8dice'
p1116
(lp1117
S'752 01'
p1118
asS'Ulset'
p1119
(lp1120
S'5116'
p1121
asS'Unterwellenborn'
p1122
(lp1123
S'07333'
p1124
aS'07333'
p1125
asS'Ullunderpet'
p1126
(lp1127
S'606107'
p1128
aS'606107'
p1129
asS'Uhl\xc3\xad\xc5\x99sk\xc3\xa9 Janovice'
p1130
(lp1131
S'285 04'
p1132
aS'285 21'
p1133
aS'285 09'
p1134
aS'285 63'
p1135
aS'285 07'
p1136
aS'285 41'
p1137
aS'285 76'
p1138
aS'285 11'
p1139
aS'285 33'
p1140
aS'285 47'
p1141
aS'285 45'
p1142
aS'285 06'
p1143
aS'285 73'
p1144
aS'285 62'
p1145
aS'285 32'
p1146
aS'285 64'
p1147
aS'284 01'
p1148
aS'284 01'
p1149
aS'284 01'
p1150
aS'284 01'
p1151
aS'284 01'
p1152
aS'284 01'
p1153
aS'284 01'
p1154
aS'284 01'
p1155
aS'284 01'
p1156
aS'284 01'
p1157
aS'284 01'
p1158
aS'284 01'
p1159
aS'284 01'
p1160
aS'284 01'
p1161
aS'284 01'
p1162
aS'284 01'
p1163
aS'284 01'
p1164
aS'284 01'
p1165
aS'284 01'
p1166
aS'284 03'
p1167
aS'285 04'
p1168
aS'285 04'
p1169
aS'285 04'
p1170
aS'285 04'
p1171
aS'285 04'
p1172
aS'285 04'
p1173
aS'285 04'
p1174
aS'285 04'
p1175
aS'285 04'
p1176
aS'285 04'
p1177
aS'285 04'
p1178
aS'285 04'
p1179
aS'285 04'
p1180
aS'285 04'
p1181
aS'285 04'
p1182
aS'285 04'
p1183
aS'285 04'
p1184
aS'285 04'
p1185
aS'285 06'
p1186
aS'285 06'
p1187
aS'285 06'
p1188
aS'285 06'
p1189
aS'285 06'
p1190
aS'285 06'
p1191
aS'285 06'
p1192
aS'285 06'
p1193
aS'285 06'
p1194
aS'285 22'
p1195
aS'285 22'
p1196
aS'285 22'
p1197
aS'285 22'
p1198
aS'285 22'
p1199
aS'285 22'
p1200
aS'285 22'
p1201
aS'285 22'
p1202
aS'285 22'
p1203
aS'285 22'
p1204
aS'285 22'
p1205
aS'285 22'
p1206
aS'285 22'
p1207
aS'285 22'
p1208
aS'285 22'
p1209
aS'285 22'
p1210
aS'285 22'
p1211
aS'285 22'
p1212
aS'285 22'
p1213
aS'285 22'
p1214
aS'285 22'
p1215
aS'285 22'
p1216
aS'285 25'
p1217
aS'285 46'
p1218
aS'286 01'
p1219
aS'284 01'
p1220
aS'285 04'
p1221
aS'286 01'
p1222
asS'Uzwil'
p1223
(lp1224
S'9240'
p1225
aS'9240'
p1226
asS'University Campus'
p1227
(lp1228
S'360005'
p1229
aS'570006'
p1230
aS'360005'
p1231
aS'570006'
p1232
asS'Urbana'
p1233
(lp1234
S'43078'
p1235
aS'61801'
p1236
aS'71768'
p1237
aS'71768'
p1238
aS'61801'
p1239
aS'43078'
p1240
asS'Uetliburg SG'
p1241
(lp1242
S'8738'
p1243
aS'8738'
p1244
asS'Urduliz'
p1245
(lp1246
S'48610'
p1247
aS'48610'
p1248
asS'Unterb\xc3\xb6zberg'
p1249
(lp1250
S'5224'
p1251
aS'5224'
p1252
asS'Unterpurkla'
p1253
(lp1254
S'8484'
p1255
aS'8484'
p1256
asS'Uderns'
p1257
(lp1258
S'6271'
p1259
aS'6271'
p1260
asS'Uhersk\xc3\xa9 Hradi\xc5\xa1t\xc4\x9b (\xc4\x8d\xc3\xa1st)'
p1261
(lp1262
S'686 01'
p1263
asS'Urban Estate Gurgaon'
p1264
(lp1265
S'122001'
p1266
asS'Uttarsanda'
p1267
(lp1268
S'387370'
p1269
aS'387370'
p1270
asS'Udhampur Courts'
p1271
(lp1272
S'182101'
p1273
aS'182101'
p1274
asS'Ujjain Rishinagar'
p1275
(lp1276
S'456008'
p1277
aS'456008'
p1278
asS'Uppsala'
p1279
(lp1280
S'74011'
p1281
aS'74022'
p1282
aS'74030'
p1283
aS'74123'
p1284
aS'74130'
p1285
aS'74143'
p1286
aS'74171'
p1287
aS'74190'
p1288
aS'74195'
p1289
aS'74335'
p1290
aS'74393'
p1291
aS'74522'
p1292
aS'74530'
p1293
aS'74531'
p1294
aS'74534'
p1295
aS'74539'
p1296
aS'74541'
p1297
aS'74571'
p1298
aS'74596'
p1299
aS'74598'
p1300
aS'74622'
p1301
aS'74624'
p1302
aS'74631'
p1303
aS'74633'
p1304
aS'74691'
p1305
aS'74702'
p1306
aS'74742'
p1307
aS'74793'
p1308
aS'75003'
p1309
ag1309
aS'75016'
p1310
ag1310
aS'75023'
p1311
ag1311
aS'75025'
p1312
ag1312
aS'75121'
p1313
ag1313
aS'75122'
p1314
ag1314
aS'75126'
p1315
ag1315
aS'75128'
p1316
ag1316
aS'75143'
p1317
ag1317
aS'75182'
p1318
ag1318
aS'75183'
p1319
ag1319
aS'75185'
p1320
ag1320
aS'75189'
p1321
ag1321
aS'75231'
p1322
ag1322
aS'75239'
p1323
ag1323
aS'75262'
p1324
ag1324
aS'75263'
p1325
ag1325
aS'75273'
p1326
ag1326
aS'75275'
p1327
ag1327
aS'75311'
p1328
ag1328
aS'75314'
p1329
ag1329
aS'75318'
p1330
ag1330
aS'75319'
p1331
ag1331
aS'75320'
p1332
ag1332
aS'75322'
p1333
ag1333
aS'75327'
p1334
ag1334
aS'75329'
p1335
ag1335
aS'75332'
p1336
ag1336
aS'75334'
p1337
ag1337
aS'75335'
p1338
ag1338
aS'75337'
p1339
ag1339
aS'75423'
p1340
ag1340
aS'75426'
p1341
ag1341
aS'75431'
p1342
ag1342
aS'75434'
p1343
ag1343
aS'75440'
p1344
ag1344
aS'75446'
p1345
ag1345
aS'75450'
p1346
ag1346
aS'75592'
p1347
ag1347
aS'75594'
p1348
ag1348
aS'75597'
p1349
ag1349
aS'75598'
p1350
ag1350
aS'75645'
p1351
ag1351
aS'75648'
p1352
ag1352
aS'75650'
p1353
ag1353
aS'75652'
p1354
ag1354
aS'75653'
p1355
ag1355
aS'75655'
p1356
ag1356
aS'75756'
p1357
ag1357
aS'75757'
p1358
ag1358
aS'76296'
p1359
aS'81421'
p1360
aS'81423'
p1361
aS'81431'
p1362
aS'81493'
p1363
aS'81521'
p1364
aS'81540'
p1365
aS'81569'
p1366
aS'81591'
p1367
aS'75023'
p1368
ag1368
aS'74030'
p1369
aS'75007'
p1370
ag1370
aS'75121'
p1371
ag1371
aS'75185'
p1372
ag1372
aS'75320'
p1373
ag1373
aS'74022'
p1374
aS'74522'
p1375
aS'75262'
p1376
ag1376
aS'75594'
p1377
ag1377
aS'74012'
p1378
aS'74143'
p1379
aS'74531'
p1380
aS'74596'
p1381
aS'75002'
p1382
ag1382
aS'75104'
p1383
ag1383
aS'75126'
p1384
ag1384
aS'75183'
p1385
ag1385
aS'75228'
p1386
ag1386
aS'75263'
p1387
ag1387
aS'75273'
p1388
ag1388
aS'75318'
p1389
ag1389
aS'75322'
p1390
ag1390
aS'75335'
p1391
ag1391
aS'75440'
p1392
ag1392
aS'75450'
p1393
ag1393
aS'75592'
p1394
ag1394
aS'75597'
p1395
ag1395
aS'75652'
p1396
ag1396
aS'75756'
p1397
ag1397
aS'74020'
p1398
aS'74123'
p1399
aS'74171'
p1400
aS'74622'
p1401
aS'75025'
p1402
ag1402
aS'75142'
p1403
ag1403
aS'75189'
p1404
ag1404
aS'75332'
p1405
ag1405
aS'81521'
p1406
aS'81591'
p1407
aS'74011'
p1408
ag1408
aS'74130'
p1409
aS'74195'
p1410
aS'74335'
p1411
aS'74393'
p1412
aS'74530'
p1413
aS'74539'
p1414
aS'74541'
p1415
aS'74571'
p1416
aS'74598'
p1417
aS'74624'
p1418
aS'74631'
p1419
aS'74633'
p1420
aS'74691'
p1421
aS'74702'
p1422
aS'74742'
p1423
aS'74793'
p1424
aS'75003'
p1425
ag1425
aS'75016'
p1426
ag1426
aS'75122'
p1427
ag1427
aS'75128'
p1428
ag1428
aS'75143'
p1429
ag1429
aS'75146'
p1430
ag1430
aS'75182'
p1431
ag1431
aS'75226'
p1432
ag1432
aS'75231'
p1433
ag1433
aS'75239'
p1434
ag1434
aS'75275'
p1435
ag1435
aS'75311'
p1436
ag1436
aS'75314'
p1437
ag1437
aS'75319'
p1438
ag1438
aS'75327'
p1439
ag1439
aS'75329'
p1440
ag1440
aS'75334'
p1441
ag1441
aS'75337'
p1442
ag1442
aS'75423'
p1443
ag1443
aS'75426'
p1444
ag1444
aS'75431'
p1445
ag1445
aS'75434'
p1446
ag1446
aS'75446'
p1447
ag1447
aS'75598'
p1448
ag1448
aS'75645'
p1449
ag1449
aS'75648'
p1450
ag1450
aS'75650'
p1451
ag1451
aS'75653'
p1452
ag1452
aS'75655'
p1453
ag1453
aS'75757'
p1454
ag1454
aS'76296'
p1455
aS'81421'
p1456
aS'81423'
p1457
aS'81431'
p1458
aS'81493'
p1459
aS'81540'
p1460
aS'81569'
p1461
aS'74190'
p1462
aS'74534'
p1463
asS'Umbria'
p1464
(lp1465
S'05100'
p1466
aS'06121'
p1467
aS'06123'
p1468
aS'06125'
p1469
aS'06127'
p1470
aS'06129'
p1471
aS'06131'
p1472
aS'06134'
p1473
aS'06127'
p1474
aS'05100'
p1475
aS'05100'
p1476
aS'05100'
p1477
aS'06124'
p1478
aS'06128'
p1479
aS'05100'
p1480
aS'06121'
p1481
aS'06124'
p1482
aS'06125'
p1483
aS'06127'
p1484
aS'06129'
p1485
asS'Urretxu'
p1486
(lp1487
S'20700'
p1488
aS'20700'
p1489
asS'Udaipuria'
p1490
(lp1491
S'303807'
p1492
aS'303807'
p1493
asS'Unnikulam'
p1494
(lp1495
S'673574'
p1496
aS'673574'
p1497
asS'Uandreya Street (Chouki M'
p1498
(lp1499
S'400007'
p1500
asS'Unterengstringen'
p1501
(lp1502
S'8103'
p1503
aS'8103'
p1504
asS'Udyanmarg'
p1505
(lp1506
S'751009'
p1507
aS'751009'
p1508
asS'Uesslingen'
p1509
(lp1510
S'8524'
p1511
aS'8524'
p1512
asS'Un (Khargone)'
p1513
(lp1514
S'451440'
p1515
aS'451440'
p1516
asS'Udvari'
p1517
(lp1518
S'7066'
p1519
aS'7066'
p1520
asS'Underhill Center'
p1521
(lp1522
S'05490'
p1523
aS'05490'
p1524
asS'Uthai Thani'
p1525
(lp1526
S'61000'
p1527
aS'61120'
p1528
aS'61140'
p1529
aS'61160'
p1530
aS'61000'
p1531
ag1531
aS'61120'
p1532
aS'61140'
p1533
aS'61160'
p1534
asS'Unnaryd'
p1535
(lp1536
S'31083'
p1537
aS'31083'
p1538
asS'Unteriberg'
p1539
(lp1540
S'8842'
p1541
aS'8842'
p1542
asS'Utrera'
p1543
(lp1544
S'41710'
p1545
aS'41710'
p1546
asS'Urshult'
p1547
(lp1548
S'36013'
p1549
aS'36013'
p1550
asS'Ulm'
p1551
(lp1552
S'89073'
p1553
aS'59485'
p1554
aS'89073'
p1555
aS'59485'
p1556
asS'Ujjain H O'
p1557
(lp1558
S'456001'
p1559
asS'Unterloisdorf'
p1560
(lp1561
S'7444'
p1562
asS'Un\xc3\xadn'
p1563
(lp1564
S'679 24'
p1565
asS'Unho\xc5\xa1\xc5\xa5'
p1566
(lp1567
S'273 51'
p1568
asS'Untertauern'
p1569
(lp1570
S'5561'
p1571
asS'Ull\xc3\xa5nger'
p1572
(lp1573
S'87032'
p1574
aS'87032'
p1575
asS'Umpling'
p1576
(lp1577
S'793006'
p1578
aS'793006'
p1579
asS'Ueckerm\xc3\xbcnde'
p1580
(lp1581
S'17373'
p1582
aS'17373'
p1583
asS'Uttaradit'
p1584
(lp1585
S'53000'
p1586
aS'53120'
p1587
aS'53160'
p1588
aS'53230'
p1589
aS'53000'
p1590
ag1590
aS'53120'
p1591
aS'53140'
p1592
aS'53160'
p1593
aS'53230'
p1594
asS'Unterretzbach'
p1595
(lp1596
S'2074'
p1597
asS'Utsira'
p1598
(lp1599
S'5547'
p1600
aS'5547'
p1601
asS'Ulverstone'
p1602
(lp1603
S'7315'
p1604
asS'Untervaz Bahnhof'
p1605
(lp1606
S'7201'
p1607
asS'Ulsteinvik'
p1608
(lp1609
S'6065'
p1610
aS'6067'
p1611
asS'Uddeholm'
p1612
(lp1613
S'68340'
p1614
aS'68340'
p1615
asS'Ullanam North B.O'
p1616
(lp1617
S'676303'
p1618
aS'676303'
p1619
asS'Uhl\xc3\xad\xc5\x99e'
p1620
(lp1621
S'507 81'
p1622
asS'Unterterzen'
p1623
(lp1624
S'8882'
p1625
aS'8882'
p1626
asS'Uder'
p1627
(lp1628
S'37318'
p1629
aS'37318'
p1630
asS'Ulikkal'
p1631
(lp1632
S'670705'
p1633
aS'670705'
p1634
asS'Ulricehamn'
p1635
(lp1636
S'52326'
p1637
aS'52390'
p1638
aS'52326'
p1639
aS'52390'
p1640
asS'U-Thong'
p1641
(lp1642
S'72160'
p1643
asS'Upper Columbia Region (Golden)'
p1644
(lp1645
S'V0A'
p1646
aS'V0A'
p1647
asS'Usgaon'
p1648
(lp1649
S'403407'
p1650
aS'403407'
p1651
asS'Ubu\xc5\xa1\xc3\xadn'
p1652
(lp1653
S'592 42'
p1654
asS'Uddevalla'
p1655
(lp1656
S'45152'
p1657
aS'45193'
p1658
aS'45194'
p1659
aS'45193'
p1660
aS'45152'
p1661
aS'45194'
p1662
asS'Uhersk\xc3\xa9 Hradi\xc5\xa1t\xc4\x9b'
p1663
(lp1664
S'686 03'
p1665
aS'687 08'
p1666
aS'687 51'
p1667
ag7
aS'687 42'
p1668
aS'687 06'
p1669
ag814
aS'687 12'
p1670
aS'687 54'
p1671
aS'687 03'
p1672
aS'687 07'
p1673
aS'687 13'
p1674
aS'687 38'
p1675
aS'687 74'
p1676
aS'687 05'
p1677
aS'687 12'
p1678
aS'687 64'
p1679
aS'687 03'
p1680
aS'687 09'
p1681
aS'687 37'
p1682
aS'687 56'
p1683
aS'687 63'
p1684
aS'687 66'
p1685
aS'687 67'
p1686
aS'687 71'
p1687
aS'686 04'
p1688
aS'687 04'
p1689
aS'687 12'
p1690
aS'687 33'
p1691
aS'687 37'
p1692
aS'687 55'
p1693
aS'686 01'
p1694
aS'687 09'
p1695
aS'687 71'
p1696
aS'687 12'
p1697
aS'687 71'
p1698
aS'686 04'
p1699
aS'687 04'
p1700
aS'687 41'
p1701
ag1263
aS'686 01'
p1702
ag383
aS'687 12'
p1703
aS'687 22'
p1704
aS'687 24'
p1705
aS'687 33'
p1706
aS'687 71'
p1707
aS'686 01'
p1708
aS'687 03'
p1709
ag8
asS'Utkal University (Bhuban4'
p1710
(lp1711
S'751004'
p1712
asS'Ublo'
p1713
(lp1714
S'763 12'
p1715
asS'Unterlunkhofen'
p1716
(lp1717
S'8918'
p1718
aS'8918'
p1719
asS'Uner\xc3\xa1zka'
p1720
(lp1721
S'571 01'
p1722
asS'Untere Burtscha'
p1723
(lp1724
S'6707'
p1725
asS'Ujjain Madhonagar'
p1726
(lp1727
S'456001'
p1728
asS'Uhli\xc5\xa1t\xc4\x9b'
p1729
(lp1730
S'340 22'
p1731
asS'Unterwaltersdorf'
p1732
(lp1733
S'2442'
p1734
aS'2442'
p1735
asS'Umphang'
p1736
(lp1737
S'63170'
p1738
aS'63170'
p1739
asS'Underwood'
p1740
(lp1741
S'4119'
p1742
aS'4119'
p1743
asS'Udyog Bhawan'
p1744
(lp1745
S'110011'
p1746
asS'Uerkheim'
p1747
(lp1748
S'4813'
p1749
aS'4813'
p1750
asS'Uheln\xc3\xa1'
p1751
(lp1752
S'463 34'
p1753
aS'790 70'
p1754
asS'Una H O'
p1755
(lp1756
S'174303'
p1757
aS'174303'
p1758
asS'Uheln\xc3\xa1 P\xc5\x99\xc3\xadbram'
p1759
(lp1760
S'582 45'
p1761
asS'Usurbil'
p1762
(lp1763
S'20170'
p1764
aS'20170'
p1765
asS'Uppilakal B.O'
p1766
(lp1767
S'671314'
p1768
asS'Urbanov'
p1769
(lp1770
S'588 62'
p1771
asS'Uttendorf'
p1772
(lp1773
S'5723'
p1774
asS'Ura'
p1775
(lp1776
S'4763'
p1777
aS'4763'
p1778
asS'Uliyil B.O'
p1779
(lp1780
S'670702'
p1781
asS'Ustaoset'
p1782
(lp1783
S'3593'
p1784
asS'Uher\xc4\x8dice'
p1785
(lp1786
S'671 07'
p1787
asS'Udyogamandal'
p1788
(lp1789
S'683501'
p1790
aS'670621'
p1791
ag1633
aS'680121'
p1792
aS'680302'
p1793
aS'682023'
p1794
aS'680104'
p1795
aS'678611'
p1796
aS'680101'
p1797
aS'686010'
p1798
aS'695311'
p1799
aS'686141'
p1800
aS'673001'
p1801
ag439
aS'686730'
p1802
aS'676553'
p1803
aS'683521'
p1804
aS'670102'
p1805
aS'670571'
p1806
aS'670581'
p1807
aS'670621'
p1808
aS'670645'
p1809
aS'670650'
p1810
ag1781
aS'670702'
p1811
aS'671321'
p1812
aS'671324'
p1813
aS'671531'
p1814
aS'671532'
p1815
aS'671532'
p1816
aS'671543'
p1817
aS'673008'
p1818
aS'673027'
p1819
aS'673103'
p1820
aS'673313'
p1821
aS'673517'
p1822
aS'673573'
p1823
ag1496
aS'673579'
p1824
aS'673614'
p1825
ag1618
aS'676528'
p1826
aS'678574'
p1827
aS'678601'
p1828
aS'679308'
p1829
aS'679326'
p1830
aS'679531'
p1831
aS'679575'
p1832
aS'686009'
p1833
aS'689672'
p1834
aS'670014'
p1835
aS'670109'
p1836
aS'670306'
p1837
aS'670307'
p1838
aS'670327'
p1839
aS'670501'
p1840
aS'670511'
p1841
aS'670563'
p1842
aS'670581'
p1843
aS'670614'
p1844
aS'670622'
p1845
aS'670633'
p1846
aS'670644'
p1847
aS'670646'
p1848
aS'670674'
p1849
aS'670694'
p1850
aS'670703'
p1851
aS'670704'
p1852
aS'670706'
p1853
aS'670731'
p1854
aS'671122'
p1855
aS'671123'
p1856
aS'671124'
p1857
aS'671125'
p1858
aS'671314'
p1859
aS'671314'
p1860
ag1768
aS'671316'
p1861
aS'671317'
p1862
ag868
aS'671320'
p1863
aS'671321'
p1864
aS'671321'
p1865
aS'671321'
p1866
aS'671321'
p1867
aS'671322'
p1868
aS'671322'
p1869
aS'671323'
p1870
aS'671324'
p1871
aS'671345'
p1872
ag412
aS'671357'
p1873
aS'671531'
p1874
aS'671531'
p1875
aS'671532'
p1876
aS'671533'
p1877
aS'671541'
p1878
aS'671541'
p1879
aS'671542'
p1880
aS'671543'
p1881
aS'670014'
p1882
aS'670102'
p1883
aS'670109'
p1884
aS'670306'
p1885
aS'670307'
p1886
aS'670327'
p1887
aS'670501'
p1888
aS'670511'
p1889
aS'670563'
p1890
aS'670571'
p1891
aS'670581'
p1892
aS'670614'
p1893
aS'670621'
p1894
aS'670622'
p1895
aS'670633'
p1896
aS'670644'
p1897
aS'670645'
p1898
aS'670646'
p1899
aS'670650'
p1900
aS'670674'
p1901
aS'670694'
p1902
aS'670702'
p1903
aS'670703'
p1904
aS'670704'
p1905
ag1634
aS'670706'
p1906
aS'670731'
p1907
aS'671122'
p1908
aS'671123'
p1909
aS'671124'
p1910
aS'671125'
p1911
aS'671314'
p1912
aS'671316'
p1913
aS'671317'
p1914
ag869
aS'671320'
p1915
aS'671321'
p1916
aS'671322'
p1917
aS'671323'
p1918
aS'671324'
p1919
aS'671345'
p1920
ag413
aS'671357'
p1921
aS'671531'
p1922
aS'671532'
p1923
aS'671533'
p1924
aS'671541'
p1925
aS'671542'
p1926
aS'671543'
p1927
aS'673001'
p1928
aS'673008'
p1929
aS'673027'
p1930
aS'673103'
p1931
aS'673313'
p1932
aS'673517'
p1933
aS'673573'
p1934
ag1497
aS'673579'
p1935
aS'673614'
p1936
ag1619
aS'676528'
p1937
aS'676553'
p1938
aS'678574'
p1939
aS'678601'
p1940
aS'678611'
p1941
aS'679308'
p1942
aS'679326'
p1943
aS'679531'
p1944
aS'679575'
p1945
aS'680101'
p1946
aS'680104'
p1947
aS'680121'
p1948
aS'680302'
p1949
aS'682023'
p1950
aS'683501'
p1951
ag1951
aS'683521'
p1952
ag440
aS'686009'
p1953
aS'686010'
p1954
aS'686141'
p1955
aS'686730'
p1956
aS'689672'
p1957
aS'695311'
p1958
asS'Urdiain'
p1959
(lp1960
S'31810'
p1961
aS'31810'
p1962
asS'Umarda'
p1963
(lp1964
g554
ag632
asS'Union City'
p1965
(lp1966
S'07087'
p1967
aS'07087'
p1968
asS'Umraoganj'
p1969
(lp1970
S'802166'
p1971
aS'802166'
p1972
asS'Umer Rajah Road'
p1973
(lp1974
S'400008'
p1975
asS'Unionville'
p1976
(lp1977
S'06087'
p1978
aS'06087'
p1979
asS'Urswil'
p1980
(lp1981
S'6280'
p1982
asS'Ursy'
p1983
(lp1984
S'1670'
p1985
asS'Unterkulm'
p1986
(lp1987
S'5726'
p1988
asS'Uvdal'
p1989
(lp1990
S'3632'
p1991
aS'3632'
p1992
as.