(dp1
S'OSGRAM'
p2
(lp3
S'The development of a graduated radar-absorbing multi-layer structure for wind turbine applications to enable their positioning in areas of optimal power generation'
p4
asS'OMMCOS'
p5
(lp6
S'On-line Monitoring of Metallic Contamination in Silicon'
p7
asS'OAK-KEYS'
p8
(lp9
S'NEW SILVICULTURAL ALTERNATIVES IN YOUNG OAK HIGH FORESTS. CONSEQUENCES ON HIGH QUALITY TIMBER PRODUCTION'
p10
asS'OMEN'
p11
(lp12
S'Operating system optimized for mobile communications embedded applications need'
p13
a(lp14
S'Optimal practices, development policies and predictive Models for regions in an ENlarged EU'
p15
aasS'ODTIPIV'
p16
(lp17
S'Optical difraction tomography in particle image velocimetry'
p18
asS'ORMA'
p19
(lp20
S'Optimisation of resource use and waste management in an eco industrial park (ORMA)'
p21
asS'OPENNET'
p22
(lp23
S'Open interconnect for the Internet Community'
p24
a(lp25
S'Open interconnect for the Internet Community'
p26
aasS'OPIUM'
p27
(lp28
S'Open Platform for Integration of UMTS Middleware'
p29
a(lp30
S'Open Platform for Integration of UMTS Middleware'
p31
aasS'OPTMO'
p32
(lp33
S'Olefin Polymerization with catalysts based on transition Metals and Organometallics'
p34
asS'OPTIPORT'
p35
(lp36
S'The development of a new more efficient and safer portable traffic optimisation system for EU ports'
p37
asS'OIIC'
p38
(lp39
S'Generic approach to manufacturable optoelectronic interconnects for VSLI circuits'
p40
asS'OLGA'
p41
(lp42
S'On-line leisure group activities'
p43
a(lp44
S'A unified scalable framework for on-Line gaming'
p45
aa(lp46
S'A unified scalable framework for on-Line gaming'
p47
aasS'OPAL'
p48
(lp49
S'Online programme contribution and editorial collaboration'
p50
a(lp51
S'Integrated information and process management in manufacturing engineering'
p52
aa(lp53
S'Origins, proliferation and pathogenesis of L-form (cell wall deficient) bacteria'
p54
aa(lp55
S'Optimisation Platform for Airports, including Land-slide'
p56
aa(lp57
S'Optimisation Platform for Airports, including Land-slide'
p58
aa(lp59
S'Optimisation Platform for Airports, including Land-slide'
p60
aa(lp61
S'Invest. of innovative pollute clean-up and avoidance strategy for surface water and groundwater res. at the Amu Dary lowers'
p62
aa(lp63
S'OnLine Partnership lens: a social browser for networked enterprise'
p64
aa(lp65
S'OnLine Partnership lens: a social browser for networked enterprise'
p66
aasS'OBOE'
p67
(lp68
S'Open business object environment'
p69
asS'OPTFUEL'
p70
(lp71
S'Optimized fuels for sustainable transport in Europe'
p72
asS'OSIM CHIPSET'
p73
(lp74
S'Open and scaleable intelligent metering system chipset'
p75
asS'OPOSSUM SPERM COMP'
p76
(lp77
S'Sperm competition in the grey short-tailed opossum (Monodelphis domestica) and the post-copulatory role of sperm storage'
p78
asS'ONTHEJOB'
p79
(lp80
S'Study of methodologies and exploitation of organisational resources for on-the-job training'
p81
asS'OPENLABS'
p82
(lp83
S'Application of advanced informatics and Telematics for Optimisation of clinical laboratory services'
p84
asS'OSCAMIO'
p85
(lp86
S'Optical shape measurements connected to computer assisted manaufacturing of insoles in orthopaedics'
p87
asS'OTOMIC'
p88
(lp89
S'Otolith microchemistry as a means of identifying stocks of deep-water demersal fish.'
p90
asS'ODYSSEY'
p91
(lp92
S'Strategic pan-European ballistics intelligence platform for combating organised crime and terrorism'
p93
a(lp94
S'A multi-site multimedia skills-evaluation and development system for the tourism industry'
p95
aasS'OIL-TECH'
p96
(lp97
S"Development, characterisation and scaling of atomizers for a combustion technology that offers significant fuel savings and drastic reductions in both co2 and no emissions ('OIL-TECH')"
p98
asS'OUTREACH'
p99
(lp100
S'Overlooked Unresolved Toxic Organic Pollutants: Resolution, Identification, Measurement and Toxicity:OUTREACH'
p101
a(lp102
S'Flexible and professional training for the agents of technology'
p103
aasS'OXIDEM'
p104
(lp105
S'Understanding and inhibition of oxidative deterioration in novel food emulsion systems'
p106
asS'ONELAB'
p107
(lp108
S'OneLab: An open networking laboratory supporting communication Network research across heterogeneous environments'
p109
a(lp110
S'OneLab: An open networking laboratory supporting communication Network research across heterogeneous environments'
p111
aasS'OXIDES'
p112
(lp113
S'Engineering exotic phenomena at oxide interfaces'
p114
asS'OSPI-EUROPE'
p115
(lp116
S'Optimizing suicide prevention programs and their implementation in Europe'
p117
asS'OPA1'
p118
(lp119
S'OPA1 in dominant optic atrophy'
p120
asS'OLATRONICS'
p121
(lp122
S'Development and integration of processes and technologies for the production of organic low-cost and large-area flexible electronics'
p123
a(lp124
S'Development and integration of processes and technologies for the production of organic low-cost and large-area flexible electronics'
p125
aasS'OLAQUI'
p126
(lp127
S'Optical lattices and quantum information'
p128
a(lp129
S'Optical lattices and quantum information'
p130
aasS'ONLI'
p131
(lp132
S'On line Innovation: Virtual European Network of Technology Parks for Innovative services'
p133
asS"O'DONOGHUE ANNMARIE"
p134
(lp135
S'Mechanism-guided in vitro evolution'
p136
asS'OASIS-2'
p137
(lp138
S'Online Automated Sales and Information System'
p139
asS'OASIS-1'
p140
(lp141
S'Open Asset Storage and Interchange System'
p142
asS'OMNIPRES'
p143
(lp144
S'Omnibus Presence Technology Assessment and Measurement Groups'
p145
a(lp146
S'Omnibus Presence Technology Assessment and Measurement Groups'
p147
aasS'ORTHO AND PARA WATER'
p148
(lp149
S'Adventure with nuclear spin-isomers: separation, physical chemistry and applications of ortho- and para-water'
p150
asS'OGF-EUROPE'
p151
(lp152
S'Mobilising and integrating communities on grid standards and best practices globally'
p153
asS'OPET-SERVICES GERMAN'
p154
(lp155
S'Opet Network Service in the Areas of Res, Rue & Clean Coal for the Whole of Germany'
p156
a(lp157
S'Opet Network Service in the Areas of Res, Rue & Clean Coal for the Whole of Germany'
p158
aa(lp159
S'Opet network service in the areas of Res, Rue & clean coal for the whole of Germany'
p160
aasS'OPTIMUM'
p161
(lp162
S'Optimised Network Architectures for Multimedia Services'
p163
a(lp164
S'Applying HPC techniques to the industrial design : automatic optimization of forging processes'
p165
aa(lp166
S'Optimisation of industrial multiphase mixing (OPTIMUM)'
p167
aasS'OTA PREV'
p168
(lp169
S'Prevention of ochratoxin a in cereals'
p170
asS'OSSA'
p171
(lp172
S'Open framework for Simulation of transport Strategies and Assessment'
p173
a(lp174
S'OPEN FRAMEWORK FOR SIMULATION OF TRANSPORT STRATEGIES AND ASSESSMENT'
p175
aa(lp176
S'Open framework for simulation of transport strategies and assessment'
p177
aasS'OMI/STANDARDS'
p178
(lp179
S'Standards Methodology and Harmonisation'
p180
asS'OPTRANET'
p181
(lp182
S'Optolectronic Training Network'
p183
a(lp184
S'Optolectronic Training Network'
p185
aasS'OPTAS PART A'
p186
(lp187
S'OPTAS - TASK 4.3.2/45 PART A OF THE 3RD CALL. THE EUROPEAN COMMISSION FRAMEWORK 4 RTD PROGRAMME'
p188
asS'OSTREFCOM'
p189
(lp190
S"Human infants' preparedness for relevance-guided learning through ostensive-referential communication"
p191
asS'OPTIFIBER'
p192
(lp193
S'Numerical modelling of optical fibre and ribbon coating processes'
p194
asS'ONDROVE'
p195
(lp196
S'Overall interior noise design tool for road vehicles'
p197
asS'OPET AUSTRIA'
p198
(lp199
S'Organisations for the Promotion of Energy Technologies in Austria'
p200
a(lp201
S'Organisations for the promotion of energy technologies in Austria'
p202
aa(lp203
S'Organisations for the promotion of energy technologies in Austria'
p204
aa(lp205
S'Organisations for the Promotion of Energy Technologies in Austria'
p206
aasS'OMHEGA'
p207
(lp208
S'OPEN MHEG APPLICATIONS'
p209
asS'OPTIMAL NETWORKS'
p210
(lp211
S'Optimal Interconnection Networks'
p212
asS'OCTANE'
p213
(lp214
S'Open Contracting TransActions in the New Economy'
p215
a(lp216
S'Open Contracting TransActions in the New Economy'
p217
aasS'O2 BY PHOTOSYSTEM II'
p218
(lp219
S'Crucial intermediates in photosynthetic water splitting detected by time-resolved X-ray absorption spectroscopy (XAS) with synchrotron radiation'
p220
asS'OPEN TOK'
p221
(lp222
S'On process and engineering of nanoporous materials'
p223
asS'OMRISK'
p224
(lp225
S'IMPACTS AND RISKS FROM ANTHROPOGENIC DISTURBANCES ON SOILS, CARBON DYNAMICS AND VEGETATION IN PODZOLIC ECOSYSTEMS'
p226
asS'OAKFLOW'
p227
(lp228
S'Intra and interspecific gene flow in oaks as mechanisms promoting diversity and adaptive potential.'
p229
asS'OMI/GLUE'
p230
(lp231
S'Global Language Support and Uniform Environment'
p232
asS'ORGELNANOCARBMATER'
p233
(lp234
S'A Universal Supramolecular Approach toward Organic Electronic Materials and Nanostructured Carbonaceous Materials from Molecular Precursors'
p235
asS'ONTOWEB'
p236
(lp237
S'OntoWeb: Ontology-based information exchange for knowledge management and electronic commerce'
p238
a(lp239
S'OntoWeb: Ontology-based information exchange for knowledge management and electronic commerce'
p240
aasS'OSTEODEN'
p241
(lp242
S'Dendritic cells as possible determinants for bone marrow restricted t cells activation and bone loss in Estrogen depleted mice'
p243
asS'OSAF'
p244
(lp245
S'Omi software architecture forum'
p246
asS'OPTICAL NEUROCONTROL'
p247
(lp248
S'Flexible optical control of neural circuits'
p249
asS'ODICIS'
p250
(lp251
S'ODICIS - One dIsplay for a cockpit interactive solution'
p252
asS'OXIDANT STRESS IN AD'
p253
(lp254
S"Interactions between oxidative stress and the activation of mitogenic signalling in alzheimer's disease"
p255
asS'OMCS'
p256
(lp257
S'Organisation and qualification management in car repair shops'
p258
asS'ONEFIT'
p259
(lp260
S'Opportunistic networks and Cognitive Management Systems for Efficient Application Provision in the Future InterneT'
p261
a(lp262
S'Opportunistic networks and Cognitive Management Systems for Efficient Application Provision in the Future InterneT'
p263
aasS'ORQUEST'
p264
(lp265
S'A TELEMATIC SYSTEM FOR ORAL HEALTH QUALITY ENHANCEMENT'
p266
asS'OVCAD'
p267
(lp268
S'Ovarian Cancer - Diagnosing a Silent Killer'
p269
asS'OUTLINE'
p270
(lp271
S'A contactless optical measurement system to verify tiles outline of different materials'
p272
asS'OMI/HORN'
p273
(lp274
S'Highly Optimised Reusable Nucleus'
p275
asS'OSCAFET'
p276
(lp277
S'Design synthesis and evaluation of novel organic semiconductors'
p278
asS'OCSLI'
p279
(lp280
S'Overlay control technology for sub-wavelength lithography for 65nm node and beyond in the integrated circuit industry'
p281
a(lp282
S'Overlay control technology for sub-wavelength lithography for 65nm node and beyond in the integrated circuit industry'
p283
aasS'OAERRE'
p284
(lp285
S'Oceanographic applications to eutrophication in regions of restricted exchange'
p286
asS'OPENAIRE'
p287
(lp288
S'Open Access Infrastructure for Research in Europe'
p289
a(lp290
S'Open Access Infrastructure for Research in Europe'
p291
aa(lp292
S'Open Access Infrastructure for Research in Europe'
p293
aa(lp294
S'Open Access Infrastructure for Research in Europe'
p295
aa(lp296
S'Open Access Infrastructure for Research in Europe'
p297
aa(lp298
S'Open Access Infrastructure for Research in Europe'
p299
aa(lp300
S'Open Access Infrastructure for Research in Europe'
p301
aa(lp302
S'Open Access Infrastructure for Research in Europe'
p303
aa(lp304
S'Open Access Infrastructure for Research in Europe'
p305
aa(lp306
S'Open Access Infrastructure for Research in Europe'
p307
aa(lp308
S'Open Access Infrastructure for Research in Europe'
p309
aa(lp310
S'Open Access Infrastructure for Research in Europe'
p311
aa(lp312
S'Open Access Infrastructure for Research in Europe'
p313
aa(lp314
S'Open Access Infrastructure for Research in Europe'
p315
aasS'OMICO'
p316
(lp317
S'Oxide fuels: microstructure and composition variations'
p318
asS'ORGANIC HACCP'
p319
(lp320
S'Recommendations for improved procedures for securing consumer oriented food safety and quality of certified organic foods from plough to plate.'
p321
asS'OKKELS FRIDOLIN'
p322
(lp323
S'Chaotic mixing in microsystems'
p324
a(lp325
S'Chaotic mixing in microsystems'
p326
aasS'OLCHFA'
p327
(lp328
S'An Open Low-Cost Time-Critical Wireless Fieldbus Architecture'
p329
asS'OPTINAV'
p330
(lp331
S'The Optimal Navigation Support System'
p332
a(lp333
S'The Optimal Navigation Support System'
p334
aasS'OPTILUB'
p335
(lp336
S'Optimisation of rolling lubricants for improved operation of cold rolling mills'
p337
asS'OMAN'
p338
(lp339
S'OEIC Modules for the Access Network'
p340
asS'OPTICORR'
p341
(lp342
S'Optimisation of in-service performance of boiler steels by modelling high temperature corrosion'
p343
asS'ORGAPVNET'
p344
(lp345
S'Coordination Action towards stable and low-cost organic solar cell technologies and their application'
p346
asS'ORCHESTRA - 1'
p347
(lp348
S'ORGANISATIONAL CHANGE, EVOLUTION, STRUCTURING AND AWARENESS'
p349
asS'OOMPH'
p350
(lp351
S'Organics over the Ocean Modifying Particles in both Hemispheres'
p352
asS'ONE-LEX'
p353
(lp354
S'Ontologies for European Laws in Executable format'
p355
asS'OP3MET'
p356
(lp357
S'Optical 3D metrologyautomated in-line metrology for quality asurance in the manufacturing industry'
p358
asS'OLLA'
p359
(lp360
S'Organic LEDs for ICT and lighting applications'
p361
asS'OBERWOLFACH_06'
p362
(lp363
S'Oberwolfach 06: Algebra, Number Theory, Geometry, Topology, and Applications'
p364
asS'OPTISTRAIGHT'
p365
(lp366
S'Optimisation and improvement of the flame straightening process'
p367
asS'OZOSEP'
p368
(lp369
S'Investigation of ceramic membranes for ozone/oxygen separation'
p370
asS'OMI-FEM'
p371
(lp372
S'OMI for Electro-Mobile'
p373
asS'O&M-VIEW'
p374
(lp375
S'Multimedia Operations and Maintenance View'
p376
asS'OLEFINMETCAT'
p377
(lp378
S'Development of new catalysts for olefin metathesis: Applications in the synthesis of new polymeric systems'
p379
asS'OPTIVIP'
p380
(lp381
S'Optimisation of a Visual Implantable Prosthesis'
p382
a(lp383
S'Optimisation of a Visual Implantable Prosthesis'
p384
aasS'ORGANOCATALYSIS'
p385
(lp386
S'New strategies for chemical synthesis: Enantio-selective Organocatalytic Sigmatropic rearrangements'
p387
a(lp388
S'Versatile and environmentally friendly new reaction methodology for synthetic organic chemistry with application to medicinal chemistry'
p389
aasS'ONRADIO'
p390
(lp391
S'Developing Interactive Radios - Automated Content Packaging, Personalised Delivery and Access to Large Distributed Archive'
p392
a(lp393
S'Developing Interactive Radios - Automated Content Packaging, Personalised Delivery and Access to Large Distributed Archive'
p394
aasS'ORTHOWATCH'
p395
(lp396
S'Integrating outcome registers, retrieval analysis programs and preclinical validation methods into a synergistic post-marketing surveillance program for orthopedic devices'
p397
asS'OKO-AUDITOR'
p398
(lp399
S'EU Environmental Auditor - European training programme for the qualification of employees of small and medium-sized firms in accordance with EC Eco Audit Directive 1836/93'
p400
asS'ORTHOFLEX'
p401
(lp402
S"Stiffened polypropylene vacuum formings for orthoses to improve patients' comfort and mobility"
p403
asS'OPET AA'
p404
(lp405
S'Asean Application for the Opet Network'
p406
a(lp407
S'Asean application for the Opet Network'
p408
aasS'OLIVES'
p409
(lp410
S'Optical Interconnections for VLSI and Electronic Systems'
p411
asS'OPENXCHANGE'
p412
(lp413
S'Integrated business processes and methods for Electronic Procurement and Marketplaces'
p414
a(lp415
S'Integrated business processes and methods for Electronic Procurement and Marketplaces'
p416
aasS'OSCHSCAF'
p417
(lp418
S'Development of new strategies for osteochondral regeneration'
p419
asS'OMANE'
p420
(lp421
S'Original method for active research in new entreprenurial ideas'
p422
asS'OMNIPURSE'
p423
(lp424
S'Combined CEPS compliant contact/contactless card focused on transport and payment activities'
p425
a(lp426
S'Combined CEPS compliant contact/contactless card focused on transport and payment activities'
p427
aasS'OPEN HOUSE'
p428
(lp429
S'OPEN HOUSE - Benchmarking and mainstreaming building sustainability on the EU based on transparency and openness (open source and availability) from model to implementation'
p430
asS'OPTI_RAD_SEN'
p431
(lp432
S'A Novel Optical Fibre Based Distributed Radiation Sensor System'
p433
asS'O.W.T.'
p434
(lp435
S'Opening up world technology'
p436
asS'ORGANIZATION'
p437
(lp438
S'Spatial organization of photosynthetic complexes in membranes'
p439
asS'OPTAG'
p440
(lp441
S'Improving airport Efficiency, Security and Passenger Flow by Enhanced Passenger Monitoring (OPTAG)'
p442
asS'OMEGA'
p443
(lp444
S'NOVEL OPTICAL SENSOR 3-D MEASURING SYSTEM FOR COMPLEX GEOMETRY IN ADVERSE ENVIRONMENT'
p445
a(lp446
S'Development of operational monitoring system for european glacial areas - synthesis of earth observation data of the present, past and future (OMEGA)'
p447
aa(lp448
S'Object oriented methods and development environment for geoscience applications'
p449
aa(lp450
S'Optimisation of multiboard systems under EMC guidelines for avionics'
p451
aa(lp452
S'Home gigabit access'
p453
aa(lp454
S'Object Metadata for European Geographic Analysis'
p455
aa(lp456
S'COrrect development of reAl-time Embedded systems in UML'
p457
aa(lp458
S'Open Market Energy Generation Allocation'
p459
aa(lp460
S'Development and testing of an objective mesh gauge'
p461
aa(lp462
S'Development and Testing of an Objective Mesh Gauge'
p463
aa(lp464
S'Observations and Modelling of Eddy Scale Geostrophic and Ageostrophic Circulation'
p465
aa(lp466
S'Home gigabit access'
p467
aa(lp468
S'COrrect development of reAl-time Embedded systems in UML'
p469
aa(lp470
S'Open Market Energy Generation Allocation'
p471
aasS'OMI/DEBUG'
p472
(lp473
S'Tools for the Development and Debugging of Applications with Embedded OMI Microcontrollers'
p474
asS'OAPEN'
p475
(lp476
S'Open Access Publishing in European Networks'
p477
asS'OSCOGEN'
p478
(lp479
S'Optimisation of cogeneration systems in a competitive market environment (OSCOGEN)'
p480
asS'OPTSAM'
p481
(lp482
S'Optimisation of severe accident management strategies for the control of radiological releases'
p483
asS'OPTOCO2FISH'
p484
(lp485
S'Development of an opto-chemical carbon dioxide sensor for aquaculture and oceanography applications'
p486
a(lp487
S'Development of an Opto-chemical Carbon Dioxide Sensor for Aquaculture and Oceanography Applications'
p488
aasS'OPTIMISATION STUDY'
p489
(lp490
S'Optimisation study for the bonding of be to CUCRZR ITER task agreement: g16tt102fe ITER task: eu-t508'
p491
asS'ORG INT ISP'
p492
(lp493
S'Organelle interactions in iron-sulphur protein biogenesis'
p494
asS'OOA/MA'
p495
(lp496
S'An Object Oriented Approach for Medical Applications Development'
p497
asS'OXSPIRO'
p498
(lp499
S'Synthesis of naturally occurring anticancer agents by the Oxidative Spirocyclisation of Furans'
p500
asS'OXSENS'
p501
(lp502
S'Intraprotein signalling in heme-based sensors: the oxygen sensor FixL'
p503
asS'OESTROGEN RECEPTOR'
p504
(lp505
S'Growth factors and ovarian function in cattle. The IGF system and the oestrogen receptor'
p506
asS'OMNIPAPER'
p507
(lp508
S'Smart Access to European Newspapers'
p509
a(lp510
S'Smart Access to European Newspapers'
p511
aasS'ODINU'
p512
(lp513
S'Optimised data input and use'
p514
asS'ORCIS'
p515
(lp516
S'Optimisation of rearing conditions in sea bass for eliminated lordosis and improved musculoskeletal growth'
p517
a(lp518
S'Optimisation of rearing conditions in sea bass for eliminated lordosis and improved musculoskeletal growth'
p519
aasS'OPTICALBULLET'
p520
(lp521
S'Studies of neurosecretion by remote control of exocytosis and endocytosis'
p522
asS'ODESIM'
p523
(lp524
S'Optimum design of multibody systems'
p525
asS'ORTHOCAP'
p526
(lp527
S'Measurement system aiming to improve the comfort of people fitted with prostheses or ortheses'
p528
a(lp529
S'Measurement system aiming to improve the comfort of people fitted with prostheses or ortheses'
p530
aasS'ODER'
p531
(lp532
S'ODER Discharge - Environmental response'
p533
a(lp534
S'Oder discharge environmental response'
p535
aasS'ONTOGRID'
p536
(lp537
S'OntoGrid: PAVING THE WAY FOR KNOWLEDGEABLE GRID SERVICES AND SYSTEMS'
p538
a(lp539
S'OntoGrid: PAVING THE WAY FOR KNOWLEDGEABLE GRID SERVICES AND SYSTEMS'
p540
aasS'ODEM'
p541
(lp542
S'Object oriented and automated design and management of tools and manufacturing components'
p543
asS'ORC'
p544
(lp545
S'Open complete motion control system'
p546
asS'OLIMP-3D'
p547
(lp548
S'On Line Interactive Mechanical Parts 3D-data base'
p549
a(lp550
S'On Line Interactive Mechanical Parts 3D-data base'
p551
aasS'OWEE'
p552
(lp553
S'Concerted action on offshore wind energy in Europe'
p554
a(lp555
S'Concerted Action on Offshore Wind Energy in Europe'
p556
aasS'OXLEET'
p557
(lp558
S'Oxidation via low-energy electron transfer. Development of green oxidation methodology via a biomimetic approach'
p559
asS'OMNI'
p560
(lp561
S'Open Model For Network-wide Heterogeneous Intersection-based Transport Management'
p562
a(lp563
S'Office Wheelchair with High Manoeuvrability and Navigational Intelligence for People with Severe Handicap'
p564
aa(lp565
S'Open Model For Network-wide Heterogeneous Intersection-based Transport Management'
p566
aasS'OXICELLCYCLE'
p567
(lp568
S'Coordination of oxidative stress signalling with forkhead-regulated transcription during the fission yeast cell cycle'
p569
asS'O2ACTIVCUPROTEINS'
p570
(lp571
S'O2 activation in copper containing proteins'
p572
asS'ORFOIS'
p573
(lp574
S'Origin and fate of biogenic particle fluxes in the ocean and their interaction with the atmospheric co2 concentration as well as the marine sediment'
p575
asS'OPADE'
p576
(lp577
S'Optimisation of drug prescription using advanced informatics'
p578
asS'OBRA'
p579
(lp580
S'European observatory for long-term governance on radioactive waste management'
p581
asS'OXALKANES'
p582
(lp583
S'Development of sustainable selective catalytic oxidation of alkanes'
p584
asS'OCTOPLUS'
p585
(lp586
S'Optimum concept to produce and load with underwater storage (OCTOPLUS)'
p587
asS'OPTI-WORK'
p588
(lp589
S'Optimising strategies for integrating people with disabilities into work'
p590
asS'OAK ADAPTATION'
p591
(lp592
S'Phenotypic plasticity in drought and freezing responses of oaks across latitudinal gradients in the Americas and in Europe: A comparison of populations from two distinct evolutionary lineages'
p593
asS'OPET SCOTLAND'
p594
(lp595
S'Opet in Scotland to promote the rational use of energy and renewables - nifes consulting group with the Scottish energy'
p596
a(lp597
S'Opet in Scotland to Promote the Rational Use of Energy and Renewables - NIFES Consulting Group with the Scottish Energy Efficiency Office'
p598
aasS'OPTIBA'
p599
(lp600
S'Optimisation of information systems to facilitate entry into professional life and further training for young graduates in Europe'
p601
asS'OLICEMATIC'
p602
(lp603
S'Development of a novel, cost effective technique to optimise olive oil production'
p604
a(lp605
S'Development of a novel, cost effective technique to optimise olive oil production'
p606
aasS'OOCYTE ASYMMETRY'
p607
(lp608
S'Quantitative dynamic analysis of homologous chromosome segregation and its coordination with the asymmetric meiotic division in live mouse oocytes.'
p609
asS'ONE'
p610
(lp611
S'Open Negotiation Environment'
p612
a(lp613
S'Towards Automated Interactions between the Internet and the Carrier-Grade Management Ecosystems'
p614
aa(lp615
S'Optimisation methodologies for networked enterprises (ONE)'
p616
aa(lp617
S'OPAC Network in Europe'
p618
aa(lp619
S'Open Negotiation Environment'
p620
aa(lp621
S'Towards Automated Interactions between the Internet and the Carrier-Grade Management Ecosystems'
p622
aasS'OXPRION'
p623
(lp624
S'Investigating the role of oxidative stress or diet on prion disease susceptibility'
p625
asS'OMERACT 5'
p626
(lp627
S'Omeract 5'
p628
asS'ODECOMS'
p629
(lp630
S'Open Design Environment of Controlled Mechatronic Systems'
p631
asS'OCOPOMO'
p632
(lp633
S'Open Collaboration in Policy Modelling'
p634
asS'OCEGE'
p635
(lp636
S'Highly effective and low cost ozone compact electrochemical generator for environmentally friendly disinfecting (OCEGE)'
p637
asS'OSEF'
p638
(lp639
S'Object Oriented Software Engineering Flow'
p640
asS'OPEN-BPM'
p641
(lp642
S'Open business process management based on Cimosa'
p643
asS'ORECCA'
p644
(lp645
S'Off-shore Renewable Energy Conversion platforms Coordination Action'
p646
asS'OSIRIS / ISIS'
p647
(lp648
S'Survey and analysis project for evaluation, intervention, and transfer of the Leonardo da Vinci virtual firms project in initial vocational training'
p649
asS'OPETI'
p650
(lp651
S'Establishment For Opet-Israel As Part Of The Network Of Organisations For Promotion Of Energy Technologies'
p652
a(lp653
S'Establishment for Opet-Israel as Part of the Network of Organisations for Promotion of Energy Technologies'
p654
aasS'OPTIMIST'
p655
(lp656
S'Optical Technologies in Motion for the IST Programme'
p657
a(lp658
S'Optical Technologies in Motion for the IST Programme'
p659
aasS'OTASENS'
p660
(lp661
S'Novel photosensor-based device for rapid and quantitative ochratoxin A determination in wine, beer and feed'
p662
asS'OBJECTGUIDEDACTIONS'
p663
(lp664
S'Recognizing object guided human actions'
p665
asS'OPTIMOM'
p666
(lp667
S'HIGH PERFORMANCE COMPUTING IN PLASTIC INDUSTRY FOR OPTIMISATION OF INJECTION MOULDING'
p668
asS'OGMEE'
p669
(lp670
S'Oil & Gas Middle-East Exhibitions'
p671
a(lp672
S'Oil & gas middle-east exhibitions'
p673
aasS'OPARUS'
p674
(lp675
S'OPARUS (Open Architecture for UAV-based Surveillance System) (topic : SEC-2009.3.4.1 Continuity, coverage, performances, secure datalink)'
p676
asS'OCBA'
p677
(lp678
S'Objects for critical business applications'
p679
asS'OLEASUD'
p680
(lp681
S'OLEASUD'
p682
asS'OPENDRAMA'
p683
(lp684
S'The Digital Heritage of Opera in the Open Network Environment'
p685
a(lp686
S'The Digital Heritage of Opera in the Open Network Environment'
p687
aasS'OPTIMOILS'
p688
(lp689
S'Valorisation of healthy lipidic micro-nutrients by optimising food processing of edible oils and fats'
p690
a(lp691
S'Valorisation of healthy lipidic micro-nutrients by optimising food processing of edible oils and fats'
p692
aasS'OSTEODENT'
p693
(lp694
S'The diagnostic validity of dental radiography techniques for identifying osteoporotic patients (OSTEODENT)'
p695
asS'OMASES'
p696
(lp697
S'Open market access and security assessment system (dynamic stability of the electrical networks) (omases)'
p698
asS'OREMA'
p699
(lp700
S'Integrated efficiency and environmental optimisation of power plants'
p701
asS'OMI/DOMUS'
p702
(lp703
S'Domestic Appliances Open Microprocessor Unified System'
p704
asS'OGS'
p705
(lp706
S'Improved Determination of Oil Generation in Source Rock Shales'
p707
a(lp708
S'Improved determination of oil generation in source rock shales'
p709
aasS'OMVAC'
p710
(lp711
S'Novel prevention and treatment possibilities for Otitis Media through the comprehensive identification of antigenic proteins'
p712
asS'OPET-CIS'
p713
(lp714
S'Supporting Of Re Development in Russia and Cis Countries Based on Opportunities in Technologies Transfer, Re Projects Monitoring and Information Dissemination'
p715
a(lp716
S'Supporting of Re development in Russia and Cis countries based on opportunities in technologies transfer, Re projects monitoring and information dissemination'
p717
aa(lp718
S'Supporting Of Re Development in Russia and Cis Countries Based on Opportunities in Technologies Transfer, Re Projects Monitoring and Information Dissemination'
p719
aasS'OPET ESTONIA'
p720
(lp721
S'Estonian Organisation for the Promotion of Energy Technologies'
p722
a(lp723
S'Estonian Organisation for the Promotion of Energy Technologies'
p724
aa(lp725
S'Estonian organisation for the promotion of energy technologies'
p726
aasS'OPET SWEDEN'
p727
(lp728
S'Establishment of an OPET Office in Sweden'
p729
a(lp730
S'Establishment of an Opet office in Sweden'
p731
aa(lp732
S'Establishment of an Opet Office in Sweden'
p733
aasS'OPTINET'
p734
(lp735
S'Academic industry links and research networks in biotechnology'
p736
asS'OLIV-TRACK'
p737
(lp738
S'Traceability of origin and authenticity of olive oil by combined genomic and metabolomic approaches'
p739
asS'O-MOORE-NICE!'
p740
(lp741
S'Operational model order reduction for nanoscale IC Electronics'
p742
asS'OXYDELIGN'
p743
(lp744
S'Towards efficient oxygen delignification'
p745
asS'OPLEIDING AMBULANTE'
p746
(lp747
S'Curriculum Development and Training for Mobile Care Workers'
p748
asS'OLDES'
p749
(lp750
S"Older People's e-services at home"
p751
a(lp752
S"Older People's e-services at home"
p753
aasS'OCMP'
p754
(lp755
S'One-chip low power transceiver for multi-mode portable phones'
p756
asS'ORTHO-POLYNOMIALS'
p757
(lp758
S'Orthogonal Polynomials in spectral theory'
p759
asS'OCD SUBTYPES'
p760
(lp761
S'Obsessive compulsive disorder: a unitary syndrome, or an ambiguous label for separate psychiatric conditions?'
p762
asS'OPTIQUOS'
p763
(lp764
S'Optimal Control of Quantum Optical Systems'
p765
asS'OXMEDIAT'
p766
(lp767
S'Molecular Enzymology of Eicosanoid Synthesizing Enzymes: from mechanistic studies to rational drug design'
p768
a(lp769
S'Molecular Enzymology of Eicosanoid synthesizing Enzymes: from mechanistic studies to rational drug design'
p770
aasS'OFSES'
p771
(lp772
S'Fibre-Optic Sensor Systems'
p773
asS'OZOWATEX'
p774
(lp775
S'Industrial application of ozonization treatment for wastewater recycling in textile processes'
p776
a(lp777
S'INDUSTRIAL APPLICATION OF OZONIZATION TREATMENT FOR WASTEWATER RECYCLING IN TEXTILE PROCESSES'
p778
aasS'OREXINS'
p779
(lp780
S'Orexins / hypocretins - new targets for therapeutic control of feeding and sleeping disorders (OREXINS)'
p781
asS'OXYLIPIN SIGNALLING'
p782
(lp783
S'Oxylipin signalling in plant defence against pathogens'
p784
asS'OPENKNOWLEDGE'
p785
(lp786
S'OpenKnowledge'
p787
asS'OCDTP'
p788
(lp789
S'Organizational and communal determinants of technopark performance'
p790
asS'OMI-CELL'
p791
(lp792
S'Omi-cell controller'
p793
asS'OPET FINLAND'
p794
(lp795
S'Opet Finland 2000'
p796
a(lp797
S'Opet Finland 2000'
p798
aa(lp799
S'Opet Finland 2000'
p800
aasS'OLDCLOCK'
p801
(lp802
S'Ageing and the biological clock in the brain (OLDCLOCK)'
p803
asS'OURIQUE'
p804
(lp805
S'OTIMISED USE OF RURAL ELECTRIFICATION BASED ON PHOTOVOLTAICS'
p806
asS'OBESITY AND IMMUNITY'
p807
(lp808
S'Prevention of obesity-related inflammation'
p809
asS'OASIS'
p810
(lp811
S'Oceanic seamounts: an integrated study'
p812
a(lp813
S'Object-Oriented Administrative Systems-Development in Incremental Steps'
p814
aa(lp815
S'Optimising Access to SPOT Infrastructure for Science'
p816
aa(lp817
S'OASIS: open advanced system for disaster and emergency management'
p818
aa(lp819
S'OASIS : Open Advanced System for dIsaster and emergency management'
p820
aa(lp821
S'Optical Amplifier Similaritons In Southampton'
p822
aa(lp823
S'Open architecture for accessible services integration and standardisation'
p824
aa(lp825
S'Open Architecture and Schools in Society'
p826
aa(lp827
S'Workshops 1-3 for project OASIS: "Old age and autonomy: the role of service systems and intergenerational family solidarity"'
p828
aa(lp829
S'Old age and autonomy: the role of service systems and intergenerational solidarity'
p830
aa(lp831
S'On asymmetry in sphincters: the role of functional asymmetry of sphincter innervation in incontinence.'
p832
aa(lp833
S'OASIS: open advanced system for disaster and emergency management'
p834
aa(lp835
S'OASIS : Open Advanced System for dIsaster and emergency management'
p836
aa(lp837
S'Open Architecture and Schools in Society'
p838
aasS'OPIP'
p839
(lp840
S'Optics and Optoelectronics for Parallel Image Processing'
p841
asS'OPET BUILDING'
p842
(lp843
S'European Network For The Promotion Of Energy Technologies In The Building Sector'
p844
a(lp845
S'European network for the promotion of energy technologies in the building sector'
p846
aasS'OSOS'
p847
(lp848
S'Optimising the strategic observatories systems of SME'
p849
asS'ONCO-TRAIN'
p850
(lp851
S'Molecular Oncology Early Research Training'
p852
asS'OVERDRIVE'
p853
(lp854
S'Spectrum Efficient Uni- and Multicast Services over Dynamic Multi-Radio Networks in Vehicular Environments'
p855
a(lp856
S'Spectrum Efficient Uni- and Multicast Services over Dynamic Multi-Radio Networks in Vehicular Environments'
p857
aasS'OLITEC'
p858
(lp859
S'Bioactive natural compounds extracted and isolated from olive tree using modern technologies: Probing into their therapeutic potential'
p860
asS'OMI/DIS'
p861
(lp862
S'OMI Dissemination Project'
p863
asS'OPPORTUNITY'
p864
(lp865
S'Activity and context recognition with opportunistic sensor configurations'
p866
a(lp867
S'Activity and context recognition with opportunistic sensor configurations'
p868
aasS'OMI/DE-ARM'
p869
(lp870
S'Deeply Embedded ARM Applications'
p871
asS'ORES'
p872
(lp873
S'Towards the First Generation of Temporal Database Management Systems'
p874
asS'OGLEIV'
p875
(lp876
S'Optical Gravitational Lensing Experiment: New Frontiers in Observational Astronomy'
p877
asS'OPTELOMAC'
p878
(lp879
S'Opto-electronic organic materials by new acetylene chemistry'
p880
asS'OASYS'
p881
(lp882
S'Integrated optimization of landslide alert systems'
p883
asS'ONCODEATH'
p884
(lp885
S'Sensitisation and resistant determinants of cancer cells to death receptor related therapies'
p886
a(lp887
S'Molecular mechanisms of programmed cell death (apoptosis) and the development of apoptosis resistance in tumors'
p888
aa(lp889
S'Molecular mechanisms of programmed cell death (apoptosis) and the development of apoptosis resistance in tumors'
p890
aasS'OROCOS'
p891
(lp892
S'Open Robot Control Software'
p893
a(lp894
S'Open Robot Control Software'
p895
aasS'OMNIBUS'
p896
(lp897
S'Development of the tools and interpretation techniques for ultrasonic surveys to monitor the rock barrier around radioactive waste packages'
p898
asS'ODS-STEEL'
p899
(lp900
S'Novel oxide dispersion strengthened steels obtained by high productivity casting process with innovative injection of suitable special powders'
p901
asS'OPET SLOVAKIA'
p902
(lp903
S'Proposal for the Establishment of an Opet in the Slovak Republic'
p904
a(lp905
S'Proposal for the Establishment of an Opet in the Slovak Republic'
p906
aa(lp907
S'Proposal For The Establishment Of An Opet In The Slovak Republic'
p908
aasS'OurSpace'
p909
(lp910
S'The Virtual Youth Space'
p911
asS'OLIVEPOWER'
p912
(lp913
S'Demonstration of a sustainable CHP concept using residues from olive oil production'
p914
asS'OMI-AHS'
p915
(lp916
S'Open and Scalable Intelligent Meters for Advanced Home Services'
p917
asS'OPTICELL'
p918
(lp919
S'Advanced optical waveguide analysis of proteins and cells'
p920
asS'OPTISSIMO'
p921
(lp922
S'Evaluation and demonstration of the optical proximity correction and simulation software tool'
p923
asS'OXCNT'
p924
(lp925
S'Fundamental studies and applications of filled single walled nanotubes'
p926
asS'OMINEX'
p927
(lp928
S'0ptimisation of monitoring for internal exposure'
p929
asS'OPCRM'
p930
(lp931
S'Nonabelian Torelli theorem for Kodaira surfaces'
p932
asS'OLIGOANILINE_IMWS'
p933
(lp934
S'New approaches to insulated molecular wires derived from polyaniline'
p935
asS'ORICLA'
p936
(lp937
S'Towards Electronic Product Coding with RFID tags based on hybrid organic-oxide complementary thin-film technology'
p938
a(lp939
S'Towards Electronic Product Coding with RFID tags based on hybrid organic-oxide complementary thin-film technology'
p940
aasS'OEPI'
p941
(lp942
S'Exploring and Monitoring Any Organisation s Environmental Performance Indicators'
p943
a(lp944
S'Exploring and Monitoring Any Organisation s Environmental Performance Indicators'
p945
aasS'OCCASION'
p946
(lp947
S'Organising Caucasus and Central Asian services for Internet offerings to NRENs'
p948
asS'OVULTEST'
p949
(lp950
S'Improving profitability of dairy SMEs through developing, validating and promoting the use of a biosensor for ovulation detection'
p951
asS'OTAG'
p952
(lp953
S'Operational Management and Geo-decisional Prototype to track and trace agricultural production'
p954
asS'OPTIMA'
p955
(lp956
S'INTEGRATION OF FIBER OPTIC SENSORS FOR THE MONITORING OF ADVANCED MACHINE-TOOLS'
p957
a(lp958
S'Optical proximity techniques in microelectronics applications'
p959
aa(lp960
S'Optimisation for sustainable water management'
p961
aa(lp962
S'Optimal blood circulation.'
p963
aa(lp964
S'Optimal blood circulation.'
p965
aasS'OENOS'
p966
(lp967
S'Organoleptic examination of new oenological systems'
p968
a(lp969
S'Organoleptic Examination of New Oenological System'
p970
aa(lp971
S'Organoleptic Examination of New Oenological System'
p972
aasS'OPET RES-E'
p973
(lp974
S'Boosting Local Technology Uptake - An Opet Action To Support The Objectives Of The Res-e Directive'
p975
a(lp976
S'Boosting local technology uptake - an opet action to support the objectives of the res-e Directive'
p977
aasS'OPET BELGIUM'
p978
(lp979
S'Opet Belgium: Consortium for the Promotion of Energy Technologies in Belgium within the Framework of the Opet Network'
p980
a(lp981
S'Opet Belgium: Consortium for the Promotion of Energy Technologies in Belgium within the Framework of the Opet Network'
p982
aa(lp983
S'Opet Belgium: consortium for the promotion of energy technologies in Belgium within the framework of the Opet network'
p984
aasS'OPTIMI'
p985
(lp986
S'Online Predictive Tools for Intervention in Mental Illness (OPTIMI)'
p987
asS'OOAGEMEIOSIS'
p988
(lp989
S'Age - related changes in chromosome segregation in female meiosis'
p990
asS'OCEANS'
p991
(lp992
S'Open communication environment for agent-based networked services'
p993
a(lp994
S'Optimizing compilers for embedded applications'
p995
aasS'OP . US . LI'
p996
(lp997
S'Characterisation of south american genotypes of bean for optimal use of light under abiotic stress.'
p998
asS'ODEMM'
p999
(lp1000
S'Options for Delivering Ecosystem-Based Marine Management'
p1001
asS'OZONE'
p1002
(lp1003
S'New technologies and services for emerging nomadic societies'
p1004
a(lp1005
S'New technologies and services for emerging nomadic societies'
p1006
aasS'ONCE-CS'
p1007
(lp1008
S'Open Network for Connecting Excellence in Complex Systems'
p1009
a(lp1010
S'Open Network for Connecting Excellence in Complex Systems'
p1011
aa(lp1012
S'Open Network for Connecting Excellence in Complex Systems'
p1013
aa(lp1014
S'Open Network for Connecting Excellence in Complex Systems'
p1015
aasS'OPTIWIND'
p1016
(lp1017
S'Optimised 2 Mw wind turbines in high wind speed area with smooth grid integration'
p1018
a(lp1019
S'Optimised 2 Mw Wind Turbines In High Wind Speed Area With Smooth Grid Integration'
p1020
aasS'OMI/MMI'
p1021
(lp1022
S'Modular Microprocessor Implementation'
p1023
asS'OMARC'
p1024
(lp1025
S'Ocean margin research consortium'
p1026
asS'ONTOGOV'
p1027
(lp1028
S'Ontology enabled E-Gov Service Configuration'
p1029
a(lp1030
S'Ontology enabled E-Gov Service Configuration'
p1031
aasS'ONCOMIRS'
p1032
(lp1033
S'MicroRNAs and cancer: from bench to bedside'
p1034
asS'O2D2 FOR MCAE'
p1035
(lp1036
S'Use of Object Oriented Design and Development for Mechanical Computer Aided Engineering'
p1037
asS'OPTISPRAY'
p1038
(lp1039
S'Optimisation of spray forming of advanced high quality components of superalloys for aeronautic applications (OPTISPRAY)'
p1040
asS'OMI HEART'
p1041
(lp1042
S'Omi management office'
p1043
asS'OLIWAM'
p1044
(lp1045
S'Development and validation of on line monitoring and NDT Inspection of Laser welded thin sheet automotive components'
p1046
asS'OSSMA'
p1047
(lp1048
S'Multiple systems of spatial memory: their role in reasoning and action'
p1049
asS'OPENMOLGRID'
p1050
(lp1051
S'Open Computing GRID for Molecular Science and Engineering'
p1052
a(lp1053
S'Open Computing GRID for Molecular Science and Engineering'
p1054
aasS'OP-BPF'
p1055
(lp1056
S'Optimised packing in cement based products using by-product fines'
p1057
asS'O.D.A.S.'
p1058
(lp1059
S'Careers guidance for adult workers'
p1060
asS'OBAN'
p1061
(lp1062
S'Open broadband access networks'
p1063
a(lp1064
S'Open broadband access networks'
p1065
aasS'OCSRCTS'
p1066
(lp1067
S'Oxasilacyclohexenes -Chiral Scaffolds in Ruthenium Catalysed Tandem Synthesis'
p1068
asS'OPTIMERECELL'
p1069
(lp1070
S'Development of cost effective pemfc for automotive applications (OPTIMERECELL)'
p1071
asS'OAATNAAB'
p1072
(lp1073
S'Oxetane amino acids- towards new artificial antibiotics and biopolymers'
p1074
a(lp1075
S'Oxetane amino acids- towards new artificial antibiotics and biopolymers'
p1076
aasS'OMUR'
p1077
(lp1078
S'Modular and Submersible Offshore Mussel Rafts'
p1079
a(lp1080
S'Modular and submersible offshore mussel rafts'
p1081
aasS'OFCORSE II'
p1082
(lp1083
S'Optical frequency conversion in semiconductor heterostructures ii'
p1084
asS'OFSPIN'
p1085
(lp1086
S'Organic-Ferromagnetic hybrid interfaces for Spintronic applications'
p1087
asS'OPTISCORE'
p1088
(lp1089
S'Applying new electronic sensors to create animal condition scoring protocols for the automated measurement of health and welfare traits for use in sustainable organic dairy cow breeding programmes'
p1090
asS'OXYMEM'
p1091
(lp1092
S'The influence of oxygen flux on the stability of dense ceramic membranes for synthesis gas production'
p1093
asS'ONTOWIKI'
p1094
(lp1095
S'OntoWiki semantic collaboration for enterprise knowledge management, e-learning and e-tourism'
p1096
asS'OWEC-1'
p1097
(lp1098
S'Offshore wave energy converters'
p1099
asS'OPTIWHEAT'
p1100
(lp1101
S'IMPROVING THE YIELD STABILITY OF DURUM WHEAT UNDER MEDITERRANEAN CONDITIONS'
p1102
asS'OMCLICYCON'
p1103
(lp1104
S'Unravelling Oligocene-middle Miocene climate change in cyclic continental sequences'
p1105
asS'OPTEL'
p1106
(lp1107
S'Slow setting cationic bituminous emulsion for construction and maintenance of roads'
p1108
asS'ORANCO'
p1109
(lp1110
S'Organometallic anticancer complexes: novel mechanisms of action'
p1111
asS'ORIENTEL'
p1112
(lp1113
S'Multilingual access to interactive communication services for the Mediterranean and the Middle East'
p1114
a(lp1115
S'Multilingual access to interactive communication services for the Mediterranean and the Middle East'
p1116
aasS'OSACA'
p1117
(lp1118
S'Open System Architecture for Controls within Automation Systems'
p1119
asS'OLOS'
p1120
(lp1121
S'A holistic approach to the dependability analysis and evaluation of control systems involving hardware, software and human resources'
p1122
asS'OUVERTURE'
p1123
(lp1124
S'An Industry Project to Progress Microkernel-based Open Operating Systems for the 1990s'
p1125
asS'OROMA'
p1126
(lp1127
S'Operational radar and optical mapping in monitoring hydrodynamic, morphodynamic and environmental parameter for coastal management'
p1128
asS'ODON'
p1129
(lp1130
S'Optimal design of observational networks'
p1131
asS'OCEANSAVER'
p1132
(lp1133
S'Dramatically reducing spreading of invasive, non-native exotic species into new ecosystems through n efficient and high volume capacity ballast water cleaning system (OCEANSAVER)'
p1134
asS'OPTIMON'
p1135
(lp1136
S'Non-invasive monitoring of health markers in human substrates by optical spectroscopy'
p1137
a(lp1138
S'Non-invasive monitoring of health markers in human substrates by optical spectroscopy'
p1139
aasS'OLITEXT'
p1140
(lp1141
S'OLITEXT-IMPROVEMENT OF TEXTURE CHARACTERISTICS OF SOME EUROPEAN OLIVE-FRUIT VARIETIES SUITABLE FOR TABLE-OLIVE PURPOSES'
p1142
asS'OPT-ADD'
p1143
(lp1144
S'Development of optical NDT techniques and automated defect detection'
p1145
asS'OLEG BELYAKOV'
p1146
(lp1147
S'Mechanisms of radiation induced genomic instability and bystander effect'
p1148
asS'OPTIM'
p1149
(lp1150
S'Automatic optimisation of the injection moulding process'
p1151
asS'ONCASYM'
p1152
(lp1153
S'Cancer stem cells and asymmetric cell division'
p1154
asS'O.E.A.'
p1155
(lp1156
S'Training and working in Europe'
p1157
asS'OPET-SADC'
p1158
(lp1159
S'Establishment and Operation of an Opet Associate in the Southern African Development Community (Sadc) region'
p1160
a(lp1161
S'Establishment and operation of an Opet associate in the Southern African development community (Sadc) region'
p1162
aa(lp1163
S'Establishment and Operation of an Opet Associate in the Southern African Development Community (Sadc) region'
p1164
aasS'OPTICOM'
p1165
(lp1166
S'Optimisation advanced optical coatings technologies competitive manufacturing'
p1167
asS'ORIGENE'
p1168
(lp1169
S'Understanding the origin of species: ecological genomics and transcriptomics on Oceanic islands'
p1170
asS'OPTICON'
p1171
(lp1172
S'Optical-Infrared Co-ordination Network for Astronomy'
p1173
a(lp1174
S'Optical infrared coordination network for astronomy'
p1175
aa(lp1176
S'Optical-infared co-ordination network for astronomy'
p1177
aa(lp1178
S'Optical-infared co-ordination network for astronomy'
p1179
aasS'OPENFUTURES'
p1180
(lp1181
S'OpenFutures - Future Centres as collaborative working environments'
p1182
a(lp1183
S'OpenFutures - Future Centres as collaborative working environments'
p1184
aasS'OCMMM'
p1185
(lp1186
S'Optical characterisation methods for mems manufacturing (OCMMM)'
p1187
asS'OSSWLAN'
p1188
(lp1189
S'Optimized spread spectrum wireless - lAN'
p1190
asS'OPET-PORTUGAL'
p1191
(lp1192
S'Organisation for the promotion of energy technologies in Portugal'
p1193
a(lp1194
S'Organisation for the Promotion of Energy Technologies in Portugal'
p1195
aa(lp1196
S'Organisation for the Promotion of Energy Technologies in Portugal'
p1197
aasS'ORIGINS'
p1198
(lp1199
S'Elucidating the ORIGINS of Solar System(s): Anatomy of primitive meteorites'
p1200
asS'ON-LINE MEASUREMENT'
p1201
(lp1202
S'On-line measurement for optimisation of steel production'
p1203
asS'OVEJERO-BOGLIONE MAR'
p1204
(lp1205
S'Regenerative capacity of lens-derived factors on optic axons'
p1206
a(lp1207
S'Regenerative capacity of lens-derived factors on optic axons'
p1208
aasS'OMI/THEOS'
p1209
(lp1210
S'Porting the EOS RTOs on the arm thumb architecture'
p1211
asS'OPENROUTER'
p1212
(lp1213
S'OPEN source ROUTER for the SOHO market'
p1214
a(lp1215
S'OPEN source ROUTER for the SOHO market'
p1216
aasS'OGPLIE'
p1217
(lp1218
S'Ortega y Gasset s philosophy of life and his idea of Europe'
p1219
asS'OPTI-2'
p1220
(lp1221
S'Optimising nutritional quality of crops'
p1222
asS'OBSERVABLES IN QG'
p1223
(lp1224
S'Physical observables in quantum gravity'
p1225
asS'OSOA'
p1226
(lp1227
S'Origin and formation of secondary organic aerosol'
p1228
asS'OPTIPOD'
p1229
(lp1230
S'Optimal design and implementation of azimything pods for a safe and efficient propulsion ships (OPTIPOD)'
p1231
asS'OREST'
p1232
(lp1233
S'Odra region network for cross-border cooperation and integration of economy, science and technology'
p1234
asS'ORASIS'
p1235
(lp1236
S'Object Oriented Approaches in Software Development'
p1237
asS'OG48'
p1238
(lp1239
S'The 1948 London Olympic Games'
p1240
asS'OLFCOD'
p1241
(lp1242
S'OLFACTORY CODING: TEMPORAL PATTERNS OF MITRAL CELL RESPONSES TO ODORANTS'
p1243
asS'OFSETH'
p1244
(lp1245
S'Optical fibre sensors embedded into technical textile for Healthcare monitoring'
p1246
a(lp1247
S'Optical fibre sensors embedded into technical textile for Healthcare monitoring'
p1248
aasS'OBSI-FSU'
p1249
(lp1250
S'Joining worlds apart: Observations and Simulations of the First Stars in the Universe'
p1251
asS'OXEPICLE'
p1252
(lp1253
S'Oxidation and EPItaxy pre CLEan treatments'
p1254
a(lp1255
S'Oxidation and EPItaxy pre CLEan treatments'
p1256
aasS'OPENECG'
p1257
(lp1258
S'Computerized ECG Standards Interoperability Portal'
p1259
a(lp1260
S'Computerized ECG Standards Interoperability Portal'
p1261
aasS'OTC SOCIOMED'
p1262
(lp1263
S'Assessing the over-the-counter medications in primary care and translating the theory of planned behaviour into interventions'
p1264
asS'OPENNODE'
p1265
(lp1266
S'Open Architecture for Secondary Nodes of the Electricity SmartGrid'
p1267
a(lp1268
S'Open Architecture for Secondary Nodes of the Electricity SmartGrid'
p1269
aasS'OMNI-NET'
p1270
(lp1271
S'Opto-Micro-Nano Innovative Network Exploiting Transversality'
p1272
asS'OFLOTUB'
p1273
(lp1274
S'A multicentre randomized control trial of ofloxacine-containing short-course regimen for the treatment of pulmonary tuberculosis'
p1275
asS'OBSIDIAN'
p1276
(lp1277
S'Geomar'
p1278
asS'ONCA'
p1279
(lp1280
S'Equal opportunities through new continuing training approaches for female workers'
p1281
asS'ORPHAN RECEPTORS'
p1282
(lp1283
S'Functional characterisation of orphan g protein-coupled receptors and their validation as drug targets'
p1284
asS'OSIM-AHS'
p1285
(lp1286
S'Open and Scalable Intelligent Meter for Advanced Home Service'
p1287
asS'OPENEUR'
p1288
(lp1289
S'Identity questions. Measuring openness and closure in European Societies.'
p1290
asS'OVAGE'
p1291
(lp1292
S'Early development of ovarian follicles - determination of the timing of menopause'
p1293
asS'OPERAMAR'
p1294
(lp1295
S'An interooperable approach to the European union maritime security management'
p1296
asS'ORIGAMI'
p1297
(lp1298
S'A new paradigm for high-quality mixing of real and virtual'
p1299
a(lp1300
S'A new paradigm for high-quality mixing of real and virtual'
p1301
aasS'OMP/CAST'
p1302
(lp1303
S'Om partners/computer aided software testing'
p1304
asS'OLEFINMETAPOLYSYS'
p1305
(lp1306
S'Development of new catalysts for olefin metathesis: Applications in the synthesis of new polymeric systems'
p1307
asS'OPTIMALVAC'
p1308
(lp1309
S'Initiative on optimizing malaria vaccine lab assays evaluation'
p1310
asS'OPTHER'
p1311
(lp1312
S'Optically driven terahertz amplifiers'
p1313
asS'ORTHOSOME'
p1314
(lp1315
S'An orthogonal episome: An artificial genetic system based on a novel type of nucleic acids'
p1316
a(lp1317
S'An orthogonal episome: An artificial genetic system based on a novel type of nucleic acids'
p1318
aasS'OMI/SAFE'
p1319
(lp1320
S'Safe ADA for embedded'
p1321
asS'OPTISUN'
p1322
(lp1323
S'The development of a new more efficient grid connected PV module'
p1324
asS'OPTIX'
p1325
(lp1326
S'Optical techniques for industrial inspection of floar glass quality using machine vision and high performance computing'
p1327
a(lp1328
S'Optical technologies for the identification of explosives'
p1329
aasS'OEDIBUS'
p1330
(lp1331
S'Optoelectronic Eye-up floating DIsplay BUS'
p1332
a(lp1333
S'Optoelectronic Eye-up floating DIsplay BUS'
p1334
aasS'OPUS'
p1335
(lp1336
S'Optimizing the seismic performance of steel and steel-concrete structures by standardizing material quality control'
p1337
a(lp1338
S'Open Process Control Unified Systems'
p1339
aa(lp1340
S'ON-LINE PRODUCTION CONTROL IN THE FOOD INDUSTRY USING FLUORESCENCE SPECTROSCOPY'
p1341
aa(lp1342
S'ON-LINE PRODUCTION CONTROL IN THE FOOD INDUSTRY USING FLUORESCENCE SPECTROSCOPY'
p1343
aa(lp1344
S'Optimising the Use of Partial Information on Urban and Regional Systems'
p1345
aa(lp1346
S'Optimal Public Procurement Services In The Healthcare Marketplace'
p1347
aa(lp1348
S'Optimising the Use of Partial Information on Urban and Regional Systems'
p1349
aa(lp1350
S'Optimising the Use of Partial Information on Urban and Regional Systems'
p1351
aa(lp1352
S'Optimal Public Procurement Services In The Healthcare Marketplace'
p1353
aa(lp1354
S'Optimising the Use of Partial Information on Urban and Regional Systems'
p1355
aasS'OMI-UG-TRANSPORT'
p1356
(lp1357
S'Omi user group on automotive and aerospace applications'
p1358
asS'OMP'
p1359
(lp1360
S'Open Media Platform'
p1361
asS'ORGANISING FOR ENLAR'
p1362
(lp1363
S'Organising for eu enlargement: a challenge for the member states and the candidate states'
p1364
a(lp1365
S'Organising for eu enlargement: a challenge for the member states and the candidate states'
p1366
aasS'ODORSPACE'
p1367
(lp1368
S'Predicting odour perception from odorant structure and neural activity in the olfactory system'
p1369
asS'ORDIT'
p1370
(lp1371
S'The Development of a Methodology for Specifying Non-Functional Requirements'
p1372
asS'ONCHOCERCIASIS'
p1373
(lp1374
S'Vaccination against river blindness (ONCHOCERCIASIS)'
p1375
asS'ORGANELL'
p1376
(lp1377
S'Organelle homeostasis: How are membrane fission and fusion machineries coordinated to regulate size and copy number of a lysosomal compartment?'
p1378
asS'OPTIMIST_I I'
p1379
(lp1380
S'Bottom up innovation planning'
p1381
a(lp1382
S'Bottom up innovation planning'
p1383
aasS'OLIVIER CERDAN'
p1384
(lp1385
S'Modelling soil erosion for cultivated catchments'
p1386
asS'OPHIS'
p1387
(lp1388
S'COMPOSITE PHENOTYPIC TRIGGERS FOR BONE AND CARTILAGE REPAIR'
p1389
asS'OPERHA'
p1390
(lp1391
S'Open and fully compatible next generation of strengthening system for the Rehabilitation of Mediterranean cultural heritage'
p1392
asS'OPTIRES'
p1393
(lp1394
S'A Planning Tool for the Optimal Regional Integration of Renewable Energy Sources'
p1395
asS'ORPHEE'
p1396
(lp1397
S'Innovative propellants in hybrid propulsion technology and its applications in space transportation'
p1398
asS'ON LIVE'
p1399
(lp1400
S'ON LINE INTERACTIVE VIRTUAL EDUCATOR'
p1401
asS'ORGANIC INPUTS EVALU'
p1402
(lp1403
S'Harmonised and standardised procedures for evaluation of plant protection products, fertilizers and soil conditioners for use in organic agriculture'
p1404
asS'ORALANTINOROVIRUS'
p1405
(lp1406
S'Development of an oral anti-norovirus therapy'
p1407
asS'O-CHESS'
p1408
(lp1409
S'On-line chemistry of the steel surfaces'
p1410
asS'OXIDESYNERGY'
p1411
(lp1412
S'Understanding the atomic scale synergies of catalytically active nanoclusters on metal oxide surfaces'
p1413
asS'ORRIS'
p1414
(lp1415
S'Original synthons for life sciences'
p1416
a(lp1417
S'Original synthons for life sciences'
p1418
aasS'OPCONSTAINLESS'
p1419
(lp1420
S'Resource-saving operation and control of stainless steel refining in VOD and AOD process'
p1421
asS'OPET SLOVENIA'
p1422
(lp1423
S'Opet Slovenia - Member of Opet Network'
p1424
a(lp1425
S'Opet Slovenia - member of Opet network'
p1426
aa(lp1427
S'Opet Slovenia - Member of Opet Network'
p1428
aa(lp1429
S'Opet Slovenia - member of Opet network'
p1430
aasS'OPTISTEM'
p1431
(lp1432
S'Optimization of stem cell therapy for clinical trials of degenerative skin and muscle diseases'
p1433
asS'OPET LITHUANIA'
p1434
(lp1435
S'Organisation for the Promotion of Energy Technologies Lithuania'
p1436
a(lp1437
S'Organisation for the promotion of energy technologies Lithuania'
p1438
aa(lp1439
S'Organisation for the promotion of energy technologies Lithuania'
p1440
aa(lp1441
S'Organisation for the Promotion of Energy Technologies Lithuania'
p1442
aasS'OSSAD'
p1443
(lp1444
S'Office Support Systems Analysis and Design'
p1445
asS'OLAS'
p1446
(lp1447
S'Organic electrically pumped LASer by engineering of heterostructures in field-effect devices'
p1448
a(lp1449
S'Organic electrically pumped LASer by engineering of heterostructures in field-effect devices'
p1450
aasS'OneGeology-Europe'
p1451
(lp1452
S'OneGeology-Europe'
p1453
asS'ORCAB'
p1454
(lp1455
S'Improving quality and safety in the hospital: The link between organisational culture, burnout, and quality of care'
p1456
asS'OFFSHORE FSI'
p1457
(lp1458
S'FLUID-STRUCTURE INTERACTIONS IN OFFSHORE ENGINEERING'
p1459
asS'ORIEL'
p1460
(lp1461
S'ORIEL - an Online Research Information Environment for the Life Sciences'
p1462
a(lp1463
S'ORIEL - an Online Research Information Environment for the Life Sciences'
p1464
aasS'ONDECO'
p1465
(lp1466
S'On-line control of desulphurisation and degassing through ladle bubbling under vacuum'
p1467
asS'OMI/SPAM'
p1468
(lp1469
S'Omi software portability assessment methodology'
p1470
asS'OBES-WSHP 2002'
p1471
(lp1472
S'Increasing the impact of european obesity research : preparing for the era'
p1473
asS'ORDER FOR STUDIES,DE'
p1474
(lp1475
S'Manufacturing feasibility of studs with enhanced thermal conductivity by the means of either copper cores, or liquid sodium - material data collection ITER task agreement: g16tt94 ITER task: eu-t420'
p1476
a(lp1477
S'Low temperature be/cu joining tests to validate the ITER PFWPconcept ITER task agreement: g16tt94 ITER task: eu-t420'
p1478
aa(lp1479
S'Revised design of the ITER-feat tokamak water cooling system ITER task agreement: n26td08 ITER task: eu-d420'
p1480
aa(lp1481
S'Efet contribution to the European assessment of the ITER-feat final design report'
p1482
aasS'OPET-ANDEAN COMMUNIT'
p1483
(lp1484
S'Opet Associate Candidature for the Andean Community (Area)'
p1485
a(lp1486
S'Opet Associate Candidature for the Andean Community (Area)'
p1487
aa(lp1488
S'Opet associate candidature for the Andean community (area)'
p1489
aasS'OPENEVIDENCE'
p1490
(lp1491
S'An OPEN source tEchnology for data certIfication Value-aDdEd serviCEs'
p1492
a(lp1493
S'An OPEN source tEchnology for data certIfication Value-aDdEd serviCEs'
p1494
aasS'ODEON'
p1495
(lp1496
S'Design and Fabrication of Optoelectronic DEvices Based on Innovative Second-Order Non Linear Organic Nanomaterials'
p1497
asS'OIBH2O'
p1498
(lp1499
S'The origin of water in ocean island volcanism: correlating volatile and radiogenic isotope signatures in Atlantic OIB'
p1500
asS'OFIENGINE'
p1501
(lp1502
S'Development of the new termal spraying equipment and technology for production of components for marine transport engines'
p1503
asS'OCEANICS'
p1504
(lp1505
S"Ocean as a link between research and citizen's concern"
p1506
a(lp1507
S"Ocean as a link between research and citizen's concern"
p1508
aasS'OPTICAL NOSE'
p1509
(lp1510
S'THE OPTICAL NOSE: An On-line, Non-invasive and Total-profiling Instrument for Trace Gas Sensing Applications in Medical Sciences'
p1511
asS'OLSI'
p1512
(lp1513
S'Optical links in silicon'
p1514
asS'OpenScout'
p1515
(lp1516
S'OpenScout: Skill based scouting of open user-generated and community-improved content for management education and training'
p1517
asS'OPINF'
p1518
(lp1519
S'The role of opioids in protective immune response of carp'
p1520
asS'OPENMAN'
p1521
(lp1522
S'Optimal Energy Management Configurable System'
p1523
asS'OPTIPAR'
p1524
(lp1525
S'A parallel optimisation tool for optical design'
p1526
asS'OSIM-AHS II'
p1527
(lp1528
S'Open and scaleable intelligent metering system for advanced home service ii'
p1529
asS'OPHTEL'
p1530
(lp1531
S'TELEMATICS IN OPHTHALMOLOGY'
p1532
asS'OPTIMILK'
p1533
(lp1534
S'Quality, safety and value optimisation of the milk supply chain in rapidity evolving Central and Eastern European markets'
p1535
asS'OLFACTORY SCREEN'
p1536
(lp1537
S'Neuron Connectivity in the Drosophila olfactory system'
p1538
asS'OPTNANO'
p1539
(lp1540
S'Quantum optics in nanostructures'
p1541
asS'OEDIPE'
p1542
(lp1543
S'Open European Data Interchange and Processing for Computerised Electrocardiography'
p1544
asS'OMI/ATOM'
p1545
(lp1546
S'Applications in telecommunications for Omi macrocells'
p1547
asS'ORACLE'
p1548
(lp1549
S'Opportunistic Radio Communications in unLicensed Environments'
p1550
a(lp1551
S'Opportunistic Radio Communications in unLicensed Environments'
p1552
aasS'ONCO-CHIP'
p1553
(lp1554
S'Lab-on-a-chip based analyzers for point-of-care monitoring of cancer therapy'
p1555
asS'OPENING THE DOORS'
p1556
(lp1557
S"Opening the Doors - European women's springboard development programme"
p1558
asS'OPTIBAND'
p1559
(lp1560
S'Optimization of Bandwidth for IPTV video streaming'
p1561
a(lp1562
S'Optimization of Bandwidth for IPTV video streaming'
p1563
aasS'OPET MERCOSUR'
p1564
(lp1565
S'Opet associate for the Mercosur region'
p1566
a(lp1567
S'Opet Associate for the Mercosur Region'
p1568
aasS'OLIVIER BRASSEUR'
p1569
(lp1570
S'Regional present-climate simulations of extreme precipitation over mountainous regions of southeastern france'
p1571
asS'OPET IRELAND'
p1572
(lp1573
S'The Establishment of the Opet in Ireland'
p1574
a(lp1575
S'The Establishment of the Opet in Ireland'
p1576
aa(lp1577
S'The establishment of the Opet in Ireland'
p1578
aa(lp1579
S'The establishment of the Opet in Ireland'
p1580
aasS'OMI/OPAL'
p1581
(lp1582
S'On-chip system for a servo-valve'
p1583
asS'ORCHESTRA'
p1584
(lp1585
S'Open architecture and spatial data infrastructure for risk management'
p1586
a(lp1587
S'Organising dissemination on results of projects on chemical evaluation, spreading techniques for risk assessment'
p1588
aa(lp1589
S'Open architecture and spatial data infrastructure for risk management'
p1590
aasS'ORBIT'
p1591
(lp1592
S'Opportunities for re-engineering business processes through advanced it'
p1593
asS'OMI-VIEW'
p1594
(lp1595
S'Very high definition workstation for medical domains'
p1596
asS'OMI-MAP'
p1597
(lp1598
S'Open Microsystems Initiative: Microprocessor Architecture Project'
p1599
asS'ORIENTATION IN BATS'
p1600
(lp1601
S'Orientation in bats: from migration to spatial memory'
p1602
asS'OXIDNA-REPAIR-CHROMA'
p1603
(lp1604
S'Unraveling the role of Nucleotide Excision Repair factors and the dynamic of chromatin structure in the repair of oxidative DNA damages in vivo'
p1605
asS'OPARISOD'
p1606
(lp1607
S'Open Architecture for Interactive Services on Demand'
p1608
asS'OSNET'
p1609
(lp1610
S'Thematic network on ornamental stones - osnet'
p1611
asS'OCTOPUS'
p1612
(lp1613
S'OCTOPUS: Towards distributed heterarchic workflow methods for pro-active tracing of cargo'
p1614
a(lp1615
S"Remote Control Maintenance of Ship's Hull and Topside"
p1616
aa(lp1617
S'Novel design principles and technologies for a new generation of high dexterity soft-bodied robots inspired by the morphology and behaviour of the octopus'
p1618
aa(lp1619
S'On-line commercial technical open publishing service'
p1620
aa(lp1621
S'OCTOPUS'
p1622
aa(lp1623
S'Novel design principles and technologies for a new generation of high dexterity soft-bodied robots inspired by the morphology and behaviour of the octopus'
p1624
aasS'OOSA'
p1625
(lp1626
S'Introducing an object oriented software automation'
p1627
asS'OAEX'
p1628
(lp1629
S'Ocean acoustic exploration'
p1630
asS'OXPHYLODIV'
p1631
(lp1632
S'Phylogenetic analysis of spatial and temporal patterns of community biodiversity'
p1633
asS'OMAA'
p1634
(lp1635
S'From Molecular processes to Climate: The cycle of organic matter in Atmospheric Aerosols'
p1636
asS'OPN PODOCYTE STRESS'
p1637
(lp1638
S'Mechanism of OPN-mediated mechano-protection in podocytes'
p1639
asS'OPTI-ENERGY'
p1640
(lp1641
S'Optimization Simulation And Environmental Impact Of Energy Systems And Processes'
p1642
a(lp1643
S'Optimization simulation and environmental impact of energy systems and processes'
p1644
aasS'OBANET'
p1645
(lp1646
S'Optically Beam-formed Antennas For Adaptive Broadband Fixed And Mobile Wireless Access Networks'
p1647
a(lp1648
S'Optically Beam-formed Antennas For Adaptive Broadband Fixed And Mobile Wireless Access Networks'
p1649
aasS'OSCA'
p1650
(lp1651
S'Order and structure in conjugated polymers for device applications'
p1652
asS'OBRECH'
p1653
(lp1654
S'La carriere des chercheurs en europe'
p1655
asS'OUTSOURCE'
p1656
(lp1657
S'Software process improvement experiment concerning effective outsourcing mechanisms'
p1658
asS'Organic.Edunet'
p1659
(lp1660
S'Organic.Edunet: A Multilingual Federation of Learning Repositories with Quality Content for the Awareness and Education of European Youth about Organic Agriculture and Agroecology'
p1661
asS'OPECO'
p1662
(lp1663
S'Optical polymeric encapsulants for communications optoelectronics'
p1664
asS'OLYMPOS'
p1665
(lp1666
S'Mount Olympos through the centuries: Myth, History, Poetry based on archaelogical discoveries & the natural environment'
p1667
a(lp1668
S'Mount Olympos: Myth, History and Poetry based on archaeological discoveries and the natural environemnt'
p1669
aasS'OXFORDALGEBRA'
p1670
(lp1671
S'Representations of finite groups of Lie type and associated algebras'
p1672
asS'OPAMD'
p1673
(lp1674
S'Optical amplification in polymer based materials and devices'
p1675
asS'OPTELDOT'
p1676
(lp1677
S'Mechanisms of formation and modification of semiconductor nanocrystals (quantum dots) in SiO2 matrix, using ion implantation, for improvement of their optical and electrical properties'
p1678
asS'OBESITY&HYPERTENSION'
p1679
(lp1680
S"Identifying key neuronal pathways mediating melanocortin's effects on cardiovascular function"
p1681
asS'OODOIA'
p1682
(lp1683
S'Object oriented development of industrial applications'
p1684
asS'ONCOGENIC SPLICING'
p1685
(lp1686
S'Characterizing the oncogenic properties and target genes of the splicing factor protooncogene SF2ASF'
p1687
asS'ODYSNIGHT'
p1688
(lp1689
S'Olsztyn science days Researchers Night 2008'
p1690
asS'OBJECTIVE SCIENCE'
p1691
(lp1692
S'Quantifying objectivity in the natural and social sciences'
p1693
asS'OLFACTORY NETWORKS'
p1694
(lp1695
S'Dynamical causal modelling in human olfactory brain in normal subjects and patients with Alzheimer disease'
p1696
asS'ORGONATE'
p1697
(lp1698
S'On-site remediation of ground water contaminated by polar organic compounds using novel adsorption technology'
p1699
asS'OMELETTE'
p1700
(lp1701
S'Open Mashup Enterprise service platform for LinkEd data in The TElco domain'
p1702
a(lp1703
S'Open Mashup Enterprise service platform for LinkEd data in The TElco domain'
p1704
aasS'ONTOUR'
p1705
(lp1706
S'Open network for tourism'
p1707
asS'ORESTIS'
p1708
(lp1709
S'Research of needs and vocational training methods referred to juvenile offenders and juveniles in danger'
p1710
asS'OXY-SENSE'
p1711
(lp1712
S'OXY-SENSE - A biosensor, image analysis, and work flow system platform for the study of neuronal injury and assessment of cellular bioenergetics'
p1713
asS'OMIMO'
p1714
(lp1715
S'ONLINE MULTIMEDIA INFORMATION FOR MAINTENANCE AND OPERATION'
p1716
asS'OMWEB'
p1717
(lp1718
S'Open Media Web'
p1719
a(lp1720
S'Open Media Web'
p1721
aasS'OPEN TTT'
p1722
(lp1723
S'Open source Partnership for Enterprises and Network of developers aiming at Transnational Technology Transfer'
p1724
asS'ORACLE-CASE'
p1725
(lp1726
S'Test and Evaluation of an integrated CASE-tool for the Preussag-group reporting system - pilot experiment'
p1727
asS'OYSTERECOVER'
p1728
(lp1729
S'Establishing the scientific bases and technical procedures and standards to recover the European flat oyster production through strategies to tackle the main constraint, bonamiosis.'
p1730
asS'OB CERPOL SCAFFOLDS'
p1731
(lp1732
S'Polymer coated macroporous ceramic scaffolds for tissue engineering'
p1733
asS'OMI/HIC'
p1734
(lp1735
S'High-Performance Heterogeneous Interprocessor Communications'
p1736
asS'OPTSUFET'
p1737
(lp1738
S'Optically tuneable supramolecular field-effect transistors'
p1739
asS'OBSERVATORYNANO'
p1740
(lp1741
S'European observatory for science-based and economic expert analysis of nanotechnologies, cognisant of barriers and risks, to engage with relevant stakeholders regarding benefits and opportunities'
p1742
asS'OFTPIVEPIE'
p1743
(lp1744
S'ODETTE file transfer protocol in virtual enterprises, process improvement experiment'
p1745
asS'OPET CR'
p1746
(lp1747
S'Organisation for the Promotion of Energy Technologies in the Czech Republic'
p1748
a(lp1749
S'Organisation for the promotion of energy technologies in the Czech Republic'
p1750
aa(lp1751
S'Organisation for the Promotion of Energy Technologies in the Czech Republic'
p1752
aa(lp1753
S'Organisation for the promotion of energy technologies in the Czech Republic'
p1754
aasS'OLED100.EU'
p1755
(lp1756
S'Organic LED lighting in European dimensions'
p1757
asS'OMNIITOX'
p1758
(lp1759
S'Operational models and information tools for industrial applications of eco/toxicological impact assessments'
p1760
asS'OPTONANOGEN'
p1761
(lp1762
S'Integrated Opto-Nanomechanical Biosensor for functional Genomic Analysis'
p1763
a(lp1764
S'Integrated Opto-Nanomechanical Biosensor for functional Genomic Analysis'
p1765
aasS'OFAV'
p1766
(lp1767
S'Open intelligent systems for future autonomous vehicles'
p1768
asS'OUTBOARD MANIFOLD DE'
p1769
(lp1770
S'Analysis of the revised outboard manifold design'
p1771
asS'ODETTE'
p1772
(lp1773
S'Object-oriented co-design and functional test techniques'
p1774
a(lp1775
S'Object-oriented co-design and functional test techniques'
p1776
aasS'OIL & GAS 2000'
p1777
(lp1778
S'Promotional Literature for EC Funded Oil & Gas Projects'
p1779
a(lp1780
S'Promotional literature for EC funded oil & gas projects'
p1781
aasS'ONCOFIRE'
p1782
(lp1783
S'Online control of fixed-bed reactors applied to aerobic wastewater treatment'
p1784
asS'OMI3B'
p1785
(lp1786
S'Omi technology for intelligent imagesetters interface boards'
p1787
asS'OPTIVAN'
p1788
(lp1789
S'Optical interconnects using vcsels based on as/n compounds'
p1790
asS'OLEW'
p1791
(lp1792
S'Open Learning Experimental Workshop'
p1793
asS'ODMAN'
p1794
(lp1795
S'Cosmic Microwave Background Anisotropies and Polarization: a bridge between cosmology and new fundamental physics.'
p1796
asS'OPEN CLUSTERS'
p1797
(lp1798
S'Detection and survey of pulsating stars in open clusters: a step forwards the asteroseismology'
p1799
asS'ORGMET. CARB.'
p1800
(lp1801
S'Organometallic reactions in carbohydrate chemistry'
p1802
asS'OPROB'
p1803
(lp1804
S"Improved Operator's Computer for Decentralized Robot Control"
p1805
asS'OCMFMEMSM'
p1806
(lp1807
S'Optical characterisation methods for micro-electro- mechanical systems manufacturing: implementing and calibration of an in situ integrated technique'
p1808
asS'OXYMOD'
p1809
(lp1810
S'Development and experimental validation of a mathematical modelling methodology for oxy-fuel combustion for CO2 capture in large power plants'
p1811
asS'OPTIFIN'
p1812
(lp1813
S'Optimisation of finishing processes for eliminating rectification of plate and section products'
p1814
asS'ORCIATICO'
p1815
(lp1816
S"STUDI DELLE MODIFICAZIONI DELLE PROPRIETA SUBITE DALL'ARGILLA PERL'AZIONE TERMOMETAMORFIZZANTE PROVOCATA DALL'INTRUSIONE DI UNAMMASSO SUBVULCANICO"
p1817
asS'OPTOMIZE'
p1818
(lp1819
S'Architecture engineering in the tomato'
p1820
asS'OVOC'
p1821
(lp1822
S'Ultra Fast Magnetic Resonance Imaging using One-Voxel-One-Coil Acquisition'
p1823
asS'OOE-NIGHT'
p1824
(lp1825
S"Upper Austrian Researchers' Night"
p1826
asS'ONNI-ADC'
p1827
(lp1828
S'Open Neural Networks Hardware Implementation for Defect Classification Systems'
p1829
asS'OPTONEURO'
p1830
(lp1831
S'Optogenetic Neural stimulation platform'
p1832
a(lp1833
S'Optogenetic Neural stimulation platform'
p1834
aasS'ORAMED'
p1835
(lp1836
S'Optimization of radiation protection of medical staff'
p1837
asS'OPET CHP / DHC'
p1838
(lp1839
S'Opet Chp/dh Cluster'
p1840
a(lp1841
S'Opet Chp/dh cluster'
p1842
aasS'OOSPICE'
p1843
(lp1844
S'Software Process Improvement and Capability determination for object-oriented / COmponent-based software dEvelopment'
p1845
a(lp1846
S'Software Process Improvement and Capability determination for object-oriented / COmponent-based software dEvelopment'
p1847
aasS'OSMOSE-1'
p1848
(lp1849
S'Open Standard for Multimedia Optical Storage Environments'
p1850
asS'OACFT'
p1851
(lp1852
S'Operator algebras and conformal field theory'
p1853
asS'OT-SAFE'
p1854
(lp1855
S'Sources, consumer exposure and risks of organotin contamination in seafood'
p1856
asS'OMARJOSERUIZRIVERO'
p1857
(lp1858
S'"functional analysis of promoter sequences elements conseved between gibberellin 20-oxidase genes of arabidopsis implicated in the regulation of ga biosynthesis"'
p1859
asS'OBIDICOTE'
p1860
(lp1861
S'On Board Identification, Diagnosis and Control of gas Turbine Engin es'
p1862
asS'OCCULT'
p1863
(lp1864
S'Optical chaos Communications Using Laser-Diodes Transmitters'
p1865
a(lp1866
S'Optical chaos Communications Using Laser-Diodes Transmitters'
p1867
aasS'OUTGRID'
p1868
(lp1869
S'A worldwide e-infrastructure for computational neuroscientists (outGRID)'
p1870
a(lp1871
S'A worldwide e-infrastructure for computational neuroscientists (outGRID)'
p1872
aasS'OOQAM'
p1873
(lp1874
S'Adaptation of the Software Development Process for Commercial Business Packages, using Object Oriented & Quality Assurance Methodologies'
p1875
asS'OGEFI'
p1876
(lp1877
S'Object oriented Graphic for European Furniture Industry'
p1878
asS'ONE-P'
p1879
(lp1880
S'Organic nanomaterials for electronics and photonics: design, synthesis, characterization, processing, fabrication and applications'
p1881
asS'OPTOLABCARD'
p1882
(lp1883
S'Mass Produced Optical Diagnostic Labcards Based on Micro and Nano SU8 Layers'
p1884
a(lp1885
S'Mass Produced Optical Diagnostic Labcards Based on Micro and Nano SU8 Layers'
p1886
aa(lp1887
S'Mass Produced Optical Diagnostic Labcards Based on Micro and Nano SU8 Layers'
p1888
aa(lp1889
S'Mass Produced Optical Diagnostic Labcards Based on Micro and Nano SU8 Layers'
p1890
aasS'ONLINE TRACEABILITY'
p1891
(lp1892
S'Online quality control and traceability for the food processing industry'
p1893
asS'OSTEOGENE'
p1894
(lp1895
S'Molecular mechanisms of bone homeostasis'
p1896
asS'OPTOELECTRONIC_DCA'
p1897
(lp1898
S'Advanced optoelectronic materials through dynamic combinatorial assembly'
p1899
asS'OMI/CORE'
p1900
(lp1901
S'Compilers for real time embedded'
p1902
asS'OILPULSE'
p1903
(lp1904
S'INCREASED VIRGIN OLIVE OIL YIELD AND QUALITY BY COMPLEMENTING EXISTING AND NEW OLIVE OIL MILLS WITH PULSED ELECTRIC FIELD (PEF) TECHNOLOGY.'
p1905
asS'ORGENECHOICE'
p1906
(lp1907
S'Regulation of the expression of odorant receptor genes in mouse'
p1908
asS'OFFICE'
p1909
(lp1910
S'Passive retrofitting of office buildings to improve their energy performance and indoor working conditions'
p1911
asS'OPTIDETIM'
p1912
(lp1913
S'Molecular Sensors and Dosimeters for the Optical Detection of Ions and Molecules'
p1914
asS'OVAX'
p1915
(lp1916
S'INDENTIFYING AND CHANGING THE QUALITIES AND COMPOSITION OF MEAT FROM DIFFERENT EUROPEAN SHEEP TYPES WHICH MEETS REGIONAL CONSUMER EXPECTATIONS'
p1917
asS'ONLY WATER'
p1918
(lp1919
S'Autonomous and standardised container-based water treatment unit for production of potable water'
p1920
asS"O'GORMAN, COLM"
p1921
(lp1922
S'New venture creation processes in high growth potential smes'
p1923
a(lp1924
S'New venture creation processes in high growth potential smes'
p1925
aasS'OPENHERITAGE'
p1926
(lp1927
S'OpenHeritage: enabling the European Culture Economy'
p1928
a(lp1929
S'OpenHeritage: enabling the European Culture Economy'
p1930
aasS'OMEX II'
p1931
(lp1932
S'Ocean Margin EXchange II - Phase I'
p1933
asS'OPTIMATE'
p1934
(lp1935
S'An Open Platform to Test Integration in new MArkeT DEsigns of massive intermittent energy sources dispersed in several regional power markets'
p1936
asS'ONCOGENOMICS'
p1937
(lp1938
S'Development of high throughput in vivo oncogenomic screening strategies in acute leukaemia'
p1939
asS'OLE'
p1940
(lp1941
S'Organisational Learning in Enterprises'
p1942
asS'ORDICO'
p1943
(lp1944
S'Oxidation resistant al and ptal diffusion coatings with improved oxidation and thermomechanical fatigue life'
p1945
asS'OPORTO'
p1946
(lp1947
S'Optimisation of Routing Operations'
p1948
asS'OMEC'
p1949
(lp1950
S'Optical and mechanical energy combination'
p1951
asS'OBSIDIAN-II'
p1952
(lp1953
S'Access to : ocean bottom seismic instruments and advanced marine seismic reflection data imaging and analysis'
p1954
a(lp1955
S'Access to : ocean bottom seismic instruments and advanced marine seismic reflection data imaging and analysis'
p1956
aasS'OBESTATIN'
p1957
(lp1958
S'Obestatin as a regulator of energy balance: neuroendocrine targets and molecular mechanisms'
p1959
asS'OPUCE'
p1960
(lp1961
S'Open platform for user-centric service creation and execution'
p1962
a(lp1963
S'Open platform for user-centric service creation and execution'
p1964
aasS'OPCOM'
p1965
(lp1966
S'Development of ultrasonic guided wave inspection technology for the condition monitoring of offshore structures'
p1967
a(lp1968
S'Operational modelling for coastal zone management'
p1969
aa(lp1970
S'Operational Modelling for Coastal Zone Management'
p1971
aasS'OPT-ABSO'
p1972
(lp1973
S'Modelling and optimisation of industrial absorption processes'
p1974
asS'ONCOMIRNA-BIOGENESIS'
p1975
(lp1976
S'Biogenesis of Oncogenic MicroRNAs : from the structure of the microRNA processing complexes to the inhibition of the maturation of human oncogenes'
p1977
asS'OLV'
p1978
(lp1979
S'Opet Latvia'
p1980
a(lp1981
S'Opet Latvia'
p1982
aa(lp1983
S'Opet Latvia'
p1984
aa(lp1985
S'Opet Latvia'
p1986
aasS'OMES'
p1987
(lp1988
S'Optimised Microturbine Energy Systems'
p1989
a(lp1990
S'Optimised microturbine energy systems'
p1991
aasS'ON-TO-KNOWLEDGE'
p1992
(lp1993
S'Tools for content-driven knowledge management through evolving ontologies'
p1994
a(lp1995
S'Tools for content-driven knowledge management through evolving ontologies'
p1996
aasS'ONUREM-COWSIM'
p1997
(lp1998
S'Optimisation of nutrient removal in constructed wetlands using special substrates and numerical simulation'
p1999
asS'OBELIX'
p2000
(lp2001
S'OBesogenic endocrine disrupting chemicals: Linking prenatal exposure to the development of obesity later in life'
p2002
a(lp2003
S'Ontology-based electronic integration of complex products and value chains'
p2004
aa(lp2005
S'Ontology-based electronic integration of complex products and value chains'
p2006
aasS'OCTEBAMA'
p2007
(lp2008
S'Optimising cooling tower efficiency by advanced measuring and analysis'
p2009
asS'ORGANIC'
p2010
(lp2011
S'Self-organized recurrent neural learning for language processing'
p2012
asS'OBSERVER'
p2013
(lp2014
S'CLUSTER EUROBSERVER-LEARNET-REJ'
p2015
a(lp2016
S'Food web changes in response to increasing temperature and varying nutrient status: an experimental approach on freshwater mesocosms'
p2017
aasS'OPTHEAT'
p2018
(lp2019
S'Quality improvement by metallurgical optimised stock temperature evolution in the reheating furnace including microstructure feedback from the rolling mill'
p2020
asS'ORGANIK'
p2021
(lp2022
S'OrganiK - an organic knowledge management approach for small european knowledge-intensive companies'
p2023
a(lp2024
S'OrganiK - An organic knowledge management approach for small european knowledge-intensive companies'
p2025
aasS'OPENTOX'
p2026
(lp2027
S'OpenTox - An open source predictive toxicology Framework'
p2028
asS'OLUIT'
p2029
(lp2030
S'Object Oriented Librarian User Interface Tool'
p2031
asS'OVERLAP SIMULATIONS'
p2032
(lp2033
S'Lattice-QCD with Dynamical Overlap Fermions on Tera-Scale Cluster Computers'
p2034
asS'ORICODE'
p2035
(lp2036
S'Unraveling the code of DNA replication origins and its link with cell identity'
p2037
asS'OPET-CY'
p2038
(lp2039
S'Proposal for an Opet in Cyprus'
p2040
a(lp2041
S'Proposal for an Opet in Cyprus'
p2042
aa(lp2043
S'Proposal for an Opet in Cyprus'
p2044
aasS'OPTIMAL'
p2045
(lp2046
S'Optimised Preparation of Manufacturing Information with Multilevel CAM-CNC Coupling'
p2047
a(lp2048
S'Optimized Procedures and Techniques for IMprovement of Approach and Landing'
p2049
aasS'OFCORSE'
p2050
(lp2051
S'Optical frequency conversion in semiconductors heterostructures'
p2052
asS'OJAC'
p2053
(lp2054
S'On and Off the Job Training and Competence Needs'
p2055
asS'OWEACS'
p2056
(lp2057
S'Ocean wave energy absorbing coastal structures'
p2058
asS'OIF-UMICH-UCAM-NDT'
p2059
(lp2060
S'The development of common user interface data analysis software dedicated to interferometric imaging'
p2061
asS'OPEN-SME'
p2062
(lp2063
S'Open Source Software Reuse Service for SMEs'
p2064
asS'OPTI-GRO'
p2065
(lp2066
S'Development of rapid and cost-effective tools for measuring cereal quality using light transflectance (ltm) technology'
p2067
asS'OLEAMED'
p2068
(lp2069
S'Oleamed - Mediterranean Olivicolture Center for Information Production and Diffusion'
p2070
asS'ONBASS'
p2071
(lp2072
S'On-board active safety system'
p2073
asS'OSKAR MRNA TRANSPORT'
p2074
(lp2075
S'Analysis of the role of splicing and cis-acting elements in oskar mRNA transport in the Drosophila oocyte'
p2076
asS'OVID'
p2077
(lp2078
S'Trial application of voice processing in automated banking services'
p2079
asS'ORITUPOCO'
p2080
(lp2081
S'Orientation of carbon nanotubes in polymer composites'
p2082
asS'OPENISE'
p2083
(lp2084
S'OPEN Platform for Enhanced Interactive SErvices'
p2085
a(lp2086
S'OPEN Platform for Enhanced Interactive SErvices'
p2087
aasS'OMEX II-II'
p2088
(lp2089
S'Ocean Margin Exchange II - Phase II'
p2090
asS'ONESKY'
p2091
(lp2092
S'One non-national European sky'
p2093
a(lp2094
S'One Non-National European Sky'
p2095
aasS'ORIT ALFI'
p2096
(lp2097
S'The familial discourse of work-family conflict'
p2098
a(lp2099
S'The familial discourse of work-family conflict'
p2100
aasS'OPEN METER'
p2101
(lp2102
S'Open public extended network metering'
p2103
asS'OSCILLATORY DYNAMICS'
p2104
(lp2105
S'Examining oscillatory dynamics with magnetoencephalography and intracranial electroencephalography'
p2106
asS'OSMOSIS'
p2107
(lp2108
S'Open source modelling and hardware software codesign of embedded systems'
p2109
a(lp2110
S'Overcoming Security Market Obstacles for SMEs Involvement in the technological Supply chain'
p2111
aa(lp2112
S'Open Source Modelling and Hardware Software Codesign of Embedded Systems'
p2113
aasS'OSMIA'
p2114
(lp2115
S'Open Source Medical Image Analysis'
p2116
a(lp2117
S'Open Source Medical Image Analysis'
p2118
aasS'OCCAMM'
p2119
(lp2120
S'Open Components for Controlled Access to Multimedia Material'
p2121
a(lp2122
S'Open Components for Controlled Access to Multimedia Material'
p2123
aasS'OPET CAUCASUS'
p2124
(lp2125
S'An Opet Associate for Caucasus Region'
p2126
a(lp2127
S'An Opet associate for Caucasus region'
p2128
aa(lp2129
S'An Opet Associate for Caucasus Region'
p2130
aa(lp2131
S'An Opet associate for Caucasus region'
p2132
aasS'OESTROMETAB'
p2133
(lp2134
S'Quantum chemical and combined quantum mechanical/molecular mechanical (QM/MM) modelling of oestrogen biosynthesis and metabolism'
p2135
asS'OPEN SESAME'
p2136
(lp2137
S'Observing performance in enterprise - single European system for auditing, measuring and evaluating language skills'
p2138
asS'OTELO'
p2139
(lp2140
S'MOBILE TELE-ECHOGRAPHY USING AN ULTRA-LIGHT ROBOT'
p2141
a(lp2142
S'OPEN TRANSLATION ENVIRONMENT FOR LOCALIZATION'
p2143
aa(lp2144
S'MOBILE TELE-ECHOGRAPHY USING AN ULTRA-LIGHT ROBOT'
p2145
aasS'OCDIS'
p2146
(lp2147
S'Optical Compensation For Displays'
p2148
a(lp2149
S'Optical Compensation For Displays'
p2150
aasS'ONEDIN'
p2151
(lp2152
S'On-line delivery of interactive modules in marine science and aquaculture'
p2153
asS'OPTIMISTIC'
p2154
(lp2155
S'Optimisation methodologies for in mixed signal testing of ICS'
p2156
asS'OMI-TREFAB'
p2157
(lp2158
S'Tool-chain for rapid embedded system development: fuzzy logic on an electronic brake system'
p2159
asS'OPNEX'
p2160
(lp2161
S'Optimization driven multi-hop network design and experimentation'
p2162
a(lp2163
S'Optimization driven multi-hop network design and experimentation'
p2164
aasS'ORGAP'
p2165
(lp2166
S'European Action Plan of Organic Food and Farming'
p2167
asS'OCEAN3D'
p2168
(lp2169
S'Estimation of the upper ocean 3D velocities from remotely sensed sea surface temperature'
p2170
asS'ORDER FOR STUDIES, D'
p2171
(lp2172
S'Co-ordination of R&D and design work in the fuel cycle'
p2173
asS'OB-AGE'
p2174
(lp2175
S'Obesity and disease in ageing (OB-AGE)'
p2176
asS'OSM PLUS'
p2177
(lp2178
S'Open service model for global electronic commerce'
p2179
asS'OCHRATOXINA-RISK ASS'
p2180
(lp2181
S'Mechanisms of ochratoxin a induced carcinogenicity as a basis for an improved risk assessment'
p2182
asS'OMSAMA'
p2183
(lp2184
S'Optimisation of multiscale structures with applications to morphing aircraft'
p2185
asS'ORION'
p2186
(lp2187
S'Ocean research by integrated observation networks'
p2188
a(lp2189
S'The young stellar population in the solar neighbourhood'
p2190
aa(lp2191
S'Optimization of Si solar cells, plastic materials and technologies for the development of more efficient concentration photovoltaic systems'
p2192
aa(lp2193
S'Ordered inorganic-organic hybrids using ionic liquids for emerging applications'
p2194
aa(lp2195
S'Towards a common european legal culture (ORION)'
p2196
aa(lp2197
S'Object Rich InformatiOn Network'
p2198
aa(lp2199
S'Object Rich InformatiOn Network'
p2200
aasS'OSACA II'
p2201
(lp2202
S'Open System Architecture for Controls within Automation Systems: Phase II'
p2203
asS'OPTIVEG'
p2204
(lp2205
S'On-line optical measurements as a basis for control during mild heat processing of vegetables'
p2206
asS'OLIM'
p2207
(lp2208
S'In vivo molecular imaging with adjustable oligonucleotide ligands'
p2209
asS'OPTI PILE'
p2210
(lp2211
S'Optimisation of Monopile Foundations for Offshore Wind Turbines in Deep Water and North Sea Conditions'
p2212
a(lp2213
S'Optimisation of Monopile foundations for offshore wind turbines in deep water and North Sea conditions'
p2214
aasS'ONTORULE'
p2215
(lp2216
S'Ontologies meet business rules'
p2217
a(lp2218
S'Ontologies meet business rules'
p2219
aasS'OpenScienceResources'
p2220
(lp2221
S'Towards the Development of a Common Digital Repository for Formal and Informal Science Education'
p2222
asS'OXITEX'
p2223
(lp2224
S'Recycling of water from textile dyeing using phenol-oxidases'
p2225
asS'OKKAM'
p2226
(lp2227
S'Enabling the Web of Entities. A scalable and sustainable solution for systematic and global identifier reuse in decentralized information environments'
p2228
asS'ODTSME'
p2229
(lp2230
S'On-demand training for micro-enterprises'
p2231
asS'OMC-PTP'
p2232
(lp2233
S'Public technology procurement as a strategic innovation policy mix instrument'
p2234
asS'OXYRED'
p2235
(lp2236
S'The response of Lactococcus lactis to reducing environmental conditions'
p2237
asS'ODILE'
p2238
(lp2239
S'NON CONTACT REAL TIME DEFECTS DETECTION DURING THE MANUFACTURING OF A STRUCTURED FABRIC'
p2240
asS'OSAF2'
p2241
(lp2242
S'Omi software architecture forum - phase 2'
p2243
asS'OS2500'
p2244
(lp2245
S'0S2500/78-Demonstration of a large scale, Second Generation, Off Shore Wind Turbine, complying with new grid requirement'
p2246
asS'OXEPI'
p2247
(lp2248
S'OXIDATIVE ENZYMES FOR THE PULP AND PAPER INDUSTRY'
p2249
asS'OKAPI'
p2250
(lp2251
S'Open Kernel for Access to Protected Interoperable interactive services'
p2252
asS'OPTOUR'
p2253
(lp2254
S'Opportunities for and barriers to tourism led integrated rural development in rural regions of selected member states'
p2255
asS'OPTIRAILS II'
p2256
(lp2257
S'OPTIMISATION OF RAIL TRAFFIC ON EUROPEAN CORRIDORS THROUGH ERTMS/ ETML (Working out of System Requirement Specifications)'
p2258
a(lp2259
S'OPTImisation of RAIL traffic on european corridorS through ERTMS/ ETML (Working out of System Requirement Specifications)'
p2260
aasS'OSTEOCHONDRAL TE'
p2261
(lp2262
S'Tissue engineering of autologous ostechondral implants'
p2263
asS'ON EUROPEAN SOLIDARI'
p2264
(lp2265
S'On European Solidarity'
p2266
asS'ONOMASTICA'
p2267
(lp2268
S'Multi-language pronunciation dictionary of proper names and place names'
p2269
a(lp2270
S'MULTI-LANGUAGE PRONUNCIATION DICTIONARY OF NAMES IN CENTRAL AND EASTERN EUROPEAN COUNTRIES'
p2271
aasS'OZONE-SAFE'
p2272
(lp2273
S'High-efficiency small-scale ozonation unit for haemodialysis instrumentation disinfection'
p2274
asS'OSSATE'
p2275
(lp2276
S'One-stop-shop for accessible tourism in Europe'
p2277
asS'ONTHEMOVE'
p2278
(lp2279
S'Application support services for distributed mobile <br>multimedia'
p2280
a(lp2281
S'Light driven motion of molecules on surfaces'
p2282
aasS'OPTONANO'
p2283
(lp2284
S'Synthetic Bio-Nanoarchitectures For Enhanced Biosensing Approach'
p2285
asS'OPTOSAT'
p2286
(lp2287
S'DBS LNB-STB optical fibre transmission link'
p2288
a(lp2289
S'DBS LNB-STB Optical Fibre Transmission Link'
p2290
aasS'OPTIDIS'
p2291
(lp2292
S'Development of an optical detection system for diseases in field crops with a view to reduce pesticides by targeted application'
p2293
asS'OXFORDWINSTON'
p2294
(lp2295
S'The effects of lineage differentiation into pancreatic beta-cells on the immunogenicity of amniotic fluid stem cells'
p2296
asS'OAF'
p2297
(lp2298
S'Open Archives Forum'
p2299
a(lp2300
S'Open Archives Forum'
p2301
aasS'OCII'
p2302
(lp2303
S'Our Child is Ill'
p2304
asS'O-CODE'
p2305
(lp2306
S'Cracking the orthographic code'
p2307
asS'ORAL ROBOT'
p2308
(lp2309
S'Robot navigation in the oral cavity of humans'
p2310
asS'OPELIX'
p2311
(lp2312
S'An Open Personalised Electronic Information Commerce System'
p2313
a(lp2314
S'An Open Personalised Electronic Information Commerce System'
p2315
aasS'OAR'
p2316
(lp2317
S'Specification for an Open Architecture for Reasoning'
p2318
asS'ORBIVAC'
p2319
(lp2320
S'Development of Vaccines for bTV, EHDV and AHSV'
p2321
asS'OC2001'
p2322
(lp2323
S'Oc2001'
p2324
a(lp2325
S'Oc2001'
p2326
aasS'OHM'
p2327
(lp2328
S'ON-LINE HEALTH MONITORING'
p2329
a(lp2330
S'ON-LINE HEALTH MONITORING'
p2331
aasS'OPN-IMMUNOREGULATION'
p2332
(lp2333
S'Immune mechanisms of osteopontin-mediated protection in allergic airway disease'
p2334
asS'OIF BERKELEY USA'
p2335
(lp2336
S'OIF to Berkeley USA and Wuppertal Germany'
p2337
asS'OSIRIS'
p2338
(lp2339
S'On-Line Sensing for Integrated Monitoring the Reactions and Processes in Industrial Scale Metallurgical and Mineral Processing Furnaces'
p2340
a(lp2341
S'Optimum Standards for Successful Market Integration of Multimedia On-Line Services'
p2342
aa(lp2343
S'OSIRIS (Open architecture for Smart and Interoperable networks in Risk management based on In-situ Sensors)'
p2344
aa(lp2345
S'Original system for image rendition via innovative screens'
p2346
aa(lp2347
S'Optimized strategies for Risk assessment of chemicals based on Intelligent testing'
p2348
aa(lp2349
S'Towards an open and sustainable ICT research infrastructure strategy'
p2350
aa(lp2351
S'Open silicon based research platform for emerging devices'
p2352
aa(lp2353
S'Optical signal regeneration in slow light silicon waveguides'
p2354
aa(lp2355
S'Open Systems Integrated Roadfreight Information Services'
p2356
aa(lp2357
S'Operational Solutions For The Management Of Inundation Risks In The Information Society'
p2358
aa(lp2359
S'OSIRIS (Open architecture for Smart and Interoperable networks in Risk management based on In-situ Sensors)'
p2360
aa(lp2361
S'Original system for image rendition via innovative screens'
p2362
aa(lp2363
S'Towards an open and sustainable ICT research infrastructure strategy'
p2364
aa(lp2365
S'Operational Solutions For The Management Of Inundation Risks In The Information Society'
p2366
aasS'OMI/TMP'
p2367
(lp2368
S'Transputer Macrocell Project'
p2369
asS'OPET-SPAIN'
p2370
(lp2371
S'Opet Proposal for the Promotion of Clean and Innovative Technologies within the Fields of Rational Use of Energy and Renewable Energy'
p2372
a(lp2373
S'OPET Proposal for the Promotion of Clean and Innovative Technologies within the Fields of Rational Use of Energy and Renewable Energy'
p2374
aa(lp2375
S'Opet proposal for the promotion of clean and innovative technologies within the fields of rational use of energy and renewable energy'
p2376
aa(lp2377
S'Opet proposal for the promotion of clean and innovative technologies within the fields of rational use of energy'
p2378
aasS'ONESTOPGOV'
p2379
(lp2380
S'A life-event oriented framework and platform for one-stop government'
p2381
a(lp2382
S'A life-event oriented framework and platform for one-stop government'
p2383
aa(lp2384
S'A life-event oriented framework and platform for one-stop government'
p2385
aasS'OLFACTORYIGLURS'
p2386
(lp2387
S'Olfactory perception in Drosophila: analysis of a novel iGluR-related family of odorant receptors'
p2388
asS'OAFPG'
p2389
(lp2390
S'Operator algebras, free probability, and groups'
p2391
asS'OASE'
p2392
(lp2393
S'Ozone application simulator and explorer'
p2394
a(lp2395
S'Optical access seamless evolution'
p2396
aa(lp2397
S'Optical access seamless evolution'
p2398
aasS'OKOVIN'
p2399
(lp2400
S'Incorporating waste-water treatment technology into continuing vocational training in the viniculture sector'
p2401
asS'OLAFSDOETTIR GUNNBOE'
p2402
(lp2403
S'Doctorate studies'
p2404
a(lp2405
S'Doctorate studies'
p2406
aasS'OPERA'
p2407
(lp2408
S'Operators training distributed real-time simulations'
p2409
a(lp2410
S'Open PLC European research alliance for new generation PLC integrated network'
p2411
aa(lp2412
S'Optics and photonics in the European research area'
p2413
aa(lp2414
S'Organic/plastic electronics research alliance'
p2415
aa(lp2416
S'OIL POLLUTION : ENVIRONMENTAL RISK ASSESSMENT'
p2417
aa(lp2418
S'Novel fibre optic probes for insertion into waste gas streams'
p2419
aa(lp2420
S'Open PLC European research alliance for new generation PLC integrated network'
p2421
aa(lp2422
S'Optics and photonics in the European research area'
p2423
aasS'OMI/TOOLS'
p2424
(lp2425
S'Tools for design and validation of embedded control systems'
p2426
asS'OMT-DEV'
p2427
(lp2428
S'Object Modelling Technique for Driver Development'
p2429
asS'OLARU SORIN'
p2430
(lp2431
S'Water resources modelling and management'
p2432
a(lp2433
S'Water resources modelling and management'
p2434
aasS'ORGDESIGN'
p2435
(lp2436
S'The foundation of organization design'
p2437
asS'OPET-CLEARING-HOUSE'
p2438
(lp2439
S'Energy-Environmental Clearing House for Promoting the Update of Innovative Energy Technologies through Opet Network'
p2440
a(lp2441
S'Energy-Environmental Clearing House for Promoting the Update of Innovative Energy Technologies through Opet Network'
p2442
aa(lp2443
S'Energy-environmental clearing house for promoting the update of innovative energy technologies through opet network'
p2444
aa(lp2445
S'Energy-environmental clearing house for promoting the update of innovative energy technologies through Opet network'
p2446
aasS'OOTIC'
p2447
(lp2448
S'Organisation of the 10th international conference on human retrovirology : HTLV and related viruses'
p2449
asS'ODIN'
p2450
(lp2451
S'Origin-Destination Information vs Traffic Control'
p2452
a(lp2453
S'Geographic Distributed Information Tools and Services for the Mobile Information Society'
p2454
aa(lp2455
S'Geographic Distributed Information Tools and Services for the Mobile Information Society'
p2456
aa(lp2457
S'Geographic Distributed Information Tools and Services for the Mobile Information Society'
p2458
aa(lp2459
S'Geographic Distributed Information Tools and Services for the Mobile Information Society'
p2460
aasS'OATP'
p2461
(lp2462
S'Evaluation of the promotion of Offshore Aquaculture Through a Technology Platform'
p2463
asS'OI'
p2464
(lp2465
S'OPENINTERFACE'
p2466
asS'OPEN: EU'
p2467
(lp2468
S'One planet economy network: Europe'
p2469
asS'OF'
p2470
(lp2471
S'STUDY OF THE POTENTIAL AND THE LIMITS OF SYSTEMS AND TECHNIQUES OF INTEGRATED AND ALTERNATIVE AGRICULTURE'
p2472
asS'ORGMETCOMSYN'
p2473
(lp2474
S'Organometallic compounds for combinatorial synthesys'
p2475
asS'OB'
p2476
(lp2477
S'EASY'
p2478
asS'OISTER'
p2479
(lp2480
S'Outcome and impact of specific treatment in european research on melanoma (OISTER)'
p2481
asS'OSYRIS'
p2482
(lp2483
S'Open systems for road information support (OSYRIS)'
p2484
asS'OX'
p2485
(lp2486
S'Oxide-based sensors and catalysts'
p2487
asS'OECUMENE'
p2488
(lp2489
S'Citizenship after orientalism'
p2490
asS'ONUPS'
p2491
(lp2492
S'Organocatalysis for natural and unnatural product synthesis'
p2493
asS'ORCA'
p2494
(lp2495
S'Organotypic brain slice cultures as alternatives to in-vivo experimentation in the study of brain repair mechanisms.'
p2496
asS'ORGANOMETALLICSWITCH'
p2497
(lp2498
S'metal-carbene complexes for the synthesis of molecular switches and devices'
p2499
asS'OPET CZECH REPUBLIC'
p2500
(lp2501
S'Opet Czech Republic'
p2502
a(lp2503
S'Opet Czech Republic'
p2504
aasS'OPTIBIO'
p2505
(lp2506
S'Optical resonances for label-free biosensing'
p2507
asS'OMI/TOTEM'
p2508
(lp2509
S'Totally emulated embedded systems'
p2510
asS'OCEANIDES'
p2511
(lp2512
S'Harmonised monitoring, reporting and assessment of illegal marine oil discharges.'
p2513
asS'OFFSSOHO'
p2514
(lp2515
S'Optical Fibre Sensors For Small Office Home Office'
p2516
a(lp2517
S'Optical Fibre Sensors For Small Office Home Office'
p2518
aasS'OPLIGE'
p2519
(lp2520
S'OPTIMIZATION OF LIGNIN IN CROP AND INDUSTRIAL PLANTS THROUGH GENETIC ENGINEERING. CHARACTERISATION, TRANSFORMATION, ANALYSIS AND TESTING OF FORAGE AND WOODY SPECIES'
p2521
asS'ORB WEAVER PHYLOGENY'
p2522
(lp2523
S'Phylogeny and systematics of the orb-weaver family Araneidae (Araneae, Araneoidea).'
p2524
asS'OPTIMALT'
p2525
(lp2526
S'A rapid and reliable tool for assessing the malting quality of barley using automated optical analysis'
p2527
a(lp2528
S'A rapid and reliable tool for assessing the malting quality of barley using automated optical analysis'
p2529
aasS'OSP'
p2530
(lp2531
S'Optimisation Service Provider'
p2532
a(lp2533
S'Optimisation Service Provider'
p2534
aasS'OSI'
p2535
(lp2536
S'Pilot Demonstration Project between library networks in Europe for interlending services.'
p2537
asS'OSH'
p2538
(lp2539
S'OIL SEA HARVESTER'
p2540
asS'OSM'
p2541
(lp2542
S'An open service model for global information brokerage and distribution'
p2543
asS'OPET LATIN AMERICAN'
p2544
(lp2545
S'Promotion Of Modern, Clean Energy And Transport Technologies And Policies In Latin America & The Caribbean'
p2546
a(lp2547
S'Promotion of modern, clean energy and transport technologies and policies in Latin America & the Caribbean'
p2548
aasS'OSC'
p2549
(lp2550
S'Evolutionary optical approach for intersatellite space communication systems'
p2551
asS'OPICS'
p2552
(lp2553
S'Optimised Integrated Collector Storage: low-cost solar thermal systems for houses and offices'
p2554
a(lp2555
S'Optimized integrated collector storage: low-cost solar thermal systems for houses and offices'
p2556
aasS'ORGANPROCUREMENT'
p2557
(lp2558
S'Policy, law and organ procurement'
p2559
asS'OXYHALIDE MATERIALS'
p2560
(lp2561
S'Synthesis, Raman scattering and infra-red spectroscopy investigations of correlated behaviour in transition metal oxyhalides'
p2562
asS'OPEN_TC'
p2563
(lp2564
S'Open Trusted Computing'
p2565
a(lp2566
S'Open Trusted Computing'
p2567
aasS'ONTO-LOGGING'
p2568
(lp2569
S'Corporate Ontology Modelling and Management System'
p2570
a(lp2571
S'Corporate Ontology Modelling and Management System'
p2572
aasS'ORTHOLABEL'
p2573
(lp2574
S'Orthogonal peptide interaction pairs for generic labelling of proteins in vitro and in vivo'
p2575
asS'OCEAN'
p2576
(lp2577
S'Open corrosion expertise access network'
p2578
a(lp2579
S'Open ContEnt Aware Networks'
p2580
aa(lp2581
S'Open Controller Enabled by an Advanced real-time Network'
p2582
aa(lp2583
S'Open ContEnt Aware Networks'
p2584
aa(lp2585
S'Open Controller Enabled by an Advanced real-time Network'
p2586
aasS'ORESTEIA'
p2587
(lp2588
S'MODULAR HYBRID ARTEFACTS WITH ADAPTIVE FUNCTIONALITY'
p2589
a(lp2590
S'MODULAR HYBRID ARTEFACTS WITH ADAPTIVE FUNCTIONALITY'
p2591
aasS'OPETNED'
p2592
(lp2593
S'Proposal for opet activities to be carried out in the years 2000/2001'
p2594
a(lp2595
S'Proposal for Opet activities to be carried out in the Years 2000/2001'
p2596
aa(lp2597
S'Proposal for Opet Activities to be carried out in the Years 2000/2001'
p2598
aa(lp2599
S'Proposal for Opet activities to be carried out in the years 2000/2001'
p2600
aasS'OMILIBRES'
p2601
(lp2602
S'Omi library representation standards'
p2603
asS'ORGANIC ELECTRONICS'
p2604
(lp2605
S'Optimization of organic thin-film transistors for plastic electronics: towards transparent components in new devices'
p2606
asS'OPTITEMPTANK'
p2607
(lp2608
S'Development of an integrated system for cost effective temperature control in aquaculture tanks'
p2609
a(lp2610
S'Development of an Integrated System for Cost Effective Temperature Control in Aquaculture Tanks'
p2611
aasS'ON-WINGS'
p2612
(lp2613
S'ON Wing Ice DetectioN and MonitorinG System'
p2614
asS'OSTEOCORD'
p2615
(lp2616
S'Bone from blood: Optimised isolation, characterisation and osteogenic induction of mesenchymal stem cells from umbilical cord blood'
p2617
asS'OFELIA'
p2618
(lp2619
S'OPTICAL FIBRES FOR ELECTRICAL INDUSTRY APPLICATIONS / DEVELOPMENT OF PASSIVE OPTO-ELECTRONIC SENSORS FOR MEASUREMENTS AND DIAGNOSTICS IN ELECTRICAL POWER SYSTEMS'
p2620
a(lp2621
S'Open Flow in Europe: Linking Infrastructure and Applications'
p2622
aa(lp2623
S'Open Flow in Europe: Linking Infrastructure and Applications'
p2624
aasS'ORIENT'
p2625
(lp2626
S'Connecting academic networks in China and Europe'
p2627
asS'OPET ENERO'
p2628
(lp2629
S'Opet Romania Enero - Member of the Opet Network'
p2630
a(lp2631
S'Opet Romania Enero - member of the Opet network'
p2632
aa(lp2633
S'Opet Romania Enero - Member of the Opet Network'
p2634
aasS'ONE II'
p2635
(lp2636
S'Opac Network in Europe- II'
p2637
asS'OBTTEOB'
p2638
(lp2639
S'Overcoming barriers to the exploitation of biotechnology through pre-normative research'
p2640
asS'OPTSDET'
p2641
(lp2642
S'Novel optical devices and techniques for seismic activity detection and measurement'
p2643
asS'OPTIFORD'
p2644
(lp2645
S'Towards an optimal strategy for optimal vitamin d fortification'
p2646
asS'ORATEL'
p2647
(lp2648
S'Telematic System For Quality Assurance in Oral Health Care'
p2649
asS'OPTIMISE'
p2650
(lp2651
S'Optimal maintenance intervention of ships in Europe'
p2652
a(lp2653
S'OPtimization of Treatment and Management of Schizophrenia in Europe (OPTiMiSE)'
p2654
aa(lp2655
S'Optical platform for therapy and diagnostic imaging in minimally invasive surgical endoscopy'
p2656
aa(lp2657
S'Optimising powder-in-tube tapes in mri systems as ice-breaker for hts socio-economic benefits'
p2658
aa(lp2659
S'Optimisation of water use by plants in the mediterranean'
p2660
aa(lp2661
S'Optical Professional Trade and Individual Multimedia Information Service for Europe'
p2662
aasS'OLIVERO'
p2663
(lp2664
S'The future of olive plantation systems on sloping and mountainous land'
p2665
asS'OMALANP'
p2666
(lp2667
S'Tuning the properties of organic materials by the incorporation of nanoparticles produced by laser ablation'
p2668
asS'OPRE ROMA-GYPSIES UP'
p2669
(lp2670
S'The education of the gypsy childhood in europe'
p2671
a(lp2672
S'The education of the gypsy childhood in europe'
p2673
aasS'OPTIMISM'
p2674
(lp2675
S'Efficient modelling algorithms for UMTS network optimisation'
p2676
a(lp2677
S'Optical methodologies for interferometric strain measurement (OPTIMISM)'
p2678
aasS'OPENGENE'
p2679
(lp2680
S'Opening Estonian genome project for European research area'
p2681
asS'OSMOS'
p2682
(lp2683
S'OPTICAL FIBRE SENSING SYSTEM FOR MONITORING OF STRUCTURES'
p2684
a(lp2685
S'Open System for inter-enterprise information Management in dynamic virtual envirOnmentS'
p2686
aa(lp2687
S'Open System for inter-enterprise information Management in dynamic virtual envirOnmentS'
p2688
aasS'OPROCIT'
p2689
(lp2690
S'Optimization of photo-refractive optical components for information technologies'
p2691
asS'OPTICOMB'
p2692
(lp2693
S'Optimisation and design of biomass combustion systems (OPTICOMB)'
p2694
asS'OBERWOLFACH 05'
p2695
(lp2696
S'Oberwolfach 2005: Stochastics, Discrete Mathematics, Geometry, Topology, and Applications'
p2697
asS'OXYPUFA'
p2698
(lp2699
S'Quantitative analysis of lipid oxidation in functional food ingredients containing N-3 polyunsaturated fatty acids. Variables to be controlled in order to guarantee high quality and safety'
p2700
asS'ORPHANPLATFORM'
p2701
(lp2702
S'Platform of information services for the coordination of rare disease research with various stakeholders from research, SMEs and patient organisations and the coordination of early clinical trials'
p2703
asS'OLMECO'
p2704
(lp2705
S'Open Library for Models of Mechatronics Components'
p2706
asS'OPTION'
p2707
(lp2708
S'Optimizing Policies for Transport: accounting for Industrial Organisation in Network markets'
p2709
asS'OPET'
p2710
(lp2711
S'OPET network accompanying measure'
p2712
a(lp2713
S'Opet network accompanying measure'
p2714
aa(lp2715
S'Opet Network Accompanying Measure'
p2716
aa(lp2717
S'OPET NETWORK ACCOMPANYING MEASURE'
p2718
aasS'OMI/FAME'
p2719
(lp2720
S'Fast architectural migration of embedded systems'
p2721
asS'ORFEUS'
p2722
(lp2723
S'Optimised radar to find every buried utility in the street'
p2724
a(lp2725
S'Open reading frames for the european union scientists (ORFEUS)'
p2726
aasS'OPENCONT'
p2727
(lp2728
S'Software technology for messaging-based distributed information processing'
p2729
asS'OMI/CLEAR'
p2730
(lp2731
S'Components and Libraries for Embedded Applications in Real-Time'
p2732
asS'ODOUR CONTROL'
p2733
(lp2734
S'Smart Odour Control system to increase product quality, occupational safety, and safeguard the location and jobs, based on forward-looking tools of SMEs entering the European paper market'
p2735
asS'ONELAB2'
p2736
(lp2737
S'OneLab2: an open federated laboratory supporting network research for the future internet'
p2738
a(lp2739
S'OneLab2: an open federated laboratory supporting network research for the future internet'
p2740
aasS'OFFSHOREM&R'
p2741
(lp2742
S'Advanced maintenance and repair for offshore wind farms using fault prediction and condition monitoring techniques'
p2743
a(lp2744
S'Advanced Maintenance And Repair For Offshore Wind Farms Using Fault Prediction And Condition Monitoring Techniques'
p2745
aasS'OPTIMOBILE'
p2746
(lp2747
S'Cross-layer optimization for the coexistence of mobile and wireless networks beyond 3G'
p2748
asS'OPEN'
p2749
(lp2750
S'Optical Pan-European Network'
p2751
a(lp2752
S'Open pervasive environments for migratory interactive services'
p2753
aa(lp2754
S'Orientation by Personal Electronic Navigation'
p2755
aasS'O-PTM-BIOMARKERS'
p2756
(lp2757
S'Discovery of novel cancer serum biomarkers based on aberrant post translational modifications of O-glycoproteins (O-PTM-Biomarkers) and their application to early detection of cancer'
p2758
asS'OSTEODIET'
p2759
(lp2760
S'Optimal nutrition towards osteoporosis prevention: impact of diet and gene-nutrient interactions on calcium and bone metabolipm.'
p2761
asS'OPEN-GAIN'
p2762
(lp2763
S'Optimal engineering design for dependable water and power generation in remote areas using renewable energies and intelligent automation'
p2764
asS'OVERSOL-NANO'
p2765
(lp2766
S'Study of the oversolubility of gases in liquids of nanometric volume'
p2767
asS'OPTIC'
p2768
(lp2769
S'Optimal policies for transport in combination'
p2770
asS'ODP'
p2771
(lp2772
S'Universal Online Database Manager for Better Project Supervisory'
p2773
asS'OPTCOOLUB'
p2774
(lp2775
S'New cooling techniques for enhanced roll bite lubrication during cold rolling of high strength steels and thin packaging steels'
p2776
asS'ODT'
p2777
(lp2778
S'Airborne system and equipment optical data transmission'
p2779
asS'ONTHEFRINGE'
p2780
(lp2781
S'ONTHEFRINGE: Optical interferometry in trainning and in context'
p2782
asS'OVERSEE'
p2783
(lp2784
S'Open vehicular secure platform'
p2785
a(lp2786
S'Open vehicular secure platform'
p2787
aasS'OMEX'
p2788
(lp2789
S'Ocean margin exchange'
p2790
asS'OMIARD'
p2791
(lp2792
S'Organic marketing initiatives and rural development'
p2793
asS'ODA'
p2794
(lp2795
S'Optimum design in aerodynamics'
p2796
a(lp2797
S'Open Digital Administration'
p2798
aasS'OPENMATH'
p2799
(lp2800
S'Openmath-accessing and using mathematical information electronically'
p2801
a(lp2802
S'OpenMath Thematic Network'
p2803
aa(lp2804
S'OpenMath Thematic Network'
p2805
aasS'OPTI-BLADE'
p2806
(lp2807
S'Fan-blade shape optimization by parametric CFD'
p2808
asS'OLFACTORYCIRCUITS'
p2809
(lp2810
S'Functional and structural analysis of higher olfactory circuits in Drosophila'
p2811
asS'ODE'
p2812
(lp2813
S'Implementation of an object oriented development environment'
p2814
a(lp2815
S'Opportunities for Data Exchange'
p2816
aasS'OUROS'
p2817
(lp2818
S'Modelling of fine fibres forming in hot turbulent multiphase flow'
p2819
asS'OBELICS'
p2820
(lp2821
S'Objective Evaluation of Interior Car Sound'
p2822
asS'OLMO'
p2823
(lp2824
S'On-vehicle laser microsystem for obstacle detection'
p2825
asS'OPTIMAMM'
p2826
(lp2827
S'Optical mammography: imaging and characterisation of breast lesions by pulsed near-infrared laser light'
p2828
asS'ONSITEFORMASONRY'
p2829
(lp2830
S'On-site investigation techniques for the structural evaluation of historic masonry buildings'
p2831
asS'ODAGUI'
p2832
(lp2833
S'Open Database and Graphical User Interface Framework'
p2834
asS'OTERO CABERO, MARTA'
p2835
(lp2836
S'Adsorptive parametric pumping: a new clean technology for wastewater purification'
p2837
asS'OPSYS'
p2838
(lp2839
S'CONCERTED ACTION FOR SOLAR SYSTEM MODEL DEVELOPMENT AND VALIDATION.'
p2840
asS'ORIENTENTREPRISE'
p2841
(lp2842
S'ORIENTENTREPRISE'
p2843
asS'OCES 2000'
p2844
(lp2845
S'OPTIMIZED COLLECTIVE ENERGY SUPPLY FOR DHW AND HVAC IN SMALL RESIDENTIAL AREAS CONSTRUCTED'
p2846
asS'OPTISTIM'
p2847
(lp2848
S'Patterned optical activation of retinal ganglion cells'
p2849
asS'OLIVIA LEHMANN'
p2850
(lp2851
S'Orbitofrontal cortex and serotonin involvements in impulsive behaviors'
p2852
asS'OOSI'
p2853
(lp2854
S'OBJECT ORIENTED SYSTEM INTEGRATION'
p2855
asS'OPSURCON'
p2856
(lp2857
S'Optimum Surface Condition for Fatigue Sensitive Components Operating at Elevated Temperature'
p2858
asS'ODILE FAIVRE-RAMPANT'
p2859
(lp2860
S'Control of the potato tuber life-cycle'
p2861
asS'OSIS'
p2862
(lp2863
S'Origins of security and insecurity: the interplay of housing systems with jobs, household structures, finance and social security'
p2864
asS'ODMIR'
p2865
(lp2866
S'The origins and development of the human mirror neuron system'
p2867
asS'OCERA'
p2868
(lp2869
S'Open Components for Embedded Real-time Applications'
p2870
a(lp2871
S'Open Components for Embedded Real-time Applications'
p2872
aasS'OPET SOUTH SPAIN'
p2873
(lp2874
S'Opet Network Accompanying Measures: Opet Sur, Andalucia, Castilla La Mancha, Extramadura'
p2875
a(lp2876
S'Opet Network Accompanying Measures: Opet Sur, Andalucia, Castilla La Mancha, Extramadura'
p2877
aa(lp2878
S'Opet network accompanying measures: Opet Sur, Andalucia, Castilla La Mancha, Extramadura'
p2879
aasS'OPAALS'
p2880
(lp2881
S'Open Philosophies for associative Autopoietic Digital Ecosystems'
p2882
a(lp2883
S'Open Philosophies for associative Autopoietic Digital Ecosystems'
p2884
aasS'OOSD'
p2885
(lp2886
S'Object oriented software development: an integrated approach'
p2887
asS'OPCARE9'
p2888
(lp2889
S'A European Collaboration to optimise research for the care of cancer patients in the last days of life'
p2890
asS'OLDS'
p2891
(lp2892
S'Structure and Transport Properties of Organic Low-Dimensional Systems for Application to Information Technology'
p2893
asS'OMARG'
p2894
(lp2895
S'Photoactive napthalenediimide pi-stacking architectures - Versatile building blocks for zipper assembly of cascade redox gradients'
p2896
asS'OPHELIA'
p2897
(lp2898
S'Open Platform and metHodologies for devELopment tools IntegrAtion in a distributed environment'
p2899
a(lp2900
S'Open Platform and metHodologies for devELopment tools IntegrAtion in a distributed environment'
p2901
aa(lp2902
S'Open Platform and metHodologies for devELopment tools IntegrAtion in a distributed environment'
p2903
aa(lp2904
S'Open Platform and metHodologies for devELopment tools IntegrAtion in a distributed environment'
p2905
aasS'OXEXRISK'
p2906
(lp2907
S'Oxidative stress and chronic diseases : exocyclic dna adducts as markers for disrupted genomic integrity and risk'
p2908
asS'OPEN GARMENTS'
p2909
(lp2910
S'Consumer open innovation and open manufacturing interaction for individual garments'
p2911
asS'ORGANOMERCURIALS'
p2912
(lp2913
S'Novel remediation technology for vaccine production effluents containing organomercurials'
p2914
asS'OXYREG'
p2915
(lp2916
S'Regulation of the production of reactive oxygen species by the plant NADPH oxidase and its role in pathogen response and in response to other environmental or developmental factors'
p2917
asS'OPTIMIX'
p2918
(lp2919
S'Optimisation of multimedia over wireless Ip links via X-layer design'
p2920
a(lp2921
S'Optimisation of multimedia over wireless Ip links via X-layer design'
p2922
aasS'OOTMO3D'
p2923
(lp2924
S'Optimisation of the manufacturing of 3D CFC composite material'
p2925
asS'OPTICRYST'
p2926
(lp2927
S'Optimisation of protein crystallisation for European structural genomics'
p2928
asS'OSMOSE-2'
p2929
(lp2930
S'Open Standard for Multimedia Optical Storage Environments'
p2931
asS'OFLEXFOTODETEC'
p2932
(lp2933
S'Realization and characterization of flexible arrays of fototedectors'
p2934
asS'OSI 95'
p2935
(lp2936
S'High-Performance OSI Protocols with Multimedia Support on HSLANs and B-ISDN'
p2937
asS'OCMOL'
p2938
(lp2939
S'Oxidative coupling of Methane followed by Oligomerization to Liquids'
p2940
asS'OLIGOMERS-POLYMERS'
p2941
(lp2942
S'Dynamic covalent polymerisation of boron-aromatic oligomeric monomers'
p2943
asS'OPTIBLOW'
p2944
(lp2945
S'Optimisation of mould and core quality and materials usage in the metal castings industry'
p2946
asS'OCTALIS'
p2947
(lp2948
S'Offer of content through trusted access links'
p2949
asS'OCDV'
p2950
(lp2951
S"Offshore construction and decommissioning vessel ('OCDV')"
p2952
asS'ONCOPOOL'
p2953
(lp2954
S'Pooling of European data to hamonise transnational research in breast cancer'
p2955
asS'OLYMPIC'
p2956
(lp2957
S'Olympics Multimedia Personalised for the Internet Community'
p2958
a(lp2959
S'Olympics Multimedia Personalised for the Internet Community'
p2960
aasS'OOSEDOP'
p2961
(lp2962
S'Object Oriented Software Engineering in Document Processing'
p2963
asS'OLSEDYN'
p2964
(lp2965
S'Assessment and prediction of sediment dynamics within olive orchards'
p2966
asS'OLFPERCEPT'
p2967
(lp2968
S'Neural basis of olfactory perception in drosophila'
p2969
asS'OPENDREAMS'
p2970
(lp2971
S'Open distributed reliable environment architecture and middleware for supervision'
p2972
a(lp2973
S'Open distributed reliable environment, architecture and middleware for supervision - ii'
p2974
aasS'OFFGAS'
p2975
(lp2976
S'Improved EAF process control using on-line offgas analysis'
p2977
asS'OR-WORLD'
p2978
(lp2979
S'Learning and Teaching Operations Research and Management Science (OR/MS) with a Web based Hypermedia Learning Environment.'
p2980
a(lp2981
S'Learning and Teaching Operations Research and Management Science (OR/MS) with a Web based Hypermedia Learning Environment.'
p2982
aasS'OHIO'
p2983
(lp2984
S'Optimization and application of Intense High-Order harmonics'
p2985
a(lp2986
S'Optimization and application of intense high-order harmonics'
p2987
aasS'OPTIMAT BLADES'
p2988
(lp2989
S'Reliable optimal use of materials for wind turbine rotor blades (OPTIMAT BLADES)'
p2990
asS'OIL-FREE POWERTRAIN'
p2991
(lp2992
S'Development of powertrain and drive line components without liquid lubrication'
p2993
asS'ORWINE'
p2994
(lp2995
S'Organic viticulture and wine-making: development of environment and consumer friendly technologies for organic wine quality improvement and scientifically based legislative framework'
p2996
asS'OSA-TESMA'
p2997
(lp2998
S'OPEN SYSTEM ARCHITECTURE FOR TELEMATIC SERVICES IN MUNICIPAL APPLICATIONS'
p2999
asS'OTRANTO'
p3000
(lp3001
S'Hydrodynamics and geochemical fluxes in the strait of Otranto'
p3002
asS'ORTHO_ICON'
p3003
(lp3004
S'International courses for orthodontists networking'
p3005
asS'OMFLICSS'
p3006
(lp3007
S'Functional long-term imaging of single bouton-spine pairs during optogenetically controlled synaptic plasticity'
p3008
asS'OMII-EUROPE'
p3009
(lp3010
S'Open middleware infrastructure initiative for Europe'
p3011
asS"O'TAU"
p3012
(lp3013
S'Open Low-Cost 32-bit Microcontroller based on Transputer Technology for a New Generation of Automotive Applications'
p3014
asS'OXYBURNER'
p3015
(lp3016
S'Development of advanced large scale low NOx oxy-fuel burner for PF combustion'
p3017
asS'OPTELEC'
p3018
(lp3019
S'Energy optimised traction system for electric vehicle'
p3020
asS'OOASS'
p3021
(lp3022
S'Organisation of a summer school to teach virus molecular epidemiological and evolutionary methods'
p3023
asS'OXYGREEN'
p3024
(lp3025
S'Effective redesign of oxidative enzymes for green chemistry'
p3026
asS'ORBOQSI'
p3027
(lp3028
S'Optical routing based on quadratic solutions interaction'
p3029
asS'OPERA 2'
p3030
(lp3031
S'Open PLC European research alliance for new generation PLC integrated network phase 2'
p3032
a(lp3033
S'Open PLC European research alliance for new generation PLC integrated network phase 2'
p3034
aasS'OPENAIR'
p3035
(lp3036
S'OPtimisation for low Environmental Noise impact AIRcraft'
p3037
asS'OPTO-EMI-SENSE'
p3038
(lp3039
S'An optical fibre sensor based intelligent system for monitoring and control of exhaust emissions from road vehicles (OPTO-EMI-SENSE)'
p3040
asS'OPSA'
p3041
(lp3042
S'Centre of Excellence for Optical Spectroscopy Applications in Physics, Material Science and Environmental Protection'
p3043
asS'ON THE OTHER HAND'
p3044
(lp3045
S'On the other hand: the linguistic impact of having two symmetrical articulators in sign language'
p3046
asS'OMNIVIEWS'
p3047
(lp3048
S'Omni-directional Visual System'
p3049
a(lp3050
S'Omni-directional Visual System'
p3051
aasS'OMMI'
p3052
(lp3053
S'Organic Matter-Mineral Interaction : Implication on global element cycle and hazardous waste retention'
p3054
asS'OESOPHAGUS'
p3055
(lp3056
S'Using clonal sampling to analyse oesophageal epithelial homeostasis'
p3057
asS'OOATS'
p3058
(lp3059
S'Object oriented methodology applied to automatic test systems'
p3060
asS'OPTIAS'
p3061
(lp3062
S'Development of a management concept for optimising the location strategy (optias) in urban and suburban commercial properties'
p3063
asS'OSCAR'
p3064
(lp3065
S'Optical scanning apparatus for ropes'
p3066
a(lp3067
S'Open System for Collaborative Authoring and Reuse'
p3068
aa(lp3069
S'On-line edutainment for children: market study, content creation, adaption, localisation and commerce'
p3070
aa(lp3071
S'Innovation in small capacity ammonia refrigeration plants (OSCAR)'
p3072
aa(lp3073
S'Optimised expert system for conducting environmental assessment of urban road traffic'
p3074
aa(lp3075
S'Occupational stress with mental health clients in acute response (OSCAR)'
p3076
aa(lp3077
S'Optical Switching Systems, Components and Applications Research'
p3078
aa(lp3079
S'Optimal Speech Communication Assistance for Residual Abilities'
p3080
aasS'ORGLEARN'
p3081
(lp3082
S'Ways of organisational learning in the chemical industry and their impact on vocational education and training'
p3083
a(lp3084
S'Ways of organisational learning in the chemical industry and their impact on vocational education and training'
p3085
aasS'OUTERNET'
p3086
(lp3087
S'Visualisation And Documentation - Secure Transfer System'
p3088
a(lp3089
S'Visualisation And Documentation - Secure Transfer System'
p3090
aasS'O2FROMPSII'
p3091
(lp3092
S'How plants can live on solar energy and water'
p3093
as.