(dp1
S'JETCUT'
p2
(lp3
S'Remotely operated abrasive water jet cutting for offshore oil and gas well removal'
p4
a(lp5
S'Remotely Operated Abrasive Water Jet Cutting for Offshore Oil and Gas Well Removal'
p6
aasS'J-WEB'
p7
(lp8
S'Collaboration environment for judicial European network in Western Balkans'
p9
a(lp10
S'Collaboration environment for judicial European network in Western Balkans'
p11
aasS'JET-EP/NB'
p12
(lp13
S'JET-EP/NB/3'
p14
asS'JAKOB WOLFART'
p15
(lp16
S'How can the cortex dynamically control information transfer in thalamus ?'
p17
asS'JOINT SCAFFOLD'
p18
(lp19
S'Development and clinical evaluation of bioreplaceable small joint prosthesis for the correction of destructed small joints in rheumatoid arthritis and osteoarthritis (JOINT SCAFFOLD)'
p20
asS'JAMES_FAMILIES'
p21
(lp22
S'Families and the corporation in European Capitalism'
p23
asS'JP-TP'
p24
(lp25
S'Job profiles, training and practice for tutors/mentors in companies'
p26
asS'JOSE C.BELLIDO'
p27
(lp28
S'Local minimizers and numerical approximation in the calculus of variations'
p29
asS'JUERGEN WEICHSELGART'
p30
(lp31
S'Integrated disaster management model (idmm) - sustainable mitigation policy-making in europe'
p32
asS'JOBMOB AND FAMLIVES'
p33
(lp34
S'Job Mobilities and Family Lives in Europe Modern Mobile Living and its Relation to Quality of Life'
p35
asS'JAMES-RN'
p36
(lp37
S'Interconnection of European research and university networks at 34-155 mbit/s'
p38
a(lp39
S'JOINT ATM EXPERIMENT ON EUROPEAN SERVICES'
p40
aasS'JEWNET'
p41
(lp42
S'Jewish Studies Resources European Public Collections'
p43
asS'JOINT-ASSIMILATION'
p44
(lp45
S'Joint assimilation of satellite aerosol, cloud, and precipitation observations in numerical models to support climate and hydrologic applications'
p46
asS'JOTSUP'
p47
(lp48
S'Development of advanced joining technologies for supermartensitic stainless steel line pipes (JOTSUP)'
p49
asS'JUST CHRISTIANE'
p50
(lp51
S'Urban sustainable transportation systems'
p52
asS'JOIN(ED)T'
p53
(lp54
S'Joined Education for Tissue Engineering: a multidisciplinary approach to regenerate joints'
p55
asS'JTOMO'
p56
(lp57
S'Study of the molecular organization of cell junctions by cryo-electron tomography'
p58
asS'JNKNEUROREG'
p59
(lp60
S'The role of JNK/c-Jun pathway in axonal damage and neuronal regeneration'
p61
asS'JSRI'
p62
(lp63
S'Joint safety research index'
p64
asS'JAWS'
p65
(lp66
S'Josephson arbitrary waveform synthesizer : realisation of a quantum standard for ac voltage (JAWS)'
p67
asS'JACEK KITZINGER'
p68
(lp69
S'Experimental investigations of the flow interactions between the first guide vanes and the impeller of the radial compressor'
p70
asS'JECI'
p71
(lp72
S'Jobs in the European construction industry for European validation'
p73
asS'JANOS HORVATH'
p74
(lp75
S'Distraction and recovery from distraction: a neurocognitive approach'
p76
asS'JONATHAN NICHOLAS WI'
p77
(lp78
S'The structure of the very heavy atomic nuclei'
p79
a(lp80
S'The structure of the very heavy atomic nuclei'
p81
aasS'JEE/EFS'
p82
(lp83
S'JEE European Fund for Start-ups'
p84
asS'JOSE JUAN RODRIGUEZ-'
p85
(lp86
S'Characterisation of a new protein secretion pathway in pseudomonas aeruginosa'
p87
asS'JET EP ECRH GYROTRON'
p88
(lp89
S'Jet ep'
p90
asS'JAT'
p91
(lp92
S'Joint analyses and training project for technology transfer and mobility of SMEs'
p93
asS'JODIE'
p94
(lp95
S'Journey Online Discoverer Environment'
p96
a(lp97
S'Journey Online Discoverer Environment'
p98
aasS'JOYCE HELEN GERALDIN'
p99
(lp100
S'X-ray structure analysis of pullulanases from hyperthermophilic archaea and bacteria'
p101
asS'JOANNA REJMAN'
p102
(lp103
S'The development of novel carriers for gene therapy of tumors'
p104
asS'JEPS'
p105
(lp106
S'Joint European Print Server'
p107
asS'JURAJ SVITEL'
p108
(lp109
S'Analysis of pesticide residuals in foods by immunochemical assay based on surface plasmon resonance'
p110
asS'JATROPT'
p111
(lp112
S'Jatropha curcas Applied and Technological Research on Plant Traits'
p113
asS'JANKOVICS HAJNALKA'
p114
(lp115
S'Incorporation of non-natural catalytically relevant active sites into metalloproteins'
p116
a(lp117
S'Incorporation of non-natural catalytically relevant active sites into metalloproteins'
p118
aasS'JOSE M. MARTIN-GARCI'
p119
(lp120
S'Linear and nonlinear phenomena in a binary neutron star merger'
p121
asS'JRG-UHQ'
p122
(lp123
S'Max Planck Junior Research Group for Novel Applications of Ultra-High-Q Optical Microcavities'
p124
asS'JUICE'
p125
(lp126
S'USING INTERNET FOR CAREERS EDUCATION'
p127
asS'JETSET'
p128
(lp129
S'Jet Simulations, Experiments and Theory'
p130
asS'JEN-A-MACE'
p131
(lp132
S'Jena initiative of applying molecular techniques for the analysis of variations of ecological processes in space'
p133
asS'J.A. RODRIGUEZ-FEO'
p134
(lp135
S'Role of caveosome-medicated endocytosis during MMP-2 activation'
p136
asS'JAGUAR'
p137
(lp138
S'Java and html based graphical user interface for service and data maintenance in retail sales'
p139
asS'JIHADI TRAJECTORIES'
p140
(lp141
S'Violence and subjectivity in a global movement: jihadi trajectories in the UK and Spain'
p142
asS'JARMEST'
p143
(lp144
S'NEW PROCESS FOR THE RECYCLING AND IMMOBILIZATION OF METALS IN JAROSITE'
p145
asS'JUDAICA Europeana'
p146
(lp147
S'Jewish Urban Digital European Integrated Cultural Archive'
p148
asS'JOIN-DMC'
p149
(lp150
S'Joining dissimilar materials and composites by friction stir welding (JOIN-DMC)'
p151
asS'JEOPARD'
p152
(lp153
S'Java environment for parallel realtime development'
p154
a(lp155
S'Java environment for parallel realtime development'
p156
aasS'JOINT'
p157
(lp158
S'Joint Opportunities For European Biomass'
p159
a(lp160
S"Joint implementation for international emissions reduction through electricity companies in the european union and in the central and eastern european countries ('JOINT')"
p161
aa(lp162
S'Joint technical approach for decontamination of soil and groundwater'
p163
aa(lp164
S'Job opportunities in new tele-activities'
p165
aasS'JOUANNIC'
p166
(lp167
S'Characterisation of bromo, a respiratory burst oxidase in the development of root hair cells of arabidopsis'
p168
asS'JOACHIM GOTTSMANN'
p169
(lp170
S'Reservoir and eruption processes at active volcanoes: investigating magma dynamics using a new continuous absolute gravity meter'
p171
asS'JOERG SCHWEIZER'
p172
(lp173
S'Fail-safe control system for electric guided vehicles with short headways'
p174
a(lp175
S'Fail-safe control system for electric guided vehicles with short headways'
p176
aasS'JAD-PBP'
p177
(lp178
S'Just and durable peace by piece'
p179
asS'JAN TKAC'
p180
(lp181
S'Investigation of direct and mediated bioelectrochemistry of galactose oxidase and related enzymes. the application of the biosensors for measurement of clinically important metabolites.'
p182
asS'JOITEC'
p183
(lp184
S'Lead-free joining for micro electronics and micro system technology devices'
p185
asS'JENS HERRLE'
p186
(lp187
S'Oligocene antarctic ice-shield variability : impact on global paleoceanography and climate'
p188
a(lp189
S'Oligocene antarctic ice-shield variability : impact on global paleoceanography and climate'
p190
aasS'JUVESU'
p191
(lp192
S'Experimental surveys for the assessment of juveniles.'
p193
asS'JDA'
p194
(lp195
S'Jda'
p196
asS'JOSEP DARBA'
p197
(lp198
S'The generalisability and transferability of economic evaluation studies'
p199
a(lp200
S'The generalisability and transferability of economic evaluation studies'
p201
aasS'JUSTBRAIN'
p202
(lp203
S'Blood-brain barrier junctions as targets for paracellular drug delivery to the brain'
p204
asS'JURISTRAS'
p205
(lp206
S'The Strasbourg Court, democracy and the human rights of individuals and communities: patterns of litigation, state implementation and domestic reform'
p207
asS'JORDAN , ULRIKE'
p208
(lp209
S'Experimental and Computational Analysis of Flow Patterns at Inlet Devices of Solar Water Stores'
p210
asS'JANUS'
p211
(lp212
S'Joint Academic Network Using Satellite for European Distance Education and Training'
p213
a(lp214
S'Joint Academic Network Using Satellites'
p215
aa(lp216
S'Janus nanoparticles liquid cristal phases and derived materials'
p217
aa(lp218
S'Janus nanoparticles liquid cristal phases and derived materials'
p219
aa(lp220
S'Joint Analytical Network for Using Socio-economic research'
p221
aa(lp222
S'Joint Analytical Network for Using Socio-economic research'
p223
aasS'JOST LUIS BARRIADA-P'
p224
(lp225
S'Anthropogenic silver in estuarine and coastal ecosystems : inputs, behaviour, speciation and fate'
p226
asS'JUELICH NEUTRONS FOR'
p227
(lp228
S'Fundamental and applied condensed matter research with neutrons at forschungszentrum juelich (fzj) for european users'
p229
asS'JUMPY'
p230
(lp231
S'Transposon-based strategies for functional genomic analyses in xenopus tropicalis, a vertebrate model system for developmental and biomedical research'
p232
asS'JANA KIVASTIK'
p233
(lp234
S'Bronchial responsiveness using interrupter resistance in pre-school children'
p235
a(lp236
S'Bronchial responsiveness using interrupter resistance in pre-school children'
p237
aasS'JET EP ECRH LAUNCHER'
p238
(lp239
S'Jet ep'
p240
asS'J. SEBASTIEN STEYER'
p241
(lp242
S'Impact of development of amphibians on their origin and evolution'
p243
a(lp244
S'Impact of development of amphibians on their origin and evolution'
p245
aasS'JOSE GARCIA-BERNARDO'
p246
(lp247
S'Intermodular transfer in antibiotic mixed polyketide-peptide synthetases'
p248
asS'JAIME AGUILERA'
p249
(lp250
S'Carbon dioxide stress in yeast fermentations : a genomics approach.'
p251
a(lp252
S'Carbon dioxide stress in yeast fermentations : a genomics approach.'
p253
aasS'JHR-CP'
p254
(lp255
S'Jules Horowitz reactor collaborative project : contribution to the design and construction of new research infrastructure of pan-European interest, the JHR material testing reactor'
p256
asS'JET - EP ICRH'
p257
(lp258
S'Contribution to icrh antenna - vv external movable support structure design and test'
p259
asS'JAWS EMERGE'
p260
(lp261
S'Jaws emerge: Insight from placoderms to resolve the evolutionary emergence of gnathostomes'
p262
asS'JUERGENDEKA'
p263
(lp264
S'Biochemical and structural basis of intracellular signalling by the tpl-2/nf-db complex'
p265
asS'JOSE VICENTE HERNAND'
p266
(lp267
S'Rotaxanes as potential prodrug systems'
p268
a(lp269
S'Rotaxanes as potential prodrug systems'
p270
aasS'JUPITER'
p271
(lp272
S'JOINT URBAN PROJECT IN TRANSPORT ENERGY REDUCTION [PHASE 2]'
p273
a(lp274
S'JOINT URBAN PROJECT IN TRANSPORT ENERGY REDUCTION [PHASE 1]'
p275
aasS'JOINSIM'
p276
(lp277
S'Computer modelling of industrial joining processes'
p278
asS'JHR-CA'
p279
(lp280
S'Jules Horowitz Reactor Co-ordination Action (JHR-CA)'
p281
asS'J-COMP'
p282
(lp283
S'Joint CIREP-ECIX demonstration action on generating component dictionary data in CIDS format by CIREP'
p284
asS'JESUS FUENTETAJA'
p285
(lp286
S'The impact of changes in the executive function of the community legal order on decision-making and policy objectives'
p287
a(lp288
S'The impact of changes in the executive function of the community legal order on decision-making and policy objectives'
p289
aasS'JUAN JOSE HERNANDEZ'
p290
(lp291
S'Experimental techniques for the on-line analysis of diesel emissions'
p292
asS'JUST'
p293
(lp294
S'JUST-in-time health emergency interventions - Training of non-professionals by Virtual Reality and advanced IT tools'
p295
a(lp296
S'JUST-in-time health emergency interventions - Training of non-professionals by Virtual Reality and advanced IT tools'
p297
aasS'JETVAR'
p298
(lp299
S'Multi-wavelength variability study of the jet variability in X-ray binaries'
p300
asS'JOINTEC'
p301
(lp302
S'Innovative and competitive new joining technology for steel pipes using adhesive bonding'
p303
asS'JANJI BASSAM'
p304
(lp305
S'Implication of the nuclear fgf-2 in the metastatic potential of carcinoma cells'
p306
asS'JOCO'
p307
(lp308
S'JOint source-channel COding-driven digital baseband design for 4G multimedia streaming'
p309
a(lp310
S'JOint source-channel COding-driven digital baseband design for 4G multimedia streaming'
p311
aasS'JOHN C LUKAS'
p312
(lp313
S'Optimization of dose regimen for chronically administered drugs with population pharmacokinetic methods'
p314
a(lp315
S'Optimization of dose regimen for chronically administered drugs with population pharmacokinetic methods'
p316
aasS'JUDIT KAMAN'
p317
(lp318
S'Synthesis of analogues of lipid ii for the investigation of transglycosylases involved in bacterial cell wall biosynthesis and the development of novel antibiotics'
p319
asS'JIMPYSPEC'
p320
(lp321
S'Investigation of metabolic processes underlying brain myelination defects using magnetic resonance spectroscopy of oligodendrocyte extracts'
p322
asS'JUAN ANTONIO GARCIA'
p323
(lp324
S'Intermittent gas-liquid flow and its efficiency in improving crossflow filtration'
p325
asS'JULIUS'
p326
(lp327
S'Joint industrial interface for end-users simulations'
p328
asS'JODIS'
p329
(lp330
S'Laser joining technologies for dissimilar material combinations (JODIS)'
p331
a(lp332
S'Laser Joining Technologies for Dissimilar Material Combinations (JODIS)'
p333
aasS'JULIA'
p334
(lp335
S'Joining ecophysiological understanding and global ecosystem modelling for improved simulation of land surface interactions with the atmosphere'
p336
asS'JANN THORSTEN MARTIN'
p337
(lp338
S'In vivo directed evolution of the specialized dna-polymerase poliv'
p339
asS'JET-EP/IN VESSEL'
p340
(lp341
S'CFC tile design divertor assembly, disassembly and integration divertor diagnostics'
p342
asS'JUAN CARLOS RUIZ MOR'
p343
(lp344
S'Novel oxide electrodes for hydrocarbon oxidation in solid oxide fuel cells'
p345
asS'JUKE-BOX'
p346
(lp347
S'Applying Telematics Technology to Improve Public Access to Audio Archives'
p348
asS'JUMBOCOKE'
p349
(lp350
S'Development of a resource conserving and environmental protecting coking system: jumbo coking reactor'
p351
asS'JIE HE'
p352
(lp353
S'Zero discharge aquaculture in integrated recirculating systems for asia'
p354
asS'JEAN-BAPTISTE MANNEV'
p355
(lp356
S'Mechanisms and control of exocytosis in living neuroendocrine cells'
p357
asS'JEWCOM'
p358
(lp359
S'History of European -Jewish Communication in the 20th Century'
p360
asS'JUHO ROUSU'
p361
(lp362
S'Efficient and effective machine learning methods for complex biological networks'
p363
a(lp364
S'Efficient and effective machine learning methods for complex biological networks'
p365
aasS'JUAN MANUEL RODRIGUE'
p366
(lp367
S'Synthesis of chiral sulfondiamides and their use in asymmetric catalysis'
p368
asS'JOLISAA'
p369
(lp370
S'JOint Learning about Innovation Systems in African Agriculture'
p371
asS'JAMES'
p372
(lp373
S'Joint atm experiment on European services'
p374
asS'JULY 2000'
p375
(lp376
S'Summer school "recent advances in metrology and fundamental constants" (JULY 2000)'
p377
asS'JANIS KLOVINS'
p378
(lp379
S'The structural requirements for ligand activation of peptide binding gpcrs'
p380
a(lp381
S'The structural requirements for ligand activation of peptide binding gpcrs'
p382
aasS'JUGA'
p383
(lp384
S'Initial training of young people in the catering and commercial sectors using multimedia'
p385
asS'JDCRM'
p386
(lp387
S'Non Abelian Reidemeister Torsion'
p388
asS'JAKFISH'
p389
(lp390
S'Judgement and knowledge in fisheries including stakeholders'
p391
asS'JAKS AND IFN-R'
p392
(lp393
S'The role of the Jak tyrosine kinases in the trafficking of the type I interferon receptor'
p394
asS'JOHANNES BAPTIST COR'
p395
(lp396
S'Setup of methodology for the estimation of breeding values for dairy sheep and goats'
p397
asS'JAN FIDRMUC'
p398
(lp399
S'Institutional foundations of economic and political developments in post-communist countries'
p400
a(lp401
S'Institutional foundations of economic and political developments in post-communist countries'
p402
aasS'JOEL MARCEL DURANT'
p403
(lp404
S'Ecological effects of climatic fluctuations in coupled marine-terrestrial systems.'
p405
asS'JUPITER 2'
p406
(lp407
S'JOINT URBAN PROJECT IN TRANSPORT ENERGY REDUCTION 2 [PHASE 1]'
p408
asS'JESSI'
p409
(lp410
S'Joint European submicron silicon initiative'
p411
asS'JUAN-RAMON MARTINEZ-'
p412
(lp413
S'Genetic analysis of the pigmented epithelium development in medaka.'
p414
a(lp415
S'Genetic analysis of the pigmented epithelium development in medaka.'
p416
aasS'JITOL'
p417
(lp418
S'Just In Time Open Learning'
p419
asS'JEREMIE MATTOUT'
p420
(lp421
S'Multimodal functional neuroimaging: meg/eeg source localisation introducing anatomical and functional spatial constraints derived from mr imaging.'
p422
asS'JRC-GADI'
p423
(lp424
S'ENVIRONMENTAL FRIENDLY ENGINE - JOINT RESEARCH COMMITMENT ON GASOLINE DIRECT INJECTION'
p425
asS'JAPANGREATDEPRESSION'
p426
(lp427
S"'Dead End': An economic and cultural history of Japan in the Age of the Great Depression, 1927-1937"
p428
asS'JET'
p429
(lp430
S'JET Joint Undertaking'
p431
a(lp432
S'Joint European training'
p433
aasS'JUAN MANUEL BENITO H'
p434
(lp435
S'Cyclic peptides as carbohydrates receptors'
p436
a(lp437
S'Cyclic peptides as carbohydrates receptors'
p438
aasS'JOSE LUIS PLAZA'
p439
(lp440
S'Self-assembly of nanocrystal arrays for electronic and bioelectronic devices'
p441
asS'JEWEL'
p442
(lp443
S'Trial of an innovative iCRM System for distributed Sales Organisations in the Jewellery Industry'
p444
a(lp445
S'Trial of an innovative iCRM System for distributed Sales Organisations in the Jewellery Industry'
p446
aasS'JET EP'
p447
(lp448
S' ECRH, CONTRI'
p449
a(lp450
S' ECRH'
p451
aa(lp452
S' ECRH'
p453
aa(lp454
S'Divertor diagnostics bolometers & pressure gauges design'
p455
aa(lp456
S' ECRH'
p457
aa(lp458
S' ECRH PROJECT'
p459
aa(lp460
S' ECRH, CONTR.'
p461
aa(lp462
S' ECRH'
p463
aa(lp464
S' ECRH'
p465
aa(lp466
S'Project management and co-ordination of ecrh sub-system design and R&D'
p467
aa(lp468
S' ECRH'
p469
aa(lp470
S' ECRH'
p471
aa(lp472
S'Diagnostics enhancement - real time project management and implementation'
p473
aa(lp474
S' ECRH, CONTRI'
p475
aa(lp476
S' ICRH'
p477
aa(lp478
S' ICRH'
p479
aa(lp480
S'Diagnostics enhancement -he beam project management and implementation'
p481
aa(lp482
S'Project management and co-ordination of icrh sub-system design and R&D'
p483
aa(lp484
S' ICRH'
p485
aa(lp486
S' ECRH'
p487
aa(lp488
S' ICRH'
p489
aa(lp490
S'Diagnostics enhancement - ece radiometer project management and implementation'
p491
aasS'JURAD'
p492
(lp493
S'The logical representation of juridical and administrative knowledge'
p494
asS'JEEPS'
p495
(lp496
S'Joint European Enterprise in Phase-Shift, Advanced Mask Technology: towards 0.25 micron'
p497
asS'JOVIAL'
p498
(lp499
S'Josephson-like effect with vortices and applications'
p500
asS'JET EP ICRH PROJECT'
p501
(lp502
S'Jet ep'
p503
asS'JBGIM'
p504
(lp505
S'Functional Nanoscale Coordination Polymers: Controlled Growth by Metal-Containing Block Copolymer Templated Self-Assembly'
p506
asS'JUMAS'
p507
(lp508
S'Judicial management by digital libraries semantics'
p509
asS'JOSEPH MACHUA'
p510
(lp511
S'Symbionts in agroforestry systems:what are the long term impacts of inoculation on the growth of calliandra calothyrsus and its intercrops'
p512
asS'JAST'
p513
(lp514
S'Joint-action science and technology'
p515
a(lp516
S'Joint-action science and technology'
p517
aasS'JEFFERS-050776-EIF'
p518
(lp519
S'ZEEMAN-DOPPLER-IMAGING OF T TAURI STARS'
p520
asS'JLP'
p521
(lp522
S'Joint Logic Project'
p523
a(lp524
S'Joint Logic Project'
p525
aasS'JACCO VAN BEEK'
p526
(lp527
S'Development of solid-state nmr methodology and application to hydrogen bonding and lipid-peptide interactions in biological systems'
p528
a(lp529
S'Development of solid-state nmr methodology and application to hydrogen bonding and lipid-peptide interactions in biological systems'
p530
aasS'JITT'
p531
(lp532
S'Network for just-in-time training in quality'
p533
asS'JOSE MANUEL PEREZ DE'
p534
(lp535
S'Study of the adhesive interaction between human and pig cells via daf/cd97. significance in xenotransplantation'
p536
asS'JOURNEYMEN'
p537
(lp538
S'Students as "journeymen" between communities of higher education and work'
p539
asS'JASMINE'
p540
(lp541
S'Java Smart Integrated Networked Enterprises'
p542
a(lp543
S'Java Smart Integrated Networked Enterprises'
p544
aasS'JICIBSET'
p545
(lp546
S'John Innes Centre International Student Bursaries for Early Stage Training'
p547
asS'JAROSLAV MALINA'
p548
(lp549
S'Supramolecular arrays for non-covalent dna recognition'
p550
a(lp551
S'Supramolecular arrays for non-covalent dna recognition'
p552
aasS'JUERGEN STUHLER'
p553
(lp554
S'Atom interferometric measurement of the newtonian gravitational constant'
p555
a(lp556
S'Atom interferometric measurement of the newtonian gravitational constant'
p557
aasS'JOSE GALLEGO'
p558
(lp559
S'Internal ribosome entry site rna: a new target for blocking hepatitis c virus protein synthesis and replication'
p560
asS'JEDI'
p561
(lp562
S'JAVA enabled database access over internet'
p563
a(lp564
S'JAVA extensive software defined internetworking'
p565
aasS'JORDI TORRES ROSELL'
p566
(lp567
S'The role of centromeric chromatin in the activation of the spindle checkpoint'
p568
asS'JEANSMASS'
p569
(lp570
S'The role of thermal Physics in determining the masses of stars'
p571
asS'JRP'
p572
(lp573
S'DNA vaccination against hepatitis C virus infection (JRP)'
p574
asS'JANA MASaROVa'
p575
(lp576
S'Rapid detection of food-borne pathogens by optical biosensors using lectins'
p577
asS'JOSEPHSON DEVICES'
p578
(lp579
S'Josephson devices'
p580
asS'JET FT SAFETY-MAINTE'
p581
(lp582
S'Jet ft'
p583
asS'JULIA JONES'
p584
(lp585
S'An economic evaluation of community-based mental health care'
p586
a(lp587
S'An economic evaluation of community-based mental health care'
p588
aasS'JAYHUN'
p589
(lp590
S'Interstate water resource risk management: towards a sustainable future for the aral basin'
p591
asS'JOINMAR'
p592
(lp593
S'Innovative non-thermal joining methods for lightweight marine structures'
p594
asS'JACO3'
p595
(lp596
S'JAVA and CORBA based collaborative environment for coupled simulations'
p597
asS'JAANA VORMISTO'
p598
(lp599
S'Distribution and abundance of amazonian palm species'
p600
asS'JIRCRM'
p601
(lp602
S'Moduli spaces of K3 surfaces and integral canonical models of Shimura varieties'
p603
asS'JESAPE'
p604
(lp605
S'Embedded system applications portability enabler using JAVA'
p606
asS'JAROSLAV HANUS'
p607
(lp608
S'Structure and dynamics of the plant cell wall. the cellulose-xyloglucan interactions inferred by raman, nmr and molecular modelling'
p609
asS'JPD'
p610
(lp611
S'Development of a specialised software environment for the design of standard total hip replacement'
p612
a(lp613
S'Development of a specialised software environment for the design of standard total hip replacement'
p614
aasS'JOB CREATION IN IRS'
p615
(lp616
S'Job creation in innovative relational services the case of services to private individuals'
p617
asS'JACEK MALINOWSKI'
p618
(lp619
S'Logic and formal ontology of language : context, presupposition, implicature'
p620
asS'JENET'
p621
(lp622
S'Joint European Network on Embedded Internet Technologies'
p623
a(lp624
S'Joint European Network on Embedded Internet Technologies'
p625
aasS'JR-COMS'
p626
(lp627
S"Job related and certification oriented multimedia self and distance training course of Dutch and other languages for SME's"
p628
asS'JEAN PHILIPPE GAILLA'
p629
(lp630
S'Molecular bases of the embryonic control of teratocarcinoma stem cells'
p631
asS'JUAN JOSE LUQUE -LAR'
p632
(lp633
S'American mink invasion and conservation : testing and applying predator-prey ecological theory'
p634
a(lp635
S'American mink invasion and conservation : testing and applying predator-prey ecological theory'
p636
aasS'JET EP DIAGNOSTICS T'
p637
(lp638
S'Jet ep diagnostics - tritium retention studies'
p639
asS'JAN-WILLEM DE KRAKER'
p640
(lp641
S'Mam synthases and the production of cancer-protecting glucosinolates in vegetables.'
p642
asS'JOAN POUS RAMOS'
p643
(lp644
S'Isolated particle 3d electron microscopy reconstruction and resolution enhancement.'
p645
a(lp646
S'Isolated particle 3d electron microscopy reconstruction and resolution enhancement.'
p647
aasS'JARI ELORANTA'
p648
(lp649
S'Warfare and welfare : the demand for central government spending 1870 to 1938'
p650
asS'JOSe LUIS MARiN TEVA'
p651
(lp652
S'Role of microglia in retinal ganglion cell death'
p653
asS'JET EP DIAGNOSTICS E'
p654
(lp655
S'Jet ep diagnostics enhancements - IR viewing project management and implementation'
p656
asS'JAMON'
p657
(lp658
S'Jets in AGNs: Multifrequency observations and numerical modelling'
p659
asS'JEAN'
p660
(lp661
S'Jet exhaust aerodynamics and noise (JEAN)'
p662
asS'JOIN-MED'
p663
(lp664
S'Establishing the EU-Mediterranean ICT research network'
p665
a(lp666
S'Establishing the EU-Mediterranean ICT research network'
p667
aasS'JOINTSTRUCTUREDPRED'
p668
(lp669
S'Machine learning methods for complex outputs and their application to natural language processing and computational biology'
p670
asS'JAVA-V&V'
p671
(lp672
S'Verification and validation methodology for JAVA development environment'
p673
asS'JORGE C.ROMAO'
p674
(lp675
S'Neutrinos and supersymmetry'
p676
asS'J - BILAT'
p677
(lp678
S'BILAT in Japan'
p679
asS'JULIA J. DAY'
p680
(lp681
S'Origins and diversification of lake tanganyika cichlids'
p682
asS'JUAN BELLAS'
p683
(lp684
S'Effects of new generation antifouling coatings on marine invertebrate embryos and larvae'
p685
a(lp686
S'Effects of new generation antifouling coatings on marine invertebrate embryos and larvae'
p687
aasS'JIVE'
p688
(lp689
S'Hazard consequences of jet-fire interactions with vessels containing pressurised liquids'
p690
asS'JCF'
p691
(lp692
S'JESSI CAD-Frame'
p693
a(lp694
S'JESSI Common-Frame'
p695
aasS'JUGA TEC'
p696
(lp697
S'International training plan for the qualification of young women'
p698
asS'JURAJ PARAJKA'
p699
(lp700
S'Spatial estimation in water resources at the regional scale'
p701
asS'JASS'
p702
(lp703
S'Joint analysis and strategy development for self-employed women with technical and scientific training'
p704
asS'JET-EP/ICRH'
p705
(lp706
S'JET EP/ICRH/2 antenna design'
p707
asS'JESUS PALOMERO LABAJ'
p708
(lp709
S'Molecular mechanisms of preservation of muscle with age by hsp70.'
p710
asS'JASMONATE SIGNALLING'
p711
(lp712
S'Novel approach for dissection of jasmonate signaling in Arabidopsis'
p713
asS'JAUREGUI ARBIZU MARI'
p714
(lp715
S'Phenotypic and genotypic evaluation of juglans regia genetic resources.'
p716
asS'JEDI-FIRE'
p717
(lp718
S'Jedi flexible electronic commerce firewall and data privacy'
p719
a(lp720
S'Jedi flexible electronic commerce firewall and data privacy'
p721
aasS'JASMONATE SIGNALING'
p722
(lp723
S'Analysis of the ORA47 transcription factor involved in jasmonic acid signal transduction in Arabidopsis thaliana'
p724
asS'JEM'
p725
(lp726
S'Joining Educational Mathematics'
p727
asS'JET EP DIVERTOR'
p728
(lp729
S'Divertor amend 1 fu05-ct-2001-00231'
p730
asS'JARVIS CHRISTOPHER'
p731
(lp732
S'Identification of genes activated by the roralpha transcription factor: a gene implicated in age related degenerative pathologies.'
p733
asS'JACOB'
p734
(lp735
S'EC-UNESCO conference: Joint Action for Capacity-building in Bioethics (JACOB)'
p736
asS'JOSES'
p737
(lp738
S'Java and cosy technology for embedded systems'
p739
asS'JET PILOT'
p740
(lp741
S'Jet pilot'
p742
asS'JYFLACCLAB'
p743
(lp744
S'Jyfl accelerator laboratory of the university of jyvaskyla'
p745
a(lp746
S'Jyfl accelerator laboratory of the university of jyvaskyla'
p747
aas.