(dp1
S'Zunyi'
p2
(lp3
S'China'
p4
asS'Zhengzhou'
p5
(lp6
S'China'
p7
asS'Ziyang'
p8
(lp9
S'China'
p10
asS'Zhaodong'
p11
(lp12
S'China'
p13
asS'Zmeinogorsk'
p14
(lp15
S'Russia'
p16
asS'Zelenokumsk'
p17
(lp18
S'Russia'
p19
asS'Zavet'
p20
(lp21
S'Bulgaria'
p22
asS'Zehdenick'
p23
(lp24
S'Germany'
p25
asS'Zhongshan'
p26
(lp27
S'China'
p28
asS'Zarrentin am Schaalsee'
p29
(lp30
S'Germany'
p31
asS'Zelenograd'
p32
(lp33
S'Russia'
p34
asS'Zardab'
p35
(lp36
S'Azerbaijan'
p37
asS'Zeitz'
p38
(lp39
S'Germany'
p40
asS'Ziguinchor'
p41
(lp42
S'Senegal'
p43
asS'Zaragoza'
p44
(lp45
S'Spain'
p46
asS'Zavodoukovsk'
p47
(lp48
S'Russia'
p49
asS'Zaozyorsk'
p50
(lp51
S'Russia'
p52
asS'Zima'
p53
(lp54
S'Russia'
p55
asS'Zhizdra'
p56
(lp57
S'Russia'
p58
asS'Zainsk'
p59
(lp60
S'Russia'
p61
asS'Zadar'
p62
(lp63
S'Croatia'
p64
asS'Zelenika'
p65
(lp66
S'Montenegro'
p67
asS'Zvornik'
p68
(lp69
S'Bosna'
p70
asS'Zemen'
p71
(lp72
S'Bulgaria'
p73
asS'Zenica'
p74
(lp75
S'Bosna'
p76
aS'Bosnia and Herzegovina'
p77
asS'Zhabinka '
p78
(lp79
S'Belarus'
p80
asS'Zimnicea'
p81
(lp82
S'Romania'
p83
asS'Zorakert'
p84
(lp85
S'Armenia'
p86
asS'Zarasai'
p87
(lp88
S'Lithuania'
p89
asS'Zhezkazgan'
p90
(lp91
S'Kazakhstan'
p92
asS'Zhuanghe'
p93
(lp94
S'China'
p95
asS'Zaporizhya'
p96
(lp97
S'Ukraine'
p98
asS'Zalaszentgr\xf3t'
p99
(lp100
S'Hungary'
p101
asS'Zangakatun'
p102
(lp103
S'Armenia'
p104
asS'Zal\xe3u'
p105
(lp106
S'Romania'
p107
asS'Zhangjiakou'
p108
(lp109
S'China'
p110
asS'Zhlobin '
p111
(lp112
S'Belarus'
p113
asS'Zabrze'
p114
(lp115
S'Poland'
p116
asS'Zalal\xf6v\xf5'
p117
(lp118
S'Hungary'
p119
asS'Zelenogradsk'
p120
(lp121
S'Russia'
p122
asS'Zedea'
p123
(lp124
S'Armenia'
p125
asS'Zovasar'
p126
(lp127
S'Armenia'
p128
asS'Zs\xe1mb\xe9k'
p129
(lp130
S'Hungary'
p131
asS'Zaslawye '
p132
(lp133
S'Belarus'
p134
asS'Zovk'
p135
(lp136
S'Armenia'
p137
asS'Zuygaghbyur'
p138
(lp139
S'Armenia'
p140
asS'Zibo'
p141
(lp142
S'China'
p143
asS'Zunhua'
p144
(lp145
S'China'
p146
asS'Zelenogorsk'
p147
(lp148
S'Russia'
p149
aS'Russia'
p150
asS'Zherdevka'
p151
(lp152
S'Russia'
p153
asS'Zuyevka'
p154
(lp155
S'Russia'
p156
asS'Zadonsk'
p157
(lp158
S'Russia'
p159
asS'Zahna'
p160
(lp161
S'Germany'
p162
asS'Zhodzina '
p163
(lp164
S'Belarus'
p165
asS'Zhongxiang'
p166
(lp167
S'China'
p168
asS'Zygi'
p169
(lp170
S'Cyprus'
p171
asS'Zovashen'
p172
(lp173
S'Armenia'
p174
asS'Zalaegerszeg'
p175
(lp176
S'Hungary'
p177
asS'Zhuozhou'
p178
(lp179
S'China'
p180
asS'Zverevo'
p181
(lp182
S'Russia'
p183
asS'Zheleznovodsk'
p184
(lp185
S'Russia'
p186
asS'Zhoushan'
p187
(lp188
S'China'
p189
asS'Zam\xe1rdi'
p190
(lp191
S'Hungary'
p192
asS'Zangilan'
p193
(lp194
S'Azerbaijan'
p195
asS'Zodia'
p196
(lp197
S'Cyprus'
p198
asS'Zhuji'
p199
(lp200
S'China'
p201
asS'Zovaber'
p202
(lp203
S'Armenia'
p204
asS'Zw\xc3\xb6nitz'
p205
(lp206
S'Germany'
p207
asS'Zaritap'
p208
(lp209
S'Armenia'
p210
asS'Zhdanov'
p211
(lp212
S'Armenia'
p213
asS'Zvenigovo'
p214
(lp215
S'Russia'
p216
asS'Zhaotong'
p217
(lp218
S'China'
p219
asS'Z\xc3\xbclpich'
p220
(lp221
S'Germany'
p222
asS'Zarinsk'
p223
(lp224
S'Russia'
p225
asS'Zavitinsk'
p226
(lp227
S'Russia'
p228
asS'Zhuhai'
p229
(lp230
S'China'
p231
asS'Zamboanga'
p232
(lp233
S'Philippines'
p234
asS'Zarinja'
p235
(lp236
S'Armenia'
p237
asS'Zaozhuang'
p238
(lp239
S'China'
p240
asS'Zhangshu'
p241
(lp242
S'China'
p243
asS'Zar'
p244
(lp245
S'Armenia'
p246
asS'Zilupe'
p247
(lp248
S'Latvia'
p249
asS'Zhenjiang'
p250
(lp251
S'China'
p252
asS'Zahedan'
p253
(lp254
S'Iran'
p255
asS'Zubtsov'
p256
(lp257
S'Russia'
p258
asS'Zoucheng'
p259
(lp260
S'China'
p261
asS'Zeulenroda-Triebes'
p262
(lp263
S'Germany'
p264
asS'Zhukov'
p265
(lp266
S'Russia'
p267
asS'Zolakar'
p268
(lp269
S'Armenia'
p270
asS'Zaria'
p271
(lp272
S'Nigeria'
p273
asS'Zavolzhsk'
p274
(lp275
S'Russia'
p276
asS'Zhaoyuan'
p277
(lp278
S'China'
p279
asS'Zografou'
p280
(lp281
S'Greece'
p282
asS'Zl\xc3\xadn'
p283
(lp284
S'Czech Republic'
p285
asS'Zaqatala'
p286
(lp287
S'Azerbaijan'
p288
asS'Zaraysk'
p289
(lp290
S'Russia'
p291
asS'Zaozyorny'
p292
(lp293
S'Russia'
p294
asS'Zhucheng'
p295
(lp296
S'China'
p297
asS'Zhanjiang'
p298
(lp299
S'China'
p300
asS'Ziegenr\xc3\xbcck'
p301
(lp302
S'Germany'
p303
asS'Z\xc3\xb6rbig'
p304
(lp305
S'Germany'
p306
asS'Zovuni'
p307
(lp308
S'Armenia'
p309
asS'Zhytkavichy '
p310
(lp311
S'Belarus'
p312
asS'Zabok'
p313
(lp314
S'Croatia'
p315
asS'Zweibr\xc3\xbccken'
p316
(lp317
S'Germany'
p318
asS'Zoravan'
p319
(lp320
S'Armenia'
p321
asS'Zigong'
p322
(lp323
S'China'
p324
asS'Zhanaozen'
p325
(lp326
S'Kazakhstan'
p327
asS'Zoetermeer'
p328
(lp329
S'Netherlands'
p330
asS'Zvenigorod'
p331
(lp332
S'Russia'
p333
asS'Zell im Wiesental'
p334
(lp335
S'Germany'
p336
asS'Zell am Harmersbach'
p337
(lp338
S'Germany'
p339
asS'Zapre\xc5\xa1i\xc4\x87'
p340
(lp341
S'Croatia'
p342
asS'Zheleznogorsk'
p343
(lp344
S'Russia'
p345
aS'Russia'
p346
asS'Zavolzhye'
p347
(lp348
S'Russia'
p349
asS'Zlatoust'
p350
(lp351
S'Russia'
p352
aS'Russia'
p353
asS'Zell'
p354
(lp355
S'Germany'
p356
asS'Zelva '
p357
(lp358
S'Belarus'
p359
asS'Zapolyarny'
p360
(lp361
S'Russia'
p362
asS'Zlatar'
p363
(lp364
S'Croatia'
p365
asS'Zoutleeuw'
p366
(lp367
S'Belgium'
p368
asS'Zheleznodorozhny'
p369
(lp370
S'Russia'
p371
asS'Z\xe3rne\xbati'
p372
(lp373
S'Romania'
p374
asS'Zlatna'
p375
(lp376
S'Romania'
p377
asS'Zestafoni'
p378
(lp379
S'Georgia'
p380
asS'Zelenodolsk'
p381
(lp382
S'Russia'
p383
asS'Zhukovsky'
p384
(lp385
S'Russia'
p386
asS'Z\xc3\xb6blitz'
p387
(lp388
S'Germany'
p389
asS'Zella-Mehlis'
p390
(lp391
S'Germany'
p392
asS'Zeya'
p393
(lp394
S'Russia'
p395
asS'Zarechny'
p396
(lp397
S'Russia'
p398
aS'Russia'
p399
asS'Znamensk'
p400
(lp401
S'Russia'
p402
asS'Zhirnovsk'
p403
(lp404
S'Russia'
p405
asS'Zhangjiagang'
p406
(lp407
S'China'
p408
asS'Zengcheng'
p409
(lp410
S'China'
p411
asS'Zagreb'
p412
(lp413
S'Croatia'
p414
asS'Zhigulyovsk'
p415
(lp416
S'Russia'
p417
asS'Zhangzhou'
p418
(lp419
S'China'
p420
asS'Zlatograd'
p421
(lp422
S'Bulgaria'
p423
asS'Zugdidi'
p424
(lp425
S'Georgia'
p426
asS'Zirc'
p427
(lp428
S'Hungary'
p429
asS'Zerbst'
p430
(lp431
S'Germany'
p432
asS'Z\xe1hony'
p433
(lp434
S'Hungary'
p435
asS'Zakamensk'
p436
(lp437
S'Russia'
p438
asS'Zalakaros'
p439
(lp440
S'Hungary'
p441
asS'Zhangqiu'
p442
(lp443
S'China'
p444
asS'Zapadnaya Dvina'
p445
(lp446
S'Russia'
p447
asS'Zottegem'
p448
(lp449
S'Belgium'
p450
asS'Zwolle'
p451
(lp452
S'Netherlands'
p453
asS'Zlatitsa'
p454
(lp455
S'Bulgaria'
p456
asS'Zavidovi\xc4\x87i'
p457
(lp458
S'Bosna'
p459
asS'Zwettl'
p460
(lp461
S'Austria'
p462
asS'Zeil am Main'
p463
(lp464
S'Germany'
p465
asS'Zheleznogorsk-Ilimsky'
p466
(lp467
S'Russia'
p468
asS'Zaoyang'
p469
(lp470
S'China'
p471
asS'Zlataritsa'
p472
(lp473
S'Bulgaria'
p474
asS'Zlynka'
p475
(lp476
S'Russia'
p477
asS'Zernograd'
p478
(lp479
S'Russia'
p480
asS'Zarishat'
p481
(lp482
S'Armenia'
p483
asS'Zhukovka'
p484
(lp485
S'Russia'
p486
asS'Zartonk'
p487
(lp488
S'Armenia'
p489
asS'Zhuzhou'
p490
(lp491
S'China'
p492
asS'Zanzibar'
p493
(lp494
S'Tanzania'
p495
as.