(dp1
S'Getapnya'
p2
(lp3
S'Armenia'
p4
asS'Getk'
p5
(lp6
S'Armenia'
p7
asS'G\xc3\xb6ppingen'
p8
(lp9
S'Germany'
p10
asS'Gaziantep'
p11
(lp12
S'Turkey'
p13
asS'Gransee'
p14
(lp15
S'Germany'
p16
asS'Gramsh'
p17
(lp18
S'Albania'
p19
asS'Ghursal'
p20
(lp21
S'Armenia'
p22
asS'Gadag-Betgeri'
p23
(lp24
S'India'
p25
asS'G\xc3\xbcnzburg'
p26
(lp27
S'Germany'
p28
asS'Garni'
p29
(lp30
S'Armenia'
p31
asS'Gorno-Altaysk'
p32
(lp33
S'Russia'
p34
asS'Golssen'
p35
(lp36
S'Germany'
p37
asS'Gornozavodsk'
p38
(lp39
S'Russia'
p40
asS'Geghashen'
p41
(lp42
S'Armenia'
p43
asS'Goygol'
p44
(lp45
S'Azerbaijan'
p46
asS'Garding'
p47
(lp48
S'Germany'
p49
asS'Gr\xc3\xb6ningen'
p50
(lp51
S'Germany'
p52
asS'Genova'
p53
(lp54
S'Italy'
p55
asS'Greve Stranda'
p56
(lp57
S'Denmark'
p58
asS'Grossbottwar'
p59
(lp60
S'Germany'
p61
asS'Gornji Vakuf'
p62
(lp63
S'Bosna'
p64
asS'Guryevsk'
p65
(lp66
S'Russia'
p67
aS'Russia'
p68
asS'Gnishik'
p69
(lp70
S'Armenia'
p71
asS'Gaocheng'
p72
(lp73
S'China'
p74
asS'Gross-Umstadt'
p75
(lp76
S'Germany'
p77
asS'Gy\xf6ngy\xf6s'
p78
(lp79
S'Hungary'
p80
asS'Ghzljugh'
p81
(lp82
S'Armenia'
p83
asS'Gtashen'
p84
(lp85
S'Armenia'
p86
asS'Guangzhou'
p87
(lp88
S'China'
p89
asS'Ghimbav'
p90
(lp91
S'Romania'
p92
asS'Gospi\xc4\x87'
p93
(lp94
S'Croatia'
p95
asS'Geroskipou'
p96
(lp97
S'Cyprus'
p98
asS'Grenoble'
p99
(lp100
S'France'
p101
aS'France'
p102
asS'Gherla'
p103
(lp104
S'Romania'
p105
asS'Gardelegen'
p106
(lp107
S'Germany'
p108
asS'Golitsyno'
p109
(lp110
S'Russia'
p111
asS'Grigoriopol'
p112
(lp113
S'Moldova'
p114
asS'Gangneung'
p115
(lp116
S'South Korea'
p117
asS'Gubkin'
p118
(lp119
S'Russia'
p120
asS'Gheorgheni'
p121
(lp122
S'Romania'
p123
asS'Gorakhpur'
p124
(lp125
S'India'
p126
asS'Gyulagarak'
p127
(lp128
S'Armenia'
p129
asS'Glash\xc3\xbctte'
p130
(lp131
S'Germany'
p132
asS'Grabow'
p133
(lp134
S'Germany'
p135
asS'Gondar'
p136
(lp137
S'Ethiopia'
p138
asS'Goghovit'
p139
(lp140
S'Armenia'
p141
asS'G\xf6d'
p142
(lp143
S'Hungary'
p144
asS'Ganja'
p145
(lp146
S'Azerbaijan'
p147
asS'Greding'
p148
(lp149
S'Germany'
p150
asS'Gr\xc3\xbcnsfeld'
p151
(lp152
S'Germany'
p153
asS'Gori\xe8ani'
p154
(lp155
S'Montenegro'
p156
asS'Getafe'
p157
(lp158
S'Spain'
p159
asS'Gomk'
p160
(lp161
S'Armenia'
p162
asS'Getamej'
p163
(lp164
S'Armenia'
p165
asS'Gistel'
p166
(lp167
S'Belgium'
p168
asS'Glazov'
p169
(lp170
S'Russia'
p171
asS'Geiselh\xc3\xb6ring'
p172
(lp173
S'Germany'
p174
asS'Galway'
p175
(lp176
S'Ireland'
p177
asS'Gy\xe1l'
p178
(lp179
S'Hungary'
p180
asS'Guatemala city'
p181
(lp182
S'Guatemala'
p183
asS'Garges-les-Gonesse'
p184
(lp185
S'France'
p186
asS'Gehrden'
p187
(lp188
S'Germany'
p189
asS'Goldkronach'
p190
(lp191
S'Germany'
p192
asS'Genoa'
p193
(lp194
S'Italy'
p195
asS'Galabovo'
p196
(lp197
S'Bulgaria'
p198
asS'Gala\xfei'
p199
(lp200
S'Romania'
p201
asS'Gryazovets'
p202
(lp203
S'Russia'
p204
asS'Gora\xc5\xbede'
p205
(lp206
S'Bosna'
p207
asS'Geghasar'
p208
(lp209
S'Armenia'
p210
asS'Gelgaudi\x9akis'
p211
(lp212
S'Lithuania'
p213
asS'Goussainville'
p214
(lp215
S'France'
p216
asS'G\xc3\xbcstrow'
p217
(lp218
S'Germany'
p219
asS'Gjirokast\xc3\xabr'
p220
(lp221
S'Albania'
p222
asS'Gatchina'
p223
(lp224
S'Russia'
p225
asS'Galata'
p226
(lp227
S'Cyprus'
p228
asS'Grigny'
p229
(lp230
S'France'
p231
asS'Glasgow'
p232
(lp233
S'United Kingdom'
p234
asS'Gorayk'
p235
(lp236
S'Armenia'
p237
asS'Gr\xc3\xbcnhain-Beierfeld'
p238
(lp239
S'Germany'
p240
asS'Getatagh'
p241
(lp242
S'Armenia'
p243
asS'Galich'
p244
(lp245
S'Russia'
p246
asS'Germiston'
p247
(lp248
S'South Africa'
p249
asS'Gori'
p250
(lp251
S'Georgia'
p252
asS'Gegharkunik'
p253
(lp254
S'Armenia'
p255
asS'Gulbene'
p256
(lp257
S'Latvia'
p258
asS'Goranboy'
p259
(lp260
S'Azerbaijan'
p261
asS'G\xc3\xbcsten'
p262
(lp263
S'Germany'
p264
asS'Giugliano in Campania'
p265
(lp266
S'Italy'
p267
asS'Grayvoron'
p268
(lp269
S'Russia'
p270
asS'Genthin'
p271
(lp272
S'Germany'
p273
asS'Gugark'
p274
(lp275
S'Armenia'
p276
asS'Grafing bei M\xc3\xbcnchen'
p277
(lp278
S'Germany'
p279
asS'Giurgiu'
p280
(lp281
S'Romania'
p282
asS'Gorbatov'
p283
(lp284
S'Russia'
p285
asS'G\xe1rdony'
p286
(lp287
S'Hungary'
p288
asS'Gornyak'
p289
(lp290
S'Russia'
p291
asS'Gladbeck'
p292
(lp293
S'Germany'
p294
asS'Gem\xc3\xbcnden'
p295
(lp296
S'Germany'
p297
asS'Ghukasavan'
p298
(lp299
S'Armenia'
p300
asS'Gorodovikovsk'
p301
(lp302
S'Russia'
p303
asS'Geldern'
p304
(lp305
S'Germany'
p306
asS'Genhe'
p307
(lp308
S'China'
p309
asS'Glyfada'
p310
(lp311
S'Greece'
p312
asS'Gagarin'
p313
(lp314
S'Russia'
p315
asS'Gudermes'
p316
(lp317
S'Russia'
p318
asS'Germersheim'
p319
(lp320
S'Germany'
p321
asS'Gurkovo'
p322
(lp323
S'Bulgaria'
p324
asS'Gar?ur'
p325
(lp326
S'Iceland'
p327
asS'Gardabani'
p328
(lp329
S'Georgia'
p330
asS'Gliwice'
p331
(lp332
S'Poland'
p333
asS'Gernsbach'
p334
(lp335
S'Germany'
p336
asS'Gorodets'
p337
(lp338
S'Russia'
p339
asS'Gelendzhik'
p340
(lp341
S'Russia'
p342
asS'Gabrovo'
p343
(lp344
S'Bulgaria'
p345
asS'Geraardsbergen'
p346
(lp347
S'Belgium'
p348
asS'Gladsaxea'
p349
(lp350
S'Denmark'
p351
asS'Grossschirma'
p352
(lp353
S'Germany'
p354
asS'Gr\xc3\xb6bzig'
p355
(lp356
S'Germany'
p357
asS'Gandhinagar'
p358
(lp359
S'India'
p360
asS'Galatsi'
p361
(lp362
S'Greece'
p363
asS'Gar?abar'
p364
(lp365
S'Iceland'
p366
asS'Goslar'
p367
(lp368
S'Germany'
p369
asS'Gy\xf6nk'
p370
(lp371
S'Hungary'
p372
asS'Guilin'
p373
(lp374
S'China'
p375
asS'Guadalajara'
p376
(lp377
S'Mexico'
p378
asS'Gyomaendr\xf5d'
p379
(lp380
S'Hungary'
p381
asS'Gardanne'
p382
(lp383
S'France'
p384
asS'Grossbreitenbach'
p385
(lp386
S'Germany'
p387
asS'Geghamabak'
p388
(lp389
S'Armenia'
p390
asS'Gunzenhausen'
p391
(lp392
S'Germany'
p393
asS'G\xf6nc'
p394
(lp395
S'Hungary'
p396
asS'Gau-Algesheim'
p397
(lp398
S'Germany'
p399
asS'Glinde'
p400
(lp401
S'Germany'
p402
asS'Gusanagyugh'
p403
(lp404
S'Armenia'
p405
asS'Gongzhuling'
p406
(lp407
S'China'
p408
asS'Grafenw\xc3\xb6hr'
p409
(lp410
S'Germany'
p411
asS'Grossr\xc3\xb6hrsdorf'
p412
(lp413
S'Germany'
p414
asS'Grimstad'
p415
(lp416
S'Norway'
p417
asS"Guang'an"
p418
(lp419
S'China'
p420
asS'Gr\xc3\xa4fenhainichen'
p421
(lp422
S'Germany'
p423
asS'Grundarfj\xf6r?ur'
p424
(lp425
S'Iceland'
p426
asS'Guigang'
p427
(lp428
S'China'
p429
asS'Gotse Delchev'
p430
(lp431
S'Bulgaria'
p432
asS'Goghtanik'
p433
(lp434
S'Armenia'
p435
asS'Gjovik'
p436
(lp437
S'Norway'
p438
asS'Gilbert'
p439
(lp440
S'United States'
p441
aS'United States'
p442
asS'Getik'
p443
(lp444
S'Armenia'
p445
asS'Gaozhou'
p446
(lp447
S'China'
p448
asS'Garden Grove'
p449
(lp450
S'United States'
p451
aS'United States'
p452
asS'Geghamasar'
p453
(lp454
S'Armenia'
p455
asS'Gorna Oryahovitsa'
p456
(lp457
S'Bulgaria'
p458
asS'Geisingen'
p459
(lp460
S'Germany'
p461
asS'Gent'
p462
(lp463
S'Belgium'
p464
asS'Gongyi'
p465
(lp466
S'China'
p467
asS'Geghadzor'
p468
(lp469
S'Armenia'
p470
asS'Genk'
p471
(lp472
S'Belgium'
p473
asS'Gimcheon'
p474
(lp475
S'South Korea'
p476
asS'Geringswalde'
p477
(lp478
S'Germany'
p479
asS'Gagny'
p480
(lp481
S'France'
p482
asS'Geoje'
p483
(lp484
S'South Korea'
p485
asS'Ghazanchi'
p486
(lp487
S'Armenia'
p488
asS'Gogaran'
p489
(lp490
S'Armenia'
p491
asS'Gengenbach'
p492
(lp493
S'Germany'
p494
asS'Gyullibulagh'
p495
(lp496
S'Armenia'
p497
asS'Gaobeidian'
p498
(lp499
S'China'
p500
asS'Gerlingen'
p501
(lp502
S'Germany'
p503
asS'Geri'
p504
(lp505
S'Cyprus'
p506
asS'Gerolstein'
p507
(lp508
S'Germany'
p509
asS'Gif-sur-Yvette'
p510
(lp511
S'France'
p512
asS'Geghadir'
p513
(lp514
S'Armenia'
p515
asS'Grubi\xc5\xa1no Polje'
p516
(lp517
S'Croatia'
p518
asS'Giannitsa'
p519
(lp520
S'Greece'
p521
asS'Gerakas'
p522
(lp523
S'Greece'
p524
asS'G\xc3\xbcglingen'
p525
(lp526
S'Germany'
p527
asS'Gross-Gerau'
p528
(lp529
S'Germany'
p530
asS'Grand Rapids'
p531
(lp532
S'United States'
p533
aS'United States'
p534
asS'Georgiyevsk'
p535
(lp536
S'Russia'
p537
asS'G\xc3\xb6ttingen'
p538
(lp539
S'Germany'
p540
asS'Guayaquil'
p541
(lp542
S'Ecuador'
p543
asS'Gwangju'
p544
(lp545
S'South Korea'
p546
asS'Geoagiu'
p547
(lp548
S'Romania'
p549
asS'Gusev'
p550
(lp551
S'Russia'
p552
asS'Gvardeysk'
p553
(lp554
S'Russia'
p555
asS'Goldberg'
p556
(lp557
S'Germany'
p558
asS'Giolou'
p559
(lp560
S'Cyprus'
p561
asS'Geesthacht'
p562
(lp563
S'Germany'
p564
asS'Geelong'
p565
(lp566
S'Australia'
p567
asS'Getazat'
p568
(lp569
S'Armenia'
p570
asS'Godech'
p571
(lp572
S'Bulgaria'
p573
asS'Grobina'
p574
(lp575
S'Latvia'
p576
asS'Gersfeld'
p577
(lp578
S'Germany'
p579
asS'Glavinitsa'
p580
(lp581
S'Bulgaria'
p582
asS'Gombe'
p583
(lp584
S'Nigeria'
p585
asS'Groznyi'
p586
(lp587
S'Russia'
p588
asS'Gy\xf5r'
p589
(lp590
S'Hungary'
p591
asS'Gevelsberg'
p592
(lp593
S'Germany'
p594
asS'Grada\xc4\x8dac'
p595
(lp596
S'Bosna'
p597
asS'Guyancourt'
p598
(lp599
S'France'
p600
asS'Gem\xc3\xbcnden am Main'
p601
(lp602
S'Germany'
p603
asS'Gargar'
p604
(lp605
S'Armenia'
p606
asS'Gammertingen'
p607
(lp608
S'Germany'
p609
asS'George Town'
p610
(lp611
S'Malaysia'
p612
asS'G\xc3\xb6ssnitz'
p613
(lp614
S'Germany'
p615
asS'Geseke'
p616
(lp617
S'Germany'
p618
asS'Gazanabutsakan p.t.k.'
p619
(lp620
S'Armenia'
p621
asS'Garching bei M\xc3\xbcnchen'
p622
(lp623
S'Germany'
p624
asS'Gyalto'
p625
(lp626
S'Armenia'
p627
asS'Guarenas'
p628
(lp629
S'Venezuela'
p630
asS'Gosh'
p631
(lp632
S'Armenia'
p633
asS'Gold Coast-Tweed'
p634
(lp635
S'Australia'
p636
asS'Gorontalo'
p637
(lp638
S'Indonesia'
p639
asS'Garnarich'
p640
(lp641
S'Armenia'
p642
asS'Geilenkirchen'
p643
(lp644
S'Germany'
p645
asS'Gl\xc3\xbcckstadt'
p646
(lp647
S'Germany'
p648
asS'Gladzor'
p649
(lp650
S'Armenia'
p651
asS'Geghanist'
p652
(lp653
S'Armenia'
p654
asS'Gembloux'
p655
(lp656
S'Belgium'
p657
asS'Gradac'
p658
(lp659
S'Montenegro'
p660
asS'Gurgaon'
p661
(lp662
S'India'
p663
asS'Grossr\xc3\xa4schen'
p664
(lp665
S'Germany'
p666
asS'Giengen an der Brenz'
p667
(lp668
S'Germany'
p669
asS'Gentoftea'
p670
(lp671
S'Denmark'
p672
asS'Gostivar'
p673
(lp674
S'Macedonia'
p675
asS'Grossalmerode'
p676
(lp677
S'Germany'
p678
asS'Gevgelija'
p679
(lp680
S'Macedonia'
p681
asS'Gulkevichi'
p682
(lp683
S'Russia'
p684
asS'Gelsenkirchen'
p685
(lp686
S'Germany'
p687
asS'Gr\xc3\xa4fenberg'
p688
(lp689
S'Germany'
p690
asS'Guwahati'
p691
(lp692
S'India'
p693
asS'Gommern'
p694
(lp695
S'Germany'
p696
asS'Gharibjanyan'
p697
(lp698
S'Armenia'
p699
asS'Gonesse'
p700
(lp701
S'France'
p702
asS'Gallarate'
p703
(lp704
S'Italy'
p705
asS'Gummersbach'
p706
(lp707
S'Germany'
p708
asS'Grossenhain'
p709
(lp710
S'Germany'
p711
asS'Gaggenau'
p712
(lp713
S'Germany'
p714
asS'G\xc3\xbctzkow'
p715
(lp716
S'Germany'
p717
asS'Gerakies'
p718
(lp719
S'Cyprus'
p720
asS'Gaomi'
p721
(lp722
S'China'
p723
asS'Greussen'
p724
(lp725
S'Germany'
p726
asS'Gy\xf6mr\xf5'
p727
(lp728
S'Hungary'
p729
asS'Gandzak'
p730
(lp731
S'Armenia'
p732
asS'Gwalior'
p733
(lp734
S'India'
p735
asS'Griboyedov'
p736
(lp737
S'Armenia'
p738
asS'Getap'
p739
(lp740
S'Armenia'
p741
asS'Glodzhevo'
p742
(lp743
S'Bulgaria'
p744
asS'Gaizhou'
p745
(lp746
S'China'
p747
asS'G\xc3\xb6rlitz'
p748
(lp749
S'Germany'
p750
asS'Goryachy Klyuch'
p751
(lp752
S'Russia'
p753
asS'Gyumri'
p754
(lp755
S'Armenia'
p756
asS'Gujranwala'
p757
(lp758
S'Pakistan'
p759
asS'Ghazaravan'
p760
(lp761
S'Armenia'
p762
asS'Gaildorf'
p763
(lp764
S'Germany'
p765
asS'Gundelfingen an der Donau'
p766
(lp767
S'Germany'
p768
asS'Gorokhovets'
p769
(lp770
S'Russia'
p771
asS'Gr\xc3\xbcnstadt'
p772
(lp773
S'Germany'
p774
asS'Gubkinsky'
p775
(lp776
S'Russia'
p777
asS'Grigi\x9akes'
p778
(lp779
S'Lithuania'
p780
asS'Gr\xc3\xbcnberg'
p781
(lp782
S'Germany'
p783
asS'Goravan'
p784
(lp785
S'Armenia'
p786
asS'Ghaziabad'
p787
(lp788
S'India'
p789
asS'Getashen'
p790
(lp791
S'Armenia'
p792
asS'Gryazi'
p793
(lp794
S'Russia'
p795
asS'Geghanush'
p796
(lp797
S'Armenia'
p798
asS'Gl\xc3\xbccksburg'
p799
(lp800
S'Germany'
p801
asS'Gadzhiyevo'
p802
(lp803
S'Russia'
p804
asS'Getahovit'
p805
(lp806
S'Armenia'
p807
asS'Gyula'
p808
(lp809
S'Hungary'
p810
asS'Geislingen an der Steige'
p811
(lp812
S'Germany'
p813
asS'Gavrilov Posad'
p814
(lp815
S'Russia'
p816
asS'Glodeni'
p817
(lp818
S'Moldova'
p819
asS'Garg\x9edai'
p820
(lp821
S'Lithuania'
p822
asS'Goyang'
p823
(lp824
S'South Korea'
p825
asS'Gialousa'
p826
(lp827
S'Cyprus'
p828
asS'Gadebusch'
p829
(lp830
S'Germany'
p831
asS'Gaoan'
p832
(lp833
S'China'
p834
asS'G\xe3e\xbati'
p835
(lp836
S'Romania'
p837
asS'Grindav\xedk'
p838
(lp839
S'Iceland'
p840
asS'Guidonia Montecelio'
p841
(lp842
S'Italy'
p843
asS'Garnahovit'
p844
(lp845
S'Armenia'
p846
asS'Glendale'
p847
(lp848
S'United States'
p849
aS'United States'
p850
aS'United States'
p851
asS'Genappe'
p852
(lp853
S'Belgium'
p854
asS'Gramada'
p855
(lp856
S'Bulgaria'
p857
asS'Guiping'
p858
(lp859
S'China'
p860
asS'Gresham'
p861
(lp862
S'United States'
p863
asS'Gerolzhofen'
p864
(lp865
S'Germany'
p866
asS'Geghamavan'
p867
(lp868
S'Armenia'
p869
asS'Gradignan'
p870
(lp871
S'France'
p872
asS'Gr\xc3\xb6ditz'
p873
(lp874
S'Germany'
p875
asS'Gulyantsi'
p876
(lp877
S'Bulgaria'
p878
asS'Goris'
p879
(lp880
S'Armenia'
p881
asS'Grosseto'
p882
(lp883
S'Italy'
p884
asS'Geghi'
p885
(lp886
S'Armenia'
p887
asS'Guiyang'
p888
(lp889
S'China'
p890
asS'Gyeongsan'
p891
(lp892
S'South Korea'
p893
asS'Gurjaani'
p894
(lp895
S'Georgia'
p896
asS'Gadabay'
p897
(lp898
S'Azerbaijan'
p899
asS'Gay'
p900
(lp901
S'Armenia'
p902
aS'Russia'
p903
asS'Grozny'
p904
(lp905
S'Russia'
p906
asS'Grand Prairie'
p907
(lp908
S'United States'
p909
aS'United States'
p910
asS'Gap'
p911
(lp912
S'France'
p913
asS'Gronau'
p914
(lp915
S'Germany'
p916
aS'Germany'
p917
asS'Guangshui'
p918
(lp919
S'China'
p920
asS'Guangyuan'
p921
(lp922
S'China'
p923
asS'Gudemnis'
p924
(lp925
S'Armenia'
p926
asS'G\xc3\xbcntersberge'
p927
(lp928
S'Germany'
p929
asS'Grevenbroich'
p930
(lp931
S'Germany'
p932
asS'Guarapuava'
p933
(lp934
S'Brazil'
p935
asS'Gotzis'
p936
(lp937
S'Austria'
p938
asS'Ghabaghtapa'
p939
(lp940
S'Armenia'
p941
asS'Gifhorn'
p942
(lp943
S'Germany'
p944
asS'Gdov'
p945
(lp946
S'Russia'
p947
asS'Ganganagar'
p948
(lp949
S'India'
p950
asS'Gerabronn'
p951
(lp952
S'Germany'
p953
asS'Gainesville'
p954
(lp955
S'United States'
p956
asS'Guanghan'
p957
(lp958
S'China'
p959
asS'Gra\xc4\x8danica'
p960
(lp961
S'Bosna'
p962
asS'Guarulhos'
p963
(lp964
S'Brazil'
p965
asS'Geghhovit'
p966
(lp967
S'Armenia'
p968
asS'Glina'
p969
(lp970
S'Croatia'
p971
asS'Gaoyou'
p972
(lp973
S'China'
p974
asS'G\xf6d\xf6ll\xf5'
p975
(lp976
S'Hungary'
p977
asS'Gndevaz'
p978
(lp979
S'Armenia'
p980
asS'Gerbstedt'
p981
(lp982
S'Germany'
p983
asS'Gernrode'
p984
(lp985
S'Germany'
p986
asS'Grossenehrich'
p987
(lp988
S'Germany'
p989
asS'Geel'
p990
(lp991
S'Belgium'
p992
asS'Graz'
p993
(lp994
S'Austria'
p995
asS'Gela'
p996
(lp997
S'Italy'
p998
asS'Gare\xc5\xa1nica'
p999
(lp1000
S'Croatia'
p1001
asS'Gr\xc3\xa4fenthal'
p1002
(lp1003
S'Germany'
p1004
asS'Gennevilliers'
p1005
(lp1006
S'France'
p1007
asS'Gerolakkos'
p1008
(lp1009
S'Cyprus'
p1010
asS'Gorodishche'
p1011
(lp1012
S'Russia'
p1013
asS'Grasse'
p1014
(lp1015
S'France'
p1016
asS'Gandzakar'
p1017
(lp1018
S'Armenia'
p1019
asS'Grande-Synthe'
p1020
(lp1021
S'France'
p1022
asS'Gavrilov-Yam'
p1023
(lp1024
S'Russia'
p1025
asS'Goransko'
p1026
(lp1027
S'Montenegro'
p1028
asS'Ghinde\xbati'
p1029
(lp1030
S'Moldova'
p1031
asS'Greifswald'
p1032
(lp1033
S'Germany'
p1034
asS'General Toshevo'
p1035
(lp1036
S'Bulgaria'
p1037
asS'Geghakar'
p1038
(lp1039
S'Armenia'
p1040
asS'Garbsen'
p1041
(lp1042
S'Germany'
p1043
asS'Glostrupa'
p1044
(lp1045
S'Denmark'
p1046
asS'G\xe3taia'
p1047
(lp1048
S'Romania'
p1049
asS'Gaoyao'
p1050
(lp1051
S'China'
p1052
asS'Gubakha'
p1053
(lp1054
S'Russia'
p1055
asS'Gmunden'
p1056
(lp1057
S'Austria'
p1058
asS'Green Bay'
p1059
(lp1060
S'United States'
p1061
asS'Gross-Bieberau'
p1062
(lp1063
S'Germany'
p1064
asS'Gundelsheim'
p1065
(lp1066
S'Germany'
p1067
asS'Garliava'
p1068
(lp1069
S'Lithuania'
p1070
asS'Greensboro'
p1071
(lp1072
S'United States'
p1073
aS'United States'
p1074
asS'Geislingen'
p1075
(lp1076
S'Germany'
p1077
asS'Gujiao'
p1078
(lp1079
S'China'
p1080
asS'Gusinoozersk'
p1081
(lp1082
S'Russia'
p1083
asS'Gura Humorului'
p1084
(lp1085
S'Romania'
p1086
asS'Gusinje'
p1087
(lp1088
S'Montenegro'
p1089
asS'Garz/R\xc3\xbcgen'
p1090
(lp1091
S'Germany'
p1092
asS'Georgsmarienh\xc3\xbctte'
p1093
(lp1094
S'Germany'
p1095
asS'Groningen'
p1096
(lp1097
S'Netherlands'
p1098
aS'Netherlands'
p1099
asS'Guixi'
p1100
(lp1101
S'China'
p1102
asS'Greater Hobart'
p1103
(lp1104
S'Australia'
p1105
asS'Goch'
p1106
(lp1107
S'Germany'
p1108
asS'Greven'
p1109
(lp1110
S'Germany'
p1111
asS'Gus-Khrustalny'
p1112
(lp1113
S'Russia'
p1114
asS'Garland'
p1115
(lp1116
S'United States'
p1117
aS'United States'
p1118
asS'Gnoien'
p1119
(lp1120
S'Germany'
p1121
asS'Gremyachinsk'
p1122
(lp1123
S'Russia'
p1124
asS'Ghent'
p1125
(lp1126
S'Belgium'
p1127
asS'Gukovo'
p1128
(lp1129
S'Russia'
p1130
asS'Geghard'
p1131
(lp1132
S'Armenia'
p1133
asS'Grimmen'
p1134
(lp1135
S'Germany'
p1136
asS'Giza'
p1137
(lp1138
S'Egypt'
p1139
asS'Golubovci'
p1140
(lp1141
S'Montenegro'
p1142
asS'Grevesm\xc3\xbchlen'
p1143
(lp1144
S'Germany'
p1145
asS'Gescher'
p1146
(lp1147
S'Germany'
p1148
asS'Gegharot'
p1149
(lp1150
S'Armenia'
p1151
asS'Gavar'
p1152
(lp1153
S'Armenia'
p1154
asS'Goght'
p1155
(lp1156
S'Armenia'
p1157
asS'Goychay'
p1158
(lp1159
S'Azerbaijan'
p1160
asS'G\xc3\xbctersloh'
p1161
(lp1162
S'Germany'
p1163
as.