(dp1
S'Xylofagou'
p2
(lp3
S'Cyprus'
p4
asS'Xuancheng'
p5
(lp6
S'China'
p7
asS'Xiangxiang'
p8
(lp9
S'China'
p10
asS'Xinji'
p11
(lp12
S'China'
p13
asS'Xishan'
p14
(lp15
S'China'
p16
asS'Xingyi'
p17
(lp18
S'China'
p19
asS'Xingtai'
p20
(lp21
S'China'
p22
asS'Xingping'
p23
(lp24
S'China'
p25
asS'Xeros'
p26
(lp27
S'Cyprus'
p28
asS'Xiantao'
p29
(lp30
S'China'
p31
asS"Xi'ning"
p32
(lp33
S'China'
p34
asS'Xinyu'
p35
(lp36
S'China'
p37
asS"Xi'an"
p38
(lp39
S'China'
p40
asS'Xintai'
p41
(lp42
S'China'
p43
asS'Xanthi'
p44
(lp45
S'Greece'
p46
asS'Xiaoshan'
p47
(lp48
S'China'
p49
asS'Xiaogan'
p50
(lp51
S'China'
p52
asS'Xianyang'
p53
(lp54
S'China'
p55
asS'Xylotymbou'
p56
(lp57
S'Cyprus'
p58
asS'Xingcheng'
p59
(lp60
S'China'
p61
asS'Xuzhou'
p62
(lp63
S'China'
p64
asS'Xinghua'
p65
(lp66
S'China'
p67
asS'Xiamen'
p68
(lp69
S'China'
p70
asS'Xinyi'
p71
(lp72
S'China'
p73
asS'Xinmin'
p74
(lp75
S'China'
p76
asS'Xichang'
p77
(lp78
S'China'
p79
asS'Xiangfan'
p80
(lp81
S'China'
p82
asS'Xinxiang'
p83
(lp84
S'China'
p85
asS'Xuanwei'
p86
(lp87
S'China'
p88
asS'Xinzheng'
p89
(lp90
S'China'
p91
asS'Xianning'
p92
(lp93
S'China'
p94
asS'Xanten'
p95
(lp96
S'Germany'
p97
asS"Xilin'haote"
p98
(lp99
S'China'
p100
asS'Xiangcheng'
p101
(lp102
S'China'
p103
asS'Xinhui'
p104
(lp105
S'China'
p106
asS'Xiangtan'
p107
(lp108
S'China'
p109
asS'Xinmi'
p110
(lp111
S'China'
p112
asS'Xingning'
p113
(lp114
S'China'
p115
asS'Xinyang'
p116
(lp117
S'China'
p118
asS'Xingyang'
p119
(lp120
S'China'
p121
as.